[0m
[[0;33m*[0m] Function [0;33msprintf[0m tear down of [0;33mhttpd[0m

  405130:	8f9980dc 	lw	t9,-32548(gp)
  405134:	0320f809 	jalr	t9
  405138:	24a50bf0 	addiu	a1,a1,3056
  40513c:	8fbc0010 	lw	gp,16(sp)
  405140:	144000c6 	bnez	v0,40545c <AspInitial@@Base+0x14f4>
  405144:	00001021 	move	v0,zero
  405148:	afa0001c 	sw	zero,28(sp)
  40514c:	afa00020 	sw	zero,32(sp)
  405150:	3c020041 	lui	v0,0x41
  405154:	90422090 	lbu	v0,8336(v0)
  405158:	a3a20024 	sb	v0,36(sp)
  40515c:	27a40025 	addiu	a0,sp,37
  405160:	00002821 	move	a1,zero
  405164:	8f998104 	lw	t9,-32508(gp)
  405168:	0320f809 	jalr	t9
  40516c:	2406000f 	li	a2,15
  405170:	8fbc0010 	lw	gp,16(sp)
  405174:	a3a00018 	sb	zero,24(sp)
  405178:	8f9981e4 	lw	t9,-32284(gp)
  40517c:	0320f809 	jalr	t9
  405180:	27a40018 	addiu	a0,sp,24
  405184:	8fbc0010 	lw	gp,16(sp)
  405188:	27a40024 	addiu	a0,sp,36
  40518c:	3c050041 	lui	a1,0x41
  405190:	93a60018 	lbu	a2,24(sp)
[31m  405194:	8f9980cc 	lw	t9,sprintf[0m
  405198:	0320f809 	jalr	t9
  40519c:	24a50f14 	addiu	a1,a1,3860
--
  4060d0:	279ca840 	addiu	gp,gp,-22464
  4060d4:	afbc0010 	sw	gp,16(sp)
  4060d8:	00a09021 	move	s2,a1
  4060dc:	a3a00018 	sb	zero,24(sp)
  4060e0:	3c020041 	lui	v0,0x41
  4060e4:	90422090 	lbu	v0,8336(v0)
  4060e8:	a3a2001c 	sb	v0,28(sp)
  4060ec:	27a4001d 	addiu	a0,sp,29
  4060f0:	00002821 	move	a1,zero
  4060f4:	8f998104 	lw	t9,-32508(gp)
  4060f8:	0320f809 	jalr	t9
  4060fc:	240600ff 	li	a2,255
  406100:	8fbc0010 	lw	gp,16(sp)
  406104:	00008021 	move	s0,zero
  406108:	27b1001c 	addiu	s1,sp,28
  40610c:	3c130041 	lui	s3,0x41
  406110:	26730e68 	addiu	s3,s3,3688
  406114:	3c140041 	lui	s4,0x41
  406118:	26940e78 	addiu	s4,s4,3704
  40611c:	27b70018 	addiu	s7,sp,24
  406120:	3c150041 	lui	s5,0x41
  406124:	26b50e84 	addiu	s5,s5,3716
  406128:	2416000a 	li	s6,10
  40612c:	02202021 	move	a0,s1
  406130:	02602821 	move	a1,s3
[31m  406134:	8f9980cc 	lw	t9,sprintf[0m
  406138:	0320f809 	jalr	t9
  40613c:	02003021 	move	a2,s0
--
  4061e8:	afbc0010 	sw	gp,16(sp)
  4061ec:	00a0b821 	move	s7,a1
  4061f0:	a3a00018 	sb	zero,24(sp)
  4061f4:	3c020041 	lui	v0,0x41
  4061f8:	90422090 	lbu	v0,8336(v0)
  4061fc:	a3a2001c 	sb	v0,28(sp)
  406200:	27a4001d 	addiu	a0,sp,29
  406204:	00002821 	move	a1,zero
  406208:	8f998104 	lw	t9,-32508(gp)
  40620c:	0320f809 	jalr	t9
  406210:	240600ff 	li	a2,255
  406214:	8fbc0010 	lw	gp,16(sp)
  406218:	0000b021 	move	s6,zero
  40621c:	00008021 	move	s0,zero
  406220:	27b1001c 	addiu	s1,sp,28
  406224:	3c120041 	lui	s2,0x41
  406228:	26520e98 	addiu	s2,s2,3736
  40622c:	3c130041 	lui	s3,0x41
  406230:	26730e78 	addiu	s3,s3,3704
  406234:	27b50018 	addiu	s5,sp,24
  406238:	3c1e0041 	lui	s8,0x41
  40623c:	27de0ea8 	addiu	s8,s8,3752
  406240:	2414000a 	li	s4,10
  406244:	02202021 	move	a0,s1
  406248:	02402821 	move	a1,s2
[31m  40624c:	8f9980cc 	lw	t9,sprintf[0m
  406250:	0320f809 	jalr	t9
  406254:	02003021 	move	a2,s0
--
  406334:	240600ff 	li	a2,255
  406338:	8fbc0010 	lw	gp,16(sp)
  40633c:	3c040041 	lui	a0,0x41
  406340:	24840e78 	addiu	a0,a0,3704
  406344:	3c050041 	lui	a1,0x41
  406348:	24a50f00 	addiu	a1,a1,3840
  40634c:	8f99806c 	lw	t9,-32660(gp)
  406350:	0320f809 	jalr	t9
  406354:	27a60018 	addiu	a2,sp,24
  406358:	8fbc0010 	lw	gp,16(sp)
  40635c:	8fa20018 	lw	v0,24(sp)
  406360:	1840002b 	blez	v0,406410 <AspInitial@@Base+0x24a8>
  406364:	24100001 	li	s0,1
  406368:	27b10020 	addiu	s1,sp,32
  40636c:	3c130041 	lui	s3,0x41
  406370:	26730ebc 	addiu	s3,s3,3772
  406374:	27b5001c 	addiu	s5,sp,28
  406378:	3c140041 	lui	s4,0x41
  40637c:	26940ec8 	addiu	s4,s4,3784
  406380:	3c170041 	lui	s7,0x41
  406384:	26f70ee4 	addiu	s7,s7,3812
  406388:	3c160041 	lui	s6,0x41
  40638c:	26d60ed0 	addiu	s6,s6,3792
  406390:	02202021 	move	a0,s1
  406394:	02602821 	move	a1,s3
[31m  406398:	8f9980cc 	lw	t9,sprintf[0m
  40639c:	0320f809 	jalr	t9
  4063a0:	2606ffff 	addiu	a2,s0,-1
--
  4064ac:	8f998104 	lw	t9,-32508(gp)
  4064b0:	0320f809 	jalr	t9
  4064b4:	240600ff 	li	a2,255
  4064b8:	8fbc0010 	lw	gp,16(sp)
  4064bc:	3c040041 	lui	a0,0x41
  4064c0:	24840e78 	addiu	a0,a0,3704
  4064c4:	3c050041 	lui	a1,0x41
  4064c8:	24a50ef8 	addiu	a1,a1,3832
  4064cc:	8f99806c 	lw	t9,-32660(gp)
  4064d0:	0320f809 	jalr	t9
  4064d4:	27a60018 	addiu	a2,sp,24
  4064d8:	8fbc0010 	lw	gp,16(sp)
  4064dc:	8fa20018 	lw	v0,24(sp)
  4064e0:	18400027 	blez	v0,406580 <AspInitial@@Base+0x2618>
  4064e4:	00008021 	move	s0,zero
  4064e8:	27b2011c 	addiu	s2,sp,284
  4064ec:	3c140041 	lui	s4,0x41
  4064f0:	26940f08 	addiu	s4,s4,3848
  4064f4:	27b1001c 	addiu	s1,sp,28
  4064f8:	3c150041 	lui	s5,0x41
  4064fc:	26b50e78 	addiu	s5,s5,3704
  406500:	3c160041 	lui	s6,0x41
  406504:	26d60f18 	addiu	s6,s6,3864
  406508:	02402021 	move	a0,s2
  40650c:	02802821 	move	a1,s4
[31m  406510:	8f9980cc 	lw	t9,sprintf[0m
  406514:	0320f809 	jalr	t9
  406518:	02003021 	move	a2,s0
--
  406608:	240600ff 	li	a2,255
  40660c:	8fbc0010 	lw	gp,16(sp)
  406610:	3c040041 	lui	a0,0x41
  406614:	24840ec8 	addiu	a0,a0,3784
  406618:	3c050041 	lui	a1,0x41
  40661c:	24a50f00 	addiu	a1,a1,3840
  406620:	8f99806c 	lw	t9,-32660(gp)
  406624:	0320f809 	jalr	t9
  406628:	27a60018 	addiu	a2,sp,24
  40662c:	8fbc0010 	lw	gp,16(sp)
  406630:	8fa20018 	lw	v0,24(sp)
  406634:	1840002b 	blez	v0,4066e4 <AspInitial@@Base+0x277c>
  406638:	24100001 	li	s0,1
  40663c:	27b10020 	addiu	s1,sp,32
  406640:	3c130041 	lui	s3,0x41
  406644:	26730f30 	addiu	s3,s3,3888
  406648:	27b5001c 	addiu	s5,sp,28
  40664c:	3c140041 	lui	s4,0x41
  406650:	26940ec8 	addiu	s4,s4,3784
  406654:	3c170041 	lui	s7,0x41
  406658:	26f70f4c 	addiu	s7,s7,3916
  40665c:	3c160041 	lui	s6,0x41
  406660:	26d60f38 	addiu	s6,s6,3896
  406664:	02202021 	move	a0,s1
  406668:	02602821 	move	a1,s3
[31m  40666c:	8f9980cc 	lw	t9,sprintf[0m
  406670:	0320f809 	jalr	t9
  406674:	2606ffff 	addiu	a2,s0,-1
--
  40c2f4:	0320f809 	jalr	t9
  40c2f8:	240601ff 	li	a2,511
  40c2fc:	8fbc0010 	lw	gp,16(sp)
  40c300:	3c040041 	lui	a0,0x41
  40c304:	24841400 	addiu	a0,a0,5120
  40c308:	3c050041 	lui	a1,0x41
  40c30c:	24a50ef8 	addiu	a1,a1,3832
  40c310:	8f99806c 	lw	t9,-32660(gp)
  40c314:	0320f809 	jalr	t9
  40c318:	27a60018 	addiu	a2,sp,24
  40c31c:	8fbc0010 	lw	gp,16(sp)
  40c320:	8fa20018 	lw	v0,24(sp)
  40c324:	18400038 	blez	v0,40c408 <AspInitial@@Base+0x84a0>
  40c328:	00008021 	move	s0,zero
  40c32c:	27b3011c 	addiu	s3,sp,284
  40c330:	3c150041 	lui	s5,0x41
  40c334:	26b50f08 	addiu	s5,s5,3848
  40c338:	27b1001c 	addiu	s1,sp,28
  40c33c:	3c160041 	lui	s6,0x41
  40c340:	26d61400 	addiu	s6,s6,5120
  40c344:	27b2021c 	addiu	s2,sp,540
  40c348:	3c170041 	lui	s7,0x41
  40c34c:	26f71c08 	addiu	s7,s7,7176
  40c350:	02602021 	move	a0,s3
  40c354:	02a02821 	move	a1,s5
[31m  40c358:	8f9980cc 	lw	t9,sprintf[0m
  40c35c:	0320f809 	jalr	t9
  40c360:	02003021 	move	a2,s0
--
  40cb18:	8fbc0020 	lw	gp,32(sp)
  40cb1c:	00408821 	move	s1,v0
  40cb20:	8f998078 	lw	t9,strlen
  40cb24:	0320f809 	jalr	t9
  40cb28:	02c02021 	move	a0,s6
  40cb2c:	8fbc0020 	lw	gp,32(sp)
  40cb30:	02c02021 	move	a0,s6
  40cb34:	00402821 	move	a1,v0
  40cb38:	8f998214 	lw	t9,-32236(gp)
  40cb3c:	0320f809 	jalr	t9
  40cb40:	02a03021 	move	a2,s5
  40cb44:	8fbc0020 	lw	gp,32(sp)
  40cb48:	8e260014 	lw	a2,20(s1)
  40cb4c:	8e270010 	lw	a3,16(s1)
  40cb50:	8e22000c 	lw	v0,12(s1)
  40cb54:	afa20010 	sw	v0,16(sp)
  40cb58:	8e220008 	lw	v0,8(s1)
  40cb5c:	afa20014 	sw	v0,20(sp)
  40cb60:	8e220004 	lw	v0,4(s1)
  40cb64:	afa20018 	sw	v0,24(sp)
  40cb68:	8e220000 	lw	v0,0(s1)
  40cb6c:	afa2001c 	sw	v0,28(sp)
  40cb70:	02802021 	move	a0,s4
  40cb74:	03c02821 	move	a1,s8
  40cb78:	24c6076c 	addiu	a2,a2,1900
[31m  40cb7c:	8f9980cc 	lw	t9,sprintf[0m
  40cb80:	0320f809 	jalr	t9
  40cb84:	24e70001 	addiu	a3,a3,1
--
  40d264:	afb10040 	sw	s1,64(sp)
  40d268:	afb0003c 	sw	s0,60(sp)
  40d26c:	3c1c0043 	lui	gp,0x43
  40d270:	279ca840 	addiu	gp,gp,-22464
  40d274:	afbc0010 	sw	gp,16(sp)
  40d278:	00a09821 	move	s3,a1
  40d27c:	afa00018 	sw	zero,24(sp)
  40d280:	afa0001c 	sw	zero,28(sp)
  40d284:	3c020041 	lui	v0,0x41
  40d288:	90422090 	lbu	v0,8336(v0)
  40d28c:	a3a20020 	sb	v0,32(sp)
  40d290:	27a40021 	addiu	a0,sp,33
  40d294:	00002821 	move	a1,zero
  40d298:	8f998104 	lw	t9,-32508(gp)
  40d29c:	0320f809 	jalr	t9
  40d2a0:	2406000f 	li	a2,15
  40d2a4:	8fbc0010 	lw	gp,16(sp)
  40d2a8:	a3a00030 	sb	zero,48(sp)
  40d2ac:	8f9981e4 	lw	t9,-32284(gp)
  40d2b0:	0320f809 	jalr	t9
  40d2b4:	27a40030 	addiu	a0,sp,48
  40d2b8:	8fbc0010 	lw	gp,16(sp)
  40d2bc:	27a40020 	addiu	a0,sp,32
  40d2c0:	3c050041 	lui	a1,0x41
  40d2c4:	93a60030 	lbu	a2,48(sp)
[31m  40d2c8:	8f9980cc 	lw	t9,sprintf[0m
  40d2cc:	0320f809 	jalr	t9
  40d2d0:	24a50f14 	addiu	a1,a1,3860
--
  40e77c:	8fbc0010 	lw	gp,16(sp)
  40e780:	afa00188 	sw	zero,392(sp)
  40e784:	27a2001c 	addiu	v0,sp,28
  40e788:	afa2018c 	sw	v0,396(sp)
  40e78c:	3c030041 	lui	v1,0x41
  40e790:	24631f8c 	addiu	v1,v1,8076
  40e794:	afa30194 	sw	v1,404(sp)
  40e798:	3c020041 	lui	v0,0x41
  40e79c:	24421f80 	addiu	v0,v0,8064
  40e7a0:	afa20198 	sw	v0,408(sp)
  40e7a4:	27a20018 	addiu	v0,sp,24
  40e7a8:	afa20190 	sw	v0,400(sp)
  40e7ac:	24140001 	li	s4,1
  40e7b0:	27b3005c 	addiu	s3,sp,92
  40e7b4:	3c110041 	lui	s1,0x41
  40e7b8:	263510e0 	addiu	s5,s1,4320
  40e7bc:	3c120041 	lui	s2,0x41
  40e7c0:	26560060 	addiu	s6,s2,96
  40e7c4:	2417ffff 	li	s7,-1
  40e7c8:	0260f021 	move	s8,s3
  40e7cc:	8fa30188 	lw	v1,392(sp)
  40e7d0:	10600009 	beqz	v1,40e7f8 <AspInitial@@Base+0xa890>
  40e7d4:	00000000 	nop
  40e7d8:	8fa4018c 	lw	a0,396(sp)
  40e7dc:	8fa50198 	lw	a1,408(sp)
[31m  40e7e0:	8f9980cc 	lw	t9,sprintf[0m
  40e7e4:	0320f809 	jalr	t9
  40e7e8:	00603021 	move	a2,v1

[0m
[[0;33m*[0m] Function [0;33msprintf[0m used [0;33m10[0m times [0;33mhttpd[0m

