[0m
[[0;33m*[0m] Function [0;33mfprintf[0m tear down of [0;33mad.cgi[0m

  400b58:	8fbf001c 	lw	ra,28(sp)
  400b5c:	03e00008 	jr	ra
  400b60:	27bd0020 	addiu	sp,sp,32
  400b64:	27bdffd0 	addiu	sp,sp,-48
  400b68:	afbf002c 	sw	ra,44(sp)
  400b6c:	afb20028 	sw	s2,40(sp)
  400b70:	afb10024 	sw	s1,36(sp)
  400b74:	afb00020 	sw	s0,32(sp)
  400b78:	3c1c0042 	lui	gp,0x42
  400b7c:	279c9690 	addiu	gp,gp,-26992
  400b80:	afbc0010 	sw	gp,16(sp)
  400b84:	00808021 	move	s0,a0
  400b88:	afa0001c 	sw	zero,28(sp)
  400b8c:	a3a00018 	sb	zero,24(sp)
  400b90:	3c120040 	lui	s2,0x40
  400b94:	26441434 	addiu	a0,s2,5172
  400b98:	3c050040 	lui	a1,0x40
  400b9c:	24a51444 	addiu	a1,a1,5188
  400ba0:	8f998038 	lw	t9,-32712(gp)
  400ba4:	0320f809 	jalr	t9
  400ba8:	27a60018 	addiu	a2,sp,24
  400bac:	8fbc0010 	lw	gp,16(sp)
  400bb0:	02002021 	move	a0,s0
  400bb4:	3c050040 	lui	a1,0x40
  400bb8:	93a60018 	lbu	a2,24(sp)
[31m  400bbc:	8f998068 	lw	t9,fprintf[0m
  400bc0:	0320f809 	jalr	t9
  400bc4:	24a5144c 	addiu	a1,a1,5196
  400bc8:	8fbc0010 	lw	gp,16(sp)
  400bcc:	afa0001c 	sw	zero,28(sp)
  400bd0:	27b1001c 	addiu	s1,sp,28
  400bd4:	26441434 	addiu	a0,s2,5172
  400bd8:	3c050040 	lui	a1,0x40
  400bdc:	24a51458 	addiu	a1,a1,5208
  400be0:	8f998038 	lw	t9,-32712(gp)
  400be4:	0320f809 	jalr	t9
  400be8:	02203021 	move	a2,s1
  400bec:	8fbc0010 	lw	gp,16(sp)
  400bf0:	02002021 	move	a0,s0
  400bf4:	3c050040 	lui	a1,0x40
  400bf8:	8fa6001c 	lw	a2,28(sp)
[31m  400bfc:	8f998068 	lw	t9,fprintf[0m
  400c00:	0320f809 	jalr	t9
  400c04:	24a51464 	addiu	a1,a1,5220
  400c08:	8fbc0010 	lw	gp,16(sp)
  400c0c:	afa0001c 	sw	zero,28(sp)
  400c10:	26441434 	addiu	a0,s2,5172
  400c14:	3c050040 	lui	a1,0x40
  400c18:	24a51478 	addiu	a1,a1,5240
  400c1c:	8f998038 	lw	t9,-32712(gp)
  400c20:	0320f809 	jalr	t9
  400c24:	02203021 	move	a2,s1
  400c28:	8fbc0010 	lw	gp,16(sp)
  400c2c:	02002021 	move	a0,s0
  400c30:	3c050040 	lui	a1,0x40
  400c34:	8fa6001c 	lw	a2,28(sp)
[31m  400c38:	8f998068 	lw	t9,fprintf[0m
  400c3c:	0320f809 	jalr	t9
  400c40:	24a51480 	addiu	a1,a1,5248
--
  400f44:	27be0018 	addiu	s8,sp,24
  400f48:	3c020040 	lui	v0,0x40
  400f4c:	24421548 	addiu	v0,v0,5448
  400f50:	afa20078 	sw	v0,120(sp)
  400f54:	00111080 	sll	v0,s1,0x2
  400f58:	02021021 	addu	v0,s0,v0
  400f5c:	8c520004 	lw	s2,4(v0)
  400f60:	02402021 	move	a0,s2
  400f64:	8f998050 	lw	t9,-32688(gp)
  400f68:	0320f809 	jalr	t9
  400f6c:	02802821 	move	a1,s4
  400f70:	8fbc0010 	lw	gp,16(sp)
  400f74:	14400012 	bnez	v0,400fc0 <main@@Base+0x1fc>
  400f78:	02402021 	move	a0,s2
  400f7c:	26220080 	addiu	v0,s1,128
  400f80:	00021080 	sll	v0,v0,0x2
  400f84:	02028021 	addu	s0,s0,v0
  400f88:	03c02021 	move	a0,s8
  400f8c:	8e050004 	lw	a1,4(s0)
  400f90:	8f998064 	lw	t9,-32668(gp)
  400f94:	0320f809 	jalr	t9
  400f98:	24060014 	li	a2,20
  400f9c:	8fbc0010 	lw	gp,16(sp)
  400fa0:	8ea40000 	lw	a0,0(s5)
  400fa4:	8fa50078 	lw	a1,120(sp)
[31m  400fa8:	8f998068 	lw	t9,fprintf[0m
  400fac:	0320f809 	jalr	t9
  400fb0:	03c03021 	move	a2,s8
  400fb4:	8fbc0010 	lw	gp,16(sp)
  400fb8:	10000049 	b	4010e0 <main@@Base+0x31c>
  400fbc:	26310001 	addiu	s1,s1,1
  400fc0:	8f998050 	lw	t9,-32688(gp)
  400fc4:	0320f809 	jalr	t9
  400fc8:	02c02821 	move	a1,s6
  400fcc:	8fbc0010 	lw	gp,16(sp)
  400fd0:	14400011 	bnez	v0,401018 <main@@Base+0x254>
  400fd4:	26220080 	addiu	v0,s1,128
  400fd8:	00021080 	sll	v0,v0,0x2
  400fdc:	02028021 	addu	s0,s0,v0
  400fe0:	02e02021 	move	a0,s7
  400fe4:	8e050004 	lw	a1,4(s0)
  400fe8:	8f998064 	lw	t9,-32668(gp)
  400fec:	0320f809 	jalr	t9
  400ff0:	24060014 	li	a2,20
  400ff4:	8fbc0010 	lw	gp,16(sp)
  400ff8:	8ea40000 	lw	a0,0(s5)
  400ffc:	8fa50080 	lw	a1,128(sp)
[31m  401000:	8f998068 	lw	t9,fprintf[0m
  401004:	0320f809 	jalr	t9
  401008:	02e03021 	move	a2,s7
  40100c:	8fbc0010 	lw	gp,16(sp)
  401010:	10000032 	b	4010dc <main@@Base+0x318>
  401014:	afb7007c 	sw	s7,124(sp)
  401018:	8fa50068 	lw	a1,104(sp)
  40101c:	8f998050 	lw	t9,-32688(gp)
  401020:	0320f809 	jalr	t9
  401024:	02402021 	move	a0,s2
  401028:	8fbc0010 	lw	gp,16(sp)
  40102c:	14400013 	bnez	v0,40107c <main@@Base+0x2b8>
  401030:	26220080 	addiu	v0,s1,128
  401034:	00021080 	sll	v0,v0,0x2
  401038:	02028021 	addu	s0,s0,v0
  40103c:	8fa4006c 	lw	a0,108(sp)
  401040:	8e050004 	lw	a1,4(s0)
  401044:	8f998064 	lw	t9,-32668(gp)
  401048:	0320f809 	jalr	t9
  40104c:	24060014 	li	a2,20
  401050:	8fbc0010 	lw	gp,16(sp)
  401054:	8ea40000 	lw	a0,0(s5)
  401058:	8fa50088 	lw	a1,136(sp)
  40105c:	8fa6006c 	lw	a2,108(sp)
[31m  401060:	8f998068 	lw	t9,fprintf[0m
  401064:	0320f809 	jalr	t9
  401068:	26310001 	addiu	s1,s1,1
  40106c:	8fbc0010 	lw	gp,16(sp)
  401070:	8fa2006c 	lw	v0,108(sp)
  401074:	1000001a 	b	4010e0 <main@@Base+0x31c>
  401078:	afa20084 	sw	v0,132(sp)
  40107c:	8fa50070 	lw	a1,112(sp)
  401080:	8f998050 	lw	t9,-32688(gp)
  401084:	0320f809 	jalr	t9
  401088:	02402021 	move	a0,s2
  40108c:	8fbc0010 	lw	gp,16(sp)
  401090:	14400012 	bnez	v0,4010dc <main@@Base+0x318>
  401094:	26220080 	addiu	v0,s1,128
  401098:	00021080 	sll	v0,v0,0x2
  40109c:	02028021 	addu	s0,s0,v0
  4010a0:	8fa40074 	lw	a0,116(sp)
  4010a4:	8e050004 	lw	a1,4(s0)
  4010a8:	8f998064 	lw	t9,-32668(gp)
  4010ac:	0320f809 	jalr	t9
  4010b0:	24060014 	li	a2,20
  4010b4:	8fbc0010 	lw	gp,16(sp)
  4010b8:	8ea40000 	lw	a0,0(s5)
  4010bc:	8fa50090 	lw	a1,144(sp)
  4010c0:	8fa60074 	lw	a2,116(sp)
[31m  4010c4:	8f998068 	lw	t9,fprintf[0m
  4010c8:	0320f809 	jalr	t9
  4010cc:	00000000 	nop

[0m
[[0;33m*[0m] Function [0;33mfprintf[0m used [0;33m7[0m times [0;33mad.cgi[0m

