[0m
[[0;33m*[0m] Function [0;33mfprintf[0m tear down of [0;33munittest.cgi[0m

  400e40:	248428c0 	addiu	a0,a0,10432
  400e44:	0320f809 	jalr	t9
  400e48:	24a529f8 	addiu	a1,a1,10744
  400e4c:	8fbc0010 	lw	gp,16(sp)
  400e50:	8f848018 	lw	a0,-32744(gp)
  400e54:	8c8228d4 	lw	v0,10452(a0)
  400e58:	10400006 	beqz	v0,400e74 <_ftext@@Base+0x194>
  400e5c:	8f99803c 	lw	t9,-32708(gp)
  400e60:	13200004 	beqz	t9,400e74 <_ftext@@Base+0x194>
  400e64:	8fbf001c 	lw	ra,28(sp)
  400e68:	248428d4 	addiu	a0,a0,10452
  400e6c:	03200008 	jr	t9
  400e70:	27bd0020 	addiu	sp,sp,32
  400e74:	8fbf001c 	lw	ra,28(sp)
  400e78:	03e00008 	jr	ra
  400e7c:	27bd0020 	addiu	sp,sp,32
  400e80:	27bdffe0 	addiu	sp,sp,-32
  400e84:	afbf001c 	sw	ra,28(sp)
  400e88:	3c1c0042 	lui	gp,0x42
  400e8c:	279ca8f0 	addiu	gp,gp,-22288
  400e90:	afbc0010 	sw	gp,16(sp)
  400e94:	14c00008 	bnez	a2,400eb8 <_ftext@@Base+0x1d8>
  400e98:	00a01021 	move	v0,a1
  400e9c:	3c050040 	lui	a1,0x40
  400ea0:	24a522c0 	addiu	a1,a1,8896
[31m  400ea4:	8f9980a4 	lw	t9,fprintf[0m
  400ea8:	0320f809 	jalr	t9
  400eac:	00403021 	move	a2,v0
  400eb0:	10000006 	b	400ecc <_ftext@@Base+0x1ec>
  400eb4:	00000000 	nop
  400eb8:	3c050040 	lui	a1,0x40
  400ebc:	24a522c8 	addiu	a1,a1,8904
[31m  400ec0:	8f9980a4 	lw	t9,fprintf[0m
  400ec4:	0320f809 	jalr	t9
  400ec8:	00403021 	move	a2,v0
  400ecc:	8fbf001c 	lw	ra,28(sp)
  400ed0:	03e00008 	jr	ra
  400ed4:	27bd0020 	addiu	sp,sp,32
  400ed8:	27bdffe0 	addiu	sp,sp,-32
  400edc:	afbf001c 	sw	ra,28(sp)
  400ee0:	3c1c0042 	lui	gp,0x42
  400ee4:	279ca8f0 	addiu	gp,gp,-22288
  400ee8:	afbc0010 	sw	gp,16(sp)
  400eec:	14c00008 	bnez	a2,400f10 <_ftext@@Base+0x230>
  400ef0:	00a01021 	move	v0,a1
  400ef4:	3c050040 	lui	a1,0x40
  400ef8:	24a522d0 	addiu	a1,a1,8912
[31m  400efc:	8f9980a4 	lw	t9,fprintf[0m
  400f00:	0320f809 	jalr	t9
  400f04:	00403021 	move	a2,v0
  400f08:	10000006 	b	400f24 <_ftext@@Base+0x244>
  400f0c:	00000000 	nop
  400f10:	3c050040 	lui	a1,0x40
  400f14:	24a522d8 	addiu	a1,a1,8920
[31m  400f18:	8f9980a4 	lw	t9,fprintf[0m
  400f1c:	0320f809 	jalr	t9
  400f20:	00403021 	move	a2,v0
--
  40146c:	304400ff 	andi	a0,v0,0xff
  401470:	8f9980b4 	lw	t9,-32588(gp)
  401474:	0320f809 	jalr	t9
  401478:	a3a40028 	sb	a0,40(sp)
  40147c:	8fbc0020 	lw	gp,32(sp)
  401480:	10000017 	b	4014e0 <main@@Base+0x294>
  401484:	00000000 	nop
  401488:	2484247c 	addiu	a0,a0,9340
  40148c:	3c050040 	lui	a1,0x40
  401490:	24a52484 	addiu	a1,a1,9348
  401494:	8f998044 	lw	t9,-32700(gp)
  401498:	0320f809 	jalr	t9
  40149c:	27a60029 	addiu	a2,sp,41
  4014a0:	8fbc0020 	lw	gp,32(sp)
  4014a4:	93a20029 	lbu	v0,41(sp)
  4014a8:	10400005 	beqz	v0,4014c0 <main@@Base+0x274>
  4014ac:	00000000 	nop
  4014b0:	8f9980d4 	lw	t9,-32556(gp)
  4014b4:	0320f809 	jalr	t9
  4014b8:	27a40028 	addiu	a0,sp,40
  4014bc:	8fbc0020 	lw	gp,32(sp)
  4014c0:	8f828064 	lw	v0,-32668(gp)
  4014c4:	8c440000 	lw	a0,0(v0)
  4014c8:	3c050040 	lui	a1,0x40
  4014cc:	93a60028 	lbu	a2,40(sp)
[31m  4014d0:	8f9980a4 	lw	t9,fprintf[0m
  4014d4:	0320f809 	jalr	t9
  4014d8:	24a52490 	addiu	a1,a1,9360
  4014dc:	8fbc0020 	lw	gp,32(sp)
  4014e0:	8e040060 	lw	a0,96(s0)
  4014e4:	3c050040 	lui	a1,0x40
  4014e8:	24a524a0 	addiu	a1,a1,9376
  4014ec:	3c060040 	lui	a2,0x40
  4014f0:	93a70028 	lbu	a3,40(sp)
[31m  4014f4:	8f9980a4 	lw	t9,fprintf[0m
  4014f8:	0320f809 	jalr	t9
  4014fc:	24c62474 	addiu	a2,a2,9332
--
  401de0:	24062000 	li	a2,8192
  401de4:	8fbc0020 	lw	gp,32(sp)
  401de8:	8f998060 	lw	t9,-32672(gp)
  401dec:	0320f809 	jalr	t9
  401df0:	02202021 	move	a0,s1
  401df4:	8fbc0020 	lw	gp,32(sp)
  401df8:	00409021 	move	s2,v0
  401dfc:	3c040040 	lui	a0,0x40
  401e00:	248426a8 	addiu	a0,a0,9896
  401e04:	24050001 	li	a1,1
  401e08:	8e070060 	lw	a3,96(s0)
  401e0c:	8f998054 	lw	t9,-32684(gp)
  401e10:	0320f809 	jalr	t9
  401e14:	24060011 	li	a2,17
  401e18:	8fbc0020 	lw	gp,32(sp)
  401e1c:	06400012 	bltz	s2,401e68 <main@@Base+0xc1c>
  401e20:	3c040040 	lui	a0,0x40
  401e24:	1a400010 	blez	s2,401e68 <main@@Base+0xc1c>
  401e28:	00008821 	move	s1,zero
  401e2c:	27b30134 	addiu	s3,sp,308
  401e30:	3c140040 	lui	s4,0x40
  401e34:	269426bc 	addiu	s4,s4,9916
  401e38:	02711021 	addu	v0,s3,s1
  401e3c:	8e040060 	lw	a0,96(s0)
  401e40:	90460000 	lbu	a2,0(v0)
[31m  401e44:	8f9980a4 	lw	t9,fprintf[0m
  401e48:	0320f809 	jalr	t9
  401e4c:	02802821 	move	a1,s4

[0m
[[0;33m*[0m] Function [0;33mfprintf[0m used [0;33m7[0m times [0;33munittest.cgi[0m

