[0m
[[0;33m*[0m] Function [0;33mpopen[0m tear down of [0;33mcrtmpserver[0m

  4ac508:	02802021 	move	a0,s4
  4ac50c:	8f999b3c 	lw	t9,-25796(gp)
  4ac510:	0320f809 	jalr	t9
  4ac514:	27b202a4 	addiu	s2,sp,676
  4ac518:	8fbc0020 	lw	gp,32(sp)
  4ac51c:	27a40521 	addiu	a0,sp,1313
  4ac520:	00002821 	move	a1,zero
  4ac524:	24060043 	li	a2,67
  4ac528:	8f918030 	lw	s1,-32720(gp)
  4ac52c:	27b50520 	addiu	s5,sp,1312
  4ac530:	8f998f44 	lw	t9,-28860(gp)
  4ac534:	27b2046c 	addiu	s2,sp,1132
  4ac538:	92226cc0 	lbu	v0,27840(s1)
  4ac53c:	0320f809 	jalr	t9
  4ac540:	a3a20520 	sb	v0,1312(sp)
  4ac544:	02a02021 	move	a0,s5
  4ac548:	00002821 	move	a1,zero
  4ac54c:	8fbc0020 	lw	gp,32(sp)
  4ac550:	24060044 	li	a2,68
  4ac554:	8f998f44 	lw	t9,-28860(gp)
  4ac558:	0320f809 	jalr	t9
  4ac55c:	afb3046c 	sw	s3,1132(sp)
  4ac560:	8fbc0020 	lw	gp,32(sp)
  4ac564:	8f968034 	lw	s6,-32716(gp)
  4ac568:	8f848030 	lw	a0,-32720(gp)
[31m  4ac56c:	8f998580 	lw	t9,popen[0m
  4ac570:	26c5a648 	addiu	a1,s6,-22968
  4ac574:	0320f809 	jalr	t9
--
  4ac82c:	27b40564 	addiu	s4,sp,1380
  4ac830:	27a405a9 	addiu	a0,sp,1449
  4ac834:	8fbc0020 	lw	gp,32(sp)
  4ac838:	00002821 	move	a1,zero
  4ac83c:	92226cc0 	lbu	v0,27840(s1)
  4ac840:	24060043 	li	a2,67
  4ac844:	8f998f44 	lw	t9,-28860(gp)
  4ac848:	27b505a8 	addiu	s5,sp,1448
  4ac84c:	0320f809 	jalr	t9
  4ac850:	a3a205a8 	sb	v0,1448(sp)
  4ac854:	02802021 	move	a0,s4
  4ac858:	00002821 	move	a1,zero
  4ac85c:	8fbc0020 	lw	gp,32(sp)
  4ac860:	8f998f44 	lw	t9,-28860(gp)
  4ac864:	0320f809 	jalr	t9
  4ac868:	24060044 	li	a2,68
  4ac86c:	02a02021 	move	a0,s5
  4ac870:	00002821 	move	a1,zero
  4ac874:	8fbc0020 	lw	gp,32(sp)
  4ac878:	8f998f44 	lw	t9,-28860(gp)
  4ac87c:	0320f809 	jalr	t9
  4ac880:	24060044 	li	a2,68
  4ac884:	26c5a648 	addiu	a1,s6,-22968
  4ac888:	8fbc0020 	lw	gp,32(sp)
  4ac88c:	8f848030 	lw	a0,-32720(gp)
[31m  4ac890:	8f998580 	lw	t9,popen[0m
  4ac894:	0320f809 	jalr	t9
  4ac898:	24846c2c 	addiu	a0,a0,27692
  4ac89c:	8fbc0020 	lw	gp,32(sp)
  4ac8a0:	1040000b 	beqz	v0,4ac8d0 <_Z8parseURISsR3URI@@Base+0x341c>
  4ac8a4:	00409821 	move	s3,v0
  4ac8a8:	8f99931c 	lw	t9,-27876(gp)
  4ac8ac:	02802021 	move	a0,s4
  4ac8b0:	24050044 	li	a1,68
  4ac8b4:	0320f809 	jalr	t9
  4ac8b8:	00403021 	move	a2,v0
  4ac8bc:	8fbc0020 	lw	gp,32(sp)
  4ac8c0:	8f999834 	lw	t9,-26572(gp)
  4ac8c4:	0320f809 	jalr	t9
  4ac8c8:	02602021 	move	a0,s3
  4ac8cc:	8fbc0020 	lw	gp,32(sp)
  4ac8d0:	8f848030 	lw	a0,-32720(gp)
  4ac8d4:	26c5a648 	addiu	a1,s6,-22968
[31m  4ac8d8:	8f998580 	lw	t9,popen[0m
  4ac8dc:	0320f809 	jalr	t9
  4ac8e0:	24846c54 	addiu	a0,a0,27732
--
  4acad8:	8f999b3c 	lw	t9,-25796(gp)
  4acadc:	0320f809 	jalr	t9
  4acae0:	02802021 	move	a0,s4
  4acae4:	8fbc0020 	lw	gp,32(sp)
  4acae8:	8f999b3c 	lw	t9,-25796(gp)
  4acaec:	0320f809 	jalr	t9
  4acaf0:	02a02021 	move	a0,s5
  4acaf4:	8fbc0020 	lw	gp,32(sp)
  4acaf8:	27a405ed 	addiu	a0,sp,1517
  4acafc:	92226cc0 	lbu	v0,27840(s1)
  4acb00:	00002821 	move	a1,zero
  4acb04:	8f998f44 	lw	t9,-28860(gp)
  4acb08:	24060043 	li	a2,67
  4acb0c:	a3a205ec 	sb	v0,1516(sp)
  4acb10:	0320f809 	jalr	t9
  4acb14:	27b305ec 	addiu	s3,sp,1516
  4acb18:	02602021 	move	a0,s3
  4acb1c:	00002821 	move	a1,zero
  4acb20:	8fbc0020 	lw	gp,32(sp)
  4acb24:	8f998f44 	lw	t9,-28860(gp)
  4acb28:	0320f809 	jalr	t9
  4acb2c:	24060044 	li	a2,68
  4acb30:	26c5a648 	addiu	a1,s6,-22968
  4acb34:	8fbc0020 	lw	gp,32(sp)
  4acb38:	8f848030 	lw	a0,-32720(gp)
[31m  4acb3c:	8f998580 	lw	t9,popen[0m
  4acb40:	0320f809 	jalr	t9
  4acb44:	24846c7c 	addiu	a0,a0,27772
--
  580e24:	a3a2006c 	sb	v0,108(sp)
  580e28:	27a400b1 	addiu	a0,sp,177
  580e2c:	8fbc0010 	lw	gp,16(sp)
  580e30:	00002821 	move	a1,zero
  580e34:	9242ff70 	lbu	v0,-144(s2)
  580e38:	240600ff 	li	a2,255
  580e3c:	8f998f44 	lw	t9,-28860(gp)
  580e40:	0320f809 	jalr	t9
  580e44:	a3a200b0 	sb	v0,176(sp)
  580e48:	02002021 	move	a0,s0
  580e4c:	00002821 	move	a1,zero
  580e50:	8fbc0010 	lw	gp,16(sp)
  580e54:	8f998f44 	lw	t9,-28860(gp)
  580e58:	8f9e8034 	lw	s8,-32716(gp)
  580e5c:	0320f809 	jalr	t9
  580e60:	24060044 	li	a2,68
  580e64:	02202021 	move	a0,s1
  580e68:	00002821 	move	a1,zero
  580e6c:	8fbc0010 	lw	gp,16(sp)
  580e70:	8f998f44 	lw	t9,-28860(gp)
  580e74:	0320f809 	jalr	t9
  580e78:	24060044 	li	a2,68
  580e7c:	27c5a648 	addiu	a1,s8,-22968
  580e80:	8fbc0010 	lw	gp,16(sp)
  580e84:	8f848030 	lw	a0,-32720(gp)
[31m  580e88:	8f998580 	lw	t9,popen[0m
  580e8c:	0320f809 	jalr	t9
  580e90:	24846c2c 	addiu	a0,a0,27692
  580e94:	8fbc0010 	lw	gp,16(sp)
  580e98:	1040000f 	beqz	v0,580ed8 <_ZN26BaseRTMPAppProtocolHandler14ReadUserConfigEv@@Base+0x150>
  580e9c:	00409021 	move	s2,v0
  580ea0:	8f99931c 	lw	t9,-27876(gp)
  580ea4:	02002021 	move	a0,s0
  580ea8:	24050044 	li	a1,68
  580eac:	00403021 	move	a2,v0
  580eb0:	27b70020 	addiu	s7,sp,32
  580eb4:	0320f809 	jalr	t9
  580eb8:	27b60024 	addiu	s6,sp,36
  580ebc:	8fbc0010 	lw	gp,16(sp)
  580ec0:	02402021 	move	a0,s2
  580ec4:	27b70020 	addiu	s7,sp,32
  580ec8:	8f999834 	lw	t9,-26572(gp)
  580ecc:	0320f809 	jalr	t9
  580ed0:	27b60024 	addiu	s6,sp,36
  580ed4:	8fbc0010 	lw	gp,16(sp)
  580ed8:	8f848030 	lw	a0,-32720(gp)
  580edc:	27c5a648 	addiu	a1,s8,-22968
[31m  580ee0:	8f998580 	lw	t9,popen[0m
  580ee4:	27b70020 	addiu	s7,sp,32
  580ee8:	24846c54 	addiu	a0,a0,27732
--
  580ff0:	02c02821 	move	a1,s6
  580ff4:	8fbc0010 	lw	gp,16(sp)
  580ff8:	27dea648 	addiu	s8,s8,-22968
  580ffc:	24130001 	li	s3,1
  581000:	27b400b0 	addiu	s4,sp,176
  581004:	8f998f44 	lw	t9,-28860(gp)
  581008:	02002021 	move	a0,s0
  58100c:	00002821 	move	a1,zero
  581010:	0320f809 	jalr	t9
  581014:	24060044 	li	a2,68
  581018:	02202021 	move	a0,s1
  58101c:	00002821 	move	a1,zero
  581020:	8fbc0010 	lw	gp,16(sp)
  581024:	8f998f44 	lw	t9,-28860(gp)
  581028:	0320f809 	jalr	t9
  58102c:	24060044 	li	a2,68
  581030:	02802021 	move	a0,s4
  581034:	8fbc0010 	lw	gp,16(sp)
  581038:	02603021 	move	a2,s3
  58103c:	8f858034 	lw	a1,-32716(gp)
  581040:	8f998c3c 	lw	t9,-29636(gp)
  581044:	0320f809 	jalr	t9
  581048:	24a5ee80 	addiu	a1,a1,-4480
  58104c:	02802021 	move	a0,s4
  581050:	8fbc0010 	lw	gp,16(sp)
[31m  581054:	8f998580 	lw	t9,popen[0m
  581058:	0320f809 	jalr	t9
  58105c:	03c02821 	move	a1,s8
  581060:	8fbc0010 	lw	gp,16(sp)
  581064:	1040000b 	beqz	v0,581094 <_ZN26BaseRTMPAppProtocolHandler14ReadUserConfigEv@@Base+0x30c>
  581068:	00409021 	move	s2,v0
  58106c:	8f99931c 	lw	t9,-27876(gp)
  581070:	02002021 	move	a0,s0
  581074:	24050044 	li	a1,68
  581078:	0320f809 	jalr	t9
  58107c:	00403021 	move	a2,v0
  581080:	8fbc0010 	lw	gp,16(sp)
  581084:	8f999834 	lw	t9,-26572(gp)
  581088:	0320f809 	jalr	t9
  58108c:	02402021 	move	a0,s2
  581090:	8fbc0010 	lw	gp,16(sp)
  581094:	8f858034 	lw	a1,-32716(gp)
  581098:	02802021 	move	a0,s4
  58109c:	8f998c3c 	lw	t9,-29636(gp)
  5810a0:	02603021 	move	a2,s3
  5810a4:	0320f809 	jalr	t9
  5810a8:	24a5eeac 	addiu	a1,a1,-4436
  5810ac:	02802021 	move	a0,s4
  5810b0:	8fbc0010 	lw	gp,16(sp)
[31m  5810b4:	8f998580 	lw	t9,popen[0m
  5810b8:	0320f809 	jalr	t9
  5810bc:	03c02821 	move	a1,s8

[0m
[[0;33m*[0m] Function [0;33mpopen[0m used [0;33m8[0m times [0;33mcrtmpserver[0m

