[0m
[[0;33m*[0m] Function [0;33msystem[0m tear down of [0;33msmartwizard.cgi[0m

  40523c:	8fbc0020 	lw	gp,32(sp)
  405240:	10000006 	b	40525c <main@@Base+0x530>
  405244:	3c020041 	lui	v0,0x41
  405248:	8f998090 	lw	t9,-32624(gp)
  40524c:	0320f809 	jalr	t9
  405250:	24845e2c 	addiu	a0,a0,24108
  405254:	8fbc0020 	lw	gp,32(sp)
  405258:	3c020041 	lui	v0,0x41
  40525c:	8c4263fc 	lw	v0,25596(v0)
  405260:	14400006 	bnez	v0,40527c <main@@Base+0x550>
  405264:	3c020041 	lui	v0,0x41
  405268:	8f99807c 	lw	t9,-32644(gp)
  40526c:	0320f809 	jalr	t9
  405270:	02802021 	move	a0,s4
  405274:	8fbc0020 	lw	gp,32(sp)
  405278:	3c020041 	lui	v0,0x41
  40527c:	8c426404 	lw	v0,25604(v0)
  405280:	10400025 	beqz	v0,405318 <main@@Base+0x5ec>
  405284:	3c020041 	lui	v0,0x41
  405288:	24040010 	li	a0,16
  40528c:	8f998070 	lw	t9,-32656(gp)
  405290:	0320f809 	jalr	t9
  405294:	24050001 	li	a1,1
  405298:	8fbc0020 	lw	gp,32(sp)
  40529c:	3c040040 	lui	a0,0x40
[31m  4052a0:	8f998088 	lw	t9,system[0m
  4052a4:	0320f809 	jalr	t9
  4052a8:	24845ea8 	addiu	a0,a0,24232
  4052ac:	8fbc0020 	lw	gp,32(sp)
  4052b0:	3c040040 	lui	a0,0x40
[31m  4052b4:	8f998088 	lw	t9,system[0m
  4052b8:	0320f809 	jalr	t9
  4052bc:	24845edc 	addiu	a0,a0,24284
  4052c0:	8fbc0020 	lw	gp,32(sp)
  4052c4:	3c040040 	lui	a0,0x40
[31m  4052c8:	8f998088 	lw	t9,system[0m
  4052cc:	0320f809 	jalr	t9
  4052d0:	24845f10 	addiu	a0,a0,24336
  4052d4:	8fbc0020 	lw	gp,32(sp)
  4052d8:	3c040040 	lui	a0,0x40
[31m  4052dc:	8f998088 	lw	t9,system[0m
  4052e0:	0320f809 	jalr	t9
  4052e4:	24845f44 	addiu	a0,a0,24388
  4052e8:	8fbc0020 	lw	gp,32(sp)
  4052ec:	3c040040 	lui	a0,0x40
[31m  4052f0:	8f998088 	lw	t9,system[0m
  4052f4:	0320f809 	jalr	t9
  4052f8:	24845f78 	addiu	a0,a0,24440
  4052fc:	8fbc0020 	lw	gp,32(sp)
  405300:	3c040040 	lui	a0,0x40
[31m  405304:	8f998088 	lw	t9,system[0m
  405308:	0320f809 	jalr	t9
  40530c:	24845fac 	addiu	a0,a0,24492
  405310:	8fbc0020 	lw	gp,32(sp)
  405314:	3c020041 	lui	v0,0x41
  405318:	8c426400 	lw	v0,25600(v0)
  40531c:	1040000c 	beqz	v0,405350 <main@@Base+0x624>
  405320:	3c020041 	lui	v0,0x41
  405324:	3c040040 	lui	a0,0x40
[31m  405328:	8f998088 	lw	t9,system[0m
  40532c:	0320f809 	jalr	t9
  405330:	24845fe0 	addiu	a0,a0,24544
  405334:	8fbc0020 	lw	gp,32(sp)
  405338:	3c040040 	lui	a0,0x40
[31m  40533c:	8f998088 	lw	t9,system[0m
  405340:	0320f809 	jalr	t9
  405344:	24846014 	addiu	a0,a0,24596
  405348:	8fbc0020 	lw	gp,32(sp)
  40534c:	3c020041 	lui	v0,0x41
  405350:	8c4263f8 	lw	v0,25592(v0)
  405354:	10400007 	beqz	v0,405374 <main@@Base+0x648>
  405358:	3c020041 	lui	v0,0x41
  40535c:	3c040040 	lui	a0,0x40
[31m  405360:	8f998088 	lw	t9,system[0m
  405364:	0320f809 	jalr	t9
  405368:	24846058 	addiu	a0,a0,24664
  40536c:	8fbc0020 	lw	gp,32(sp)
  405370:	3c020041 	lui	v0,0x41
  405374:	8c42640c 	lw	v0,25612(v0)
  405378:	1040000c 	beqz	v0,4053ac <main@@Base+0x680>
  40537c:	3c020041 	lui	v0,0x41
  405380:	3c040040 	lui	a0,0x40
[31m  405384:	8f998088 	lw	t9,system[0m
  405388:	0320f809 	jalr	t9
  40538c:	2484608c 	addiu	a0,a0,24716
  405390:	8fbc0020 	lw	gp,32(sp)
  405394:	3c040040 	lui	a0,0x40
[31m  405398:	8f998088 	lw	t9,system[0m
  40539c:	0320f809 	jalr	t9
  4053a0:	248460bc 	addiu	a0,a0,24764
--
  4053c4:	26045b30 	addiu	a0,s0,23344
  4053c8:	3c050040 	lui	a1,0x40
  4053cc:	24a55b3c 	addiu	a1,a1,23356
  4053d0:	8f998038 	lw	t9,-32712(gp)
  4053d4:	0320f809 	jalr	t9
  4053d8:	27a6002c 	addiu	a2,sp,44
  4053dc:	8fbc0020 	lw	gp,32(sp)
  4053e0:	26045b30 	addiu	a0,s0,23344
  4053e4:	3c050040 	lui	a1,0x40
  4053e8:	24a55b58 	addiu	a1,a1,23384
  4053ec:	8f998038 	lw	t9,-32712(gp)
  4053f0:	0320f809 	jalr	t9
  4053f4:	27a60028 	addiu	a2,sp,40
  4053f8:	8fbc0020 	lw	gp,32(sp)
  4053fc:	93a20028 	lbu	v0,40(sp)
  405400:	1440000e 	bnez	v0,40543c <main@@Base+0x710>
  405404:	3c050040 	lui	a1,0x40
  405408:	00002021 	move	a0,zero
  40540c:	8fa5002c 	lw	a1,44(sp)
  405410:	00003021 	move	a2,zero
  405414:	8f998098 	lw	t9,-32616(gp)
  405418:	0320f809 	jalr	t9
  40541c:	00003821 	move	a3,zero
  405420:	8fbc0020 	lw	gp,32(sp)
  405424:	3c040040 	lui	a0,0x40
[31m  405428:	8f998088 	lw	t9,system[0m
  40542c:	0320f809 	jalr	t9
  405430:	248460f0 	addiu	a0,a0,24816
  405434:	1000009f 	b	4056b4 <main@@Base+0x988>
  405438:	00001021 	move	v0,zero
  40543c:	a3a00029 	sb	zero,41(sp)
  405440:	3c040040 	lui	a0,0x40
  405444:	24845b30 	addiu	a0,a0,23344
  405448:	24a56134 	addiu	a1,a1,24884
  40544c:	8f998038 	lw	t9,-32712(gp)
  405450:	0320f809 	jalr	t9
  405454:	27a60029 	addiu	a2,sp,41
  405458:	8fbc0020 	lw	gp,32(sp)
  40545c:	93a20029 	lbu	v0,41(sp)
  405460:	1040000e 	beqz	v0,40549c <main@@Base+0x770>
  405464:	3c100040 	lui	s0,0x40
  405468:	00002021 	move	a0,zero
  40546c:	8fa5002c 	lw	a1,44(sp)
  405470:	24060001 	li	a2,1
  405474:	8f998098 	lw	t9,-32616(gp)
  405478:	0320f809 	jalr	t9
  40547c:	00003821 	move	a3,zero
  405480:	8fbc0020 	lw	gp,32(sp)
  405484:	3c040040 	lui	a0,0x40
[31m  405488:	8f998088 	lw	t9,system[0m
  40548c:	0320f809 	jalr	t9
  405490:	248460f0 	addiu	a0,a0,24816
--
  405640:	afa20010 	sw	v0,16(sp)
  405644:	27a200b0 	addiu	v0,sp,176
  405648:	afa20014 	sw	v0,20(sp)
  40564c:	27a200b4 	addiu	v0,sp,180
  405650:	afa20018 	sw	v0,24(sp)
  405654:	27a20038 	addiu	v0,sp,56
  405658:	afa2001c 	sw	v0,28(sp)
  40565c:	27a4006c 	addiu	a0,sp,108
  405660:	02002821 	move	a1,s0
  405664:	27a600a4 	addiu	a2,sp,164
  405668:	8f998068 	lw	t9,-32664(gp)
  40566c:	0320f809 	jalr	t9
  405670:	27a700a8 	addiu	a3,sp,168
  405674:	8fbc0020 	lw	gp,32(sp)
  405678:	24030006 	li	v1,6
  40567c:	1443000d 	bne	v0,v1,4056b4 <main@@Base+0x988>
  405680:	00001021 	move	v0,zero
  405684:	00002021 	move	a0,zero
  405688:	8fa5002c 	lw	a1,44(sp)
  40568c:	24060002 	li	a2,2
  405690:	8f998098 	lw	t9,-32616(gp)
  405694:	0320f809 	jalr	t9
  405698:	27a7008c 	addiu	a3,sp,140
  40569c:	8fbc0020 	lw	gp,32(sp)
  4056a0:	3c040040 	lui	a0,0x40
[31m  4056a4:	8f998088 	lw	t9,system[0m
  4056a8:	0320f809 	jalr	t9
  4056ac:	248460f0 	addiu	a0,a0,24816

[0m
[[0;33m*[0m] Function [0;33msystem[0m used [0;33m14[0m times [0;33msmartwizard.cgi[0m

