[0m
[[0;33m*[0m] Function [0;33mstrcpy[0m tear down of [0;33mddp[0m

  4063e8:	3c050041 	lui	a1,0x41
  4063ec:	24a54bfc 	addiu	a1,a1,19452
  4063f0:	27a60124 	addiu	a2,sp,292
  4063f4:	8f998258 	lw	t9,-32168(gp)
  4063f8:	0320f809 	jalr	t9
  4063fc:	24070001 	li	a3,1
  406400:	8fbc0018 	lw	gp,24(sp)
  406404:	24020004 	li	v0,4
  406408:	afa20120 	sw	v0,288(sp)
  40640c:	26444ca0 	addiu	a0,s2,19616
  406410:	3c050041 	lui	a1,0x41
  406414:	24a54ca8 	addiu	a1,a1,19624
  406418:	27a60120 	addiu	a2,sp,288
  40641c:	8f998258 	lw	t9,-32168(gp)
  406420:	0320f809 	jalr	t9
  406424:	24070001 	li	a3,1
  406428:	8fbc0018 	lw	gp,24(sp)
  40642c:	27b10020 	addiu	s1,sp,32
  406430:	02202021 	move	a0,s1
  406434:	00002821 	move	a1,zero
  406438:	8f99812c 	lw	t9,-32468(gp)
  40643c:	0320f809 	jalr	t9
  406440:	24060100 	li	a2,256
  406444:	8fbc0018 	lw	gp,24(sp)
  406448:	02202021 	move	a0,s1
[31m  40644c:	8f998298 	lw	t9,strcpy[0m
  406450:	0320f809 	jalr	t9
  406454:	26050084 	addiu	a1,s0,132
  406458:	8fbc0018 	lw	gp,24(sp)
  40645c:	26444ca0 	addiu	a0,s2,19616
  406460:	3c050041 	lui	a1,0x41
  406464:	24a54cb4 	addiu	a1,a1,19636
  406468:	02203021 	move	a2,s1
  40646c:	8f998258 	lw	t9,-32168(gp)
  406470:	0320f809 	jalr	t9
  406474:	24070001 	li	a3,1
  406478:	8fbc0018 	lw	gp,24(sp)
  40647c:	02202021 	move	a0,s1
  406480:	00002821 	move	a1,zero
  406484:	8f99812c 	lw	t9,-32468(gp)
  406488:	0320f809 	jalr	t9
  40648c:	24060100 	li	a2,256
  406490:	8fbc0018 	lw	gp,24(sp)
  406494:	02202021 	move	a0,s1
[31m  406498:	8f998298 	lw	t9,strcpy[0m
  40649c:	0320f809 	jalr	t9
  4064a0:	260500c4 	addiu	a1,s0,196
  4064a4:	8fbc0018 	lw	gp,24(sp)
  4064a8:	26444ca0 	addiu	a0,s2,19616
  4064ac:	3c050041 	lui	a1,0x41
  4064b0:	24a54cb8 	addiu	a1,a1,19640
  4064b4:	02203021 	move	a2,s1
  4064b8:	8f998258 	lw	t9,-32168(gp)
  4064bc:	0320f809 	jalr	t9
  4064c0:	24070001 	li	a3,1
  4064c4:	8fbc0018 	lw	gp,24(sp)
  4064c8:	02202021 	move	a0,s1
  4064cc:	00002821 	move	a1,zero
  4064d0:	8f99812c 	lw	t9,-32468(gp)
  4064d4:	0320f809 	jalr	t9
  4064d8:	24060100 	li	a2,256
  4064dc:	8fbc0018 	lw	gp,24(sp)
  4064e0:	02202021 	move	a0,s1
[31m  4064e4:	8f998298 	lw	t9,strcpy[0m
  4064e8:	0320f809 	jalr	t9
  4064ec:	26050104 	addiu	a1,s0,260
--
  406bd4:	a2600011 	sb	zero,17(s3)
  406bd8:	3c02d200 	lui	v0,0xd200
  406bdc:	aa220000 	swl	v0,0(s1)
  406be0:	ba220003 	swr	v0,3(s1)
  406be4:	1000016f 	b	4071a4 <set_simple_wifi_info@@Base+0xc68>
  406be8:	24020026 	li	v0,38
  406bec:	92020026 	lbu	v0,38(s0)
  406bf0:	afa20138 	sw	v0,312(sp)
  406bf4:	3c120041 	lui	s2,0x41
  406bf8:	26444bf0 	addiu	a0,s2,19440
  406bfc:	3c050041 	lui	a1,0x41
  406c00:	24a54c04 	addiu	a1,a1,19460
  406c04:	27a60138 	addiu	a2,sp,312
  406c08:	8f998258 	lw	t9,-32168(gp)
  406c0c:	0320f809 	jalr	t9
  406c10:	24070001 	li	a3,1
  406c14:	8fbc0018 	lw	gp,24(sp)
  406c18:	27b30038 	addiu	s3,sp,56
  406c1c:	02602021 	move	a0,s3
  406c20:	00002821 	move	a1,zero
  406c24:	8f99812c 	lw	t9,-32468(gp)
  406c28:	0320f809 	jalr	t9
  406c2c:	24060100 	li	a2,256
  406c30:	8fbc0018 	lw	gp,24(sp)
  406c34:	02602021 	move	a0,s3
[31m  406c38:	8f998298 	lw	t9,strcpy[0m
  406c3c:	0320f809 	jalr	t9
  406c40:	26050001 	addiu	a1,s0,1
--
  406cd4:	3c020041 	lui	v0,0x41
  406cd8:	90424ee0 	lbu	v0,20192(v0)
  406cdc:	a3a20148 	sb	v0,328(sp)
  406ce0:	27a40149 	addiu	a0,sp,329
  406ce4:	00002821 	move	a1,zero
  406ce8:	8f99812c 	lw	t9,-32468(gp)
  406cec:	0320f809 	jalr	t9
  406cf0:	240600ff 	li	a2,255
  406cf4:	8fbc0018 	lw	gp,24(sp)
  406cf8:	27b20148 	addiu	s2,sp,328
  406cfc:	02402021 	move	a0,s2
  406d00:	3c050041 	lui	a1,0x41
  406d04:	8fa60034 	lw	a2,52(sp)
  406d08:	8f9980e4 	lw	t9,-32540(gp)
  406d0c:	0320f809 	jalr	t9
  406d10:	24a54cc4 	addiu	a1,a1,19652
  406d14:	8fbc0018 	lw	gp,24(sp)
  406d18:	27b30038 	addiu	s3,sp,56
  406d1c:	02602021 	move	a0,s3
  406d20:	00002821 	move	a1,zero
  406d24:	8f99812c 	lw	t9,-32468(gp)
  406d28:	0320f809 	jalr	t9
  406d2c:	24060100 	li	a2,256
  406d30:	8fbc0018 	lw	gp,24(sp)
  406d34:	02602021 	move	a0,s3
[31m  406d38:	8f998298 	lw	t9,strcpy[0m
  406d3c:	0320f809 	jalr	t9
  406d40:	26050029 	addiu	a1,s0,41
  406d44:	8fbc0018 	lw	gp,24(sp)
  406d48:	3c040041 	lui	a0,0x41
  406d4c:	24844bf0 	addiu	a0,a0,19440
  406d50:	02402821 	move	a1,s2
  406d54:	02603021 	move	a2,s3
  406d58:	8f998258 	lw	t9,-32168(gp)
  406d5c:	0320f809 	jalr	t9
  406d60:	24070001 	li	a3,1
  406d64:	8fbc0018 	lw	gp,24(sp)
  406d68:	8fa20028 	lw	v0,40(sp)
  406d6c:	2442fffe 	addiu	v0,v0,-2
  406d70:	2c420003 	sltiu	v0,v0,3
  406d74:	10400017 	beqz	v0,406dd4 <set_simple_wifi_info@@Base+0x898>
  406d78:	3c040041 	lui	a0,0x41
  406d7c:	27b20038 	addiu	s2,sp,56
  406d80:	02402021 	move	a0,s2
  406d84:	00002821 	move	a1,zero
  406d88:	8f99812c 	lw	t9,-32468(gp)
  406d8c:	0320f809 	jalr	t9
  406d90:	24060100 	li	a2,256
  406d94:	8fbc0018 	lw	gp,24(sp)
  406d98:	02402021 	move	a0,s2
[31m  406d9c:	8f998298 	lw	t9,strcpy[0m
  406da0:	0320f809 	jalr	t9
  406da4:	26050029 	addiu	a1,s0,41
--
  4084e0:	a2600011 	sb	zero,17(s3)
  4084e4:	3c02d200 	lui	v0,0xd200
  4084e8:	aa220000 	swl	v0,0(s1)
  4084ec:	ba220003 	swr	v0,3(s1)
  4084f0:	100001c5 	b	408c08 <set_wifi_info@@Base+0xe6c>
  4084f4:	24020026 	li	v0,38
  4084f8:	92020001 	lbu	v0,1(s0)
  4084fc:	afa20138 	sw	v0,312(sp)
  408500:	3c120041 	lui	s2,0x41
  408504:	26444bf0 	addiu	a0,s2,19440
  408508:	3c050041 	lui	a1,0x41
  40850c:	24a54c04 	addiu	a1,a1,19460
  408510:	27a60138 	addiu	a2,sp,312
  408514:	8f998258 	lw	t9,-32168(gp)
  408518:	0320f809 	jalr	t9
  40851c:	24070001 	li	a3,1
  408520:	8fbc0018 	lw	gp,24(sp)
  408524:	27b30038 	addiu	s3,sp,56
  408528:	02602021 	move	a0,s3
  40852c:	00002821 	move	a1,zero
  408530:	8f99812c 	lw	t9,-32468(gp)
  408534:	0320f809 	jalr	t9
  408538:	24060100 	li	a2,256
  40853c:	8fbc0018 	lw	gp,24(sp)
  408540:	02602021 	move	a0,s3
[31m  408544:	8f998298 	lw	t9,strcpy[0m
  408548:	0320f809 	jalr	t9
  40854c:	26050002 	addiu	a1,s0,2
--
  40860c:	24070001 	li	a3,1
  408610:	8fbc0018 	lw	gp,24(sp)
  408614:	26444bf0 	addiu	a0,s2,19440
  408618:	3c050041 	lui	a1,0x41
  40861c:	24a54c58 	addiu	a1,a1,19544
  408620:	27a60034 	addiu	a2,sp,52
  408624:	8f998258 	lw	t9,-32168(gp)
  408628:	0320f809 	jalr	t9
  40862c:	24070001 	li	a3,1
  408630:	8fbc0018 	lw	gp,24(sp)
  408634:	24020001 	li	v0,1
  408638:	8fa30028 	lw	v1,40(sp)
  40863c:	14620063 	bne	v1,v0,4087cc <set_wifi_info@@Base+0xa30>
  408640:	00000000 	nop
  408644:	8fa20034 	lw	v0,52(sp)
  408648:	14400018 	bnez	v0,4086ac <set_wifi_info@@Base+0x910>
  40864c:	24030001 	li	v1,1
  408650:	27b20038 	addiu	s2,sp,56
  408654:	02402021 	move	a0,s2
  408658:	00002821 	move	a1,zero
  40865c:	8f99812c 	lw	t9,-32468(gp)
  408660:	0320f809 	jalr	t9
  408664:	24060100 	li	a2,256
  408668:	8fbc0018 	lw	gp,24(sp)
  40866c:	02402021 	move	a0,s2
[31m  408670:	8f998298 	lw	t9,strcpy[0m
  408674:	0320f809 	jalr	t9
  408678:	2605002a 	addiu	a1,s0,42
  40867c:	8fbc0018 	lw	gp,24(sp)
  408680:	3c040041 	lui	a0,0x41
  408684:	24844bf0 	addiu	a0,a0,19440
  408688:	3c050041 	lui	a1,0x41
  40868c:	24a54c68 	addiu	a1,a1,19560
  408690:	02403021 	move	a2,s2
  408694:	8f998258 	lw	t9,-32168(gp)
  408698:	0320f809 	jalr	t9
  40869c:	24070001 	li	a3,1
  4086a0:	8fbc0018 	lw	gp,24(sp)
  4086a4:	10000049 	b	4087cc <set_wifi_info@@Base+0xa30>
  4086a8:	00000000 	nop
  4086ac:	14430018 	bne	v0,v1,408710 <set_wifi_info@@Base+0x974>
  4086b0:	24030002 	li	v1,2
  4086b4:	27b20038 	addiu	s2,sp,56
  4086b8:	02402021 	move	a0,s2
  4086bc:	00002821 	move	a1,zero
  4086c0:	8f99812c 	lw	t9,-32468(gp)
  4086c4:	0320f809 	jalr	t9
  4086c8:	24060100 	li	a2,256
  4086cc:	8fbc0018 	lw	gp,24(sp)
  4086d0:	02402021 	move	a0,s2
[31m  4086d4:	8f998298 	lw	t9,strcpy[0m
  4086d8:	0320f809 	jalr	t9
  4086dc:	2605004a 	addiu	a1,s0,74
  4086e0:	8fbc0018 	lw	gp,24(sp)
  4086e4:	3c040041 	lui	a0,0x41
  4086e8:	24844bf0 	addiu	a0,a0,19440
  4086ec:	3c050041 	lui	a1,0x41
  4086f0:	24a54c70 	addiu	a1,a1,19568
  4086f4:	02403021 	move	a2,s2
  4086f8:	8f998258 	lw	t9,-32168(gp)
  4086fc:	0320f809 	jalr	t9
  408700:	24070001 	li	a3,1
  408704:	8fbc0018 	lw	gp,24(sp)
  408708:	10000030 	b	4087cc <set_wifi_info@@Base+0xa30>
  40870c:	00000000 	nop
  408710:	14430018 	bne	v0,v1,408774 <set_wifi_info@@Base+0x9d8>
  408714:	24030003 	li	v1,3
  408718:	27b20038 	addiu	s2,sp,56
  40871c:	02402021 	move	a0,s2
  408720:	00002821 	move	a1,zero
  408724:	8f99812c 	lw	t9,-32468(gp)
  408728:	0320f809 	jalr	t9
  40872c:	24060100 	li	a2,256
  408730:	8fbc0018 	lw	gp,24(sp)
  408734:	02402021 	move	a0,s2
[31m  408738:	8f998298 	lw	t9,strcpy[0m
  40873c:	0320f809 	jalr	t9
  408740:	2605006a 	addiu	a1,s0,106
  408744:	8fbc0018 	lw	gp,24(sp)
  408748:	3c040041 	lui	a0,0x41
  40874c:	24844bf0 	addiu	a0,a0,19440
  408750:	3c050041 	lui	a1,0x41
  408754:	24a54c78 	addiu	a1,a1,19576
  408758:	02403021 	move	a2,s2
  40875c:	8f998258 	lw	t9,-32168(gp)
  408760:	0320f809 	jalr	t9
  408764:	24070001 	li	a3,1
  408768:	8fbc0018 	lw	gp,24(sp)
  40876c:	10000017 	b	4087cc <set_wifi_info@@Base+0xa30>
  408770:	00000000 	nop
  408774:	14430015 	bne	v0,v1,4087cc <set_wifi_info@@Base+0xa30>
  408778:	27b20038 	addiu	s2,sp,56
  40877c:	02402021 	move	a0,s2
  408780:	00002821 	move	a1,zero
  408784:	8f99812c 	lw	t9,-32468(gp)
  408788:	0320f809 	jalr	t9
  40878c:	24060100 	li	a2,256
  408790:	8fbc0018 	lw	gp,24(sp)
  408794:	02402021 	move	a0,s2
[31m  408798:	8f998298 	lw	t9,strcpy[0m
  40879c:	0320f809 	jalr	t9
  4087a0:	2605008a 	addiu	a1,s0,138
  4087a4:	8fbc0018 	lw	gp,24(sp)
  4087a8:	3c040041 	lui	a0,0x41
  4087ac:	24844bf0 	addiu	a0,a0,19440
  4087b0:	3c050041 	lui	a1,0x41
  4087b4:	24a54c80 	addiu	a1,a1,19584
  4087b8:	02403021 	move	a2,s2
  4087bc:	8f998258 	lw	t9,-32168(gp)
  4087c0:	0320f809 	jalr	t9
  4087c4:	24070001 	li	a3,1
  4087c8:	8fbc0018 	lw	gp,24(sp)
  4087cc:	8fa20028 	lw	v0,40(sp)
  4087d0:	2442fffe 	addiu	v0,v0,-2
  4087d4:	2c420003 	sltiu	v0,v0,3
  4087d8:	10400017 	beqz	v0,408838 <set_wifi_info@@Base+0xa9c>
  4087dc:	3c040041 	lui	a0,0x41
  4087e0:	27b20038 	addiu	s2,sp,56
  4087e4:	02402021 	move	a0,s2
  4087e8:	00002821 	move	a1,zero
  4087ec:	8f99812c 	lw	t9,-32468(gp)
  4087f0:	0320f809 	jalr	t9
  4087f4:	24060100 	li	a2,256
  4087f8:	8fbc0018 	lw	gp,24(sp)
  4087fc:	02402021 	move	a0,s2
[31m  408800:	8f998298 	lw	t9,strcpy[0m
  408804:	0320f809 	jalr	t9
  408808:	260500aa 	addiu	a1,s0,170
--
  409d24:	26244dcc 	addiu	a0,s1,19916
  409d28:	3c050041 	lui	a1,0x41
  409d2c:	24a54de4 	addiu	a1,a1,19940
  409d30:	26060012 	addiu	a2,s0,18
  409d34:	8f998258 	lw	t9,-32168(gp)
  409d38:	0320f809 	jalr	t9
  409d3c:	24070001 	li	a3,1
  409d40:	8fbc0020 	lw	gp,32(sp)
  409d44:	92020013 	lbu	v0,19(s0)
  409d48:	14400003 	bnez	v0,409d58 <set_system_datetime@@Base+0x608>
  409d4c:	24020001 	li	v0,1
  409d50:	10000002 	b	409d5c <set_system_datetime@@Base+0x60c>
  409d54:	afa00040 	sw	zero,64(sp)
  409d58:	afa20040 	sw	v0,64(sp)
  409d5c:	3c120041 	lui	s2,0x41
  409d60:	26444dcc 	addiu	a0,s2,19916
  409d64:	3c050041 	lui	a1,0x41
  409d68:	24a54df4 	addiu	a1,a1,19956
  409d6c:	27a60040 	addiu	a2,sp,64
  409d70:	8f998258 	lw	t9,-32168(gp)
  409d74:	0320f809 	jalr	t9
  409d78:	24070001 	li	a3,1
  409d7c:	8fbc0020 	lw	gp,32(sp)
  409d80:	27b10044 	addiu	s1,sp,68
  409d84:	02202021 	move	a0,s1
[31m  409d88:	8f998298 	lw	t9,strcpy[0m
  409d8c:	0320f809 	jalr	t9
  409d90:	26050014 	addiu	a1,s0,20
--
  40d530:	3c050041 	lui	a1,0x41
  40d534:	24a54bfc 	addiu	a1,a1,19452
  40d538:	27a60124 	addiu	a2,sp,292
  40d53c:	8f998258 	lw	t9,-32168(gp)
  40d540:	0320f809 	jalr	t9
  40d544:	24070001 	li	a3,1
  40d548:	8fbc0018 	lw	gp,24(sp)
  40d54c:	24020004 	li	v0,4
  40d550:	afa20120 	sw	v0,288(sp)
  40d554:	26444ca0 	addiu	a0,s2,19616
  40d558:	3c050041 	lui	a1,0x41
  40d55c:	24a54ca8 	addiu	a1,a1,19624
  40d560:	27a60120 	addiu	a2,sp,288
  40d564:	8f998258 	lw	t9,-32168(gp)
  40d568:	0320f809 	jalr	t9
  40d56c:	24070001 	li	a3,1
  40d570:	8fbc0018 	lw	gp,24(sp)
  40d574:	27b10020 	addiu	s1,sp,32
  40d578:	02202021 	move	a0,s1
  40d57c:	00002821 	move	a1,zero
  40d580:	8f99812c 	lw	t9,-32468(gp)
  40d584:	0320f809 	jalr	t9
  40d588:	24060100 	li	a2,256
  40d58c:	8fbc0018 	lw	gp,24(sp)
  40d590:	02202021 	move	a0,s1
[31m  40d594:	8f998298 	lw	t9,strcpy[0m
  40d598:	0320f809 	jalr	t9
  40d59c:	26050084 	addiu	a1,s0,132
  40d5a0:	8fbc0018 	lw	gp,24(sp)
  40d5a4:	26444ca0 	addiu	a0,s2,19616
  40d5a8:	3c050041 	lui	a1,0x41
  40d5ac:	24a54cb4 	addiu	a1,a1,19636
  40d5b0:	02203021 	move	a2,s1
  40d5b4:	8f998258 	lw	t9,-32168(gp)
  40d5b8:	0320f809 	jalr	t9
  40d5bc:	24070001 	li	a3,1
  40d5c0:	8fbc0018 	lw	gp,24(sp)
  40d5c4:	02202021 	move	a0,s1
  40d5c8:	00002821 	move	a1,zero
  40d5cc:	8f99812c 	lw	t9,-32468(gp)
  40d5d0:	0320f809 	jalr	t9
  40d5d4:	24060100 	li	a2,256
  40d5d8:	8fbc0018 	lw	gp,24(sp)
  40d5dc:	02202021 	move	a0,s1
[31m  40d5e0:	8f998298 	lw	t9,strcpy[0m
  40d5e4:	0320f809 	jalr	t9
  40d5e8:	260500c4 	addiu	a1,s0,196
  40d5ec:	8fbc0018 	lw	gp,24(sp)
  40d5f0:	26444ca0 	addiu	a0,s2,19616
  40d5f4:	3c050041 	lui	a1,0x41
  40d5f8:	24a54cb8 	addiu	a1,a1,19640
  40d5fc:	02203021 	move	a2,s1
  40d600:	8f998258 	lw	t9,-32168(gp)
  40d604:	0320f809 	jalr	t9
  40d608:	24070001 	li	a3,1
  40d60c:	8fbc0018 	lw	gp,24(sp)
  40d610:	02202021 	move	a0,s1
  40d614:	00002821 	move	a1,zero
  40d618:	8f99812c 	lw	t9,-32468(gp)
  40d61c:	0320f809 	jalr	t9
  40d620:	24060100 	li	a2,256
  40d624:	8fbc0018 	lw	gp,24(sp)
  40d628:	02202021 	move	a0,s1
[31m  40d62c:	8f998298 	lw	t9,strcpy[0m
  40d630:	0320f809 	jalr	t9
  40d634:	26050104 	addiu	a1,s0,260
--
  40dd1c:	a2600011 	sb	zero,17(s3)
  40dd20:	3c02d200 	lui	v0,0xd200
  40dd24:	aa220000 	swl	v0,0(s1)
  40dd28:	ba220003 	swr	v0,3(s1)
  40dd2c:	1000016f 	b	40e2ec <landap_set_simple_wifi_info@@Base+0xc68>
  40dd30:	24020026 	li	v0,38
  40dd34:	92020026 	lbu	v0,38(s0)
  40dd38:	afa20138 	sw	v0,312(sp)
  40dd3c:	3c120041 	lui	s2,0x41
  40dd40:	26444bf0 	addiu	a0,s2,19440
  40dd44:	3c050041 	lui	a1,0x41
  40dd48:	24a54c04 	addiu	a1,a1,19460
  40dd4c:	27a60138 	addiu	a2,sp,312
  40dd50:	8f998258 	lw	t9,-32168(gp)
  40dd54:	0320f809 	jalr	t9
  40dd58:	24070001 	li	a3,1
  40dd5c:	8fbc0018 	lw	gp,24(sp)
  40dd60:	27b30038 	addiu	s3,sp,56
  40dd64:	02602021 	move	a0,s3
  40dd68:	00002821 	move	a1,zero
  40dd6c:	8f99812c 	lw	t9,-32468(gp)
  40dd70:	0320f809 	jalr	t9
  40dd74:	24060100 	li	a2,256
  40dd78:	8fbc0018 	lw	gp,24(sp)
  40dd7c:	02602021 	move	a0,s3
[31m  40dd80:	8f998298 	lw	t9,strcpy[0m
  40dd84:	0320f809 	jalr	t9
  40dd88:	26050001 	addiu	a1,s0,1
--
  40de1c:	3c020041 	lui	v0,0x41
  40de20:	904254c0 	lbu	v0,21696(v0)
  40de24:	a3a20148 	sb	v0,328(sp)
  40de28:	27a40149 	addiu	a0,sp,329
  40de2c:	00002821 	move	a1,zero
  40de30:	8f99812c 	lw	t9,-32468(gp)
  40de34:	0320f809 	jalr	t9
  40de38:	240600ff 	li	a2,255
  40de3c:	8fbc0018 	lw	gp,24(sp)
  40de40:	27b20148 	addiu	s2,sp,328
  40de44:	02402021 	move	a0,s2
  40de48:	3c050041 	lui	a1,0x41
  40de4c:	8fa60034 	lw	a2,52(sp)
  40de50:	8f9980e4 	lw	t9,-32540(gp)
  40de54:	0320f809 	jalr	t9
  40de58:	24a54cc4 	addiu	a1,a1,19652
  40de5c:	8fbc0018 	lw	gp,24(sp)
  40de60:	27b30038 	addiu	s3,sp,56
  40de64:	02602021 	move	a0,s3
  40de68:	00002821 	move	a1,zero
  40de6c:	8f99812c 	lw	t9,-32468(gp)
  40de70:	0320f809 	jalr	t9
  40de74:	24060100 	li	a2,256
  40de78:	8fbc0018 	lw	gp,24(sp)
  40de7c:	02602021 	move	a0,s3
[31m  40de80:	8f998298 	lw	t9,strcpy[0m
  40de84:	0320f809 	jalr	t9
  40de88:	26050029 	addiu	a1,s0,41
  40de8c:	8fbc0018 	lw	gp,24(sp)
  40de90:	3c040041 	lui	a0,0x41
  40de94:	24844bf0 	addiu	a0,a0,19440
  40de98:	02402821 	move	a1,s2
  40de9c:	02603021 	move	a2,s3
  40dea0:	8f998258 	lw	t9,-32168(gp)
  40dea4:	0320f809 	jalr	t9
  40dea8:	24070001 	li	a3,1
  40deac:	8fbc0018 	lw	gp,24(sp)
  40deb0:	8fa20028 	lw	v0,40(sp)
  40deb4:	2442fffe 	addiu	v0,v0,-2
  40deb8:	2c420003 	sltiu	v0,v0,3
  40debc:	10400017 	beqz	v0,40df1c <landap_set_simple_wifi_info@@Base+0x898>
  40dec0:	3c040041 	lui	a0,0x41
  40dec4:	27b20038 	addiu	s2,sp,56
  40dec8:	02402021 	move	a0,s2
  40decc:	00002821 	move	a1,zero
  40ded0:	8f99812c 	lw	t9,-32468(gp)
  40ded4:	0320f809 	jalr	t9
  40ded8:	24060100 	li	a2,256
  40dedc:	8fbc0018 	lw	gp,24(sp)
  40dee0:	02402021 	move	a0,s2
[31m  40dee4:	8f998298 	lw	t9,strcpy[0m
  40dee8:	0320f809 	jalr	t9
  40deec:	26050029 	addiu	a1,s0,41
--
  40f4b8:	26244dcc 	addiu	a0,s1,19916
  40f4bc:	3c050041 	lui	a1,0x41
  40f4c0:	24a54de4 	addiu	a1,a1,19940
  40f4c4:	26060012 	addiu	a2,s0,18
  40f4c8:	8f998258 	lw	t9,-32168(gp)
  40f4cc:	0320f809 	jalr	t9
  40f4d0:	24070001 	li	a3,1
  40f4d4:	8fbc0020 	lw	gp,32(sp)
  40f4d8:	92020013 	lbu	v0,19(s0)
  40f4dc:	14400003 	bnez	v0,40f4ec <landap_set_system_datetime@@Base+0x608>
  40f4e0:	24020001 	li	v0,1
  40f4e4:	10000002 	b	40f4f0 <landap_set_system_datetime@@Base+0x60c>
  40f4e8:	afa00040 	sw	zero,64(sp)
  40f4ec:	afa20040 	sw	v0,64(sp)
  40f4f0:	3c120041 	lui	s2,0x41
  40f4f4:	26444dcc 	addiu	a0,s2,19916
  40f4f8:	3c050041 	lui	a1,0x41
  40f4fc:	24a54df4 	addiu	a1,a1,19956
  40f500:	27a60040 	addiu	a2,sp,64
  40f504:	8f998258 	lw	t9,-32168(gp)
  40f508:	0320f809 	jalr	t9
  40f50c:	24070001 	li	a3,1
  40f510:	8fbc0020 	lw	gp,32(sp)
  40f514:	27b10044 	addiu	s1,sp,68
  40f518:	02202021 	move	a0,s1
[31m  40f51c:	8f998298 	lw	t9,strcpy[0m
  40f520:	0320f809 	jalr	t9
  40f524:	26050014 	addiu	a1,s0,20
--
  410418:	a2600011 	sb	zero,17(s3)
  41041c:	3c02d200 	lui	v0,0xd200
  410420:	aa220000 	swl	v0,0(s1)
  410424:	ba220003 	swr	v0,3(s1)
  410428:	100001c5 	b	410b40 <landap_set_wifi_info@@Base+0xe6c>
  41042c:	24020026 	li	v0,38
  410430:	92020001 	lbu	v0,1(s0)
  410434:	afa20138 	sw	v0,312(sp)
  410438:	3c120041 	lui	s2,0x41
  41043c:	26444bf0 	addiu	a0,s2,19440
  410440:	3c050041 	lui	a1,0x41
  410444:	24a54c04 	addiu	a1,a1,19460
  410448:	27a60138 	addiu	a2,sp,312
  41044c:	8f998258 	lw	t9,-32168(gp)
  410450:	0320f809 	jalr	t9
  410454:	24070001 	li	a3,1
  410458:	8fbc0018 	lw	gp,24(sp)
  41045c:	27b30038 	addiu	s3,sp,56
  410460:	02602021 	move	a0,s3
  410464:	00002821 	move	a1,zero
  410468:	8f99812c 	lw	t9,-32468(gp)
  41046c:	0320f809 	jalr	t9
  410470:	24060100 	li	a2,256
  410474:	8fbc0018 	lw	gp,24(sp)
  410478:	02602021 	move	a0,s3
[31m  41047c:	8f998298 	lw	t9,strcpy[0m
  410480:	0320f809 	jalr	t9
  410484:	26050002 	addiu	a1,s0,2
--
  410544:	24070001 	li	a3,1
  410548:	8fbc0018 	lw	gp,24(sp)
  41054c:	26444bf0 	addiu	a0,s2,19440
  410550:	3c050041 	lui	a1,0x41
  410554:	24a54c58 	addiu	a1,a1,19544
  410558:	27a60034 	addiu	a2,sp,52
  41055c:	8f998258 	lw	t9,-32168(gp)
  410560:	0320f809 	jalr	t9
  410564:	24070001 	li	a3,1
  410568:	8fbc0018 	lw	gp,24(sp)
  41056c:	24020001 	li	v0,1
  410570:	8fa30028 	lw	v1,40(sp)
  410574:	14620063 	bne	v1,v0,410704 <landap_set_wifi_info@@Base+0xa30>
  410578:	00000000 	nop
  41057c:	8fa20034 	lw	v0,52(sp)
  410580:	14400018 	bnez	v0,4105e4 <landap_set_wifi_info@@Base+0x910>
  410584:	24030001 	li	v1,1
  410588:	27b20038 	addiu	s2,sp,56
  41058c:	02402021 	move	a0,s2
  410590:	00002821 	move	a1,zero
  410594:	8f99812c 	lw	t9,-32468(gp)
  410598:	0320f809 	jalr	t9
  41059c:	24060100 	li	a2,256
  4105a0:	8fbc0018 	lw	gp,24(sp)
  4105a4:	02402021 	move	a0,s2
[31m  4105a8:	8f998298 	lw	t9,strcpy[0m
  4105ac:	0320f809 	jalr	t9
  4105b0:	2605002a 	addiu	a1,s0,42
  4105b4:	8fbc0018 	lw	gp,24(sp)
  4105b8:	3c040041 	lui	a0,0x41
  4105bc:	24844bf0 	addiu	a0,a0,19440
  4105c0:	3c050041 	lui	a1,0x41
  4105c4:	24a54c68 	addiu	a1,a1,19560
  4105c8:	02403021 	move	a2,s2
  4105cc:	8f998258 	lw	t9,-32168(gp)
  4105d0:	0320f809 	jalr	t9
  4105d4:	24070001 	li	a3,1
  4105d8:	8fbc0018 	lw	gp,24(sp)
  4105dc:	10000049 	b	410704 <landap_set_wifi_info@@Base+0xa30>
  4105e0:	00000000 	nop
  4105e4:	14430018 	bne	v0,v1,410648 <landap_set_wifi_info@@Base+0x974>
  4105e8:	24030002 	li	v1,2
  4105ec:	27b20038 	addiu	s2,sp,56
  4105f0:	02402021 	move	a0,s2
  4105f4:	00002821 	move	a1,zero
  4105f8:	8f99812c 	lw	t9,-32468(gp)
  4105fc:	0320f809 	jalr	t9
  410600:	24060100 	li	a2,256
  410604:	8fbc0018 	lw	gp,24(sp)
  410608:	02402021 	move	a0,s2
[31m  41060c:	8f998298 	lw	t9,strcpy[0m
  410610:	0320f809 	jalr	t9
  410614:	2605004a 	addiu	a1,s0,74
  410618:	8fbc0018 	lw	gp,24(sp)
  41061c:	3c040041 	lui	a0,0x41
  410620:	24844bf0 	addiu	a0,a0,19440
  410624:	3c050041 	lui	a1,0x41
  410628:	24a54c70 	addiu	a1,a1,19568
  41062c:	02403021 	move	a2,s2
  410630:	8f998258 	lw	t9,-32168(gp)
  410634:	0320f809 	jalr	t9
  410638:	24070001 	li	a3,1
  41063c:	8fbc0018 	lw	gp,24(sp)
  410640:	10000030 	b	410704 <landap_set_wifi_info@@Base+0xa30>
  410644:	00000000 	nop
  410648:	14430018 	bne	v0,v1,4106ac <landap_set_wifi_info@@Base+0x9d8>
  41064c:	24030003 	li	v1,3
  410650:	27b20038 	addiu	s2,sp,56
  410654:	02402021 	move	a0,s2
  410658:	00002821 	move	a1,zero
  41065c:	8f99812c 	lw	t9,-32468(gp)
  410660:	0320f809 	jalr	t9
  410664:	24060100 	li	a2,256
  410668:	8fbc0018 	lw	gp,24(sp)
  41066c:	02402021 	move	a0,s2
[31m  410670:	8f998298 	lw	t9,strcpy[0m
  410674:	0320f809 	jalr	t9
  410678:	2605006a 	addiu	a1,s0,106
  41067c:	8fbc0018 	lw	gp,24(sp)
  410680:	3c040041 	lui	a0,0x41
  410684:	24844bf0 	addiu	a0,a0,19440
  410688:	3c050041 	lui	a1,0x41
  41068c:	24a54c78 	addiu	a1,a1,19576
  410690:	02403021 	move	a2,s2
  410694:	8f998258 	lw	t9,-32168(gp)
  410698:	0320f809 	jalr	t9
  41069c:	24070001 	li	a3,1
  4106a0:	8fbc0018 	lw	gp,24(sp)
  4106a4:	10000017 	b	410704 <landap_set_wifi_info@@Base+0xa30>
  4106a8:	00000000 	nop
  4106ac:	14430015 	bne	v0,v1,410704 <landap_set_wifi_info@@Base+0xa30>
  4106b0:	27b20038 	addiu	s2,sp,56
  4106b4:	02402021 	move	a0,s2
  4106b8:	00002821 	move	a1,zero
  4106bc:	8f99812c 	lw	t9,-32468(gp)
  4106c0:	0320f809 	jalr	t9
  4106c4:	24060100 	li	a2,256
  4106c8:	8fbc0018 	lw	gp,24(sp)
  4106cc:	02402021 	move	a0,s2
[31m  4106d0:	8f998298 	lw	t9,strcpy[0m
  4106d4:	0320f809 	jalr	t9
  4106d8:	2605008a 	addiu	a1,s0,138
  4106dc:	8fbc0018 	lw	gp,24(sp)
  4106e0:	3c040041 	lui	a0,0x41
  4106e4:	24844bf0 	addiu	a0,a0,19440
  4106e8:	3c050041 	lui	a1,0x41
  4106ec:	24a54c80 	addiu	a1,a1,19584
  4106f0:	02403021 	move	a2,s2
  4106f4:	8f998258 	lw	t9,-32168(gp)
  4106f8:	0320f809 	jalr	t9
  4106fc:	24070001 	li	a3,1
  410700:	8fbc0018 	lw	gp,24(sp)
  410704:	8fa20028 	lw	v0,40(sp)
  410708:	2442fffe 	addiu	v0,v0,-2
  41070c:	2c420003 	sltiu	v0,v0,3
  410710:	10400017 	beqz	v0,410770 <landap_set_wifi_info@@Base+0xa9c>
  410714:	3c040041 	lui	a0,0x41
  410718:	27b20038 	addiu	s2,sp,56
  41071c:	02402021 	move	a0,s2
  410720:	00002821 	move	a1,zero
  410724:	8f99812c 	lw	t9,-32468(gp)
  410728:	0320f809 	jalr	t9
  41072c:	24060100 	li	a2,256
  410730:	8fbc0018 	lw	gp,24(sp)
  410734:	02402021 	move	a0,s2
[31m  410738:	8f998298 	lw	t9,strcpy[0m
  41073c:	0320f809 	jalr	t9
  410740:	260500aa 	addiu	a1,s0,170
--
  412618:	8fb00018 	lw	s0,24(sp)
  41261c:	03e00008 	jr	ra
  412620:	27bd0020 	addiu	sp,sp,32
  412624:	27bdffe0 	addiu	sp,sp,-32
  412628:	afbf001c 	sw	ra,28(sp)
  41262c:	afb00018 	sw	s0,24(sp)
  412630:	3c1c0043 	lui	gp,0x43
  412634:	279ce140 	addiu	gp,gp,-7872
  412638:	afbc0010 	sw	gp,16(sp)
  41263c:	8f9980f8 	lw	t9,-32520(gp)
  412640:	0320f809 	jalr	t9
  412644:	00a08021 	move	s0,a1
  412648:	8fbc0010 	lw	gp,16(sp)
  41264c:	14400003 	bnez	v0,41265c <checkAscii@@Base+0xa8>
  412650:	00000000 	nop
  412654:	1000000d 	b	41268c <checkAscii@@Base+0xd8>
  412658:	2402ffff 	li	v0,-1
  41265c:	8c420010 	lw	v0,16(v0)
  412660:	8c420000 	lw	v0,0(v0)
  412664:	8c440000 	lw	a0,0(v0)
  412668:	8f998114 	lw	t9,-32492(gp)
  41266c:	0320f809 	jalr	t9
  412670:	00000000 	nop
  412674:	8fbc0010 	lw	gp,16(sp)
  412678:	02002021 	move	a0,s0
[31m  41267c:	8f998298 	lw	t9,strcpy[0m
  412680:	0320f809 	jalr	t9
  412684:	00402821 	move	a1,v0
--
  412f78:	ae020110 	sw	v0,272(s0)
  412f7c:	02202021 	move	a0,s1
  412f80:	8f998080 	lw	t9,-32640(gp)
  412f84:	0320f809 	jalr	t9
  412f88:	2405002f 	li	a1,47
  412f8c:	8fbc0010 	lw	gp,16(sp)
  412f90:	1040002d 	beqz	v0,413048 <checkAscii@@Base+0xa94>
  412f94:	26450001 	addiu	a1,s2,1
  412f98:	27a40018 	addiu	a0,sp,24
  412f9c:	8f998178 	lw	t9,-32392(gp)
  412fa0:	0320f809 	jalr	t9
  412fa4:	00513023 	subu	a2,v0,s1
  412fa8:	8fbc0010 	lw	gp,16(sp)
  412fac:	241201bb 	li	s2,443
  412fb0:	02202021 	move	a0,s1
  412fb4:	8f998080 	lw	t9,-32640(gp)
  412fb8:	0320f809 	jalr	t9
  412fbc:	2405002f 	li	a1,47
  412fc0:	8fbc0010 	lw	gp,16(sp)
  412fc4:	14400004 	bnez	v0,412fd8 <checkAscii@@Base+0xa24>
  412fc8:	27b10118 	addiu	s1,sp,280
  412fcc:	24020002 	li	v0,2
  412fd0:	1000001d 	b	413048 <checkAscii@@Base+0xa94>
  412fd4:	ae020110 	sw	v0,272(s0)
  412fd8:	02202021 	move	a0,s1
[31m  412fdc:	8f998298 	lw	t9,strcpy[0m
  412fe0:	0320f809 	jalr	t9
  412fe4:	00402821 	move	a1,v0
--
  4132c4:	24050003 	li	a1,3
  4132c8:	10000043 	b	4133d8 <checkAscii@@Base+0xe24>
  4132cc:	a2000005 	sb	zero,5(s0)
  4132d0:	27a40018 	addiu	a0,sp,24
  4132d4:	8f998178 	lw	t9,-32392(gp)
  4132d8:	0320f809 	jalr	t9
  4132dc:	00513023 	subu	a2,v0,s1
  4132e0:	8fbc0010 	lw	gp,16(sp)
  4132e4:	241201bb 	li	s2,443
  4132e8:	02202021 	move	a0,s1
  4132ec:	8f998080 	lw	t9,-32640(gp)
  4132f0:	0320f809 	jalr	t9
  4132f4:	2405002f 	li	a1,47
  4132f8:	8fbc0010 	lw	gp,16(sp)
  4132fc:	14400009 	bnez	v0,413324 <checkAscii@@Base+0xd70>
  413300:	27b10118 	addiu	s1,sp,280
  413304:	24020002 	li	v0,2
  413308:	ae020110 	sw	v0,272(s0)
  41330c:	24040004 	li	a0,4
  413310:	8f9981f0 	lw	t9,-32272(gp)
  413314:	0320f809 	jalr	t9
  413318:	24050003 	li	a1,3
  41331c:	1000002e 	b	4133d8 <checkAscii@@Base+0xe24>
  413320:	a2000005 	sb	zero,5(s0)
  413324:	02202021 	move	a0,s1
[31m  413328:	8f998298 	lw	t9,strcpy[0m
  41332c:	0320f809 	jalr	t9
  413330:	00402821 	move	a1,v0

[0m
[[0;33m*[0m] Function [0;33mstrcpy[0m used [0;33m29[0m times [0;33mddp[0m

