[0m
[[0;33m*[0m] Function [0;33msprintf[0m tear down of [0;33mlibstdc++.so.6.0.13[0m

   4ea58:	00001021 	move	v0,zero
   4ea5c:	8fbf0024 	lw	ra,36(sp)
   4ea60:	8fb10020 	lw	s1,32(sp)
   4ea64:	8fb0001c 	lw	s0,28(sp)
   4ea68:	03e00008 	jr	ra
   4ea6c:	27bd0028 	addiu	sp,sp,40

0004ea70 <_ZNK11__gnu_debug16_Error_formatter10_M_messageENS_13_Debug_msg_idE>:
   4ea70:	3c1c000a 	lui	gp,0xa
   4ea74:	279c4f10 	addiu	gp,gp,20240
   4ea78:	0399e021 	addu	gp,gp,t9
   4ea7c:	8f828114 	lw	v0,-32492(gp)
   4ea80:	00052880 	sll	a1,a1,0x2
   4ea84:	00452821 	addu	a1,v0,a1
   4ea88:	00801021 	move	v0,a0
   4ea8c:	8ca30000 	lw	v1,0(a1)
   4ea90:	03e00008 	jr	ra
   4ea94:	ac83012c 	sw	v1,300(a0)

0004ea98 <_ZNK11__gnu_debug16_Error_formatter14_M_format_wordIlEEvPciPKcT_>:
   4ea98:	3c1c000a 	lui	gp,0xa
   4ea9c:	279c4ee8 	addiu	gp,gp,20200
   4eaa0:	0399e021 	addu	gp,gp,t9
   4eaa4:	8fa60010 	lw	a2,16(sp)
   4eaa8:	00a02021 	move	a0,a1
[31m   4eaac:	8f998814 	lw	t9,sprintf[0m
   4eab0:	00e02821 	move	a1,a3
   4eab4:	03200008 	jr	t9
   4eab8:	00000000 	nop

0004eabc <_ZNK11__gnu_debug16_Error_formatter14_M_format_wordIjEEvPciPKcT_>:
   4eabc:	3c1c000a 	lui	gp,0xa
   4eac0:	279c4ec4 	addiu	gp,gp,20164
   4eac4:	0399e021 	addu	gp,gp,t9
   4eac8:	8fa60010 	lw	a2,16(sp)
   4eacc:	00a02021 	move	a0,a1
[31m   4ead0:	8f998814 	lw	t9,sprintf[0m
   4ead4:	00e02821 	move	a1,a3
   4ead8:	03200008 	jr	t9
   4eadc:	00000000 	nop

0004eae0 <_ZNK11__gnu_debug16_Error_formatter14_M_format_wordIPKcEEvPciS3_T_>:
   4eae0:	3c1c000a 	lui	gp,0xa
   4eae4:	279c4ea0 	addiu	gp,gp,20128
   4eae8:	0399e021 	addu	gp,gp,t9
   4eaec:	8fa60010 	lw	a2,16(sp)
   4eaf0:	00a02021 	move	a0,a1
[31m   4eaf4:	8f998814 	lw	t9,sprintf[0m
   4eaf8:	00e02821 	move	a1,a3
   4eafc:	03200008 	jr	t9
   4eb00:	00000000 	nop

0004eb04 <_ZNK11__gnu_debug16_Error_formatter14_M_format_wordIPKvEEvPciPKcT_>:
   4eb04:	3c1c000a 	lui	gp,0xa
   4eb08:	279c4e7c 	addiu	gp,gp,20092
   4eb0c:	0399e021 	addu	gp,gp,t9
   4eb10:	8fa60010 	lw	a2,16(sp)
   4eb14:	00a02021 	move	a0,a1
[31m   4eb18:	8f998814 	lw	t9,sprintf[0m
   4eb1c:	00e02821 	move	a1,a3
   4eb20:	03200008 	jr	t9
--
   b0258:	02a02821 	move	a1,s5
   b025c:	0257102a 	slt	v0,s2,s7
   b0260:	10400004 	beqz	v0,b0274 <d_print_comp+0x1204>
   b0264:	02002021 	move	a0,s0
   b0268:	0220c821 	move	t9,s1
   b026c:	0320f809 	jalr	t9
   b0270:	02802821 	move	a1,s4
   b0274:	26520001 	addiu	s2,s2,1
   b0278:	0253102a 	slt	v0,s2,s3
   b027c:	1440fff3 	bnez	v0,b024c <d_print_comp+0x11dc>
   b0280:	02002021 	move	a0,s0
   b0284:	1000001a 	b	b02f0 <d_print_comp+0x1280>
   b0288:	8fbf00a4 	lw	ra,164(sp)
   b028c:	8f92802c 	lw	s2,-32724(gp)
   b0290:	02002021 	move	a0,s0
   b0294:	27b30018 	addiu	s3,sp,24
   b0298:	8f85804c 	lw	a1,-32692(gp)
   b029c:	2652c750 	addiu	s2,s2,-14512
   b02a0:	0240c821 	move	t9,s2
   b02a4:	0320f809 	jalr	t9
   b02a8:	24a5a450 	addiu	a1,a1,-23472
   b02ac:	02602021 	move	a0,s3
   b02b0:	8fbc0010 	lw	gp,16(sp)
   b02b4:	8e260004 	lw	a2,4(s1)
   b02b8:	8f85802c 	lw	a1,-32724(gp)
[31m   b02bc:	8f998814 	lw	t9,sprintf[0m
   b02c0:	0320f809 	jalr	t9
   b02c4:	24a566e8 	addiu	a1,a1,26344

[0m
[[0;33m*[0m] Function [0;33msprintf[0m used [0;33m5[0m times [0;33mlibstdc++.so.6.0.13[0m

