[[0;33m*[0m] Binary protection state of [0;33mrt2860apd[0m

  	RELRO          CANARY            NX           PIE          RPATH        RUNPATH      SYMBOLS      
  	[31mNo RELRO[0m       [31mNo Canary found[0m   [31mNX disabled[0m  [31mNo PIE[0m       [32mNo RPATH[0m     [32mNo RUNPATH[0m   [31mSymbols[0m

[0m
[[0;33m*[0m] Function [0;33mprintf[0m tear down of [0;33mrt2860apd[0m

  4014d4:	24a503b8 	addiu	a1,a1,952
  4014d8:	02803021 	move	a2,s4
  4014dc:	8f9381b4 	lw	s3,-32332(gp)
  4014e0:	0320f809 	jalr	t9
  4014e4:	00003821 	move	a3,zero
  4014e8:	8fbc0020 	lw	gp,32(sp)
  4014ec:	3c150041 	lui	s5,0x41
  4014f0:	3c170041 	lui	s7,0x41
  4014f4:	26b5065c 	addiu	s5,s5,1628
  4014f8:	26f70664 	addiu	s7,s7,1636
  4014fc:	3c160042 	lui	s6,0x42
  401500:	8f998160 	lw	t9,-32416(gp)
  401504:	02402021 	move	a0,s2
  401508:	02202821 	move	a1,s1
  40150c:	0320f809 	jalr	t9
  401510:	02a03021 	move	a2,s5
  401514:	8fbc0020 	lw	gp,32(sp)
  401518:	04400060 	bltz	v0,40169c <main+0x29c>
  40151c:	24030069 	li	v1,105
  401520:	10430092 	beq	v0,v1,40176c <main+0x36c>
  401524:	24030070 	li	v1,112
  401528:	10430080 	beq	v0,v1,40172c <main+0x32c>
  40152c:	24030064 	li	v1,100
  401530:	10430045 	beq	v0,v1,401648 <main+0x248>
  401534:	00000000 	nop
[31m  401538:	8f9981d8 	lw	t9,printf[0m
  40153c:	3c100041 	lui	s0,0x41
  401540:	0320f809 	jalr	t9
  401544:	260400f0 	addiu	a0,s0,240
  401548:	8fbc0020 	lw	gp,32(sp)
  40154c:	3c040041 	lui	a0,0x41
  401550:	8f9981bc 	lw	t9,-32324(gp)
  401554:	00000000 	nop
  401558:	0320f809 	jalr	t9
  40155c:	2484067c 	addiu	a0,a0,1660
  401560:	8fbc0020 	lw	gp,32(sp)
  401564:	00000000 	nop
[31m  401568:	8f9981d8 	lw	t9,printf[0m
  40156c:	00000000 	nop
  401570:	0320f809 	jalr	t9
  401574:	260400f0 	addiu	a0,s0,240
  401578:	8fbc0020 	lw	gp,32(sp)
  40157c:	3c040041 	lui	a0,0x41
  401580:	8f9981bc 	lw	t9,-32324(gp)
  401584:	00000000 	nop
  401588:	0320f809 	jalr	t9
  40158c:	248406a4 	addiu	a0,a0,1700
  401590:	8fbc0020 	lw	gp,32(sp)
  401594:	00000000 	nop
[31m  401598:	8f9981d8 	lw	t9,printf[0m
  40159c:	00000000 	nop
  4015a0:	0320f809 	jalr	t9
  4015a4:	260400f0 	addiu	a0,s0,240
  4015a8:	8fbc0020 	lw	gp,32(sp)
  4015ac:	3c040041 	lui	a0,0x41
  4015b0:	8f9981bc 	lw	t9,-32324(gp)
  4015b4:	00000000 	nop
  4015b8:	0320f809 	jalr	t9
  4015bc:	248406bc 	addiu	a0,a0,1724
  4015c0:	8fbc0020 	lw	gp,32(sp)
  4015c4:	00000000 	nop
[31m  4015c8:	8f9981d8 	lw	t9,printf[0m
  4015cc:	00000000 	nop
  4015d0:	0320f809 	jalr	t9
  4015d4:	260400f0 	addiu	a0,s0,240
  4015d8:	8fbc0020 	lw	gp,32(sp)
  4015dc:	3c040041 	lui	a0,0x41
  4015e0:	8f9981bc 	lw	t9,-32324(gp)
  4015e4:	00000000 	nop
  4015e8:	0320f809 	jalr	t9
  4015ec:	24840704 	addiu	a0,a0,1796
  4015f0:	8fbc0020 	lw	gp,32(sp)
  4015f4:	00000000 	nop
[31m  4015f8:	8f9981d8 	lw	t9,printf[0m
  4015fc:	00000000 	nop
  401600:	0320f809 	jalr	t9
  401604:	260400f0 	addiu	a0,s0,240
  401608:	8fbc0020 	lw	gp,32(sp)
  40160c:	3c040041 	lui	a0,0x41
  401610:	8f9981bc 	lw	t9,-32324(gp)
  401614:	00000000 	nop
  401618:	0320f809 	jalr	t9
  40161c:	2484073c 	addiu	a0,a0,1852
  401620:	8fbc0020 	lw	gp,32(sp)
  401624:	00000000 	nop
  401628:	8f998140 	lw	t9,-32448(gp)
  40162c:	00000000 	nop
  401630:	0320f809 	jalr	t9
  401634:	24040001 	li	a0,1
  401638:	8c420654 	lw	v0,1620(v0)
  40163c:	27b40034 	addiu	s4,sp,52
  401640:	08100532 	j	4014c8 <main+0xc8>
  401644:	afa20034 	sw	v0,52(sp)
[31m  401648:	8f9981d8 	lw	t9,printf[0m
  40164c:	8e650000 	lw	a1,0(s3)
  401650:	0320f809 	jalr	t9
  401654:	02e02021 	move	a0,s7
  401658:	8fbc0020 	lw	gp,32(sp)
  40165c:	8e640000 	lw	a0,0(s3)
  401660:	00002821 	move	a1,zero
  401664:	8f9981a4 	lw	t9,-32348(gp)
  401668:	00000000 	nop
  40166c:	0320f809 	jalr	t9
  401670:	2406000a 	li	a2,10
  401674:	8fbc0020 	lw	gp,32(sp)
  401678:	aec22c80 	sw	v0,11392(s6)
  40167c:	02402021 	move	a0,s2
  401680:	8f998160 	lw	t9,-32416(gp)
  401684:	02202821 	move	a1,s1
  401688:	0320f809 	jalr	t9
  40168c:	02a03021 	move	a2,s5
  401690:	8fbc0020 	lw	gp,32(sp)
  401694:	0441ffa2 	bgez	v0,401520 <main+0x120>
  401698:	24030069 	li	v1,105
[31m  40169c:	8f9981d8 	lw	t9,printf[0m
  4016a0:	3c130041 	lui	s3,0x41
  4016a4:	0320f809 	jalr	t9
  4016a8:	266400f0 	addiu	a0,s3,240
  4016ac:	8fbc0020 	lw	gp,32(sp)
  4016b0:	3c040041 	lui	a0,0x41
  4016b4:	3c050041 	lui	a1,0x41
[31m  4016b8:	8f9981d8 	lw	t9,printf[0m
  4016bc:	24840760 	addiu	a0,a0,1888
  4016c0:	24a50788 	addiu	a1,a1,1928
--
  401be8:	8fbc0020 	lw	gp,32(sp)
  401bec:	8fa40030 	lw	a0,48(sp)
  401bf0:	8fa2002c 	lw	v0,44(sp)
  401bf4:	26940001 	addiu	s4,s4,1
  401bf8:	0282182a 	slt	v1,s4,v0
  401bfc:	1460ffb7 	bnez	v1,401adc <main+0x6dc>
  401c00:	0014a880 	sll	s5,s4,0x2
  401c04:	8f998120 	lw	t9,-32480(gp)
  401c08:	00000000 	nop
  401c0c:	0320f809 	jalr	t9
  401c10:	00000000 	nop
  401c14:	8fbc0020 	lw	gp,32(sp)
  401c18:	00000000 	nop
  401c1c:	8f998060 	lw	t9,-32672(gp)
  401c20:	00000000 	nop
  401c24:	041108f7 	bal	404004 <eloop_destroy>
  401c28:	00000000 	nop
  401c2c:	8fbc0020 	lw	gp,32(sp)
  401c30:	00000000 	nop
  401c34:	8f99818c 	lw	t9,-32372(gp)
  401c38:	00000000 	nop
  401c3c:	0320f809 	jalr	t9
  401c40:	00000000 	nop
  401c44:	081005bf 	j	4016fc <main+0x2fc>
  401c48:	00000000 	nop
[31m  401c4c:	8f9981d8 	lw	t9,printf[0m
  401c50:	00000000 	nop
  401c54:	0320f809 	jalr	t9
  401c58:	266400f0 	addiu	a0,s3,240
  401c5c:	8fbc0020 	lw	gp,32(sp)
  401c60:	8fa50028 	lw	a1,40(sp)
  401c64:	3c040041 	lui	a0,0x41
[31m  401c68:	8f9981d8 	lw	t9,printf[0m
  401c6c:	00000000 	nop
  401c70:	0320f809 	jalr	t9
  401c74:	248407c0 	addiu	a0,a0,1984
  401c78:	8fbc0020 	lw	gp,32(sp)
  401c7c:	081005ff 	j	4017fc <main+0x3fc>
  401c80:	00000000 	nop
[31m  401c84:	8f9981d8 	lw	t9,printf[0m
  401c88:	00000000 	nop
  401c8c:	0320f809 	jalr	t9
  401c90:	266400f0 	addiu	a0,s3,240
  401c94:	8fbc0020 	lw	gp,32(sp)
  401c98:	3c040041 	lui	a0,0x41
[31m  401c9c:	8f9981d8 	lw	t9,printf[0m
  401ca0:	8f85804c 	lw	a1,-32692(gp)
  401ca4:	0320f809 	jalr	t9
  401ca8:	24840790 	addiu	a0,a0,1936
  401cac:	8e422c80 	lw	v0,11392(s2)
  401cb0:	8fbc0020 	lw	gp,32(sp)
  401cb4:	2c420003 	sltiu	v0,v0,3
  401cb8:	1440fe89 	bnez	v0,4016e0 <main+0x2e0>
  401cbc:	00000000 	nop
[31m  401cc0:	8f9981d8 	lw	t9,printf[0m
  401cc4:	00000000 	nop
  401cc8:	0320f809 	jalr	t9
  401ccc:	266400f0 	addiu	a0,s3,240
  401cd0:	8fbc0020 	lw	gp,32(sp)
  401cd4:	3c040041 	lui	a0,0x41
  401cd8:	248407ac 	addiu	a0,a0,1964
[31m  401cdc:	8f9981d8 	lw	t9,printf[0m
  401ce0:	00000000 	nop
  401ce4:	0320f809 	jalr	t9
--
  401d5c:	00000000 	nop
  401d60:	8f998120 	lw	t9,-32480(gp)
  401d64:	00000000 	nop
  401d68:	0320f809 	jalr	t9
  401d6c:	00000000 	nop
  401d70:	8fbc0020 	lw	gp,32(sp)
  401d74:	00000000 	nop
  401d78:	8f998120 	lw	t9,-32480(gp)
  401d7c:	02202021 	move	a0,s1
  401d80:	0320f809 	jalr	t9
  401d84:	00008821 	move	s1,zero
  401d88:	8fbc0020 	lw	gp,32(sp)
  401d8c:	08100699 	j	401a64 <main+0x664>
  401d90:	aeb10000 	sw	s1,0(s5)
  401d94:	8f998064 	lw	t9,-32668(gp)
  401d98:	00000000 	nop
  401d9c:	04112e2f 	bal	40d65c <ieee802_1x_init>
  401da0:	02802021 	move	a0,s4
  401da4:	8fbc0020 	lw	gp,32(sp)
  401da8:	10400041 	beqz	v0,401eb0 <main+0xab0>
  401dac:	3c150041 	lui	s5,0x41
  401db0:	8e422c80 	lw	v0,11392(s2)
  401db4:	00000000 	nop
  401db8:	1040ff40 	beqz	v0,401abc <main+0x6bc>
  401dbc:	00000000 	nop
[31m  401dc0:	8f9981d8 	lw	t9,printf[0m
  401dc4:	00000000 	nop
  401dc8:	0320f809 	jalr	t9
  401dcc:	266400f0 	addiu	a0,s3,240
  401dd0:	8fbc0020 	lw	gp,32(sp)
  401dd4:	3c040041 	lui	a0,0x41
  401dd8:	8f9981bc 	lw	t9,-32324(gp)
  401ddc:	00000000 	nop
  401de0:	0320f809 	jalr	t9
  401de4:	248408e8 	addiu	a0,a0,2280
  401de8:	8fbc0020 	lw	gp,32(sp)
  401dec:	081006af 	j	401abc <main+0x6bc>
  401df0:	00000000 	nop
  401df4:	8e422c80 	lw	v0,11392(s2)
  401df8:	00000000 	nop
  401dfc:	1040ffc2 	beqz	v0,401d08 <main+0x908>
  401e00:	00000000 	nop
[31m  401e04:	8f9981d8 	lw	t9,printf[0m
  401e08:	00000000 	nop
  401e0c:	0320f809 	jalr	t9
  401e10:	266400f0 	addiu	a0,s3,240
  401e14:	8fbc0020 	lw	gp,32(sp)
  401e18:	3c040041 	lui	a0,0x41
  401e1c:	8f9981bc 	lw	t9,-32324(gp)
  401e20:	00000000 	nop
  401e24:	0320f809 	jalr	t9
  401e28:	2484089c 	addiu	a0,a0,2204
  401e2c:	8fbc0020 	lw	gp,32(sp)
  401e30:	08100742 	j	401d08 <main+0x908>
  401e34:	00000000 	nop
  401e38:	8e422c80 	lw	v0,11392(s2)
  401e3c:	00000000 	nop
  401e40:	1040ffb1 	beqz	v0,401d08 <main+0x908>
  401e44:	00000000 	nop
[31m  401e48:	8f9981d8 	lw	t9,printf[0m
  401e4c:	00000000 	nop
  401e50:	0320f809 	jalr	t9
  401e54:	266400f0 	addiu	a0,s3,240
  401e58:	8fbc0020 	lw	gp,32(sp)
  401e5c:	3c040041 	lui	a0,0x41
  401e60:	8f9981bc 	lw	t9,-32324(gp)
  401e64:	00000000 	nop
  401e68:	0320f809 	jalr	t9
  401e6c:	2484086c 	addiu	a0,a0,2156
  401e70:	8fbc0020 	lw	gp,32(sp)
  401e74:	08100742 	j	401d08 <main+0x908>
  401e78:	00000000 	nop
[31m  401e7c:	8f9981d8 	lw	t9,printf[0m
  401e80:	00000000 	nop
  401e84:	0320f809 	jalr	t9
--
  401e8c:	8fbc0020 	lw	gp,32(sp)
  401e90:	3c040041 	lui	a0,0x41
  401e94:	8f9981bc 	lw	t9,-32324(gp)
  401e98:	00000000 	nop
  401e9c:	0320f809 	jalr	t9
  401ea0:	24840154 	addiu	a0,a0,340
  401ea4:	8fbc0020 	lw	gp,32(sp)
  401ea8:	081006af 	j	401abc <main+0x6bc>
  401eac:	00000000 	nop
  401eb0:	8e830000 	lw	v1,0(s4)
  401eb4:	00008821 	move	s1,zero
  401eb8:	267300f0 	addiu	s3,s3,240
  401ebc:	26b5017c 	addiu	s5,s5,380
  401ec0:	8c620014 	lw	v0,20(v1)
  401ec4:	00000000 	nop
  401ec8:	0222102a 	slt	v0,s1,v0
  401ecc:	10400019 	beqz	v0,401f34 <main+0xb34>
  401ed0:	34058be1 	li	a1,0x8be1
  401ed4:	8e422c80 	lw	v0,11392(s2)
  401ed8:	00000000 	nop
  401edc:	2c420003 	sltiu	v0,v0,3
  401ee0:	10400003 	beqz	v0,401ef0 <main+0xaf0>
  401ee4:	00000000 	nop
  401ee8:	081007b0 	j	401ec0 <main+0xac0>
  401eec:	26310001 	addiu	s1,s1,1
[31m  401ef0:	8f9981d8 	lw	t9,printf[0m
  401ef4:	00000000 	nop
  401ef8:	0320f809 	jalr	t9
  401efc:	02602021 	move	a0,s3
  401f00:	8e8308f8 	lw	v1,2296(s4)
  401f04:	8fbc0020 	lw	gp,32(sp)
  401f08:	00111080 	sll	v0,s1,0x2
  401f0c:	00621021 	addu	v0,v1,v0
  401f10:	8c460000 	lw	a2,0(v0)
[31m  401f14:	8f9981d8 	lw	t9,printf[0m
  401f18:	02202821 	move	a1,s1
  401f1c:	0320f809 	jalr	t9
--
  401f3c:	8c420000 	lw	v0,0(v0)
  401f40:	24070004 	li	a3,4
  401f44:	0000b021 	move	s6,zero
  401f48:	8c44008c 	lw	a0,140(v0)
  401f4c:	34028405 	li	v0,0x8405
  401f50:	afb00010 	sw	s0,16(sp)
  401f54:	afa00014 	sw	zero,20(sp)
  401f58:	0c100ba8 	jal	402ea0 <RT_ioctl>
  401f5c:	afa20018 	sw	v0,24(sp)
  401f60:	8fbc0020 	lw	gp,32(sp)
  401f64:	00000000 	nop
  401f68:	8f998068 	lw	t9,-32664(gp)
  401f6c:	00000000 	nop
  401f70:	04110750 	bal	403cb4 <eloop_run>
  401f74:	00000000 	nop
  401f78:	8fbc0020 	lw	gp,32(sp)
  401f7c:	8fa20030 	lw	v0,48(sp)
  401f80:	8f998038 	lw	t9,-32712(gp)
  401f84:	8c440000 	lw	a0,0(v0)
  401f88:	0411314d 	bal	40e4c0 <Apd_free_stas>
  401f8c:	00000000 	nop
  401f90:	8fbc0020 	lw	gp,32(sp)
  401f94:	8fa40030 	lw	a0,48(sp)
  401f98:	081006b1 	j	401ac4 <main+0x6c4>
  401f9c:	00000000 	nop
[31m  401fa0:	8f9981d8 	lw	t9,printf[0m
  401fa4:	00000000 	nop
  401fa8:	0320f809 	jalr	t9
  401fac:	266400f0 	addiu	a0,s3,240
  401fb0:	8fbc0020 	lw	gp,32(sp)
  401fb4:	3c040041 	lui	a0,0x41
  401fb8:	8f9981bc 	lw	t9,-32324(gp)
  401fbc:	00000000 	nop
  401fc0:	0320f809 	jalr	t9
  401fc4:	24840810 	addiu	a0,a0,2064
  401fc8:	8fbc0020 	lw	gp,32(sp)
  401fcc:	08100699 	j	401a64 <main+0x664>
  401fd0:	aeb10000 	sw	s1,0(s5)
[31m  401fd4:	8f9981d8 	lw	t9,printf[0m
  401fd8:	00000000 	nop
  401fdc:	0320f809 	jalr	t9
  401fe0:	266400f0 	addiu	a0,s3,240
  401fe4:	8fbc0020 	lw	gp,32(sp)
  401fe8:	3c040041 	lui	a0,0x41
  401fec:	8f9981bc 	lw	t9,-32324(gp)
  401ff0:	00000000 	nop
  401ff4:	0320f809 	jalr	t9
  401ff8:	2484083c 	addiu	a0,a0,2108
  401ffc:	8fbc0020 	lw	gp,32(sp)
  402000:	08100742 	j	401d08 <main+0x908>
  402004:	00000000 	nop
  402008:	8e422c80 	lw	v0,11392(s2)
  40200c:	00000000 	nop
  402010:	1040ff46 	beqz	v0,401d2c <main+0x92c>
  402014:	00000000 	nop
[31m  402018:	8f9981d8 	lw	t9,printf[0m
  40201c:	00000000 	nop
  402020:	0320f809 	jalr	t9
  402024:	266400f0 	addiu	a0,s3,240
  402028:	8fbc0020 	lw	gp,32(sp)
  40202c:	3c040041 	lui	a0,0x41
  402030:	8f9981bc 	lw	t9,-32324(gp)
  402034:	00000000 	nop
  402038:	0320f809 	jalr	t9
  40203c:	248408bc 	addiu	a0,a0,2236
  402040:	8fbc0020 	lw	gp,32(sp)
  402044:	08100742 	j	401d08 <main+0x908>
  402048:	00000000 	nop
  40204c:	8e422c80 	lw	v0,11392(s2)
  402050:	00000000 	nop
  402054:	1040000d 	beqz	v0,40208c <main+0xc8c>
  402058:	00000000 	nop
[31m  40205c:	8f9981d8 	lw	t9,printf[0m
  402060:	00000000 	nop
  402064:	0320f809 	jalr	t9
--
  402354:	8f99803c 	lw	t9,-32708(gp)
  402358:	00000000 	nop
  40235c:	04113559 	bal	40f8c4 <Radius_client_init>
  402360:	02202021 	move	a0,s1
  402364:	8fbc0010 	lw	gp,16(sp)
  402368:	14400049 	bnez	v0,402490 <Handle_usr1+0x240>
  40236c:	00000000 	nop
  402370:	8e230000 	lw	v1,0(s1)
  402374:	00000000 	nop
  402378:	8c620014 	lw	v0,20(v1)
  40237c:	00000000 	nop
  402380:	1c400008 	bgtz	v0,4023a4 <Handle_usr1+0x154>
  402384:	00008021 	move	s0,zero
  402388:	08100904 	j	402410 <Handle_usr1+0x1c0>
  40238c:	24100001 	li	s0,1
  402390:	8c620014 	lw	v0,20(v1)
  402394:	26100001 	addiu	s0,s0,1
  402398:	0202102a 	slt	v0,s0,v0
  40239c:	1040001b 	beqz	v0,40240c <Handle_usr1+0x1bc>
  4023a0:	00000000 	nop
  4023a4:	8e422c80 	lw	v0,11392(s2)
  4023a8:	00000000 	nop
  4023ac:	2c420003 	sltiu	v0,v0,3
  4023b0:	1440fff7 	bnez	v0,402390 <Handle_usr1+0x140>
  4023b4:	00000000 	nop
[31m  4023b8:	8f9981d8 	lw	t9,printf[0m
  4023bc:	00000000 	nop
  4023c0:	0320f809 	jalr	t9
  4023c4:	02602021 	move	a0,s3
  4023c8:	8e2308f8 	lw	v1,2296(s1)
  4023cc:	8fbc0010 	lw	gp,16(sp)
  4023d0:	00101080 	sll	v0,s0,0x2
  4023d4:	00621021 	addu	v0,v1,v0
  4023d8:	8c460000 	lw	a2,0(v0)
[31m  4023dc:	8f9981d8 	lw	t9,printf[0m
  4023e0:	02002821 	move	a1,s0
  4023e4:	0320f809 	jalr	t9
--
  4023f8:	8c620014 	lw	v0,20(v1)
  4023fc:	00000000 	nop
  402400:	0202102a 	slt	v0,s0,v0
  402404:	1440ffe7 	bnez	v0,4023a4 <Handle_usr1+0x154>
  402408:	00000000 	nop
  40240c:	26100001 	addiu	s0,s0,1
  402410:	8ea20000 	lw	v0,0(s5)
  402414:	00000000 	nop
  402418:	0202102a 	slt	v0,s0,v0
  40241c:	1440ffa6 	bnez	v0,4022b8 <Handle_usr1+0x68>
  402420:	00000000 	nop
  402424:	8fbf003c 	lw	ra,60(sp)
  402428:	8fb60038 	lw	s6,56(sp)
  40242c:	8fb50034 	lw	s5,52(sp)
  402430:	8fb40030 	lw	s4,48(sp)
  402434:	8fb3002c 	lw	s3,44(sp)
  402438:	8fb20028 	lw	s2,40(sp)
  40243c:	8fb10024 	lw	s1,36(sp)
  402440:	8fb00020 	lw	s0,32(sp)
  402444:	03e00008 	jr	ra
  402448:	27bd0040 	addiu	sp,sp,64
  40244c:	8e422c80 	lw	v0,11392(s2)
  402450:	00000000 	nop
  402454:	1040ffed 	beqz	v0,40240c <Handle_usr1+0x1bc>
  402458:	00000000 	nop
[31m  40245c:	8f9981d8 	lw	t9,printf[0m
  402460:	02602021 	move	a0,s3
  402464:	0320f809 	jalr	t9
  402468:	26100001 	addiu	s0,s0,1
  40246c:	8fbc0010 	lw	gp,16(sp)
  402470:	00000000 	nop
  402474:	8f9981bc 	lw	t9,-32324(gp)
  402478:	00000000 	nop
  40247c:	0320f809 	jalr	t9
  402480:	26c40114 	addiu	a0,s6,276
  402484:	8fbc0010 	lw	gp,16(sp)
  402488:	08100904 	j	402410 <Handle_usr1+0x1c0>
  40248c:	00000000 	nop
  402490:	8e422c80 	lw	v0,11392(s2)
  402494:	00000000 	nop
  402498:	1040ffe2 	beqz	v0,402424 <Handle_usr1+0x1d4>
  40249c:	00000000 	nop
[31m  4024a0:	8f9981d8 	lw	t9,printf[0m
  4024a4:	3c040041 	lui	a0,0x41
  4024a8:	0320f809 	jalr	t9
  4024ac:	248400f0 	addiu	a0,a0,240
  4024b0:	8fbc0010 	lw	gp,16(sp)
  4024b4:	8fbf003c 	lw	ra,60(sp)
  4024b8:	8fb60038 	lw	s6,56(sp)
  4024bc:	8fb50034 	lw	s5,52(sp)
  4024c0:	8fb40030 	lw	s4,48(sp)
  4024c4:	8fb3002c 	lw	s3,44(sp)
  4024c8:	8fb20028 	lw	s2,40(sp)
  4024cc:	8fb10024 	lw	s1,36(sp)
  4024d0:	8fb00020 	lw	s0,32(sp)
  4024d4:	8f9981bc 	lw	t9,-32324(gp)
  4024d8:	3c040041 	lui	a0,0x41
  4024dc:	24840154 	addiu	a0,a0,340
  4024e0:	03200008 	jr	t9
  4024e4:	27bd0040 	addiu	sp,sp,64
[31m  4024e8:	8f9981d8 	lw	t9,printf[0m
  4024ec:	3c040041 	lui	a0,0x41
  4024f0:	0320f809 	jalr	t9
  4024f4:	248400f0 	addiu	a0,a0,240
  4024f8:	8fbc0010 	lw	gp,16(sp)
  4024fc:	3c040041 	lui	a0,0x41
  402500:	8f9981bc 	lw	t9,-32324(gp)
  402504:	00000000 	nop
  402508:	0320f809 	jalr	t9
  40250c:	248400fc 	addiu	a0,a0,252
  402510:	8fbc0010 	lw	gp,16(sp)
  402514:	081008a5 	j	402294 <Handle_usr1+0x44>
  402518:	00000000 	nop

0040251c <Handle_term>:
  40251c:	3c020042 	lui	v0,0x42
  402520:	8c422c80 	lw	v0,11392(v0)
  402524:	3c1c0043 	lui	gp,0x43
  402528:	27bdffd8 	addiu	sp,sp,-40
  40252c:	279cac90 	addiu	gp,gp,-21360
  402530:	afbf0024 	sw	ra,36(sp)
  402534:	afbc0010 	sw	gp,16(sp)
  402538:	1040000e 	beqz	v0,402574 <Handle_term+0x58>
  40253c:	00802821 	move	a1,a0
[31m  402540:	8f9981d8 	lw	t9,printf[0m
  402544:	3c040041 	lui	a0,0x41
  402548:	248400f0 	addiu	a0,a0,240
  40254c:	0320f809 	jalr	t9
  402550:	afa50018 	sw	a1,24(sp)
  402554:	8fbc0010 	lw	gp,16(sp)
  402558:	8fa50018 	lw	a1,24(sp)
  40255c:	3c040041 	lui	a0,0x41
[31m  402560:	8f9981d8 	lw	t9,printf[0m
  402564:	00000000 	nop
  402568:	0320f809 	jalr	t9
--
  402600:	00003821 	move	a3,zero
  402604:	0320f809 	jalr	t9
  402608:	00809021 	move	s2,a0
  40260c:	8fbc0020 	lw	gp,32(sp)
  402610:	044000ea 	bltz	v0,4029bc <Handle_read+0x434>
  402614:	00409821 	move	s3,v0
  402618:	2455fff2 	addiu	s5,v0,-14
  40261c:	12a0001e 	beqz	s5,402698 <Handle_read+0x110>
  402620:	3c020042 	lui	v0,0x42
  402624:	93b60044 	lbu	s6,68(sp)
  402628:	93a20045 	lbu	v0,69(sp)
  40262c:	0016b200 	sll	s6,s6,0x8
  402630:	02c2b025 	or	s6,s6,v0
  402634:	34028100 	li	v0,0x8100
  402638:	12c200a9 	beq	s6,v0,4028e0 <Handle_read+0x358>
  40263c:	3c1e0042 	lui	s8,0x42
  402640:	8fd72c80 	lw	s7,11392(s8)
  402644:	afa00bf0 	sw	zero,3056(sp)
  402648:	340288c7 	li	v0,0x88c7
  40264c:	12c20022 	beq	s6,v0,4026d8 <Handle_read+0x150>
  402650:	3402888e 	li	v0,0x888e
  402654:	12c20020 	beq	s6,v0,4026d8 <Handle_read+0x150>
  402658:	00000000 	nop
  40265c:	12e00012 	beqz	s7,4026a8 <Handle_read+0x120>
  402660:	00000000 	nop
[31m  402664:	8f9981d8 	lw	t9,printf[0m
  402668:	3c040041 	lui	a0,0x41
  40266c:	0320f809 	jalr	t9
  402670:	248400f0 	addiu	a0,a0,240
  402674:	8fbc0020 	lw	gp,32(sp)
  402678:	3c040041 	lui	a0,0x41
  40267c:	248402c0 	addiu	a0,a0,704
[31m  402680:	8f9981d8 	lw	t9,printf[0m
  402684:	00000000 	nop
  402688:	0320f809 	jalr	t9
--
  4027e4:	00000000 	nop
  4027e8:	08100a08 	j	402820 <Handle_read+0x298>
  4027ec:	00000000 	nop
  4027f0:	8e310004 	lw	s1,4(s1)
  4027f4:	00000000 	nop
  4027f8:	12200009 	beqz	s1,402820 <Handle_read+0x298>
  4027fc:	00000000 	nop
  402800:	8f99817c 	lw	t9,-32388(gp)
  402804:	26240008 	addiu	a0,s1,8
  402808:	27a5003e 	addiu	a1,sp,62
  40280c:	0320f809 	jalr	t9
  402810:	24060006 	li	a2,6
  402814:	8fbc0020 	lw	gp,32(sp)
  402818:	1440fff5 	bnez	v0,4027f0 <Handle_read+0x268>
  40281c:	00000000 	nop
  402820:	8fc22c80 	lw	v0,11392(s8)
  402824:	00000000 	nop
  402828:	2c430003 	sltiu	v1,v0,3
  40282c:	10600086 	beqz	v1,402a48 <Handle_read+0x4c0>
  402830:	3c040041 	lui	a0,0x41
  402834:	12200161 	beqz	s1,402dbc <Handle_read+0x834>
  402838:	00000000 	nop
  40283c:	2c420003 	sltiu	v0,v0,3
  402840:	14400015 	bnez	v0,402898 <Handle_read+0x310>
  402844:	3c040041 	lui	a0,0x41
[31m  402848:	8f9981d8 	lw	t9,printf[0m
  40284c:	00000000 	nop
  402850:	0320f809 	jalr	t9
  402854:	248400f0 	addiu	a0,a0,240
  402858:	8fbc0020 	lw	gp,32(sp)
  40285c:	93a40041 	lbu	a0,65(sp)
  402860:	93a30042 	lbu	v1,66(sp)
  402864:	93a20043 	lbu	v0,67(sp)
  402868:	93a5003e 	lbu	a1,62(sp)
[31m  40286c:	8f9981d8 	lw	t9,printf[0m
  402870:	93a6003f 	lbu	a2,63(sp)
  402874:	93a70040 	lbu	a3,64(sp)
  402878:	afa40010 	sw	a0,16(sp)
  40287c:	3c040041 	lui	a0,0x41
  402880:	afa30014 	sw	v1,20(sp)
  402884:	afa20018 	sw	v0,24(sp)
  402888:	0320f809 	jalr	t9
  40288c:	2484031c 	addiu	a0,a0,796
  402890:	8fbc0020 	lw	gp,32(sp)
  402894:	00000000 	nop
  402898:	8f998044 	lw	t9,-32700(gp)
  40289c:	02002021 	move	a0,s0
  4028a0:	04112e5a 	bal	40e20c <Ap_free_sta>
  4028a4:	02202821 	move	a1,s1
  4028a8:	081009aa 	j	4026a8 <Handle_read+0x120>
  4028ac:	00000000 	nop
[31m  4028b0:	8f9981d8 	lw	t9,printf[0m
  4028b4:	00000000 	nop
  4028b8:	0320f809 	jalr	t9
--
  4028c0:	8fbc0020 	lw	gp,32(sp)
  4028c4:	3c040041 	lui	a0,0x41
  4028c8:	8f9981bc 	lw	t9,-32324(gp)
  4028cc:	00000000 	nop
  4028d0:	0320f809 	jalr	t9
  4028d4:	248401c4 	addiu	a0,a0,452
  4028d8:	081009aa 	j	4026a8 <Handle_read+0x120>
  4028dc:	00000000 	nop
  4028e0:	2ea20004 	sltiu	v0,s5,4
  4028e4:	14400042 	bnez	v0,4029f0 <Handle_read+0x468>
  4028e8:	3c020042 	lui	v0,0x42
  4028ec:	93b60048 	lbu	s6,72(sp)
  4028f0:	93a20049 	lbu	v0,73(sp)
  4028f4:	0016b200 	sll	s6,s6,0x8
  4028f8:	02c2b025 	or	s6,s6,v0
  4028fc:	340288c7 	li	v0,0x88c7
  402900:	16c20038 	bne	s6,v0,4029e4 <Handle_read+0x45c>
  402904:	3402888e 	li	v0,0x888e
  402908:	3c1e0042 	lui	s8,0x42
  40290c:	8fd72c80 	lw	s7,11392(s8)
  402910:	24020001 	li	v0,1
  402914:	afa20bf0 	sw	v0,3056(sp)
  402918:	2ee20003 	sltiu	v0,s7,3
  40291c:	1440ff4a 	bnez	v0,402648 <Handle_read+0xc0>
  402920:	3c040041 	lui	a0,0x41
[31m  402924:	8f9981d8 	lw	t9,printf[0m
  402928:	00000000 	nop
  40292c:	0320f809 	jalr	t9
  402930:	248400f0 	addiu	a0,a0,240
  402934:	8fbc0020 	lw	gp,32(sp)
  402938:	93a50046 	lbu	a1,70(sp)
  40293c:	93a60047 	lbu	a2,71(sp)
[31m  402940:	8f9981d8 	lw	t9,printf[0m
  402944:	3c040041 	lui	a0,0x41
  402948:	0320f809 	jalr	t9
  40294c:	248401d4 	addiu	a0,a0,468
  402950:	8fbc0020 	lw	gp,32(sp)
  402954:	8fd72c80 	lw	s7,11392(s8)
  402958:	08100993 	j	40264c <Handle_read+0xc4>
  40295c:	340288c7 	li	v0,0x88c7
  402960:	2ef70002 	sltiu	s7,s7,2
  402964:	16e0ff50 	bnez	s7,4026a8 <Handle_read+0x120>
  402968:	3c040041 	lui	a0,0x41
[31m  40296c:	8f9981d8 	lw	t9,printf[0m
  402970:	00000000 	nop
  402974:	0320f809 	jalr	t9
  402978:	248400f0 	addiu	a0,a0,240
  40297c:	8fbc0020 	lw	gp,32(sp)
  402980:	93a4003b 	lbu	a0,59(sp)
  402984:	93a3003c 	lbu	v1,60(sp)
  402988:	93a2003d 	lbu	v0,61(sp)
  40298c:	93a50038 	lbu	a1,56(sp)
[31m  402990:	8f9981d8 	lw	t9,printf[0m
  402994:	93a60039 	lbu	a2,57(sp)
  402998:	93a7003a 	lbu	a3,58(sp)
--
  4029ac:	0320f809 	jalr	t9
  4029b0:	248401fc 	addiu	a0,a0,508
  4029b4:	081009aa 	j	4026a8 <Handle_read+0x120>
  4029b8:	00000000 	nop
  4029bc:	8f9981c0 	lw	t9,-32320(gp)
  4029c0:	3c040041 	lui	a0,0x41
  4029c4:	0320f809 	jalr	t9
  4029c8:	248401bc 	addiu	a0,a0,444
  4029cc:	2404000f 	li	a0,15
  4029d0:	02002821 	move	a1,s0
  4029d4:	0c100947 	jal	40251c <Handle_term>
  4029d8:	02203021 	move	a2,s1
  4029dc:	081009aa 	j	4026a8 <Handle_read+0x120>
  4029e0:	00000000 	nop
  4029e4:	12c2ffc9 	beq	s6,v0,40290c <Handle_read+0x384>
  4029e8:	3c1e0042 	lui	s8,0x42
  4029ec:	3c020042 	lui	v0,0x42
  4029f0:	8c572c80 	lw	s7,11392(v0)
  4029f4:	00000000 	nop
  4029f8:	12e0ff2b 	beqz	s7,4026a8 <Handle_read+0x120>
  4029fc:	00000000 	nop
  402a00:	08100999 	j	402664 <Handle_read+0xdc>
  402a04:	00000000 	nop
  402a08:	16e0ff53 	bnez	s7,402758 <Handle_read+0x1d0>
  402a0c:	3c040041 	lui	a0,0x41
[31m  402a10:	8f9981d8 	lw	t9,printf[0m
  402a14:	00000000 	nop
  402a18:	0320f809 	jalr	t9
  402a1c:	248400f0 	addiu	a0,a0,240
  402a20:	8fbc0020 	lw	gp,32(sp)
  402a24:	8e050008 	lw	a1,8(s0)
  402a28:	3c040041 	lui	a0,0x41
[31m  402a2c:	8f9981d8 	lw	t9,printf[0m
  402a30:	00000000 	nop
  402a34:	0320f809 	jalr	t9
  402a38:	24840284 	addiu	a0,a0,644
  402a3c:	8fbc0020 	lw	gp,32(sp)
  402a40:	081009d6 	j	402758 <Handle_read+0x1d0>
  402a44:	00000000 	nop
[31m  402a48:	8f9981d8 	lw	t9,printf[0m
  402a4c:	00000000 	nop
  402a50:	0320f809 	jalr	t9
--
  402a58:	8fbc0020 	lw	gp,32(sp)
  402a5c:	3c040041 	lui	a0,0x41
  402a60:	8f9981bc 	lw	t9,-32324(gp)
  402a64:	00000000 	nop
  402a68:	0320f809 	jalr	t9
  402a6c:	248402e8 	addiu	a0,a0,744
  402a70:	3c020042 	lui	v0,0x42
  402a74:	8fbc0020 	lw	gp,32(sp)
  402a78:	8c422c80 	lw	v0,11392(v0)
  402a7c:	08100a0d 	j	402834 <Handle_read+0x2ac>
  402a80:	00000000 	nop
  402a84:	8f998048 	lw	t9,-32696(gp)
  402a88:	afb50010 	sw	s5,16(sp)
  402a8c:	afb60014 	sw	s6,20(sp)
  402a90:	afb20018 	sw	s2,24(sp)
  402a94:	02002021 	move	a0,s0
  402a98:	27a5003e 	addiu	a1,sp,62
  402a9c:	041124db 	bal	40be0c <ieee802_1x_receive>
  402aa0:	27a60028 	addiu	a2,sp,40
  402aa4:	081009aa 	j	4026a8 <Handle_read+0x120>
  402aa8:	00000000 	nop
  402aac:	16200024 	bnez	s1,402b40 <Handle_read+0x5b8>
  402ab0:	2ef70003 	sltiu	s7,s7,3
  402ab4:	16e0ff28 	bnez	s7,402758 <Handle_read+0x1d0>
  402ab8:	3c040041 	lui	a0,0x41
[31m  402abc:	8f9981d8 	lw	t9,printf[0m
  402ac0:	00000000 	nop
  402ac4:	0320f809 	jalr	t9
  402ac8:	248400f0 	addiu	a0,a0,240
  402acc:	8fbc0020 	lw	gp,32(sp)
  402ad0:	8e050008 	lw	a1,8(s0)
  402ad4:	3c040041 	lui	a0,0x41
[31m  402ad8:	8f9981d8 	lw	t9,printf[0m
  402adc:	00000000 	nop
  402ae0:	0320f809 	jalr	t9
  402ae4:	24840234 	addiu	a0,a0,564
  402ae8:	8fbc0020 	lw	gp,32(sp)
  402aec:	081009d6 	j	402758 <Handle_read+0x1d0>
  402af0:	00000000 	nop
  402af4:	10a20030 	beq	a1,v0,402bb8 <Handle_read+0x630>
  402af8:	00000000 	nop
  402afc:	8fc22c80 	lw	v0,11392(s8)
  402b00:	00000000 	nop
  402b04:	1040fee8 	beqz	v0,4026a8 <Handle_read+0x120>
  402b08:	3c040041 	lui	a0,0x41
[31m  402b0c:	8f9981d8 	lw	t9,printf[0m
  402b10:	248400f0 	addiu	a0,a0,240
  402b14:	0320f809 	jalr	t9
  402b18:	afa50bf4 	sw	a1,3060(sp)
  402b1c:	8fbc0020 	lw	gp,32(sp)
  402b20:	8fa50bf4 	lw	a1,3060(sp)
  402b24:	3c040041 	lui	a0,0x41
[31m  402b28:	8f9981d8 	lw	t9,printf[0m
  402b2c:	00000000 	nop
  402b30:	0320f809 	jalr	t9
  402b34:	24840394 	addiu	a0,a0,916
  402b38:	081009aa 	j	4026a8 <Handle_read+0x120>
  402b3c:	00000000 	nop
  402b40:	16e0ff05 	bnez	s7,402758 <Handle_read+0x1d0>
  402b44:	3c040041 	lui	a0,0x41
[31m  402b48:	8f9981d8 	lw	t9,printf[0m
  402b4c:	00000000 	nop
  402b50:	0320f809 	jalr	t9
  402b54:	248400f0 	addiu	a0,a0,240
  402b58:	8fbc0020 	lw	gp,32(sp)
  402b5c:	8e050004 	lw	a1,4(s0)
  402b60:	93a60028 	lbu	a2,40(sp)
[31m  402b64:	8f9981d8 	lw	t9,printf[0m
  402b68:	3c040041 	lui	a0,0x41
  402b6c:	0320f809 	jalr	t9
  402b70:	2484025c 	addiu	a0,a0,604
  402b74:	8fbc0020 	lw	gp,32(sp)
  402b78:	081009d6 	j	402758 <Handle_read+0x1d0>
  402b7c:	00000000 	nop
[31m  402b80:	8f9981d8 	lw	t9,printf[0m
  402b84:	00000000 	nop
  402b88:	0320f809 	jalr	t9
  402b8c:	248400f0 	addiu	a0,a0,240
  402b90:	8fbc0020 	lw	gp,32(sp)
  402b94:	8e050004 	lw	a1,4(s0)
  402b98:	93a60028 	lbu	a2,40(sp)
[31m  402b9c:	8f9981d8 	lw	t9,printf[0m
  402ba0:	3c040041 	lui	a0,0x41
  402ba4:	0320f809 	jalr	t9
--
  402c60:	02002021 	move	a0,s0
  402c64:	8fbc0020 	lw	gp,32(sp)
  402c68:	14400027 	bnez	v0,402d08 <Handle_read+0x780>
  402c6c:	00000000 	nop
  402c70:	8e030000 	lw	v1,0(s0)
  402c74:	00000000 	nop
  402c78:	8c620014 	lw	v0,20(v1)
  402c7c:	00000000 	nop
  402c80:	1840fe89 	blez	v0,4026a8 <Handle_read+0x120>
  402c84:	00008821 	move	s1,zero
  402c88:	3c130041 	lui	s3,0x41
  402c8c:	3c120041 	lui	s2,0x41
  402c90:	267300f0 	addiu	s3,s3,240
  402c94:	08100b2c 	j	402cb0 <Handle_read+0x728>
  402c98:	2652017c 	addiu	s2,s2,380
  402c9c:	8c620014 	lw	v0,20(v1)
  402ca0:	26310001 	addiu	s1,s1,1
  402ca4:	0222102a 	slt	v0,s1,v0
  402ca8:	1040fe7f 	beqz	v0,4026a8 <Handle_read+0x120>
  402cac:	00000000 	nop
  402cb0:	8fc22c80 	lw	v0,11392(s8)
  402cb4:	00000000 	nop
  402cb8:	2c420003 	sltiu	v0,v0,3
  402cbc:	1440fff7 	bnez	v0,402c9c <Handle_read+0x714>
  402cc0:	00000000 	nop
[31m  402cc4:	8f9981d8 	lw	t9,printf[0m
  402cc8:	00000000 	nop
  402ccc:	0320f809 	jalr	t9
  402cd0:	02602021 	move	a0,s3
  402cd4:	8e0308f8 	lw	v1,2296(s0)
  402cd8:	8fbc0020 	lw	gp,32(sp)
  402cdc:	00111080 	sll	v0,s1,0x2
  402ce0:	00621021 	addu	v0,v1,v0
  402ce4:	8c460000 	lw	a2,0(v0)
[31m  402ce8:	8f9981d8 	lw	t9,printf[0m
  402cec:	02202821 	move	a1,s1
  402cf0:	0320f809 	jalr	t9
  402cf4:	02402021 	move	a0,s2
  402cf8:	8fbc0020 	lw	gp,32(sp)
  402cfc:	8e030000 	lw	v1,0(s0)
  402d00:	08100b27 	j	402c9c <Handle_read+0x714>
  402d04:	00000000 	nop
  402d08:	8fc22c80 	lw	v0,11392(s8)
  402d0c:	00000000 	nop
  402d10:	1040fe65 	beqz	v0,4026a8 <Handle_read+0x120>
  402d14:	3c040041 	lui	a0,0x41
[31m  402d18:	8f9981d8 	lw	t9,printf[0m
  402d1c:	00000000 	nop
  402d20:	0320f809 	jalr	t9
  402d24:	248400f0 	addiu	a0,a0,240
  402d28:	8fbc0020 	lw	gp,32(sp)
  402d2c:	3c040041 	lui	a0,0x41
  402d30:	8f9981bc 	lw	t9,-32324(gp)
  402d34:	00000000 	nop
  402d38:	0320f809 	jalr	t9
  402d3c:	24840154 	addiu	a0,a0,340
  402d40:	081009aa 	j	4026a8 <Handle_read+0x120>
  402d44:	00000000 	nop
  402d48:	8fc22c80 	lw	v0,11392(s8)
  402d4c:	00000000 	nop
  402d50:	1040fe55 	beqz	v0,4026a8 <Handle_read+0x120>
  402d54:	3c040041 	lui	a0,0x41
[31m  402d58:	8f9981d8 	lw	t9,printf[0m
  402d5c:	00000000 	nop
  402d60:	0320f809 	jalr	t9
  402d64:	248400f0 	addiu	a0,a0,240
  402d68:	8fbc0020 	lw	gp,32(sp)
  402d6c:	3c040041 	lui	a0,0x41
  402d70:	8f9981bc 	lw	t9,-32324(gp)
  402d74:	00000000 	nop
  402d78:	0320f809 	jalr	t9
  402d7c:	24840114 	addiu	a0,a0,276
  402d80:	081009aa 	j	4026a8 <Handle_read+0x120>
  402d84:	00000000 	nop
[31m  402d88:	8f9981d8 	lw	t9,printf[0m
  402d8c:	00000000 	nop
  402d90:	0320f809 	jalr	t9
  402d94:	248400f0 	addiu	a0,a0,240
  402d98:	8fbc0020 	lw	gp,32(sp)
  402d9c:	3c040041 	lui	a0,0x41
  402da0:	8f9981bc 	lw	t9,-32324(gp)
  402da4:	00000000 	nop
  402da8:	0320f809 	jalr	t9
  402dac:	248400fc 	addiu	a0,a0,252
  402db0:	8fbc0020 	lw	gp,32(sp)
  402db4:	08100af3 	j	402bcc <Handle_read+0x644>
  402db8:	00000000 	nop
  402dbc:	2c420004 	sltiu	v0,v0,4
  402dc0:	1440fe39 	bnez	v0,4026a8 <Handle_read+0x120>
  402dc4:	3c040041 	lui	a0,0x41
[31m  402dc8:	8f9981d8 	lw	t9,printf[0m
  402dcc:	00000000 	nop
  402dd0:	0320f809 	jalr	t9
  402dd4:	248400f0 	addiu	a0,a0,240
  402dd8:	8fbc0020 	lw	gp,32(sp)
  402ddc:	93a40041 	lbu	a0,65(sp)
  402de0:	93a30042 	lbu	v1,66(sp)
  402de4:	93a20043 	lbu	v0,67(sp)
  402de8:	93a5003e 	lbu	a1,62(sp)
[31m  402dec:	8f9981d8 	lw	t9,printf[0m
  402df0:	93a6003f 	lbu	a2,63(sp)
  402df4:	93a70040 	lbu	a3,64(sp)
--
  402fb0:	8c86008c 	lw	a2,140(a0)
  402fb4:	8c880004 	lw	t0,4(a0)
  402fb8:	90a30088 	lbu	v1,136(a1)
  402fbc:	aba20031 	swl	v0,49(sp)
  402fc0:	bba2002e 	swr	v0,46(sp)
  402fc4:	00c02021 	move	a0,a2
  402fc8:	34028545 	li	v0,0x8545
  402fcc:	34058be1 	li	a1,0x8be1
  402fd0:	27a60028 	addiu	a2,sp,40
  402fd4:	2407000a 	li	a3,10
  402fd8:	afa80010 	sw	t0,16(sp)
  402fdc:	afa30014 	sw	v1,20(sp)
  402fe0:	0c100ba8 	jal	402ea0 <RT_ioctl>
  402fe4:	afa20018 	sw	v0,24(sp)
  402fe8:	8fbc0020 	lw	gp,32(sp)
  402fec:	10400005 	beqz	v0,403004 <dot1x_set_IdleTimeoutAction+0x9c>
  402ff0:	3c020042 	lui	v0,0x42
  402ff4:	8c422c80 	lw	v0,11392(v0)
  402ff8:	00000000 	nop
  402ffc:	14400005 	bnez	v0,403014 <dot1x_set_IdleTimeoutAction+0xac>
  403000:	3c040041 	lui	a0,0x41
  403004:	8fbf003c 	lw	ra,60(sp)
  403008:	00000000 	nop
  40300c:	03e00008 	jr	ra
  403010:	27bd0040 	addiu	sp,sp,64
[31m  403014:	8f9981d8 	lw	t9,printf[0m
  403018:	00000000 	nop
  40301c:	0320f809 	jalr	t9
--
  403184:	041101c7 	bal	4038a4 <eloop_register_read_sock>
  403188:	00000000 	nop
  40318c:	8fbc0020 	lw	gp,32(sp)
  403190:	00121900 	sll	v1,s2,0x4
  403194:	02002021 	move	a0,s0
  403198:	8f9981e0 	lw	t9,-32288(gp)
  40319c:	144000bc 	bnez	v0,403490 <Apd_init_sockets+0x444>
  4031a0:	26520001 	addiu	s2,s2,1
  4031a4:	8e650000 	lw	a1,0(s3)
  4031a8:	afa0003c 	sw	zero,60(sp)
  4031ac:	ae000004 	sw	zero,4(s0)
  4031b0:	24a505d0 	addiu	a1,a1,1488
  4031b4:	00a32821 	addu	a1,a1,v1
  4031b8:	ae000008 	sw	zero,8(s0)
  4031bc:	ae00000c 	sw	zero,12(s0)
  4031c0:	ae000010 	sw	zero,16(s0)
  4031c4:	ae000014 	sw	zero,20(s0)
  4031c8:	ae000018 	sw	zero,24(s0)
  4031cc:	0320f809 	jalr	t9
  4031d0:	ae00001c 	sw	zero,28(s0)
  4031d4:	8e822c80 	lw	v0,11392(s4)
  4031d8:	8fbc0020 	lw	gp,32(sp)
  4031dc:	2c420003 	sltiu	v0,v0,3
  4031e0:	1440ffb7 	bnez	v0,4030c0 <Apd_init_sockets+0x74>
  4031e4:	00000000 	nop
[31m  4031e8:	8f9981d8 	lw	t9,printf[0m
  4031ec:	00000000 	nop
  4031f0:	0320f809 	jalr	t9
  4031f4:	02c02021 	move	a0,s6
  4031f8:	8fbc0020 	lw	gp,32(sp)
  4031fc:	02e02021 	move	a0,s7
[31m  403200:	8f9981d8 	lw	t9,printf[0m
  403204:	00000000 	nop
  403208:	0320f809 	jalr	t9
  40320c:	02002821 	move	a1,s0
  403210:	8fbc0020 	lw	gp,32(sp)
  403214:	08100c30 	j	4030c0 <Apd_init_sockets+0x74>
  403218:	00000000 	nop
[31m  40321c:	8f9981d8 	lw	t9,printf[0m
  403220:	00000000 	nop
  403224:	0320f809 	jalr	t9
  403228:	02c02021 	move	a0,s6
  40322c:	8fbc0020 	lw	gp,32(sp)
  403230:	8e26004c 	lw	a2,76(s1)
  403234:	8fa7002c 	lw	a3,44(sp)
[31m  403238:	8f9981d8 	lw	t9,printf[0m
  40323c:	27c4048c 	addiu	a0,s8,1164
  403240:	0320f809 	jalr	t9
--
  403360:	04110150 	bal	4038a4 <eloop_register_read_sock>
  403364:	00000000 	nop
  403368:	8fbc0020 	lw	gp,32(sp)
  40336c:	00121900 	sll	v1,s2,0x4
  403370:	02002021 	move	a0,s0
  403374:	8f9981e0 	lw	t9,-32288(gp)
  403378:	144000e3 	bnez	v0,403708 <Apd_init_sockets+0x6bc>
  40337c:	26520001 	addiu	s2,s2,1
  403380:	8e650000 	lw	a1,0(s3)
  403384:	afa0003c 	sw	zero,60(sp)
  403388:	ae000004 	sw	zero,4(s0)
  40338c:	24a504cc 	addiu	a1,a1,1228
  403390:	00a32821 	addu	a1,a1,v1
  403394:	ae000008 	sw	zero,8(s0)
  403398:	ae00000c 	sw	zero,12(s0)
  40339c:	ae000010 	sw	zero,16(s0)
  4033a0:	ae000014 	sw	zero,20(s0)
  4033a4:	ae000018 	sw	zero,24(s0)
  4033a8:	0320f809 	jalr	t9
  4033ac:	ae00001c 	sw	zero,28(s0)
  4033b0:	8e822c80 	lw	v0,11392(s4)
  4033b4:	8fbc0020 	lw	gp,32(sp)
  4033b8:	2c420003 	sltiu	v0,v0,3
  4033bc:	1440ffb7 	bnez	v0,40329c <Apd_init_sockets+0x250>
  4033c0:	00000000 	nop
[31m  4033c4:	8f9981d8 	lw	t9,printf[0m
  4033c8:	00000000 	nop
  4033cc:	0320f809 	jalr	t9
  4033d0:	02c02021 	move	a0,s6
  4033d4:	8fbc0020 	lw	gp,32(sp)
  4033d8:	02e02021 	move	a0,s7
[31m  4033dc:	8f9981d8 	lw	t9,printf[0m
  4033e0:	00000000 	nop
  4033e4:	0320f809 	jalr	t9
  4033e8:	02002821 	move	a1,s0
  4033ec:	8fbc0020 	lw	gp,32(sp)
  4033f0:	08100ca7 	j	40329c <Apd_init_sockets+0x250>
  4033f4:	00000000 	nop
  4033f8:	8f9981c0 	lw	t9,-32320(gp)
  4033fc:	3c040041 	lui	a0,0x41
  403400:	24840484 	addiu	a0,a0,1156
  403404:	0320f809 	jalr	t9
  403408:	2410ffff 	li	s0,-1
  40340c:	8fbf0084 	lw	ra,132(sp)
  403410:	02001021 	move	v0,s0
  403414:	8fbe0080 	lw	s8,128(sp)
  403418:	8fb7007c 	lw	s7,124(sp)
  40341c:	8fb60078 	lw	s6,120(sp)
  403420:	8fb50074 	lw	s5,116(sp)
  403424:	8fb40070 	lw	s4,112(sp)
  403428:	8fb3006c 	lw	s3,108(sp)
  40342c:	8fb20068 	lw	s2,104(sp)
  403430:	8fb10064 	lw	s1,100(sp)
  403434:	8fb00060 	lw	s0,96(sp)
  403438:	03e00008 	jr	ra
  40343c:	27bd0088 	addiu	sp,sp,136
[31m  403440:	8f9981d8 	lw	t9,printf[0m
  403444:	00000000 	nop
  403448:	0320f809 	jalr	t9
  40344c:	02c02021 	move	a0,s6
  403450:	8fbc0020 	lw	gp,32(sp)
  403454:	8e26000c 	lw	a2,12(s1)
  403458:	8fa7002c 	lw	a3,44(sp)
[31m  40345c:	8f9981d8 	lw	t9,printf[0m
  403460:	27c40544 	addiu	a0,s8,1348
  403464:	0320f809 	jalr	t9
  403468:	02002821 	move	a1,s0
  40346c:	8fbc0020 	lw	gp,32(sp)
  403470:	08100cc3 	j	40330c <Apd_init_sockets+0x2c0>
  403474:	00000000 	nop
  403478:	8f9981c0 	lw	t9,-32320(gp)
  40347c:	3c040041 	lui	a0,0x41
  403480:	0320f809 	jalr	t9
  403484:	248403e8 	addiu	a0,a0,1000
  403488:	08100d03 	j	40340c <Apd_init_sockets+0x3c0>
  40348c:	2410ffff 	li	s0,-1
  403490:	3c020042 	lui	v0,0x42
  403494:	8c422c80 	lw	v0,11392(v0)
  403498:	00000000 	nop
  40349c:	1040ffdb 	beqz	v0,40340c <Apd_init_sockets+0x3c0>
  4034a0:	2410ffff 	li	s0,-1
[31m  4034a4:	8f9981d8 	lw	t9,printf[0m
  4034a8:	3c040041 	lui	a0,0x41
  4034ac:	0320f809 	jalr	t9
--
  4035f8:	24050001 	li	a1,1
  4035fc:	0320f809 	jalr	t9
  403600:	00003021 	move	a2,zero
  403604:	8fbc0020 	lw	gp,32(sp)
  403608:	04400056 	bltz	v0,403764 <Apd_init_sockets+0x718>
  40360c:	0040a021 	move	s4,v0
  403610:	27b0003c 	addiu	s0,sp,60
  403614:	afa0003c 	sw	zero,60(sp)
  403618:	ae000004 	sw	zero,4(s0)
  40361c:	ae000008 	sw	zero,8(s0)
  403620:	ae00000c 	sw	zero,12(s0)
  403624:	ae000010 	sw	zero,16(s0)
  403628:	ae000014 	sw	zero,20(s0)
  40362c:	ae000018 	sw	zero,24(s0)
  403630:	1240ffbc 	beqz	s2,403524 <Apd_init_sockets+0x4d8>
  403634:	ae00001c 	sw	zero,28(s0)
  403638:	8f998148 	lw	t9,-32440(gp)
  40363c:	8e660004 	lw	a2,4(s3)
  403640:	02002021 	move	a0,s0
  403644:	02e02821 	move	a1,s7
  403648:	0320f809 	jalr	t9
  40364c:	02403821 	move	a3,s2
  403650:	8fbc0020 	lw	gp,32(sp)
  403654:	08100d4f 	j	40353c <Apd_init_sockets+0x4f0>
  403658:	00000000 	nop
[31m  40365c:	8f9981d8 	lw	t9,printf[0m
  403660:	00000000 	nop
  403664:	0320f809 	jalr	t9
  403668:	02c02021 	move	a0,s6
  40366c:	8fbc0020 	lw	gp,32(sp)
  403670:	97a6004c 	lhu	a2,76(sp)
  403674:	03c02021 	move	a0,s8
[31m  403678:	8f9981d8 	lw	t9,printf[0m
  40367c:	00000000 	nop
  403680:	0320f809 	jalr	t9
  403684:	02002821 	move	a1,s0
  403688:	8fbc0020 	lw	gp,32(sp)
  40368c:	08100d5c 	j	403570 <Apd_init_sockets+0x524>
  403690:	00000000 	nop
[31m  403694:	8f9981d8 	lw	t9,printf[0m
  403698:	00000000 	nop
  40369c:	0320f809 	jalr	t9
  4036a0:	02c02021 	move	a0,s6
  4036a4:	92220092 	lbu	v0,146(s1)
  4036a8:	92260090 	lbu	a2,144(s1)
  4036ac:	92270091 	lbu	a3,145(s1)
  4036b0:	afa20010 	sw	v0,16(sp)
  4036b4:	92220093 	lbu	v0,147(s1)
  4036b8:	8fbc0020 	lw	gp,32(sp)
  4036bc:	3c030041 	lui	v1,0x41
  4036c0:	afa20014 	sw	v0,20(sp)
  4036c4:	92220094 	lbu	v0,148(s1)
[31m  4036c8:	8f9981d8 	lw	t9,printf[0m
  4036cc:	246405f4 	addiu	a0,v1,1524
  4036d0:	afa20018 	sw	v0,24(sp)
  4036d4:	92220095 	lbu	v0,149(s1)
  4036d8:	02002821 	move	a1,s0
  4036dc:	0320f809 	jalr	t9
  4036e0:	afa2001c 	sw	v0,28(sp)
  4036e4:	8fbc0020 	lw	gp,32(sp)
  4036e8:	08100d71 	j	4035c4 <Apd_init_sockets+0x578>
  4036ec:	00000000 	nop
  4036f0:	8f9981c0 	lw	t9,-32320(gp)
  4036f4:	3c040041 	lui	a0,0x41
  4036f8:	0320f809 	jalr	t9
  4036fc:	248404d0 	addiu	a0,a0,1232
  403700:	08100d03 	j	40340c <Apd_init_sockets+0x3c0>
  403704:	2410ffff 	li	s0,-1
  403708:	3c020042 	lui	v0,0x42
  40370c:	8c422c80 	lw	v0,11392(v0)
  403710:	00000000 	nop
  403714:	1040ff3d 	beqz	v0,40340c <Apd_init_sockets+0x3c0>
  403718:	2410ffff 	li	s0,-1
[31m  40371c:	8f9981d8 	lw	t9,printf[0m
  403720:	3c040041 	lui	a0,0x41
  403724:	0320f809 	jalr	t9
--
  40375c:	08100d03 	j	40340c <Apd_init_sockets+0x3c0>
  403760:	2410ffff 	li	s0,-1
  403764:	8f9981c0 	lw	t9,-32320(gp)
  403768:	3c040041 	lui	a0,0x41
  40376c:	0320f809 	jalr	t9
  403770:	24840584 	addiu	a0,a0,1412
  403774:	08100d03 	j	40340c <Apd_init_sockets+0x3c0>
  403778:	2410ffff 	li	s0,-1
  40377c:	8f9981c0 	lw	t9,-32320(gp)
  403780:	00000000 	nop
  403784:	0320f809 	jalr	t9
  403788:	2484052c 	addiu	a0,a0,1324
  40378c:	8fbc0020 	lw	gp,32(sp)
  403790:	00000000 	nop
  403794:	8f998128 	lw	t9,-32472(gp)
  403798:	02802021 	move	a0,s4
  40379c:	0320f809 	jalr	t9
  4037a0:	2410ffff 	li	s0,-1
  4037a4:	08100d03 	j	40340c <Apd_init_sockets+0x3c0>
  4037a8:	00000000 	nop
  4037ac:	3c020042 	lui	v0,0x42
  4037b0:	8c422c80 	lw	v0,11392(v0)
  4037b4:	00000000 	nop
  4037b8:	1040fff6 	beqz	v0,403794 <Apd_init_sockets+0x748>
  4037bc:	3c040041 	lui	a0,0x41
[31m  4037c0:	8f9981d8 	lw	t9,printf[0m
  4037c4:	00000000 	nop
  4037c8:	0320f809 	jalr	t9
  4037cc:	248400f0 	addiu	a0,a0,240
  4037d0:	8fbc0020 	lw	gp,32(sp)
  4037d4:	97a6004c 	lhu	a2,76(sp)
  4037d8:	3c040041 	lui	a0,0x41
[31m  4037dc:	8f9981d8 	lw	t9,printf[0m
  4037e0:	248405cc 	addiu	a0,a0,1484
  4037e4:	0320f809 	jalr	t9
--
  404090:	8c8200f0 	lw	v0,240(a0)
  404094:	3c1c0043 	lui	gp,0x43
  404098:	27bdffd0 	addiu	sp,sp,-48
  40409c:	8c420000 	lw	v0,0(v0)
  4040a0:	279cac90 	addiu	gp,gp,-21360
  4040a4:	24030005 	li	v1,5
  4040a8:	8c4203f8 	lw	v0,1016(v0)
  4040ac:	afb00028 	sw	s0,40(sp)
  4040b0:	afbf002c 	sw	ra,44(sp)
  4040b4:	afbc0020 	sw	gp,32(sp)
  4040b8:	00808021 	move	s0,a0
  4040bc:	10400007 	beqz	v0,4040dc <sm_BE_AUTH_IDLE_Enter+0x4c>
  4040c0:	ac8300dc 	sw	v1,220(a0)
  4040c4:	8f82806c 	lw	v0,-32660(gp)
  4040c8:	00000000 	nop
  4040cc:	8c420000 	lw	v0,0(v0)
  4040d0:	00000000 	nop
  4040d4:	14400007 	bnez	v0,4040f4 <sm_BE_AUTH_IDLE_Enter+0x64>
  4040d8:	00000000 	nop
  4040dc:	8fbf002c 	lw	ra,44(sp)
  4040e0:	ae000018 	sw	zero,24(s0)
  4040e4:	ae0000a0 	sw	zero,160(s0)
  4040e8:	8fb00028 	lw	s0,40(sp)
  4040ec:	03e00008 	jr	ra
  4040f0:	27bd0030 	addiu	sp,sp,48
[31m  4040f4:	8f9981d8 	lw	t9,printf[0m
  4040f8:	3c040041 	lui	a0,0x41
  4040fc:	0320f809 	jalr	t9
  404100:	248400f0 	addiu	a0,a0,240
  404104:	8e0200f4 	lw	v0,244(s0)
  404108:	8fbc0020 	lw	gp,32(sp)
  40410c:	3c040041 	lui	a0,0x41
  404110:	9043000b 	lbu	v1,11(v0)
  404114:	90450008 	lbu	a1,8(v0)
  404118:	90460009 	lbu	a2,9(v0)
  40411c:	9047000a 	lbu	a3,10(v0)
  404120:	afa30010 	sw	v1,16(sp)
  404124:	9043000c 	lbu	v1,12(v0)
[31m  404128:	8f9981d8 	lw	t9,printf[0m
  40412c:	24840928 	addiu	a0,a0,2344
  404130:	afa30014 	sw	v1,20(sp)
--
00404158 <sm_REAUTH_TIMER_INITIALIZE_Enter>:
  404158:	8c8200f0 	lw	v0,240(a0)
  40415c:	3c1c0043 	lui	gp,0x43
  404160:	27bdffd0 	addiu	sp,sp,-48
  404164:	8c420000 	lw	v0,0(v0)
  404168:	279cac90 	addiu	gp,gp,-21360
  40416c:	afb00028 	sw	s0,40(sp)
  404170:	8c4203f8 	lw	v0,1016(v0)
  404174:	afbf002c 	sw	ra,44(sp)
  404178:	afbc0020 	sw	gp,32(sp)
  40417c:	00808021 	move	s0,a0
  404180:	10400007 	beqz	v0,4041a0 <sm_REAUTH_TIMER_INITIALIZE_Enter+0x48>
  404184:	ac8000e8 	sw	zero,232(a0)
  404188:	8f82806c 	lw	v0,-32660(gp)
  40418c:	00000000 	nop
  404190:	8c420000 	lw	v0,0(v0)
  404194:	00000000 	nop
  404198:	14400007 	bnez	v0,4041b8 <sm_REAUTH_TIMER_INITIALIZE_Enter+0x60>
  40419c:	00000000 	nop
  4041a0:	8e0200e0 	lw	v0,224(s0)
  4041a4:	8fbf002c 	lw	ra,44(sp)
  4041a8:	ae020008 	sw	v0,8(s0)
  4041ac:	8fb00028 	lw	s0,40(sp)
  4041b0:	03e00008 	jr	ra
  4041b4:	27bd0030 	addiu	sp,sp,48
[31m  4041b8:	8f9981d8 	lw	t9,printf[0m
  4041bc:	3c040041 	lui	a0,0x41
  4041c0:	0320f809 	jalr	t9
  4041c4:	248400f0 	addiu	a0,a0,240
  4041c8:	8e0200f4 	lw	v0,244(s0)
  4041cc:	8fbc0020 	lw	gp,32(sp)
  4041d0:	3c040041 	lui	a0,0x41
  4041d4:	9043000b 	lbu	v1,11(v0)
  4041d8:	90450008 	lbu	a1,8(v0)
  4041dc:	90460009 	lbu	a2,9(v0)
  4041e0:	9047000a 	lbu	a3,10(v0)
  4041e4:	afa30010 	sw	v1,16(sp)
  4041e8:	9043000c 	lbu	v1,12(v0)
[31m  4041ec:	8f9981d8 	lw	t9,printf[0m
  4041f0:	24840970 	addiu	a0,a0,2416
  4041f4:	afa30014 	sw	v1,20(sp)
--
  4042a4:	ae000054 	sw	zero,84(s0)
  4042a8:	8f998074 	lw	t9,-32652(gp)
  4042ac:	8e0400f0 	lw	a0,240(s0)
  4042b0:	8e0500f4 	lw	a1,244(s0)
  4042b4:	92060024 	lbu	a2,36(s0)
  4042b8:	04111d6e 	bal	40b874 <ieee802_1x_tx_canned_eap>
  4042bc:	00003821 	move	a3,zero
  4042c0:	92020024 	lbu	v0,36(s0)
  4042c4:	00000000 	nop
  4042c8:	24420001 	addiu	v0,v0,1
  4042cc:	a2020024 	sb	v0,36(s0)
  4042d0:	8fbf0034 	lw	ra,52(sp)
  4042d4:	8fb10030 	lw	s1,48(sp)
  4042d8:	8fb0002c 	lw	s0,44(sp)
  4042dc:	03e00008 	jr	ra
  4042e0:	27bd0038 	addiu	sp,sp,56
  4042e4:	8c820048 	lw	v0,72(a0)
  4042e8:	00000000 	nop
  4042ec:	1040ffd6 	beqz	v0,404248 <sm_AUTH_PAE_DISCONNECTED_Enter+0x2c>
  4042f0:	00000000 	nop
  4042f4:	8c820070 	lw	v0,112(a0)
  4042f8:	00000000 	nop
  4042fc:	24420001 	addiu	v0,v0,1
  404300:	08101092 	j	404248 <sm_AUTH_PAE_DISCONNECTED_Enter+0x2c>
  404304:	ac820070 	sw	v0,112(a0)
[31m  404308:	8f9981d8 	lw	t9,printf[0m
  40430c:	3c040041 	lui	a0,0x41
  404310:	0320f809 	jalr	t9
  404314:	248400f0 	addiu	a0,a0,240
  404318:	8e0200f4 	lw	v0,244(s0)
  40431c:	8fbc0020 	lw	gp,32(sp)
  404320:	3c040041 	lui	a0,0x41
  404324:	9043000b 	lbu	v1,11(v0)
  404328:	90450008 	lbu	a1,8(v0)
  40432c:	90460009 	lbu	a2,9(v0)
  404330:	9047000a 	lbu	a3,10(v0)
  404334:	afa30010 	sw	v1,16(sp)
  404338:	9043000c 	lbu	v1,12(v0)
[31m  40433c:	8f9981d8 	lw	t9,printf[0m
  404340:	248409c4 	addiu	a0,a0,2500
  404344:	afa30014 	sw	v1,20(sp)
--
  4043bc:	00000000 	nop
  4043c0:	8f998070 	lw	t9,-32656(gp)
  4043c4:	8e0500f4 	lw	a1,244(s0)
  4043c8:	24110001 	li	s1,1
  4043cc:	ae11003c 	sw	s1,60(s0)
  4043d0:	04111cbb 	bal	40b6c0 <ieee802_1x_set_sta_authorized>
  4043d4:	24060001 	li	a2,1
  4043d8:	8fbc0020 	lw	gp,32(sp)
  4043dc:	8e0400f0 	lw	a0,240(s0)
  4043e0:	8e0500f4 	lw	a1,244(s0)
  4043e4:	8f998074 	lw	t9,-32652(gp)
  4043e8:	92060024 	lbu	a2,36(s0)
  4043ec:	ae110050 	sw	s1,80(s0)
  4043f0:	ae00004c 	sw	zero,76(s0)
  4043f4:	04111d1f 	bal	40b874 <ieee802_1x_tx_canned_eap>
  4043f8:	24070001 	li	a3,1
  4043fc:	92020024 	lbu	v0,36(s0)
  404400:	00000000 	nop
  404404:	24420001 	addiu	v0,v0,1
  404408:	a2020024 	sb	v0,36(s0)
  40440c:	8fbf0034 	lw	ra,52(sp)
  404410:	8fb10030 	lw	s1,48(sp)
  404414:	8fb0002c 	lw	s0,44(sp)
  404418:	03e00008 	jr	ra
  40441c:	27bd0038 	addiu	sp,sp,56
[31m  404420:	8f9981d8 	lw	t9,printf[0m
  404424:	3c040041 	lui	a0,0x41
  404428:	0320f809 	jalr	t9
  40442c:	248400f0 	addiu	a0,a0,240
  404430:	8e0200f4 	lw	v0,244(s0)
  404434:	8fbc0020 	lw	gp,32(sp)
  404438:	3c040041 	lui	a0,0x41
  40443c:	9043000b 	lbu	v1,11(v0)
  404440:	90450008 	lbu	a1,8(v0)
  404444:	90460009 	lbu	a2,9(v0)
  404448:	9047000a 	lbu	a3,10(v0)
  40444c:	afa30010 	sw	v1,16(sp)
  404450:	9043000c 	lbu	v1,12(v0)
[31m  404454:	8f9981d8 	lw	t9,printf[0m
  404458:	24840a18 	addiu	a0,a0,2584
  40445c:	afa30014 	sw	v1,20(sp)
--
  4044c8:	00000000 	nop
  4044cc:	14400017 	bnez	v0,40452c <sm_AUTH_PAE_FORCE_UNAUTH_Enter+0xb0>
  4044d0:	00000000 	nop
  4044d4:	8f998070 	lw	t9,-32656(gp)
  4044d8:	8e0500f4 	lw	a1,244(s0)
  4044dc:	00003021 	move	a2,zero
  4044e0:	04111c77 	bal	40b6c0 <ieee802_1x_set_sta_authorized>
  4044e4:	ae00003c 	sw	zero,60(s0)
  4044e8:	8fbc0020 	lw	gp,32(sp)
  4044ec:	8e0400f0 	lw	a0,240(s0)
  4044f0:	8e0500f4 	lw	a1,244(s0)
  4044f4:	8f998074 	lw	t9,-32652(gp)
  4044f8:	92060024 	lbu	a2,36(s0)
  4044fc:	ae000050 	sw	zero,80(s0)
  404500:	ae00004c 	sw	zero,76(s0)
  404504:	04111cdb 	bal	40b874 <ieee802_1x_tx_canned_eap>
  404508:	00003821 	move	a3,zero
  40450c:	92020024 	lbu	v0,36(s0)
  404510:	00000000 	nop
  404514:	24420001 	addiu	v0,v0,1
  404518:	a2020024 	sb	v0,36(s0)
  40451c:	8fbf002c 	lw	ra,44(sp)
  404520:	8fb00028 	lw	s0,40(sp)
  404524:	03e00008 	jr	ra
  404528:	27bd0030 	addiu	sp,sp,48
[31m  40452c:	8f9981d8 	lw	t9,printf[0m
  404530:	3c040041 	lui	a0,0x41
  404534:	0320f809 	jalr	t9
  404538:	248400f0 	addiu	a0,a0,240
  40453c:	8e0200f4 	lw	v0,244(s0)
  404540:	8fbc0020 	lw	gp,32(sp)
  404544:	3c040041 	lui	a0,0x41
  404548:	9043000b 	lbu	v1,11(v0)
  40454c:	90450008 	lbu	a1,8(v0)
  404550:	90460009 	lbu	a2,9(v0)
  404554:	9047000a 	lbu	a3,10(v0)
  404558:	afa30010 	sw	v1,16(sp)
  40455c:	9043000c 	lbu	v1,12(v0)
[31m  404560:	8f9981d8 	lw	t9,printf[0m
  404564:	24840a68 	addiu	a0,a0,2664
  404568:	afa30014 	sw	v1,20(sp)
--
  4045b0:	00808021 	move	s0,a0
  4045b4:	10400007 	beqz	v0,4045d4 <sm_BE_AUTH_TIMEOUT_Enter+0x4c>
  4045b8:	ac8300dc 	sw	v1,220(a0)
  4045bc:	8f82806c 	lw	v0,-32660(gp)
  4045c0:	00000000 	nop
  4045c4:	8c420000 	lw	v0,0(v0)
  4045c8:	00000000 	nop
  4045cc:	14400011 	bnez	v0,404614 <sm_BE_AUTH_TIMEOUT_Enter+0x8c>
  4045d0:	00000000 	nop
  4045d4:	8e02003c 	lw	v0,60(s0)
  4045d8:	00000000 	nop
  4045dc:	14400007 	bnez	v0,4045fc <sm_BE_AUTH_TIMEOUT_Enter+0x74>
  4045e0:	00000000 	nop
  4045e4:	8f998074 	lw	t9,-32652(gp)
  4045e8:	8e0400f0 	lw	a0,240(s0)
  4045ec:	8e0500f4 	lw	a1,244(s0)
  4045f0:	92060024 	lbu	a2,36(s0)
  4045f4:	04111c9f 	bal	40b874 <ieee802_1x_tx_canned_eap>
  4045f8:	00003821 	move	a3,zero
  4045fc:	8fbf002c 	lw	ra,44(sp)
  404600:	24020001 	li	v0,1
  404604:	ae02001c 	sw	v0,28(s0)
  404608:	8fb00028 	lw	s0,40(sp)
  40460c:	03e00008 	jr	ra
  404610:	27bd0030 	addiu	sp,sp,48
[31m  404614:	8f9981d8 	lw	t9,printf[0m
  404618:	3c040041 	lui	a0,0x41
  40461c:	0320f809 	jalr	t9
  404620:	248400f0 	addiu	a0,a0,240
  404624:	8e0200f4 	lw	v0,244(s0)
  404628:	8fbc0020 	lw	gp,32(sp)
  40462c:	3c040041 	lui	a0,0x41
  404630:	9043000b 	lbu	v1,11(v0)
  404634:	90450008 	lbu	a1,8(v0)
  404638:	90460009 	lbu	a2,9(v0)
  40463c:	9047000a 	lbu	a3,10(v0)
  404640:	afa30010 	sw	v1,16(sp)
  404644:	9043000c 	lbu	v1,12(v0)
[31m  404648:	8f9981d8 	lw	t9,printf[0m
  40464c:	24840abc 	addiu	a0,a0,2748
  404650:	afa30014 	sw	v1,20(sp)
--
  40472c:	8c820044 	lw	v0,68(a0)
  404730:	00000000 	nop
  404734:	10400005 	beqz	v0,40474c <sm_AUTH_PAE_CONNECTING_Enter+0xe0>
  404738:	00000000 	nop
  40473c:	8c820090 	lw	v0,144(a0)
  404740:	00000000 	nop
  404744:	24420001 	addiu	v0,v0,1
  404748:	ac820090 	sw	v0,144(a0)
  40474c:	8e02004c 	lw	v0,76(s0)
  404750:	00000000 	nop
  404754:	10400005 	beqz	v0,40476c <sm_AUTH_PAE_CONNECTING_Enter+0x100>
  404758:	00000000 	nop
  40475c:	8e020094 	lw	v0,148(s0)
  404760:	00000000 	nop
  404764:	24420001 	addiu	v0,v0,1
  404768:	ae020094 	sw	v0,148(s0)
  40476c:	8e020048 	lw	v0,72(s0)
  404770:	00000000 	nop
  404774:	1040ffce 	beqz	v0,4046b0 <sm_AUTH_PAE_CONNECTING_Enter+0x44>
  404778:	00000000 	nop
  40477c:	8e020098 	lw	v0,152(s0)
  404780:	00000000 	nop
  404784:	24420001 	addiu	v0,v0,1
  404788:	081011ac 	j	4046b0 <sm_AUTH_PAE_CONNECTING_Enter+0x44>
  40478c:	ae020098 	sw	v0,152(s0)
[31m  404790:	8f9981d8 	lw	t9,printf[0m
  404794:	3c040041 	lui	a0,0x41
  404798:	0320f809 	jalr	t9
  40479c:	248400f0 	addiu	a0,a0,240
  4047a0:	8e0200f4 	lw	v0,244(s0)
  4047a4:	8fbc0020 	lw	gp,32(sp)
  4047a8:	3c040041 	lui	a0,0x41
  4047ac:	9043000b 	lbu	v1,11(v0)
  4047b0:	90450008 	lbu	a1,8(v0)
  4047b4:	90460009 	lbu	a2,9(v0)
  4047b8:	9047000a 	lbu	a3,10(v0)
  4047bc:	afa30010 	sw	v1,16(sp)
  4047c0:	9043000c 	lbu	v1,12(v0)
[31m  4047c4:	8f9981d8 	lw	t9,printf[0m
  4047c8:	24840b08 	addiu	a0,a0,2824
  4047cc:	afa30014 	sw	v1,20(sp)
--
  404818:	10400007 	beqz	v0,404838 <sm_BE_AUTH_REQUEST_Enter+0x4c>
  40481c:	ae0000dc 	sw	zero,220(s0)
  404820:	8f82806c 	lw	v0,-32660(gp)
  404824:	00000000 	nop
  404828:	8c420000 	lw	v0,0(v0)
  40482c:	00000000 	nop
  404830:	14400012 	bnez	v0,40487c <sm_BE_AUTH_REQUEST_Enter+0x90>
  404834:	00000000 	nop
  404838:	920600b4 	lbu	a2,180(s0)
  40483c:	8f99807c 	lw	t9,-32644(gp)
  404840:	8e0500f4 	lw	a1,244(s0)
  404844:	04111c38 	bal	40b928 <ieee802_1x_tx_req>
  404848:	a2060024 	sb	a2,36(s0)
  40484c:	8e0400cc 	lw	a0,204(s0)
  404850:	8e0200a0 	lw	v0,160(s0)
  404854:	8e0300b8 	lw	v1,184(s0)
  404858:	8fbf002c 	lw	ra,44(sp)
  40485c:	24840001 	addiu	a0,a0,1
  404860:	24420001 	addiu	v0,v0,1
  404864:	ae0400cc 	sw	a0,204(s0)
  404868:	ae030000 	sw	v1,0(s0)
  40486c:	ae0200a0 	sw	v0,160(s0)
  404870:	8fb00028 	lw	s0,40(sp)
  404874:	03e00008 	jr	ra
  404878:	27bd0030 	addiu	sp,sp,48
[31m  40487c:	8f9981d8 	lw	t9,printf[0m
  404880:	3c040041 	lui	a0,0x41
  404884:	0320f809 	jalr	t9
  404888:	248400f0 	addiu	a0,a0,240
  40488c:	8e0200f4 	lw	v0,244(s0)
  404890:	8fbc0020 	lw	gp,32(sp)
  404894:	3c040041 	lui	a0,0x41
  404898:	9043000b 	lbu	v1,11(v0)
  40489c:	90450008 	lbu	a1,8(v0)
  4048a0:	90460009 	lbu	a2,9(v0)
  4048a4:	9047000a 	lbu	a3,10(v0)
  4048a8:	afa30010 	sw	v1,16(sp)
  4048ac:	9043000c 	lbu	v1,12(v0)
[31m  4048b0:	8f9981d8 	lw	t9,printf[0m
  4048b4:	24840b58 	addiu	a0,a0,2904
  4048b8:	afa30014 	sw	v1,20(sp)
--
  404914:	00000000 	nop
  404918:	8f82806c 	lw	v0,-32660(gp)
  40491c:	00000000 	nop
  404920:	8c420000 	lw	v0,0(v0)
  404924:	00000000 	nop
  404928:	14400013 	bnez	v0,404978 <sm_BE_AUTH_RESPONSE_Enter+0xa0>
  40492c:	00000000 	nop
  404930:	8e0200bc 	lw	v0,188(s0)
  404934:	8f998080 	lw	t9,-32640(gp)
  404938:	8e0500f4 	lw	a1,244(s0)
  40493c:	ae020000 	sw	v0,0(s0)
  404940:	ae0000a8 	sw	zero,168(s0)
  404944:	ae0000b0 	sw	zero,176(s0)
  404948:	ae00001c 	sw	zero,28(s0)
  40494c:	ae0000ac 	sw	zero,172(s0)
  404950:	ae0000a4 	sw	zero,164(s0)
  404954:	04112072 	bal	40cb20 <ieee802_1x_send_resp_to_server>
  404958:	ae0000a0 	sw	zero,160(s0)
  40495c:	8e0200c4 	lw	v0,196(s0)
  404960:	8fbf002c 	lw	ra,44(sp)
  404964:	24420001 	addiu	v0,v0,1
  404968:	ae0200c4 	sw	v0,196(s0)
  40496c:	8fb00028 	lw	s0,40(sp)
  404970:	03e00008 	jr	ra
  404974:	27bd0030 	addiu	sp,sp,48
[31m  404978:	8f9981d8 	lw	t9,printf[0m
  40497c:	3c040041 	lui	a0,0x41
  404980:	0320f809 	jalr	t9
  404984:	248400f0 	addiu	a0,a0,240
  404988:	8e0200f4 	lw	v0,244(s0)
  40498c:	8fbc0020 	lw	gp,32(sp)
  404990:	3c040041 	lui	a0,0x41
  404994:	9043000b 	lbu	v1,11(v0)
  404998:	90450008 	lbu	a1,8(v0)
  40499c:	90460009 	lbu	a2,9(v0)
  4049a0:	9047000a 	lbu	a3,10(v0)
  4049a4:	afa30010 	sw	v1,16(sp)
  4049a8:	9043000c 	lbu	v1,12(v0)
[31m  4049ac:	8f9981d8 	lw	t9,printf[0m
  4049b0:	24840ba4 	addiu	a0,a0,2980
  4049b4:	afa30014 	sw	v1,20(sp)
--
  404a00:	00808021 	move	s0,a0
  404a04:	8e0400f0 	lw	a0,240(s0)
  404a08:	24020001 	li	v0,1
  404a0c:	ae0200ec 	sw	v0,236(s0)
  404a10:	8c820000 	lw	v0,0(a0)
  404a14:	00000000 	nop
  404a18:	8c4203f8 	lw	v0,1016(v0)
  404a1c:	00000000 	nop
  404a20:	10400005 	beqz	v0,404a38 <sm_AUTH_KEY_TX_KEY_TRANSMIT_Enter+0x64>
  404a24:	00000000 	nop
  404a28:	8e220000 	lw	v0,0(s1)
  404a2c:	00000000 	nop
  404a30:	1440000c 	bnez	v0,404a64 <sm_AUTH_KEY_TX_KEY_TRANSMIT_Enter+0x90>
  404a34:	00000000 	nop
  404a38:	8f998084 	lw	t9,-32636(gp)
  404a3c:	8e0500f4 	lw	a1,244(s0)
  404a40:	92060024 	lbu	a2,36(s0)
  404a44:	04111c07 	bal	40ba64 <ieee802_1x_tx_key>
  404a48:	00000000 	nop
  404a4c:	8fbf0034 	lw	ra,52(sp)
  404a50:	ae00002c 	sw	zero,44(s0)
  404a54:	8fb10030 	lw	s1,48(sp)
  404a58:	8fb0002c 	lw	s0,44(sp)
  404a5c:	03e00008 	jr	ra
  404a60:	27bd0038 	addiu	sp,sp,56
[31m  404a64:	8f9981d8 	lw	t9,printf[0m
  404a68:	3c040041 	lui	a0,0x41
  404a6c:	0320f809 	jalr	t9
  404a70:	248400f0 	addiu	a0,a0,240
  404a74:	8e0200f4 	lw	v0,244(s0)
  404a78:	8fbc0020 	lw	gp,32(sp)
  404a7c:	3c040041 	lui	a0,0x41
  404a80:	9043000b 	lbu	v1,11(v0)
  404a84:	90450008 	lbu	a1,8(v0)
  404a88:	90460009 	lbu	a2,9(v0)
  404a8c:	9047000a 	lbu	a3,10(v0)
  404a90:	afa30010 	sw	v1,16(sp)
  404a94:	9043000c 	lbu	v1,12(v0)
[31m  404a98:	8f9981d8 	lw	t9,printf[0m
  404a9c:	24840c0c 	addiu	a0,a0,3084
  404aa0:	afa30014 	sw	v1,20(sp)
  404aa4:	9042000d 	lbu	v0,13(v0)
  404aa8:	0320f809 	jalr	t9
  404aac:	afa20018 	sw	v0,24(sp)
  404ab0:	8fbc0020 	lw	gp,32(sp)
  404ab4:	8e0400f0 	lw	a0,240(s0)
  404ab8:	0810128e 	j	404a38 <sm_AUTH_KEY_TX_KEY_TRANSMIT_Enter+0x64>
  404abc:	00000000 	nop
[31m  404ac0:	8f9981d8 	lw	t9,printf[0m
  404ac4:	3c040041 	lui	a0,0x41
  404ac8:	0320f809 	jalr	t9
--
  404b04:	8f91806c 	lw	s1,-32660(gp)
  404b08:	afb0002c 	sw	s0,44(sp)
  404b0c:	afbf0034 	sw	ra,52(sp)
  404b10:	8e220000 	lw	v0,0(s1)
  404b14:	afbc0020 	sw	gp,32(sp)
  404b18:	2c420004 	sltiu	v0,v0,4
  404b1c:	1040002a 	beqz	v0,404bc8 <sm_AUTH_KEY_TX_NO_KEY_TRANSMIT_Enter+0xd4>
  404b20:	00808021 	move	s0,a0
  404b24:	8e0200f0 	lw	v0,240(s0)
  404b28:	ae0000ec 	sw	zero,236(s0)
  404b2c:	8c420000 	lw	v0,0(v0)
  404b30:	00000000 	nop
  404b34:	8c4203f8 	lw	v0,1016(v0)
  404b38:	00000000 	nop
  404b3c:	10400005 	beqz	v0,404b54 <sm_AUTH_KEY_TX_NO_KEY_TRANSMIT_Enter+0x60>
  404b40:	00000000 	nop
  404b44:	8e220000 	lw	v0,0(s1)
  404b48:	00000000 	nop
  404b4c:	14400006 	bnez	v0,404b68 <sm_AUTH_KEY_TX_NO_KEY_TRANSMIT_Enter+0x74>
  404b50:	00000000 	nop
  404b54:	8fbf0034 	lw	ra,52(sp)
  404b58:	8fb10030 	lw	s1,48(sp)
  404b5c:	8fb0002c 	lw	s0,44(sp)
  404b60:	03e00008 	jr	ra
  404b64:	27bd0038 	addiu	sp,sp,56
[31m  404b68:	8f9981d8 	lw	t9,printf[0m
  404b6c:	3c040041 	lui	a0,0x41
  404b70:	0320f809 	jalr	t9
  404b74:	248400f0 	addiu	a0,a0,240
  404b78:	8e0200f4 	lw	v0,244(s0)
  404b7c:	8fbc0020 	lw	gp,32(sp)
  404b80:	3c040041 	lui	a0,0x41
  404b84:	9043000b 	lbu	v1,11(v0)
  404b88:	90450008 	lbu	a1,8(v0)
  404b8c:	90460009 	lbu	a2,9(v0)
  404b90:	9047000a 	lbu	a3,10(v0)
  404b94:	afa30010 	sw	v1,16(sp)
  404b98:	9043000c 	lbu	v1,12(v0)
[31m  404b9c:	8f9981d8 	lw	t9,printf[0m
  404ba0:	24840c80 	addiu	a0,a0,3200
  404ba4:	afa30014 	sw	v1,20(sp)
  404ba8:	9042000d 	lbu	v0,13(v0)
  404bac:	0320f809 	jalr	t9
  404bb0:	afa20018 	sw	v0,24(sp)
  404bb4:	8fbf0034 	lw	ra,52(sp)
  404bb8:	8fb10030 	lw	s1,48(sp)
  404bbc:	8fb0002c 	lw	s0,44(sp)
  404bc0:	03e00008 	jr	ra
  404bc4:	27bd0038 	addiu	sp,sp,56
[31m  404bc8:	8f9981d8 	lw	t9,printf[0m
  404bcc:	3c040041 	lui	a0,0x41
  404bd0:	0320f809 	jalr	t9
--
  404e4c:	8e1300e8 	lw	s3,232(s0)
  404e50:	0060a021 	move	s4,v1
  404e54:	00408821 	move	s1,v0
  404e58:	8e020034 	lw	v0,52(s0)
  404e5c:	24030002 	li	v1,2
  404e60:	1443ff9d 	bne	v0,v1,404cd8 <eapol_sm_step+0x74>
  404e64:	00000000 	nop
  404e68:	8e030050 	lw	v1,80(s0)
  404e6c:	00000000 	nop
  404e70:	1062ff99 	beq	v1,v0,404cd8 <eapol_sm_step+0x74>
  404e74:	00000000 	nop
  404e78:	8e0300f0 	lw	v1,240(s0)
  404e7c:	ae00009c 	sw	zero,156(s0)
  404e80:	8c630000 	lw	v1,0(v1)
  404e84:	00000000 	nop
  404e88:	8c6303f8 	lw	v1,1016(v1)
  404e8c:	00000000 	nop
  404e90:	1060001c 	beqz	v1,404f04 <eapol_sm_step+0x2a0>
  404e94:	24030001 	li	v1,1
  404e98:	8f83806c 	lw	v1,-32660(gp)
  404e9c:	00000000 	nop
  404ea0:	8c630000 	lw	v1,0(v1)
  404ea4:	00000000 	nop
  404ea8:	10600016 	beqz	v1,404f04 <eapol_sm_step+0x2a0>
  404eac:	24030001 	li	v1,1
[31m  404eb0:	8f9981d8 	lw	t9,printf[0m
  404eb4:	00000000 	nop
  404eb8:	0320f809 	jalr	t9
  404ebc:	26a400f0 	addiu	a0,s5,240
  404ec0:	8e0200f4 	lw	v0,244(s0)
  404ec4:	8fbc0020 	lw	gp,32(sp)
  404ec8:	02c02021 	move	a0,s6
  404ecc:	9043000b 	lbu	v1,11(v0)
  404ed0:	90450008 	lbu	a1,8(v0)
  404ed4:	90460009 	lbu	a2,9(v0)
  404ed8:	9047000a 	lbu	a3,10(v0)
  404edc:	afa30010 	sw	v1,16(sp)
  404ee0:	9043000c 	lbu	v1,12(v0)
[31m  404ee4:	8f9981d8 	lw	t9,printf[0m
  404ee8:	afa30014 	sw	v1,20(sp)
  404eec:	9042000d 	lbu	v0,13(v0)
--
  404f00:	24030001 	li	v1,1
  404f04:	a2030024 	sb	v1,36(s0)
  404f08:	24030002 	li	v1,2
  404f0c:	ae030050 	sw	v1,80(s0)
  404f10:	24030002 	li	v1,2
  404f14:	1443ff87 	bne	v0,v1,404d34 <eapol_sm_step+0xd0>
  404f18:	00000000 	nop
  404f1c:	8e030028 	lw	v1,40(s0)
  404f20:	00000000 	nop
  404f24:	1460ff83 	bnez	v1,404d34 <eapol_sm_step+0xd0>
  404f28:	00000000 	nop
  404f2c:	8e030010 	lw	v1,16(s0)
  404f30:	00000000 	nop
  404f34:	1460ff7f 	bnez	v1,404d34 <eapol_sm_step+0xd0>
  404f38:	00000000 	nop
  404f3c:	8e0300dc 	lw	v1,220(s0)
  404f40:	00000000 	nop
  404f44:	2c640007 	sltiu	a0,v1,7
  404f48:	1080ff91 	beqz	a0,404d90 <eapol_sm_step+0x12c>
  404f4c:	00031880 	sll	v1,v1,0x2
  404f50:	03c31821 	addu	v1,s8,v1
  404f54:	8c630000 	lw	v1,0(v1)
  404f58:	00000000 	nop
  404f5c:	00600008 	jr	v1
  404f60:	00000000 	nop
[31m  404f64:	8f9981d8 	lw	t9,printf[0m
  404f68:	00000000 	nop
  404f6c:	0320f809 	jalr	t9
  404f70:	26a400f0 	addiu	a0,s5,240
  404f74:	8e0200f4 	lw	v0,244(s0)
  404f78:	8fbc0020 	lw	gp,32(sp)
  404f7c:	3c040041 	lui	a0,0x41
  404f80:	9043000b 	lbu	v1,11(v0)
  404f84:	90450008 	lbu	a1,8(v0)
  404f88:	90460009 	lbu	a2,9(v0)
  404f8c:	9047000a 	lbu	a3,10(v0)
  404f90:	afa30010 	sw	v1,16(sp)
  404f94:	9043000c 	lbu	v1,12(v0)
[31m  404f98:	8f9981d8 	lw	t9,printf[0m
  404f9c:	24840e6c 	addiu	a0,a0,3692
  404fa0:	afa30014 	sw	v1,20(sp)
  404fa4:	9042000d 	lbu	v0,13(v0)
  404fa8:	0320f809 	jalr	t9
  404fac:	afa20018 	sw	v0,24(sp)
  404fb0:	8fbc0020 	lw	gp,32(sp)
  404fb4:	8e020034 	lw	v0,52(s0)
  404fb8:	0810135d 	j	404d74 <eapol_sm_step+0x110>
  404fbc:	ae000010 	sw	zero,16(s0)
[31m  404fc0:	8f9981d8 	lw	t9,printf[0m
  404fc4:	00000000 	nop
  404fc8:	0320f809 	jalr	t9
  404fcc:	26a400f0 	addiu	a0,s5,240
  404fd0:	8e0200f4 	lw	v0,244(s0)
  404fd4:	8fbc0020 	lw	gp,32(sp)
  404fd8:	3c040041 	lui	a0,0x41
  404fdc:	9043000b 	lbu	v1,11(v0)
  404fe0:	90450008 	lbu	a1,8(v0)
  404fe4:	90460009 	lbu	a2,9(v0)
  404fe8:	9047000a 	lbu	a3,10(v0)
  404fec:	afa30010 	sw	v1,16(sp)
  404ff0:	9043000c 	lbu	v1,12(v0)
[31m  404ff4:	8f9981d8 	lw	t9,printf[0m
  404ff8:	24840f50 	addiu	a0,a0,3920
  404ffc:	afa30014 	sw	v1,20(sp)
--
  405424:	8e030088 	lw	v1,136(s0)
  405428:	00000000 	nop
  40542c:	24630001 	addiu	v1,v1,1
  405430:	ae030088 	sw	v1,136(s0)
  405434:	10a00005 	beqz	a1,40544c <eapol_sm_step+0x7e8>
  405438:	00000000 	nop
  40543c:	8e03008c 	lw	v1,140(s0)
  405440:	00000000 	nop
  405444:	24630001 	addiu	v1,v1,1
  405448:	ae03008c 	sw	v1,140(s0)
  40544c:	8e0300f0 	lw	v1,240(s0)
  405450:	24040005 	li	a0,5
  405454:	ae04009c 	sw	a0,156(s0)
  405458:	8c630000 	lw	v1,0(v1)
  40545c:	00000000 	nop
  405460:	8c6303f8 	lw	v1,1016(v1)
  405464:	00000000 	nop
  405468:	1060001d 	beqz	v1,4054e0 <eapol_sm_step+0x87c>
  40546c:	00000000 	nop
  405470:	8f83806c 	lw	v1,-32660(gp)
  405474:	00000000 	nop
  405478:	8c630000 	lw	v1,0(v1)
  40547c:	00000000 	nop
  405480:	10600017 	beqz	v1,4054e0 <eapol_sm_step+0x87c>
  405484:	00000000 	nop
[31m  405488:	8f9981d8 	lw	t9,printf[0m
  40548c:	00000000 	nop
  405490:	0320f809 	jalr	t9
  405494:	26a400f0 	addiu	a0,s5,240
  405498:	8e0200f4 	lw	v0,244(s0)
  40549c:	3c030041 	lui	v1,0x41
  4054a0:	24640e1c 	addiu	a0,v1,3612
  4054a4:	9043000b 	lbu	v1,11(v0)
  4054a8:	90450008 	lbu	a1,8(v0)
  4054ac:	90460009 	lbu	a2,9(v0)
  4054b0:	9047000a 	lbu	a3,10(v0)
  4054b4:	afa30010 	sw	v1,16(sp)
  4054b8:	9043000c 	lbu	v1,12(v0)
  4054bc:	8fbc0020 	lw	gp,32(sp)
  4054c0:	afa30014 	sw	v1,20(sp)
  4054c4:	9042000d 	lbu	v0,13(v0)
[31m  4054c8:	8f9981d8 	lw	t9,printf[0m
  4054cc:	00000000 	nop
  4054d0:	0320f809 	jalr	t9
--
  405508:	8e040054 	lw	a0,84(s0)
  40550c:	8e030064 	lw	v1,100(s0)
  405510:	00000000 	nop
  405514:	0064182b 	sltu	v1,v1,a0
  405518:	1460ff6a 	bnez	v1,4052c4 <eapol_sm_step+0x660>
  40551c:	00000000 	nop
  405520:	8e030058 	lw	v1,88(s0)
  405524:	00000000 	nop
  405528:	1060ff44 	beqz	v1,40523c <eapol_sm_step+0x5d8>
  40552c:	00000000 	nop
  405530:	8e0300f0 	lw	v1,240(s0)
  405534:	8e040074 	lw	a0,116(s0)
  405538:	8c630000 	lw	v1,0(v1)
  40553c:	24840001 	addiu	a0,a0,1
  405540:	ae040074 	sw	a0,116(s0)
  405544:	8c6303f8 	lw	v1,1016(v1)
  405548:	24040003 	li	a0,3
  40554c:	1060001c 	beqz	v1,4055c0 <eapol_sm_step+0x95c>
  405550:	ae04009c 	sw	a0,156(s0)
  405554:	8f83806c 	lw	v1,-32660(gp)
  405558:	00000000 	nop
  40555c:	8c630000 	lw	v1,0(v1)
  405560:	00000000 	nop
  405564:	10600017 	beqz	v1,4055c4 <eapol_sm_step+0x960>
  405568:	24030001 	li	v1,1
[31m  40556c:	8f9981d8 	lw	t9,printf[0m
  405570:	00000000 	nop
  405574:	0320f809 	jalr	t9
  405578:	26a400f0 	addiu	a0,s5,240
  40557c:	8e0200f4 	lw	v0,244(s0)
  405580:	8fbc0020 	lw	gp,32(sp)
  405584:	3c040041 	lui	a0,0x41
  405588:	9043000b 	lbu	v1,11(v0)
  40558c:	90450008 	lbu	a1,8(v0)
  405590:	90460009 	lbu	a2,9(v0)
  405594:	9047000a 	lbu	a3,10(v0)
  405598:	afa30010 	sw	v1,16(sp)
  40559c:	9043000c 	lbu	v1,12(v0)
[31m  4055a0:	8f9981d8 	lw	t9,printf[0m
  4055a4:	24840d28 	addiu	a0,a0,3368
  4055a8:	afa30014 	sw	v1,20(sp)
--
  405788:	8f99807c 	lw	t9,-32644(gp)
  40578c:	8e0500f4 	lw	a1,244(s0)
  405790:	04111865 	bal	40b928 <ieee802_1x_tx_req>
  405794:	a2060024 	sb	a2,36(s0)
  405798:	24020001 	li	v0,1
  40579c:	8fbc0020 	lw	gp,32(sp)
  4057a0:	ae020014 	sw	v0,20(s0)
  4057a4:	8e020034 	lw	v0,52(s0)
  4057a8:	0810135e 	j	404d78 <eapol_sm_step+0x114>
  4057ac:	24030002 	li	v1,2
  4057b0:	8e0400f0 	lw	a0,240(s0)
  4057b4:	8e030080 	lw	v1,128(s0)
  4057b8:	8c820000 	lw	v0,0(a0)
  4057bc:	24630001 	addiu	v1,v1,1
  4057c0:	ae030080 	sw	v1,128(s0)
  4057c4:	8c4203f8 	lw	v0,1016(v0)
  4057c8:	24030006 	li	v1,6
  4057cc:	1040001c 	beqz	v0,405840 <eapol_sm_step+0xbdc>
  4057d0:	ae03009c 	sw	v1,156(s0)
  4057d4:	8f82806c 	lw	v0,-32660(gp)
  4057d8:	00000000 	nop
  4057dc:	8c420000 	lw	v0,0(v0)
  4057e0:	00000000 	nop
  4057e4:	10400016 	beqz	v0,405840 <eapol_sm_step+0xbdc>
  4057e8:	00000000 	nop
[31m  4057ec:	8f9981d8 	lw	t9,printf[0m
  4057f0:	00000000 	nop
  4057f4:	0320f809 	jalr	t9
  4057f8:	26a400f0 	addiu	a0,s5,240
  4057fc:	8e0200f4 	lw	v0,244(s0)
  405800:	8fbc0020 	lw	gp,32(sp)
  405804:	3c040041 	lui	a0,0x41
  405808:	9043000b 	lbu	v1,11(v0)
  40580c:	90450008 	lbu	a1,8(v0)
  405810:	90460009 	lbu	a2,9(v0)
  405814:	9047000a 	lbu	a3,10(v0)
  405818:	afa30010 	sw	v1,16(sp)
  40581c:	9043000c 	lbu	v1,12(v0)
[31m  405820:	8f9981d8 	lw	t9,printf[0m
  405824:	24840dd0 	addiu	a0,a0,3536
  405828:	afa30014 	sw	v1,20(sp)
  40582c:	9042000d 	lbu	v0,13(v0)
  405830:	0320f809 	jalr	t9
  405834:	afa20018 	sw	v0,24(sp)
  405838:	8fbc0020 	lw	gp,32(sp)
  40583c:	8e0400f0 	lw	a0,240(s0)
  405840:	8f998070 	lw	t9,-32656(gp)
  405844:	8e0500f4 	lw	a1,244(s0)
  405848:	ae00003c 	sw	zero,60(s0)
  40584c:	0411179c 	bal	40b6c0 <ieee802_1x_set_sta_authorized>
  405850:	00003021 	move	a2,zero
  405854:	92020024 	lbu	v0,36(s0)
  405858:	8e03005c 	lw	v1,92(s0)
  40585c:	8fbc0020 	lw	gp,32(sp)
  405860:	24420001 	addiu	v0,v0,1
  405864:	a2020024 	sb	v0,36(s0)
  405868:	ae000048 	sw	zero,72(s0)
  40586c:	ae030004 	sw	v1,4(s0)
  405870:	8e020034 	lw	v0,52(s0)
  405874:	0810134b 	j	404d2c <eapol_sm_step+0xc8>
  405878:	24030002 	li	v1,2
[31m  40587c:	8f9981d8 	lw	t9,printf[0m
  405880:	00000000 	nop
  405884:	0320f809 	jalr	t9
  405888:	26a400f0 	addiu	a0,s5,240
  40588c:	8e0200f4 	lw	v0,244(s0)
  405890:	8fbc0020 	lw	gp,32(sp)
  405894:	3c040041 	lui	a0,0x41
  405898:	9043000b 	lbu	v1,11(v0)
  40589c:	90450008 	lbu	a1,8(v0)
  4058a0:	90460009 	lbu	a2,9(v0)
  4058a4:	9047000a 	lbu	a3,10(v0)
  4058a8:	afa30010 	sw	v1,16(sp)
  4058ac:	9043000c 	lbu	v1,12(v0)
[31m  4058b0:	8f9981d8 	lw	t9,printf[0m
  4058b4:	24840ebc 	addiu	a0,a0,3772
  4058b8:	afa30014 	sw	v1,20(sp)
  4058bc:	9042000d 	lbu	v0,13(v0)
  4058c0:	0320f809 	jalr	t9
  4058c4:	afa20018 	sw	v0,24(sp)
  4058c8:	8fbc0020 	lw	gp,32(sp)
  4058cc:	8e0400f0 	lw	a0,240(s0)
  4058d0:	081015e1 	j	405784 <eapol_sm_step+0xb20>
  4058d4:	00000000 	nop
[31m  4058d8:	8f9981d8 	lw	t9,printf[0m
  4058dc:	00000000 	nop
  4058e0:	0320f809 	jalr	t9
  4058e4:	26a400f0 	addiu	a0,s5,240
  4058e8:	8e0200f4 	lw	v0,244(s0)
  4058ec:	8fbc0020 	lw	gp,32(sp)
  4058f0:	3c040041 	lui	a0,0x41
  4058f4:	9043000b 	lbu	v1,11(v0)
  4058f8:	90450008 	lbu	a1,8(v0)
  4058fc:	90460009 	lbu	a2,9(v0)
  405900:	9047000a 	lbu	a3,10(v0)
  405904:	afa30010 	sw	v1,16(sp)
  405908:	9043000c 	lbu	v1,12(v0)
[31m  40590c:	8f9981d8 	lw	t9,printf[0m
  405910:	24840f04 	addiu	a0,a0,3844
  405914:	afa30014 	sw	v1,20(sp)
  405918:	9042000d 	lbu	v0,13(v0)
  40591c:	0320f809 	jalr	t9
  405920:	afa20018 	sw	v0,24(sp)
  405924:	8fbc0020 	lw	gp,32(sp)
  405928:	8e0400f0 	lw	a0,240(s0)
  40592c:	08101452 	j	405148 <eapol_sm_step+0x4e4>
  405930:	00000000 	nop
  405934:	8e0400f0 	lw	a0,240(s0)
  405938:	8e030078 	lw	v1,120(s0)
  40593c:	8c820000 	lw	v0,0(a0)
  405940:	24630001 	addiu	v1,v1,1
  405944:	ae030078 	sw	v1,120(s0)
  405948:	8c4203f8 	lw	v0,1016(v0)
  40594c:	24030004 	li	v1,4
  405950:	1040001c 	beqz	v0,4059c4 <eapol_sm_step+0xd60>
  405954:	ae03009c 	sw	v1,156(s0)
  405958:	8f82806c 	lw	v0,-32660(gp)
  40595c:	00000000 	nop
  405960:	8c420000 	lw	v0,0(v0)
  405964:	00000000 	nop
  405968:	10400016 	beqz	v0,4059c4 <eapol_sm_step+0xd60>
  40596c:	00000000 	nop
[31m  405970:	8f9981d8 	lw	t9,printf[0m
  405974:	00000000 	nop
  405978:	0320f809 	jalr	t9
  40597c:	26a400f0 	addiu	a0,s5,240
  405980:	8e0200f4 	lw	v0,244(s0)
  405984:	8fbc0020 	lw	gp,32(sp)
  405988:	3c040041 	lui	a0,0x41
  40598c:	9043000b 	lbu	v1,11(v0)
  405990:	90450008 	lbu	a1,8(v0)
  405994:	90460009 	lbu	a2,9(v0)
  405998:	9047000a 	lbu	a3,10(v0)
  40599c:	afa30010 	sw	v1,16(sp)
  4059a0:	9043000c 	lbu	v1,12(v0)
[31m  4059a4:	8f9981d8 	lw	t9,printf[0m
  4059a8:	24840d7c 	addiu	a0,a0,3452
  4059ac:	afa30014 	sw	v1,20(sp)
--
  405bdc:	ae0200e0 	sw	v0,224(s0)
  405be0:	24030002 	li	v1,2
  405be4:	24020001 	li	v0,1
  405be8:	ae030034 	sw	v1,52(s0)
  405bec:	02002021 	move	a0,s0
  405bf0:	24030001 	li	v1,1
  405bf4:	ae000038 	sw	zero,56(s0)
  405bf8:	a2030024 	sb	v1,36(s0)
  405bfc:	ae00002c 	sw	zero,44(s0)
  405c00:	ae020030 	sw	v0,48(s0)
  405c04:	0c1016a9 	jal	405aa4 <eapol_sm_initialize>
  405c08:	ae020040 	sw	v0,64(s0)
  405c0c:	8fbf0024 	lw	ra,36(sp)
  405c10:	02001021 	move	v0,s0
  405c14:	8fb20020 	lw	s2,32(sp)
  405c18:	8fb1001c 	lw	s1,28(sp)
  405c1c:	8fb00018 	lw	s0,24(sp)
  405c20:	03e00008 	jr	ra
  405c24:	27bd0028 	addiu	sp,sp,40
  405c28:	8f82806c 	lw	v0,-32660(gp)
  405c2c:	00000000 	nop
  405c30:	8c420000 	lw	v0,0(v0)
  405c34:	00000000 	nop
  405c38:	1040fff4 	beqz	v0,405c0c <eapol_sm_alloc+0xe0>
  405c3c:	3c040041 	lui	a0,0x41
[31m  405c40:	8f9981d8 	lw	t9,printf[0m
  405c44:	00000000 	nop
  405c48:	0320f809 	jalr	t9
  405c4c:	248400f0 	addiu	a0,a0,240
  405c50:	8fbc0010 	lw	gp,16(sp)
  405c54:	3c040041 	lui	a0,0x41
  405c58:	8f9981bc 	lw	t9,-32324(gp)
  405c5c:	00000000 	nop
  405c60:	0320f809 	jalr	t9
  405c64:	24840fa8 	addiu	a0,a0,4008
  405c68:	08101703 	j	405c0c <eapol_sm_alloc+0xe0>
  405c6c:	00000000 	nop
  405c70:	8f82806c 	lw	v0,-32660(gp)
  405c74:	8c6306d8 	lw	v1,1752(v1)
  405c78:	8c420000 	lw	v0,0(v0)
  405c7c:	00000000 	nop
  405c80:	2c420003 	sltiu	v0,v0,3
  405c84:	1440ffd6 	bnez	v0,405be0 <eapol_sm_alloc+0xb4>
  405c88:	ae0300e0 	sw	v1,224(s0)
[31m  405c8c:	8f9981d8 	lw	t9,printf[0m
  405c90:	3c040041 	lui	a0,0x41
  405c94:	0320f809 	jalr	t9
  405c98:	248400f0 	addiu	a0,a0,240
  405c9c:	8fbc0010 	lw	gp,16(sp)
  405ca0:	8e0500e0 	lw	a1,224(s0)
  405ca4:	3c040041 	lui	a0,0x41
[31m  405ca8:	8f9981d8 	lw	t9,printf[0m
  405cac:	00000000 	nop
  405cb0:	0320f809 	jalr	t9
--
  406058:	0211802b 	sltu	s0,s0,s1
  40605c:	16000023 	bnez	s0,4060ec <decrypt_ms_key+0x28c>
  406060:	00000000 	nop
  406064:	8f9981b8 	lw	t9,-32328(gp)
  406068:	00000000 	nop
  40606c:	0320f809 	jalr	t9
  406070:	02202021 	move	a0,s1
  406074:	8fbc0010 	lw	gp,16(sp)
  406078:	1040000a 	beqz	v0,4060a4 <decrypt_ms_key+0x244>
  40607c:	0040b021 	move	s6,v0
  406080:	8f9981c4 	lw	t9,-32316(gp)
  406084:	00402021 	move	a0,v0
  406088:	26e50001 	addiu	a1,s7,1
  40608c:	0320f809 	jalr	t9
  406090:	02203021 	move	a2,s1
  406094:	8fbc0010 	lw	gp,16(sp)
  406098:	13c00002 	beqz	s8,4060a4 <decrypt_ms_key+0x244>
  40609c:	00000000 	nop
  4060a0:	afd10000 	sw	s1,0(s8)
  4060a4:	8f998120 	lw	t9,-32480(gp)
  4060a8:	00000000 	nop
  4060ac:	0320f809 	jalr	t9
  4060b0:	02e02021 	move	a0,s7
  4060b4:	081017b9 	j	405ee4 <decrypt_ms_key+0x84>
  4060b8:	00000000 	nop
[31m  4060bc:	8f9981d8 	lw	t9,printf[0m
  4060c0:	00000000 	nop
  4060c4:	0320f809 	jalr	t9
  4060c8:	248400f0 	addiu	a0,a0,240
  4060cc:	8fbc0010 	lw	gp,16(sp)
  4060d0:	3c040041 	lui	a0,0x41
  4060d4:	8f9981bc 	lw	t9,-32324(gp)
  4060d8:	00000000 	nop
  4060dc:	0320f809 	jalr	t9
  4060e0:	24841050 	addiu	a0,a0,4176
  4060e4:	081017b9 	j	405ee4 <decrypt_ms_key+0x84>
  4060e8:	00000000 	nop
  4060ec:	8f82806c 	lw	v0,-32660(gp)
  4060f0:	00000000 	nop
  4060f4:	8c420000 	lw	v0,0(v0)
  4060f8:	00000000 	nop
  4060fc:	14400007 	bnez	v0,40611c <decrypt_ms_key+0x2bc>
  406100:	3c040041 	lui	a0,0x41
  406104:	8f998120 	lw	t9,-32480(gp)
  406108:	02e02021 	move	a0,s7
  40610c:	0320f809 	jalr	t9
  406110:	0000b021 	move	s6,zero
  406114:	081017b9 	j	405ee4 <decrypt_ms_key+0x84>
  406118:	00000000 	nop
[31m  40611c:	8f9981d8 	lw	t9,printf[0m
  406120:	00000000 	nop
  406124:	0320f809 	jalr	t9
--
  406598:	8f99815c 	lw	t9,-32420(gp)
  40659c:	afa70018 	sw	a3,24(sp)
  4065a0:	00462021 	addu	a0,v0,a2
  4065a4:	00002821 	move	a1,zero
  4065a8:	0320f809 	jalr	t9
  4065ac:	02263023 	subu	a2,s1,a2
  4065b0:	8e020008 	lw	v0,8(s0)
  4065b4:	8fa70018 	lw	a3,24(sp)
  4065b8:	8e120000 	lw	s2,0(s0)
  4065bc:	8fbc0010 	lw	gp,16(sp)
  4065c0:	24e30002 	addiu	v1,a3,2
  4065c4:	02429021 	addu	s2,s2,v0
  4065c8:	ae110004 	sw	s1,4(s0)
  4065cc:	a2530000 	sb	s3,0(s2)
  4065d0:	10e0ffbf 	beqz	a3,4064d0 <Radius_msg_add_attr+0xac>
  4065d4:	a2430001 	sb	v1,1(s2)
  4065d8:	8f9981c4 	lw	t9,-32316(gp)
  4065dc:	00e03021 	move	a2,a3
  4065e0:	afa70018 	sw	a3,24(sp)
  4065e4:	26440002 	addiu	a0,s2,2
  4065e8:	0320f809 	jalr	t9
  4065ec:	02802821 	move	a1,s4
  4065f0:	8fa70018 	lw	a3,24(sp)
  4065f4:	08101934 	j	4064d0 <Radius_msg_add_attr+0xac>
  4065f8:	00000000 	nop
[31m  4065fc:	8f9981d8 	lw	t9,printf[0m
  406600:	3c040041 	lui	a0,0x41
  406604:	afa70018 	sw	a3,24(sp)
  406608:	0320f809 	jalr	t9
  40660c:	248400f0 	addiu	a0,a0,240
  406610:	8fbc0010 	lw	gp,16(sp)
  406614:	8fa70018 	lw	a3,24(sp)
  406618:	3c040041 	lui	a0,0x41
[31m  40661c:	8f9981d8 	lw	t9,printf[0m
  406620:	24841080 	addiu	a0,a0,4224
  406624:	0320f809 	jalr	t9
--
  4066c8:	8e060000 	lw	a2,0(s0)
  4066cc:	8f99809c 	lw	t9,-32612(gp)
  4066d0:	24420002 	addiu	v0,v0,2
  4066d4:	afa20010 	sw	v0,16(sp)
  4066d8:	02202021 	move	a0,s1
  4066dc:	04110670 	bal	4080a0 <hmac_md5>
  4066e0:	02402821 	move	a1,s2
  4066e4:	8fbc0018 	lw	gp,24(sp)
  4066e8:	8e020008 	lw	v0,8(s0)
  4066ec:	3c030001 	lui	v1,0x1
  4066f0:	0043102b 	sltu	v0,v0,v1
  4066f4:	14400007 	bnez	v0,406714 <Radius_msg_finish+0xc4>
  4066f8:	00000000 	nop
  4066fc:	8f82806c 	lw	v0,-32660(gp)
  406700:	00000000 	nop
  406704:	8c420000 	lw	v0,0(v0)
  406708:	00000000 	nop
  40670c:	14400007 	bnez	v0,40672c <Radius_msg_finish+0xdc>
  406710:	3c040041 	lui	a0,0x41
  406714:	8fbf003c 	lw	ra,60(sp)
  406718:	8fb20038 	lw	s2,56(sp)
  40671c:	8fb10034 	lw	s1,52(sp)
  406720:	8fb00030 	lw	s0,48(sp)
  406724:	03e00008 	jr	ra
  406728:	27bd0040 	addiu	sp,sp,64
[31m  40672c:	8f9981d8 	lw	t9,printf[0m
  406730:	00000000 	nop
  406734:	0320f809 	jalr	t9
  406738:	248400f0 	addiu	a0,a0,240
  40673c:	8fbc0018 	lw	gp,24(sp)
  406740:	8e050008 	lw	a1,8(s0)
  406744:	3c040041 	lui	a0,0x41
[31m  406748:	8f9981d8 	lw	t9,printf[0m
  40674c:	00000000 	nop
  406750:	0320f809 	jalr	t9
--
  4068f0:	02002021 	move	a0,s0
  4068f4:	1040ffec 	beqz	v0,4068a8 <Radius_msg_parse+0x110>
  4068f8:	00000000 	nop
  4068fc:	0c1018ea 	jal	4063a8 <Radius_msg_free>
  406900:	02002021 	move	a0,s0
  406904:	8fbc0010 	lw	gp,16(sp)
  406908:	00000000 	nop
  40690c:	8f998120 	lw	t9,-32480(gp)
  406910:	02002021 	move	a0,s0
  406914:	0320f809 	jalr	t9
  406918:	00008021 	move	s0,zero
  40691c:	8fbf0034 	lw	ra,52(sp)
  406920:	02001021 	move	v0,s0
  406924:	8fb30030 	lw	s3,48(sp)
  406928:	8fb2002c 	lw	s2,44(sp)
  40692c:	8fb10028 	lw	s1,40(sp)
  406930:	8fb00024 	lw	s0,36(sp)
  406934:	03e00008 	jr	ra
  406938:	27bd0038 	addiu	sp,sp,56
  40693c:	8f82806c 	lw	v0,-32660(gp)
  406940:	00000000 	nop
  406944:	8c420000 	lw	v0,0(v0)
  406948:	00000000 	nop
  40694c:	1040fff3 	beqz	v0,40691c <Radius_msg_parse+0x184>
  406950:	00008021 	move	s0,zero
[31m  406954:	8f9981d8 	lw	t9,printf[0m
  406958:	3c040041 	lui	a0,0x41
  40695c:	0320f809 	jalr	t9
  406960:	248400f0 	addiu	a0,a0,240
  406964:	8fbc0010 	lw	gp,16(sp)
  406968:	3c040041 	lui	a0,0x41
  40696c:	8f9981bc 	lw	t9,-32324(gp)
  406970:	00000000 	nop
  406974:	0320f809 	jalr	t9
  406978:	248410dc 	addiu	a0,a0,4316
  40697c:	8fbf0034 	lw	ra,52(sp)
  406980:	02001021 	move	v0,s0
  406984:	8fb30030 	lw	s3,48(sp)
  406988:	8fb2002c 	lw	s2,44(sp)
  40698c:	8fb10028 	lw	s1,40(sp)
  406990:	8fb00024 	lw	s0,36(sp)
  406994:	03e00008 	jr	ra
  406998:	27bd0038 	addiu	sp,sp,56
  40699c:	8f82806c 	lw	v0,-32660(gp)
  4069a0:	00000000 	nop
  4069a4:	8c420000 	lw	v0,0(v0)
  4069a8:	00000000 	nop
  4069ac:	2c420004 	sltiu	v0,v0,4
  4069b0:	1440ff97 	bnez	v0,406810 <Radius_msg_parse+0x78>
  4069b4:	3c040041 	lui	a0,0x41
[31m  4069b8:	8f9981d8 	lw	t9,printf[0m
  4069bc:	248400f0 	addiu	a0,a0,240
  4069c0:	0320f809 	jalr	t9
  4069c4:	afa50018 	sw	a1,24(sp)
  4069c8:	8fbc0010 	lw	gp,16(sp)
  4069cc:	8fa50018 	lw	a1,24(sp)
  4069d0:	3c040041 	lui	a0,0x41
[31m  4069d4:	8f9981d8 	lw	t9,printf[0m
  4069d8:	248410fc 	addiu	a0,a0,4348
  4069dc:	0320f809 	jalr	t9
--
  406e24:	00000000 	nop
  406e28:	1440008a 	bnez	v0,407054 <Radius_msg_verify+0x438>
  406e2c:	24100001 	li	s0,1
  406e30:	8fbf00d4 	lw	ra,212(sp)
  406e34:	02001021 	move	v0,s0
  406e38:	8fb500d0 	lw	s5,208(sp)
  406e3c:	8fb400cc 	lw	s4,204(sp)
  406e40:	8fb300c8 	lw	s3,200(sp)
  406e44:	8fb200c4 	lw	s2,196(sp)
  406e48:	8fb100c0 	lw	s1,192(sp)
  406e4c:	8fb000bc 	lw	s0,188(sp)
  406e50:	03e00008 	jr	ra
  406e54:	27bd00d8 	addiu	sp,sp,216
  406e58:	16000017 	bnez	s0,406eb8 <Radius_msg_verify+0x29c>
  406e5c:	00000000 	nop
  406e60:	1446ff86 	bne	v0,a2,406c7c <Radius_msg_verify+0x60>
  406e64:	00608021 	move	s0,v1
  406e68:	08101b29 	j	406ca4 <Radius_msg_verify+0x88>
  406e6c:	00000000 	nop
  406e70:	8f82806c 	lw	v0,-32660(gp)
  406e74:	00000000 	nop
  406e78:	8c420000 	lw	v0,0(v0)
  406e7c:	00000000 	nop
  406e80:	1040ffeb 	beqz	v0,406e30 <Radius_msg_verify+0x214>
  406e84:	24100001 	li	s0,1
[31m  406e88:	8f9981d8 	lw	t9,printf[0m
  406e8c:	3c040041 	lui	a0,0x41
  406e90:	0320f809 	jalr	t9
  406e94:	248400f0 	addiu	a0,a0,240
  406e98:	8fbc0018 	lw	gp,24(sp)
  406e9c:	3c040041 	lui	a0,0x41
  406ea0:	8f9981bc 	lw	t9,-32324(gp)
  406ea4:	00000000 	nop
  406ea8:	0320f809 	jalr	t9
  406eac:	24841194 	addiu	a0,a0,4500
  406eb0:	08101b8c 	j	406e30 <Radius_msg_verify+0x214>
  406eb4:	00000000 	nop
  406eb8:	8f82806c 	lw	v0,-32660(gp)
  406ebc:	00000000 	nop
  406ec0:	8c420000 	lw	v0,0(v0)
  406ec4:	00000000 	nop
  406ec8:	1040ffd9 	beqz	v0,406e30 <Radius_msg_verify+0x214>
  406ecc:	24100001 	li	s0,1
[31m  406ed0:	8f9981d8 	lw	t9,printf[0m
  406ed4:	3c040041 	lui	a0,0x41
  406ed8:	0320f809 	jalr	t9
  406edc:	248400f0 	addiu	a0,a0,240
  406ee0:	8fbc0018 	lw	gp,24(sp)
  406ee4:	3c040041 	lui	a0,0x41
  406ee8:	8f9981bc 	lw	t9,-32324(gp)
  406eec:	00000000 	nop
  406ef0:	0320f809 	jalr	t9
  406ef4:	24841158 	addiu	a0,a0,4440
  406ef8:	08101b8c 	j	406e30 <Radius_msg_verify+0x214>
  406efc:	00000000 	nop
  406f00:	8f82806c 	lw	v0,-32660(gp)
  406f04:	00000000 	nop
  406f08:	8c420000 	lw	v0,0(v0)
  406f0c:	00000000 	nop
  406f10:	1040ffc7 	beqz	v0,406e30 <Radius_msg_verify+0x214>
  406f14:	24100001 	li	s0,1
[31m  406f18:	8f9981d8 	lw	t9,printf[0m
  406f1c:	3c040041 	lui	a0,0x41
  406f20:	0320f809 	jalr	t9
--
  406fc0:	00000000 	nop
  406fc4:	041103cb 	bal	407ef4 <MD5Update>
  406fc8:	02602821 	move	a1,s3
  406fcc:	8fbc0018 	lw	gp,24(sp)
  406fd0:	27a40020 	addiu	a0,sp,32
  406fd4:	8f998098 	lw	t9,-32616(gp)
  406fd8:	00000000 	nop
  406fdc:	04110355 	bal	407d34 <MD5Final>
  406fe0:	27a50060 	addiu	a1,sp,96
  406fe4:	8fbc0018 	lw	gp,24(sp)
  406fe8:	8e25000c 	lw	a1,12(s1)
  406fec:	27a40020 	addiu	a0,sp,32
  406ff0:	8f99817c 	lw	t9,-32388(gp)
  406ff4:	24a50004 	addiu	a1,a1,4
  406ff8:	0320f809 	jalr	t9
  406ffc:	24060010 	li	a2,16
  407000:	8fbc0018 	lw	gp,24(sp)
  407004:	1040ff8a 	beqz	v0,406e30 <Radius_msg_verify+0x214>
  407008:	00000000 	nop
  40700c:	8f82806c 	lw	v0,-32660(gp)
  407010:	00000000 	nop
  407014:	8c420000 	lw	v0,0(v0)
  407018:	00000000 	nop
  40701c:	1040ff84 	beqz	v0,406e30 <Radius_msg_verify+0x214>
  407020:	24100001 	li	s0,1
[31m  407024:	8f9981d8 	lw	t9,printf[0m
  407028:	3c040041 	lui	a0,0x41
  40702c:	0320f809 	jalr	t9
  407030:	248400f0 	addiu	a0,a0,240
  407034:	8fbc0018 	lw	gp,24(sp)
  407038:	3c040041 	lui	a0,0x41
  40703c:	8f9981bc 	lw	t9,-32324(gp)
  407040:	00000000 	nop
  407044:	0320f809 	jalr	t9
  407048:	248411e0 	addiu	a0,a0,4576
  40704c:	08101b8c 	j	406e30 <Radius_msg_verify+0x214>
  407050:	00000000 	nop
[31m  407054:	8f9981d8 	lw	t9,printf[0m
  407058:	3c040041 	lui	a0,0x41
  40705c:	0320f809 	jalr	t9
--
  407134:	041102ff 	bal	407d34 <MD5Final>
  407138:	27a50028 	addiu	a1,sp,40
  40713c:	8fbc0010 	lw	gp,16(sp)
  407140:	8e05000c 	lw	a1,12(s0)
  407144:	27a40018 	addiu	a0,sp,24
  407148:	8f99817c 	lw	t9,-32388(gp)
  40714c:	24a50004 	addiu	a1,a1,4
  407150:	0320f809 	jalr	t9
  407154:	24060010 	li	a2,16
  407158:	8fbc0010 	lw	gp,16(sp)
  40715c:	10400007 	beqz	v0,40717c <Radius_msg_verify_acct+0xf8>
  407160:	00008021 	move	s0,zero
  407164:	8f82806c 	lw	v0,-32660(gp)
  407168:	00000000 	nop
  40716c:	8c420000 	lw	v0,0(v0)
  407170:	00000000 	nop
  407174:	14400008 	bnez	v0,407198 <Radius_msg_verify_acct+0x114>
  407178:	24100001 	li	s0,1
  40717c:	8fbf0094 	lw	ra,148(sp)
  407180:	02001021 	move	v0,s0
  407184:	8fb20090 	lw	s2,144(sp)
  407188:	8fb1008c 	lw	s1,140(sp)
  40718c:	8fb00088 	lw	s0,136(sp)
  407190:	03e00008 	jr	ra
  407194:	27bd0098 	addiu	sp,sp,152
[31m  407198:	8f9981d8 	lw	t9,printf[0m
  40719c:	3c040041 	lui	a0,0x41
  4071a0:	0320f809 	jalr	t9
--
  407490:	00408821 	move	s1,v0
  407494:	8fa50020 	lw	a1,32(sp)
  407498:	00402021 	move	a0,v0
  40749c:	02403021 	move	a2,s2
  4074a0:	02a03821 	move	a3,s5
  4074a4:	2602000c 	addiu	v0,s0,12
  4074a8:	afb40010 	sw	s4,16(sp)
  4074ac:	0c101798 	jal	405e60 <decrypt_ms_key>
  4074b0:	afa20014 	sw	v0,20(sp)
  4074b4:	8fbc0018 	lw	gp,24(sp)
  4074b8:	ae020008 	sw	v0,8(s0)
  4074bc:	8f998120 	lw	t9,-32480(gp)
  4074c0:	00000000 	nop
  4074c4:	0320f809 	jalr	t9
  4074c8:	02202021 	move	a0,s1
  4074cc:	8fbf0044 	lw	ra,68(sp)
  4074d0:	02001021 	move	v0,s0
  4074d4:	8fb50040 	lw	s5,64(sp)
  4074d8:	8fb4003c 	lw	s4,60(sp)
  4074dc:	8fb30038 	lw	s3,56(sp)
  4074e0:	8fb20034 	lw	s2,52(sp)
  4074e4:	8fb10030 	lw	s1,48(sp)
  4074e8:	8fb0002c 	lw	s0,44(sp)
  4074ec:	03e00008 	jr	ra
  4074f0:	27bd0048 	addiu	sp,sp,72
[31m  4074f4:	8f9981d8 	lw	t9,printf[0m
  4074f8:	00000000 	nop
  4074fc:	0320f809 	jalr	t9
  407500:	248400f0 	addiu	a0,a0,240
  407504:	8fbc0018 	lw	gp,24(sp)
  407508:	3c040041 	lui	a0,0x41
  40750c:	24841200 	addiu	a0,a0,4608
[31m  407510:	8f9981d8 	lw	t9,printf[0m
  407514:	02802821 	move	a1,s4
  407518:	0320f809 	jalr	t9
--
  408b1c:	1603ffcf 	bne	s0,v1,408a5c <Query_config_from_driver+0x438>
  408b20:	263100b4 	addiu	s1,s1,180
  408b24:	02c0a821 	move	s5,s6
  408b28:	8fb60044 	lw	s6,68(sp)
  408b2c:	8fb2003c 	lw	s2,60(sp)
  408b30:	12c00004 	beqz	s6,408b44 <Query_config_from_driver+0x520>
  408b34:	00000000 	nop
  408b38:	8fa30088 	lw	v1,136(sp)
  408b3c:	00000000 	nop
  408b40:	ac7604c8 	sw	s6,1224(v1)
  408b44:	12a00004 	beqz	s5,408b58 <Query_config_from_driver+0x534>
  408b48:	00000000 	nop
  408b4c:	8fa30088 	lw	v1,136(sp)
  408b50:	00000000 	nop
  408b54:	ac7505cc 	sw	s5,1484(v1)
  408b58:	8f998120 	lw	t9,-32480(gp)
  408b5c:	02402021 	move	a0,s2
  408b60:	0320f809 	jalr	t9
  408b64:	24100001 	li	s0,1
  408b68:	081022f1 	j	408bc4 <Query_config_from_driver+0x5a0>
  408b6c:	00000000 	nop
  408b70:	8ee20000 	lw	v0,0(s7)
  408b74:	00000000 	nop
  408b78:	1040000e 	beqz	v0,408bb4 <Query_config_from_driver+0x590>
  408b7c:	3c040041 	lui	a0,0x41
[31m  408b80:	8f9981d8 	lw	t9,printf[0m
  408b84:	00000000 	nop
  408b88:	0320f809 	jalr	t9
  408b8c:	248400f0 	addiu	a0,a0,240
  408b90:	8fbc0020 	lw	gp,32(sp)
  408b94:	3c040041 	lui	a0,0x41
  408b98:	248413f0 	addiu	a0,a0,5104
[31m  408b9c:	8f9981d8 	lw	t9,printf[0m
  408ba0:	24050d79 	li	a1,3449
  408ba4:	0320f809 	jalr	t9
--
  408c10:	0320f809 	jalr	t9
  408c14:	00052900 	sll	a1,a1,0x4
  408c18:	8fbc0020 	lw	gp,32(sp)
  408c1c:	8fa30050 	lw	v1,80(sp)
  408c20:	8fa6004c 	lw	a2,76(sp)
  408c24:	1040ff10 	beqz	v0,408868 <Query_config_from_driver+0x244>
  408c28:	00000000 	nop
  408c2c:	8e240488 	lw	a0,1160(s1)
  408c30:	ae220408 	sw	v0,1032(s1)
  408c34:	00042900 	sll	a1,a0,0x4
  408c38:	00451021 	addu	v0,v0,a1
  408c3c:	24840001 	addiu	a0,a0,1
  408c40:	ae240488 	sw	a0,1160(s1)
  408c44:	ae220448 	sw	v0,1096(s1)
  408c48:	ac400008 	sw	zero,8(v0)
  408c4c:	ac40000c 	sw	zero,12(v0)
  408c50:	8ee40000 	lw	a0,0(s7)
  408c54:	8fa7003c 	lw	a3,60(sp)
  408c58:	24050714 	li	a1,1812
  408c5c:	ac450004 	sw	a1,4(v0)
  408c60:	ac460000 	sw	a2,0(v0)
  408c64:	24e70001 	addiu	a3,a3,1
  408c68:	2c820003 	sltiu	v0,a0,3
  408c6c:	1440fefe 	bnez	v0,408868 <Query_config_from_driver+0x244>
  408c70:	afa7003c 	sw	a3,60(sp)
[31m  408c74:	8f9981d8 	lw	t9,printf[0m
  408c78:	3c040041 	lui	a0,0x41
  408c7c:	afa30050 	sw	v1,80(sp)
  408c80:	0320f809 	jalr	t9
  408c84:	248400f0 	addiu	a0,a0,240
  408c88:	8fbc0020 	lw	gp,32(sp)
  408c8c:	8e220448 	lw	v0,1096(s1)
  408c90:	8e250488 	lw	a1,1160(s1)
  408c94:	8f998154 	lw	t9,-32428(gp)
  408c98:	8c440000 	lw	a0,0(v0)
  408c9c:	0320f809 	jalr	t9
  408ca0:	afa5004c 	sw	a1,76(sp)
  408ca4:	8e260448 	lw	a2,1096(s1)
  408ca8:	8fbc0020 	lw	gp,32(sp)
  408cac:	3c070041 	lui	a3,0x41
  408cb0:	24e414c8 	addiu	a0,a3,5320
  408cb4:	8cc70000 	lw	a3,0(a2)
  408cb8:	8fa60038 	lw	a2,56(sp)
  408cbc:	8fa5004c 	lw	a1,76(sp)
[31m  408cc0:	8f9981d8 	lw	t9,printf[0m
  408cc4:	afa60010 	sw	a2,16(sp)
  408cc8:	0320f809 	jalr	t9
--
  408cd4:	8fa30050 	lw	v1,80(sp)
  408cd8:	0810221a 	j	408868 <Query_config_from_driver+0x244>
  408cdc:	00000000 	nop
  408ce0:	8f998148 	lw	t9,-32440(gp)
  408ce4:	24c503b8 	addiu	a1,a2,952
  408ce8:	8fa40038 	lw	a0,56(sp)
  408cec:	8fa60084 	lw	a2,132(sp)
  408cf0:	0320f809 	jalr	t9
  408cf4:	02603821 	move	a3,s3
  408cf8:	8fbc0020 	lw	gp,32(sp)
  408cfc:	08102203 	j	40880c <Query_config_from_driver+0x1e8>
  408d00:	00000000 	nop
  408d04:	8f998148 	lw	t9,-32440(gp)
  408d08:	8fa60084 	lw	a2,132(sp)
  408d0c:	02a02021 	move	a0,s5
  408d10:	24a503b8 	addiu	a1,a1,952
  408d14:	0320f809 	jalr	t9
  408d18:	02003821 	move	a3,s0
  408d1c:	8fbc0020 	lw	gp,32(sp)
  408d20:	0810229e 	j	408a78 <Query_config_from_driver+0x454>
  408d24:	00000000 	nop
  408d28:	8ee20000 	lw	v0,0(s7)
  408d2c:	00000000 	nop
  408d30:	1040fee5 	beqz	v0,4088c8 <Query_config_from_driver+0x2a4>
  408d34:	3c040041 	lui	a0,0x41
[31m  408d38:	8f9981d8 	lw	t9,printf[0m
  408d3c:	afa30050 	sw	v1,80(sp)
  408d40:	0320f809 	jalr	t9
  408d44:	248400f0 	addiu	a0,a0,240
  408d48:	8fbc0020 	lw	gp,32(sp)
  408d4c:	8e250488 	lw	a1,1160(s1)
  408d50:	8fa60038 	lw	a2,56(sp)
[31m  408d54:	8f9981d8 	lw	t9,printf[0m
  408d58:	3c040041 	lui	a0,0x41
  408d5c:	0320f809 	jalr	t9
--
  408d68:	8fbc0020 	lw	gp,32(sp)
  408d6c:	8fa30050 	lw	v1,80(sp)
  408d70:	1040fed9 	beqz	v0,4088d8 <Query_config_from_driver+0x2b4>
  408d74:	02d52021 	addu	a0,s6,s5
  408d78:	00902021 	addu	a0,a0,s0
  408d7c:	00832021 	addu	a0,a0,v1
  408d80:	8f99816c 	lw	t9,-32404(gp)
  408d84:	8e350448 	lw	s5,1096(s1)
  408d88:	02442021 	addu	a0,s2,a0
  408d8c:	24840242 	addiu	a0,a0,578
  408d90:	0320f809 	jalr	t9
  408d94:	afa30050 	sw	v1,80(sp)
  408d98:	8fbc0020 	lw	gp,32(sp)
  408d9c:	8fa60048 	lw	a2,72(sp)
  408da0:	aea20008 	sw	v0,8(s5)
  408da4:	8ee20000 	lw	v0,0(s7)
  408da8:	8e240448 	lw	a0,1096(s1)
  408dac:	92850000 	lbu	a1,0(s4)
  408db0:	24c60001 	addiu	a2,a2,1
  408db4:	2c420003 	sltiu	v0,v0,3
  408db8:	afa60048 	sw	a2,72(sp)
  408dbc:	ac85000c 	sw	a1,12(a0)
  408dc0:	8fa30050 	lw	v1,80(sp)
  408dc4:	1440fec8 	bnez	v0,4088e8 <Query_config_from_driver+0x2c4>
  408dc8:	3c040041 	lui	a0,0x41
[31m  408dcc:	8f9981d8 	lw	t9,printf[0m
  408dd0:	00000000 	nop
  408dd4:	0320f809 	jalr	t9
  408dd8:	248400f0 	addiu	a0,a0,240
  408ddc:	8e220448 	lw	v0,1096(s1)
  408de0:	8fbc0020 	lw	gp,32(sp)
  408de4:	8e250488 	lw	a1,1160(s1)
  408de8:	8c460008 	lw	a2,8(v0)
  408dec:	8c47000c 	lw	a3,12(v0)
  408df0:	8fa20038 	lw	v0,56(sp)
[31m  408df4:	8f9981d8 	lw	t9,printf[0m
  408df8:	3c040041 	lui	a0,0x41
  408dfc:	24841540 	addiu	a0,a0,5440
--
  408e98:	24060010 	li	a2,16
  408e9c:	afa30050 	sw	v1,80(sp)
  408ea0:	0320f809 	jalr	t9
  408ea4:	afa20038 	sw	v0,56(sp)
  408ea8:	8fbc0020 	lw	gp,32(sp)
  408eac:	8fa7003c 	lw	a3,60(sp)
  408eb0:	8fa30050 	lw	v1,80(sp)
  408eb4:	92660119 	lbu	a2,281(s3)
  408eb8:	8f9981c4 	lw	t9,-32316(gp)
  408ebc:	24e50019 	addiu	a1,a3,25
  408ec0:	00101100 	sll	v0,s0,0x4
  408ec4:	264404cc 	addiu	a0,s2,1228
  408ec8:	00832021 	addu	a0,a0,v1
  408ecc:	0320f809 	jalr	t9
  408ed0:	00a22821 	addu	a1,a1,v0
  408ed4:	8ee20000 	lw	v0,0(s7)
  408ed8:	8fbc0020 	lw	gp,32(sp)
  408edc:	2c420003 	sltiu	v0,v0,3
  408ee0:	1040008c 	beqz	v0,409114 <Query_config_from_driver+0xaf0>
  408ee4:	00000000 	nop
  408ee8:	8fa30044 	lw	v1,68(sp)
  408eec:	00000000 	nop
  408ef0:	24630001 	addiu	v1,v1,1
  408ef4:	081022bf 	j	408afc <Query_config_from_driver+0x4d8>
  408ef8:	afa30044 	sw	v1,68(sp)
[31m  408efc:	8f9981d8 	lw	t9,printf[0m
  408f00:	00000000 	nop
  408f04:	0320f809 	jalr	t9
  408f08:	03c02021 	move	a0,s8
  408f0c:	8fbc0020 	lw	gp,32(sp)
  408f10:	26050037 	addiu	a1,s0,55
  408f14:	8e8608e0 	lw	a2,2272(s4)
[31m  408f18:	8f9981d8 	lw	t9,printf[0m
  408f1c:	3c070041 	lui	a3,0x41
  408f20:	00052940 	sll	a1,a1,0x5
--
  408fac:	26460328 	addiu	a2,s2,808
  408fb0:	ae8302a8 	sw	v1,680(s4)
  408fb4:	00c42021 	addu	a0,a2,a0
  408fb8:	a0400000 	sb	zero,0(v0)
  408fbc:	a0400001 	sb	zero,1(v0)
  408fc0:	a0400002 	sb	zero,2(v0)
  408fc4:	a0400003 	sb	zero,3(v0)
  408fc8:	a0400004 	sb	zero,4(v0)
  408fcc:	a0400005 	sb	zero,5(v0)
  408fd0:	a0400006 	sb	zero,6(v0)
  408fd4:	a0400007 	sb	zero,7(v0)
  408fd8:	a0400008 	sb	zero,8(v0)
  408fdc:	a0400009 	sb	zero,9(v0)
  408fe0:	a040000a 	sb	zero,10(v0)
  408fe4:	a040000b 	sb	zero,11(v0)
  408fe8:	a040000c 	sb	zero,12(v0)
  408fec:	24a502cf 	addiu	a1,a1,719
  408ff0:	00603021 	move	a2,v1
  408ff4:	0320f809 	jalr	t9
  408ff8:	afa30050 	sw	v1,80(sp)
  408ffc:	8ee20000 	lw	v0,0(s7)
  409000:	8fbc0020 	lw	gp,32(sp)
  409004:	2c420003 	sltiu	v0,v0,3
  409008:	1440feaf 	bnez	v0,408ac8 <Query_config_from_driver+0x4a4>
  40900c:	00000000 	nop
[31m  409010:	8f9981d8 	lw	t9,printf[0m
  409014:	00000000 	nop
  409018:	0320f809 	jalr	t9
  40901c:	03c02021 	move	a0,s8
  409020:	8fbc0020 	lw	gp,32(sp)
  409024:	8e850268 	lw	a1,616(s4)
  409028:	8fa30050 	lw	v1,80(sp)
[31m  40902c:	8f9981d8 	lw	t9,printf[0m
  409030:	3c070041 	lui	a3,0x41
  409034:	24e416c8 	addiu	a0,a3,5832
  409038:	24a50001 	addiu	a1,a1,1
  40903c:	00603021 	move	a2,v1
  409040:	0320f809 	jalr	t9
  409044:	02a03821 	move	a3,s5
  409048:	8fbc0020 	lw	gp,32(sp)
  40904c:	081022b2 	j	408ac8 <Query_config_from_driver+0x4a4>
  409050:	00000000 	nop
[31m  409054:	8f9981d8 	lw	t9,printf[0m
  409058:	afa30050 	sw	v1,80(sp)
  40905c:	0320f809 	jalr	t9
  409060:	248400f0 	addiu	a0,a0,240
  409064:	8fbc0020 	lw	gp,32(sp)
  409068:	8e250488 	lw	a1,1160(s1)
  40906c:	8fa60038 	lw	a2,56(sp)
[31m  409070:	8f9981d8 	lw	t9,printf[0m
  409074:	3c040041 	lui	a0,0x41
  409078:	0320f809 	jalr	t9
  40907c:	24841570 	addiu	a0,a0,5488
  409080:	8fbc0020 	lw	gp,32(sp)
  409084:	8fa30050 	lw	v1,80(sp)
  409088:	0810223a 	j	4088e8 <Query_config_from_driver+0x2c4>
  40908c:	00000000 	nop
[31m  409090:	8f9981d8 	lw	t9,printf[0m
  409094:	00000000 	nop
  409098:	0320f809 	jalr	t9
  40909c:	03c02021 	move	a0,s8
  4090a0:	8fbc0020 	lw	gp,32(sp)
  4090a4:	8e850268 	lw	a1,616(s4)
  4090a8:	8e8602e8 	lw	a2,744(s4)
[31m  4090ac:	8f9981d8 	lw	t9,printf[0m
  4090b0:	3c040041 	lui	a0,0x41
  4090b4:	24841680 	addiu	a0,a0,5760
  4090b8:	0320f809 	jalr	t9
  4090bc:	02a03821 	move	a3,s5
  4090c0:	8fbc0020 	lw	gp,32(sp)
  4090c4:	081022ac 	j	408ab0 <Query_config_from_driver+0x48c>
  4090c8:	00000000 	nop
[31m  4090cc:	8f9981d8 	lw	t9,printf[0m
  4090d0:	3c040041 	lui	a0,0x41
  4090d4:	afa30050 	sw	v1,80(sp)
  4090d8:	0320f809 	jalr	t9
  4090dc:	248400f0 	addiu	a0,a0,240
  4090e0:	8fbc0020 	lw	gp,32(sp)
  4090e4:	8e220448 	lw	v0,1096(s1)
  4090e8:	8e250488 	lw	a1,1160(s1)
[31m  4090ec:	8f9981d8 	lw	t9,printf[0m
  4090f0:	8c460004 	lw	a2,4(v0)
  4090f4:	8fa70038 	lw	a3,56(sp)
  4090f8:	3c040041 	lui	a0,0x41
  4090fc:	0320f809 	jalr	t9
  409100:	248414f4 	addiu	a0,a0,5364
  409104:	8fbc0020 	lw	gp,32(sp)
  409108:	8fa30050 	lw	v1,80(sp)
  40910c:	08102232 	j	4088c8 <Query_config_from_driver+0x2a4>
  409110:	00000000 	nop
  409114:	8fa30044 	lw	v1,68(sp)
[31m  409118:	8f9981d8 	lw	t9,printf[0m
  40911c:	03c02021 	move	a0,s8
  409120:	24630001 	addiu	v1,v1,1
  409124:	0320f809 	jalr	t9
  409128:	afa30044 	sw	v1,68(sp)
  40912c:	8fbc0020 	lw	gp,32(sp)
  409130:	8fa50044 	lw	a1,68(sp)
  409134:	8fa60038 	lw	a2,56(sp)
[31m  409138:	8f9981d8 	lw	t9,printf[0m
  40913c:	3c040041 	lui	a0,0x41
  409140:	0320f809 	jalr	t9
  409144:	24841738 	addiu	a0,a0,5944
  409148:	8fbc0020 	lw	gp,32(sp)
  40914c:	081022bf 	j	408afc <Query_config_from_driver+0x4d8>
  409150:	00000000 	nop
[31m  409154:	8f9981d8 	lw	t9,printf[0m
  409158:	03c02021 	move	a0,s8
  40915c:	0320f809 	jalr	t9
  409160:	26d60001 	addiu	s6,s6,1
  409164:	8fbc0020 	lw	gp,32(sp)
  409168:	8fa60038 	lw	a2,56(sp)
  40916c:	3c040041 	lui	a0,0x41
[31m  409170:	8f9981d8 	lw	t9,printf[0m
  409174:	24841750 	addiu	a0,a0,5968
  409178:	0320f809 	jalr	t9
  40917c:	02c02821 	move	a1,s6
  409180:	8fbc0020 	lw	gp,32(sp)
  409184:	081022c3 	j	408b0c <Query_config_from_driver+0x4e8>
  409188:	00000000 	nop
[31m  40918c:	8f9981d8 	lw	t9,printf[0m
  409190:	00000000 	nop
  409194:	0320f809 	jalr	t9
  409198:	248400f0 	addiu	a0,a0,240
  40919c:	8fbc0020 	lw	gp,32(sp)
  4091a0:	3c040041 	lui	a0,0x41
  4091a4:	248413bc 	addiu	a0,a0,5052
[31m  4091a8:	8f9981d8 	lw	t9,printf[0m
  4091ac:	00000000 	nop
  4091b0:	0320f809 	jalr	t9
  4091b4:	24050d79 	li	a1,3449
  4091b8:	8fbc0020 	lw	gp,32(sp)
  4091bc:	081021ab 	j	4086ac <Query_config_from_driver+0x88>
  4091c0:	00000000 	nop
  4091c4:	8fa50088 	lw	a1,136(sp)
  4091c8:	24040001 	li	a0,1
  4091cc:	2842003c 	slti	v0,v0,60
  4091d0:	10400003 	beqz	v0,4091e0 <Query_config_from_driver+0xbbc>
  4091d4:	aca406d4 	sw	a0,1748(a1)
  4091d8:	24020e10 	li	v0,3600
  4091dc:	aca206d8 	sw	v0,1752(a1)
  4091e0:	1460fe03 	bnez	v1,4089f0 <Query_config_from_driver+0x3cc>
  4091e4:	3c040041 	lui	a0,0x41
[31m  4091e8:	8f9981d8 	lw	t9,printf[0m
  4091ec:	00000000 	nop
  4091f0:	0320f809 	jalr	t9
  4091f4:	248400f0 	addiu	a0,a0,240
  4091f8:	8fbc0020 	lw	gp,32(sp)
  4091fc:	8fa30088 	lw	v1,136(sp)
  409200:	3c040041 	lui	a0,0x41
[31m  409204:	8f9981d8 	lw	t9,printf[0m
  409208:	8c6506d8 	lw	a1,1752(v1)
  40920c:	0320f809 	jalr	t9
--
  409264:	8fa3003c 	lw	v1,60(sp)
  409268:	00000000 	nop
  40926c:	1464fdb6 	bne	v1,a0,408948 <Query_config_from_driver+0x324>
  409270:	00000000 	nop
  409274:	8fa30090 	lw	v1,144(sp)
  409278:	8fa40048 	lw	a0,72(sp)
  40927c:	8c620000 	lw	v0,0(v1)
  409280:	00000000 	nop
  409284:	34420004 	ori	v0,v0,0x4
  409288:	ac620000 	sw	v0,0(v1)
  40928c:	8fa3003c 	lw	v1,60(sp)
  409290:	00000000 	nop
  409294:	1464fdba 	bne	v1,a0,408980 <Query_config_from_driver+0x35c>
  409298:	00000000 	nop
  40929c:	8fa30090 	lw	v1,144(sp)
  4092a0:	00000000 	nop
  4092a4:	8c620000 	lw	v0,0(v1)
  4092a8:	00000000 	nop
  4092ac:	34420008 	ori	v0,v0,0x8
  4092b0:	0810226a 	j	4089a8 <Query_config_from_driver+0x384>
  4092b4:	ac620000 	sw	v0,0(v1)
  4092b8:	8ee20000 	lw	v0,0(s7)
  4092bc:	00000000 	nop
  4092c0:	1040fd3f 	beqz	v0,4087c0 <Query_config_from_driver+0x19c>
  4092c4:	3c040041 	lui	a0,0x41
[31m  4092c8:	8f9981d8 	lw	t9,printf[0m
  4092cc:	00000000 	nop
  4092d0:	0320f809 	jalr	t9
  4092d4:	248400f0 	addiu	a0,a0,240
  4092d8:	8fbc0020 	lw	gp,32(sp)
  4092dc:	3c040041 	lui	a0,0x41
  4092e0:	8f9981bc 	lw	t9,-32324(gp)
  4092e4:	00000000 	nop
  4092e8:	0320f809 	jalr	t9
  4092ec:	24841490 	addiu	a0,a0,5264
  4092f0:	8fbc0020 	lw	gp,32(sp)
  4092f4:	081021f0 	j	4087c0 <Query_config_from_driver+0x19c>
  4092f8:	00000000 	nop
  4092fc:	8fa3008c 	lw	v1,140(sp)
  409300:	00000000 	nop
  409304:	8c620000 	lw	v0,0(v1)
  409308:	00000000 	nop
  40930c:	24420001 	addiu	v0,v0,1
  409310:	ac620000 	sw	v0,0(v1)
  409314:	8ee20000 	lw	v0,0(s7)
  409318:	00000000 	nop
  40931c:	1040fd17 	beqz	v0,40877c <Query_config_from_driver+0x158>
  409320:	3c040041 	lui	a0,0x41
[31m  409324:	8f9981d8 	lw	t9,printf[0m
  409328:	00000000 	nop
  40932c:	0320f809 	jalr	t9
  409330:	248400f0 	addiu	a0,a0,240
  409334:	8fbc0020 	lw	gp,32(sp)
  409338:	3c040041 	lui	a0,0x41
  40933c:	8f9981bc 	lw	t9,-32324(gp)
  409340:	00000000 	nop
  409344:	0320f809 	jalr	t9
  409348:	24841460 	addiu	a0,a0,5216
  40934c:	8fbc0020 	lw	gp,32(sp)
  409350:	081021df 	j	40877c <Query_config_from_driver+0x158>
  409354:	00000000 	nop
[31m  409358:	8f9981d8 	lw	t9,printf[0m
  40935c:	3c040041 	lui	a0,0x41
  409360:	0320f809 	jalr	t9
  409364:	248400f0 	addiu	a0,a0,240
  409368:	8fa30088 	lw	v1,136(sp)
  40936c:	8fbc0020 	lw	gp,32(sp)
  409370:	8c6206d4 	lw	v0,1748(v1)
  409374:	00000000 	nop
  409378:	10400096 	beqz	v0,4095d4 <Query_config_from_driver+0xfb0>
  40937c:	3c050041 	lui	a1,0x41
  409380:	3c050041 	lui	a1,0x41
  409384:	24a51370 	addiu	a1,a1,4976
[31m  409388:	8f9981d8 	lw	t9,printf[0m
  40938c:	3c040041 	lui	a0,0x41
  409390:	0320f809 	jalr	t9
  409394:	24841644 	addiu	a0,a0,5700
  409398:	8ee30000 	lw	v1,0(s7)
  40939c:	8fbc0020 	lw	gp,32(sp)
  4093a0:	0810227c 	j	4089f0 <Query_config_from_driver+0x3cc>
  4093a4:	2c630003 	sltiu	v1,v1,3
[31m  4093a8:	8f9981d8 	lw	t9,printf[0m
  4093ac:	00000000 	nop
  4093b0:	0320f809 	jalr	t9
  4093b4:	248400f0 	addiu	a0,a0,240
  4093b8:	8fbc0020 	lw	gp,32(sp)
  4093bc:	8fa30088 	lw	v1,136(sp)
  4093c0:	3c040041 	lui	a0,0x41
[31m  4093c4:	8f9981d8 	lw	t9,printf[0m
  4093c8:	8c650404 	lw	a1,1028(v1)
  4093cc:	0320f809 	jalr	t9
  4093d0:	24841478 	addiu	a0,a0,5240
  4093d4:	8fbc0020 	lw	gp,32(sp)
  4093d8:	081021f0 	j	4087c0 <Query_config_from_driver+0x19c>
  4093dc:	00000000 	nop
[31m  4093e0:	8f9981d8 	lw	t9,printf[0m
  4093e4:	00000000 	nop
  4093e8:	0320f809 	jalr	t9
  4093ec:	248400f0 	addiu	a0,a0,240
  4093f0:	8fbc0020 	lw	gp,32(sp)
  4093f4:	8fa30088 	lw	v1,136(sp)
  4093f8:	8f998154 	lw	t9,-32428(gp)
  4093fc:	8c640400 	lw	a0,1024(v1)
  409400:	0320f809 	jalr	t9
  409404:	00000000 	nop
  409408:	8fbc0020 	lw	gp,32(sp)
  40940c:	8fa30088 	lw	v1,136(sp)
  409410:	3c040041 	lui	a0,0x41
[31m  409414:	8f9981d8 	lw	t9,printf[0m
  409418:	8c660400 	lw	a2,1024(v1)
  40941c:	24841444 	addiu	a0,a0,5188
  409420:	0320f809 	jalr	t9
  409424:	00402821 	move	a1,v0
  409428:	8fbc0020 	lw	gp,32(sp)
  40942c:	081021df 	j	40877c <Query_config_from_driver+0x158>
  409430:	00000000 	nop
[31m  409434:	8f9981d8 	lw	t9,printf[0m
  409438:	00000000 	nop
  40943c:	0320f809 	jalr	t9
  409440:	248400f0 	addiu	a0,a0,240
  409444:	8fbc0020 	lw	gp,32(sp)
  409448:	3c040041 	lui	a0,0x41
  40944c:	8f9981bc 	lw	t9,-32324(gp)
  409450:	00000000 	nop
  409454:	0320f809 	jalr	t9
  409458:	24841598 	addiu	a0,a0,5528
  40945c:	8fbc0020 	lw	gp,32(sp)
  409460:	08102492 	j	409248 <Query_config_from_driver+0xc24>
  409464:	00000000 	nop
  409468:	8f82806c 	lw	v0,-32660(gp)
  40946c:	00000000 	nop
  409470:	8c420000 	lw	v0,0(v0)
  409474:	00000000 	nop
  409478:	1040fdd2 	beqz	v0,408bc4 <Query_config_from_driver+0x5a0>
  40947c:	00008021 	move	s0,zero
[31m  409480:	8f9981d8 	lw	t9,printf[0m
  409484:	3c040041 	lui	a0,0x41
  409488:	0320f809 	jalr	t9
  40948c:	248400f0 	addiu	a0,a0,240
  409490:	8fbc0020 	lw	gp,32(sp)
  409494:	3c040041 	lui	a0,0x41
  409498:	24841384 	addiu	a0,a0,4996
[31m  40949c:	8f9981d8 	lw	t9,printf[0m
  4094a0:	00000000 	nop
  4094a4:	0320f809 	jalr	t9
  4094a8:	24050d79 	li	a1,3449
  4094ac:	081022f1 	j	408bc4 <Query_config_from_driver+0x5a0>
  4094b0:	00000000 	nop
[31m  4094b4:	8f9981d8 	lw	t9,printf[0m
  4094b8:	00000000 	nop
  4094bc:	0320f809 	jalr	t9
  4094c0:	248400f0 	addiu	a0,a0,240
  4094c4:	8fbc0020 	lw	gp,32(sp)
  4094c8:	8fa30088 	lw	v1,136(sp)
  4094cc:	3c040041 	lui	a0,0x41
[31m  4094d0:	8f9981d8 	lw	t9,printf[0m
  4094d4:	8c650014 	lw	a1,20(v1)
  4094d8:	0320f809 	jalr	t9
  4094dc:	24841430 	addiu	a0,a0,5168
  4094e0:	8fbc0020 	lw	gp,32(sp)
  4094e4:	081021cb 	j	40872c <Query_config_from_driver+0x108>
  4094e8:	00000000 	nop
[31m  4094ec:	8f9981d8 	lw	t9,printf[0m
  4094f0:	00000000 	nop
  4094f4:	0320f809 	jalr	t9
  4094f8:	248400f0 	addiu	a0,a0,240
  4094fc:	8fbc0020 	lw	gp,32(sp)
  409500:	8fa30088 	lw	v1,136(sp)
  409504:	3c040041 	lui	a0,0x41
[31m  409508:	8f9981d8 	lw	t9,printf[0m
  40950c:	8c6506dc 	lw	a1,1756(v1)
  409510:	0320f809 	jalr	t9
  409514:	24841664 	addiu	a0,a0,5732
  409518:	8fbc0020 	lw	gp,32(sp)
  40951c:	08102287 	j	408a1c <Query_config_from_driver+0x3f8>
  409520:	00000000 	nop
[31m  409524:	8f9981d8 	lw	t9,printf[0m
  409528:	00000000 	nop
  40952c:	0320f809 	jalr	t9
  409530:	248400f0 	addiu	a0,a0,240
  409534:	8fbc0020 	lw	gp,32(sp)
  409538:	8fa30088 	lw	v1,136(sp)
  40953c:	3c040041 	lui	a0,0x41
[31m  409540:	8f9981d8 	lw	t9,printf[0m
  409544:	8c6506d0 	lw	a1,1744(v1)
  409548:	0320f809 	jalr	t9
  40954c:	248415e8 	addiu	a0,a0,5608
  409550:	8fbc0020 	lw	gp,32(sp)
  409554:	00000000 	nop
  409558:	8f82806c 	lw	v0,-32660(gp)
  40955c:	00000000 	nop
  409560:	8c430000 	lw	v1,0(v0)
  409564:	08102274 	j	4089d0 <Query_config_from_driver+0x3ac>
  409568:	2c630003 	sltiu	v1,v1,3
[31m  40956c:	8f9981d8 	lw	t9,printf[0m
  409570:	00000000 	nop
  409574:	0320f809 	jalr	t9
  409578:	248400f0 	addiu	a0,a0,240
  40957c:	8fbc0020 	lw	gp,32(sp)
  409580:	3c040041 	lui	a0,0x41
  409584:	8f9981bc 	lw	t9,-32324(gp)
  409588:	00000000 	nop
  40958c:	0320f809 	jalr	t9
  409590:	248415b8 	addiu	a0,a0,5560
  409594:	8fbc0020 	lw	gp,32(sp)
  409598:	08102256 	j	408958 <Query_config_from_driver+0x334>
  40959c:	00000000 	nop
[31m  4095a0:	8f9981d8 	lw	t9,printf[0m
  4095a4:	00000000 	nop
  4095a8:	0320f809 	jalr	t9
--
  409a60:	8e030408 	lw	v1,1032(s0)
  409a64:	00000000 	nop
  409a68:	1060002f 	beqz	v1,409b28 <Config_read+0x438>
  409a6c:	ae030448 	sw	v1,1096(s0)
  409a70:	8e420000 	lw	v0,0(s2)
  409a74:	00000000 	nop
  409a78:	2c420003 	sltiu	v0,v0,3
  409a7c:	1040006e 	beqz	v0,409c38 <Config_read+0x548>
  409a80:	00000000 	nop
  409a84:	8e020488 	lw	v0,1160(s0)
  409a88:	00000000 	nop
  409a8c:	18400026 	blez	v0,409b28 <Config_read+0x438>
  409a90:	00000000 	nop
  409a94:	081026ac 	j	409ab0 <Config_read+0x3c0>
  409a98:	00003021 	move	a2,zero
  409a9c:	8e020488 	lw	v0,1160(s0)
  409aa0:	00000000 	nop
  409aa4:	00c2102a 	slt	v0,a2,v0
  409aa8:	1040001f 	beqz	v0,409b28 <Config_read+0x438>
  409aac:	24630010 	addiu	v1,v1,16
  409ab0:	8e420000 	lw	v0,0(s2)
  409ab4:	00000000 	nop
  409ab8:	2c420003 	sltiu	v0,v0,3
  409abc:	1440fff7 	bnez	v0,409a9c <Config_read+0x3ac>
  409ac0:	24c60001 	addiu	a2,a2,1
[31m  409ac4:	8f9981d8 	lw	t9,printf[0m
  409ac8:	afa6006c 	sw	a2,108(sp)
  409acc:	02a02021 	move	a0,s5
  409ad0:	0320f809 	jalr	t9
  409ad4:	afa30070 	sw	v1,112(sp)
  409ad8:	8fa30070 	lw	v1,112(sp)
  409adc:	8fbc0018 	lw	gp,24(sp)
  409ae0:	8c640000 	lw	a0,0(v1)
  409ae4:	8f998154 	lw	t9,-32428(gp)
  409ae8:	00000000 	nop
  409aec:	0320f809 	jalr	t9
  409af0:	00000000 	nop
  409af4:	8fbc0018 	lw	gp,24(sp)
  409af8:	02c02021 	move	a0,s6
[31m  409afc:	8f9981d8 	lw	t9,printf[0m
  409b00:	00000000 	nop
  409b04:	0320f809 	jalr	t9
--
  409b78:	3063000f 	andi	v1,v1,0xf
  409b7c:	1062000a 	beq	v1,v0,409ba8 <Config_read+0x4b8>
  409b80:	00000000 	nop
  409b84:	8f82806c 	lw	v0,-32660(gp)
  409b88:	00000000 	nop
  409b8c:	8c420000 	lw	v0,0(v0)
  409b90:	00000000 	nop
  409b94:	14400051 	bnez	v0,409cdc <Config_read+0x5ec>
  409b98:	3c040041 	lui	a0,0x41
  409b9c:	02602021 	move	a0,s3
  409ba0:	0c102577 	jal	4095dc <Config_free>
  409ba4:	00009821 	move	s3,zero
  409ba8:	8fbf009c 	lw	ra,156(sp)
  409bac:	02601021 	move	v0,s3
  409bb0:	8fbe0098 	lw	s8,152(sp)
  409bb4:	8fb70094 	lw	s7,148(sp)
  409bb8:	8fb60090 	lw	s6,144(sp)
  409bbc:	8fb5008c 	lw	s5,140(sp)
  409bc0:	8fb40088 	lw	s4,136(sp)
  409bc4:	8fb30084 	lw	s3,132(sp)
  409bc8:	8fb20080 	lw	s2,128(sp)
  409bcc:	8fb1007c 	lw	s1,124(sp)
  409bd0:	8fb00078 	lw	s0,120(sp)
  409bd4:	03e00008 	jr	ra
  409bd8:	27bd00a0 	addiu	sp,sp,160
[31m  409bdc:	8f9981d8 	lw	t9,printf[0m
  409be0:	00000000 	nop
  409be4:	0320f809 	jalr	t9
  409be8:	248400f0 	addiu	a0,a0,240
  409bec:	8fbc0018 	lw	gp,24(sp)
  409bf0:	8e870228 	lw	a3,552(s4)
  409bf4:	3c020041 	lui	v0,0x41
[31m  409bf8:	8f9981d8 	lw	t9,printf[0m
  409bfc:	02402821 	move	a1,s2
  409c00:	244417c8 	addiu	a0,v0,6088
  409c04:	0320f809 	jalr	t9
  409c08:	02c03021 	move	a2,s6
  409c0c:	8fbc0018 	lw	gp,24(sp)
  409c10:	0810265b 	j	40996c <Config_read+0x27c>
  409c14:	00000000 	nop
  409c18:	8f998148 	lw	t9,-32440(gp)
  409c1c:	26e503b8 	addiu	a1,s7,952
  409c20:	03c03021 	move	a2,s8
  409c24:	0320f809 	jalr	t9
  409c28:	02803821 	move	a3,s4
  409c2c:	8fbc0018 	lw	gp,24(sp)
  409c30:	08102698 	j	409a60 <Config_read+0x370>
  409c34:	00000000 	nop
[31m  409c38:	8f9981d8 	lw	t9,printf[0m
  409c3c:	02a02021 	move	a0,s5
  409c40:	0320f809 	jalr	t9
  409c44:	afa30070 	sw	v1,112(sp)
  409c48:	8fa30070 	lw	v1,112(sp)
  409c4c:	8fbc0018 	lw	gp,24(sp)
  409c50:	8c640000 	lw	a0,0(v1)
  409c54:	8f998154 	lw	t9,-32428(gp)
  409c58:	00000000 	nop
  409c5c:	0320f809 	jalr	t9
  409c60:	00000000 	nop
  409c64:	8fbc0018 	lw	gp,24(sp)
  409c68:	3c040041 	lui	a0,0x41
  409c6c:	248417e8 	addiu	a0,a0,6120
[31m  409c70:	8f9981d8 	lw	t9,printf[0m
  409c74:	02202821 	move	a1,s1
  409c78:	0320f809 	jalr	t9
  409c7c:	00403021 	move	a2,v0
  409c80:	8fbc0018 	lw	gp,24(sp)
  409c84:	8fa30070 	lw	v1,112(sp)
  409c88:	081026a1 	j	409a84 <Config_read+0x394>
  409c8c:	00000000 	nop
  409c90:	8f82806c 	lw	v0,-32660(gp)
  409c94:	00000000 	nop
  409c98:	8c420000 	lw	v0,0(v0)
  409c9c:	00000000 	nop
  409ca0:	2c420003 	sltiu	v0,v0,3
  409ca4:	1440ffc0 	bnez	v0,409ba8 <Config_read+0x4b8>
  409ca8:	3c040041 	lui	a0,0x41
[31m  409cac:	8f9981d8 	lw	t9,printf[0m
  409cb0:	00000000 	nop
  409cb4:	0320f809 	jalr	t9
  409cb8:	248400f0 	addiu	a0,a0,240
  409cbc:	8fbc0018 	lw	gp,24(sp)
  409cc0:	3c040041 	lui	a0,0x41
  409cc4:	8f9981bc 	lw	t9,-32324(gp)
  409cc8:	00000000 	nop
  409ccc:	0320f809 	jalr	t9
  409cd0:	2484176c 	addiu	a0,a0,5996
  409cd4:	081026ea 	j	409ba8 <Config_read+0x4b8>
  409cd8:	00000000 	nop
[31m  409cdc:	8f9981d8 	lw	t9,printf[0m
  409ce0:	00000000 	nop
  409ce4:	0320f809 	jalr	t9
  409ce8:	248400f0 	addiu	a0,a0,240
  409cec:	8fbc0018 	lw	gp,24(sp)
  409cf0:	8fa50020 	lw	a1,32(sp)
  409cf4:	3c040041 	lui	a0,0x41
[31m  409cf8:	8f9981d8 	lw	t9,printf[0m
  409cfc:	00000000 	nop
  409d00:	0320f809 	jalr	t9
  409d04:	2484183c 	addiu	a0,a0,6204
  409d08:	081026e8 	j	409ba0 <Config_read+0x4b0>
  409d0c:	02602021 	move	a0,s3
[31m  409d10:	8f9981d8 	lw	t9,printf[0m
  409d14:	00000000 	nop
  409d18:	0320f809 	jalr	t9
  409d1c:	248400f0 	addiu	a0,a0,240
  409d20:	8fbc0018 	lw	gp,24(sp)
  409d24:	8fa50024 	lw	a1,36(sp)
  409d28:	3c040041 	lui	a0,0x41
[31m  409d2c:	8f9981d8 	lw	t9,printf[0m
  409d30:	00000000 	nop
  409d34:	0320f809 	jalr	t9
--
  409ef8:	10400006 	beqz	v0,409f14 <ieee802_1x_send+0x1b4>
  409efc:	02002021 	move	a0,s0
  409f00:	8ea20000 	lw	v0,0(s5)
  409f04:	00000000 	nop
  409f08:	14400063 	bnez	v0,40a098 <ieee802_1x_send+0x338>
  409f0c:	3c040041 	lui	a0,0x41
  409f10:	02002021 	move	a0,s0
  409f14:	8fbf004c 	lw	ra,76(sp)
  409f18:	8fb70048 	lw	s7,72(sp)
  409f1c:	8fb60044 	lw	s6,68(sp)
  409f20:	8fb50040 	lw	s5,64(sp)
  409f24:	8fb4003c 	lw	s4,60(sp)
  409f28:	8fb30038 	lw	s3,56(sp)
  409f2c:	8fb20034 	lw	s2,52(sp)
  409f30:	8fb10030 	lw	s1,48(sp)
  409f34:	8fb0002c 	lw	s0,44(sp)
  409f38:	8f998120 	lw	t9,-32480(gp)
  409f3c:	00000000 	nop
  409f40:	03200008 	jr	t9
  409f44:	27bd0050 	addiu	sp,sp,80
  409f48:	8ea20000 	lw	v0,0(s5)
  409f4c:	00000000 	nop
  409f50:	2c420003 	sltiu	v0,v0,3
  409f54:	1440ffa4 	bnez	v0,409de8 <ieee802_1x_send+0x88>
  409f58:	3c040041 	lui	a0,0x41
[31m  409f5c:	8f9981d8 	lw	t9,printf[0m
  409f60:	00000000 	nop
  409f64:	0320f809 	jalr	t9
  409f68:	248400f0 	addiu	a0,a0,240
  409f6c:	8fbc0020 	lw	gp,32(sp)
  409f70:	8e850008 	lw	a1,8(s4)
  409f74:	92c60001 	lbu	a2,1(s6)
[31m  409f78:	8f9981d8 	lw	t9,printf[0m
  409f7c:	3c040041 	lui	a0,0x41
  409f80:	0320f809 	jalr	t9
  409f84:	248418a4 	addiu	a0,a0,6308
  409f88:	8fbc0020 	lw	gp,32(sp)
  409f8c:	0810277a 	j	409de8 <ieee802_1x_send+0x88>
  409f90:	00000000 	nop
  409f94:	8f9981a8 	lw	t9,-32344(gp)
  409f98:	8e24008c 	lw	a0,140(s1)
  409f9c:	02002821 	move	a1,s0
  409fa0:	02603021 	move	a2,s3
  409fa4:	0320f809 	jalr	t9
  409fa8:	00003821 	move	a3,zero
  409fac:	8fbc0020 	lw	gp,32(sp)
  409fb0:	0440005b 	bltz	v0,40a120 <ieee802_1x_send+0x3c0>
  409fb4:	3c040041 	lui	a0,0x41
  409fb8:	8ea20000 	lw	v0,0(s5)
  409fbc:	00000000 	nop
  409fc0:	2c420004 	sltiu	v0,v0,4
  409fc4:	1440ffd2 	bnez	v0,409f10 <ieee802_1x_send+0x1b0>
  409fc8:	3c040041 	lui	a0,0x41
[31m  409fcc:	8f9981d8 	lw	t9,printf[0m
  409fd0:	00000000 	nop
  409fd4:	0320f809 	jalr	t9
  409fd8:	248400f0 	addiu	a0,a0,240
  409fdc:	8fbc0020 	lw	gp,32(sp)
  409fe0:	3c040041 	lui	a0,0x41
  409fe4:	24841904 	addiu	a0,a0,6404
[31m  409fe8:	8f9981d8 	lw	t9,printf[0m
  409fec:	00000000 	nop
  409ff0:	0320f809 	jalr	t9
--
  409ff8:	8fbc0020 	lw	gp,32(sp)
  409ffc:	081027c5 	j	409f14 <ieee802_1x_send+0x1b4>
  40a000:	02002021 	move	a0,s0
  40a004:	2402c788 	li	v0,-14456
  40a008:	a602000c 	sh	v0,12(s0)
  40a00c:	24020002 	li	v0,2
  40a010:	081027a0 	j	409e80 <ieee802_1x_send+0x120>
  40a014:	a202000e 	sb	v0,14(s0)
  40a018:	8f82806c 	lw	v0,-32660(gp)
  40a01c:	00000000 	nop
  40a020:	8c420000 	lw	v0,0(v0)
  40a024:	00000000 	nop
  40a028:	14400029 	bnez	v0,40a0d0 <ieee802_1x_send+0x370>
  40a02c:	3c040041 	lui	a0,0x41
  40a030:	8fbf004c 	lw	ra,76(sp)
  40a034:	8fb70048 	lw	s7,72(sp)
  40a038:	8fb60044 	lw	s6,68(sp)
  40a03c:	8fb50040 	lw	s5,64(sp)
  40a040:	8fb4003c 	lw	s4,60(sp)
  40a044:	8fb30038 	lw	s3,56(sp)
  40a048:	8fb20034 	lw	s2,52(sp)
  40a04c:	8fb10030 	lw	s1,48(sp)
  40a050:	8fb0002c 	lw	s0,44(sp)
  40a054:	03e00008 	jr	ra
  40a058:	27bd0050 	addiu	sp,sp,80
[31m  40a05c:	8f9981d8 	lw	t9,printf[0m
  40a060:	00000000 	nop
  40a064:	0320f809 	jalr	t9
  40a068:	248400f0 	addiu	a0,a0,240
  40a06c:	8fbc0020 	lw	gp,32(sp)
  40a070:	8e850004 	lw	a1,4(s4)
  40a074:	92260088 	lbu	a2,136(s1)
[31m  40a078:	8f9981d8 	lw	t9,printf[0m
  40a07c:	92c70001 	lbu	a3,1(s6)
  40a080:	3c040041 	lui	a0,0x41
  40a084:	0320f809 	jalr	t9
  40a088:	248418c8 	addiu	a0,a0,6344
  40a08c:	8fbc0020 	lw	gp,32(sp)
  40a090:	0810277a 	j	409de8 <ieee802_1x_send+0x88>
  40a094:	00000000 	nop
[31m  40a098:	8f9981d8 	lw	t9,printf[0m
  40a09c:	00000000 	nop
  40a0a0:	0320f809 	jalr	t9
  40a0a4:	248400f0 	addiu	a0,a0,240
  40a0a8:	8fbc0020 	lw	gp,32(sp)
  40a0ac:	3c040041 	lui	a0,0x41
  40a0b0:	24841930 	addiu	a0,a0,6448
[31m  40a0b4:	8f9981d8 	lw	t9,printf[0m
  40a0b8:	00000000 	nop
  40a0bc:	0320f809 	jalr	t9
  40a0c0:	02602821 	move	a1,s3
  40a0c4:	8fbc0020 	lw	gp,32(sp)
  40a0c8:	081027c5 	j	409f14 <ieee802_1x_send+0x1b4>
  40a0cc:	02002021 	move	a0,s0
[31m  40a0d0:	8f9981d8 	lw	t9,printf[0m
  40a0d4:	00000000 	nop
  40a0d8:	0320f809 	jalr	t9
  40a0dc:	248400f0 	addiu	a0,a0,240
  40a0e0:	8fbc0020 	lw	gp,32(sp)
  40a0e4:	02602821 	move	a1,s3
  40a0e8:	8fbf004c 	lw	ra,76(sp)
  40a0ec:	8fb70048 	lw	s7,72(sp)
  40a0f0:	8fb60044 	lw	s6,68(sp)
  40a0f4:	8fb50040 	lw	s5,64(sp)
  40a0f8:	8fb4003c 	lw	s4,60(sp)
  40a0fc:	8fb30038 	lw	s3,56(sp)
  40a100:	8fb20034 	lw	s2,52(sp)
  40a104:	8fb10030 	lw	s1,48(sp)
  40a108:	8fb0002c 	lw	s0,44(sp)
[31m  40a10c:	8f9981d8 	lw	t9,printf[0m
  40a110:	3c040041 	lui	a0,0x41
  40a114:	24841874 	addiu	a0,a0,6260
--
  40a414:	02403821 	move	a3,s2
  40a418:	0c102758 	jal	409d60 <ieee802_1x_send>
  40a41c:	afb10010 	sw	s1,16(sp)
  40a420:	8fbc0018 	lw	gp,24(sp)
  40a424:	02002021 	move	a0,s0
  40a428:	8fbf005c 	lw	ra,92(sp)
  40a42c:	8fbe0058 	lw	s8,88(sp)
  40a430:	8fb70054 	lw	s7,84(sp)
  40a434:	8fb60050 	lw	s6,80(sp)
  40a438:	8fb5004c 	lw	s5,76(sp)
  40a43c:	8fb40048 	lw	s4,72(sp)
  40a440:	8fb30044 	lw	s3,68(sp)
  40a444:	8fb20040 	lw	s2,64(sp)
  40a448:	8fb1003c 	lw	s1,60(sp)
  40a44c:	8fb00038 	lw	s0,56(sp)
  40a450:	8f998120 	lw	t9,-32480(gp)
  40a454:	00000000 	nop
  40a458:	03200008 	jr	t9
  40a45c:	27bd0060 	addiu	sp,sp,96
  40a460:	8f82806c 	lw	v0,-32660(gp)
  40a464:	00000000 	nop
  40a468:	8c420000 	lw	v0,0(v0)
  40a46c:	00000000 	nop
  40a470:	1040ffec 	beqz	v0,40a424 <ieee802_1x_tx_key_one+0x2e8>
  40a474:	3c040041 	lui	a0,0x41
[31m  40a478:	8f9981d8 	lw	t9,printf[0m
  40a47c:	00000000 	nop
  40a480:	0320f809 	jalr	t9
--
  40a48c:	3c040041 	lui	a0,0x41
  40a490:	8f9981bc 	lw	t9,-32324(gp)
  40a494:	00000000 	nop
  40a498:	0320f809 	jalr	t9
  40a49c:	2484195c 	addiu	a0,a0,6492
  40a4a0:	8fbc0018 	lw	gp,24(sp)
  40a4a4:	0810290a 	j	40a428 <ieee802_1x_tx_key_one+0x2ec>
  40a4a8:	02002021 	move	a0,s0
  40a4ac:	8fbf005c 	lw	ra,92(sp)
  40a4b0:	8fbe0058 	lw	s8,88(sp)
  40a4b4:	8fb70054 	lw	s7,84(sp)
  40a4b8:	8fb60050 	lw	s6,80(sp)
  40a4bc:	8fb5004c 	lw	s5,76(sp)
  40a4c0:	8fb40048 	lw	s4,72(sp)
  40a4c4:	8fb30044 	lw	s3,68(sp)
  40a4c8:	8fb20040 	lw	s2,64(sp)
  40a4cc:	8fb1003c 	lw	s1,60(sp)
  40a4d0:	8fb00038 	lw	s0,56(sp)
  40a4d4:	03e00008 	jr	ra
  40a4d8:	27bd0060 	addiu	sp,sp,96
  40a4dc:	8c620000 	lw	v0,0(v1)
  40a4e0:	00000000 	nop
  40a4e4:	2c420003 	sltiu	v0,v0,3
  40a4e8:	1440ffce 	bnez	v0,40a424 <ieee802_1x_tx_key_one+0x2e8>
  40a4ec:	3c040041 	lui	a0,0x41
[31m  40a4f0:	8f9981d8 	lw	t9,printf[0m
  40a4f4:	00000000 	nop
  40a4f8:	0320f809 	jalr	t9
  40a4fc:	248400f0 	addiu	a0,a0,240
  40a500:	8fbc0018 	lw	gp,24(sp)
  40a504:	3c040041 	lui	a0,0x41
  40a508:	8f9981bc 	lw	t9,-32324(gp)
  40a50c:	00000000 	nop
  40a510:	0320f809 	jalr	t9
  40a514:	2484199c 	addiu	a0,a0,6556
  40a518:	8fbc0018 	lw	gp,24(sp)
  40a51c:	0810290a 	j	40a428 <ieee802_1x_tx_key_one+0x2ec>
  40a520:	02002021 	move	a0,s0
[31m  40a524:	8f9981d8 	lw	t9,printf[0m
  40a528:	3c040041 	lui	a0,0x41
  40a52c:	afa30030 	sw	v1,48(sp)
  40a530:	0320f809 	jalr	t9
  40a534:	248400f0 	addiu	a0,a0,240
  40a538:	8fbc0018 	lw	gp,24(sp)
  40a53c:	3c040041 	lui	a0,0x41
  40a540:	2484197c 	addiu	a0,a0,6524
[31m  40a544:	8f9981d8 	lw	t9,printf[0m
  40a548:	02802821 	move	a1,s4
  40a54c:	0320f809 	jalr	t9
--
  40a658:	3c10000f 	lui	s0,0xf
  40a65c:	08102963 	j	40a58c <wpa_cipher_to_suite+0x28>
  40a660:	3610ac02 	ori	s0,s0,0xac02
  40a664:	30a20800 	andi	v0,a1,0x800
  40a668:	10400006 	beqz	v0,40a684 <wpa_cipher_to_suite+0x120>
  40a66c:	3610ac0b 	ori	s0,s0,0xac0b
  40a670:	08102963 	j	40a58c <wpa_cipher_to_suite+0x28>
  40a674:	00000000 	nop
  40a678:	3c10000f 	lui	s0,0xf
  40a67c:	08102963 	j	40a58c <wpa_cipher_to_suite+0x28>
  40a680:	3610ac00 	ori	s0,s0,0xac00
  40a684:	30a21000 	andi	v0,a1,0x1000
  40a688:	10400003 	beqz	v0,40a698 <wpa_cipher_to_suite+0x134>
  40a68c:	3c10000f 	lui	s0,0xf
  40a690:	08102963 	j	40a58c <wpa_cipher_to_suite+0x28>
  40a694:	3610ac0c 	ori	s0,s0,0xac0c
  40a698:	30a20400 	andi	v0,a1,0x400
  40a69c:	1440ffbb 	bnez	v0,40a58c <wpa_cipher_to_suite+0x28>
  40a6a0:	3610ac0d 	ori	s0,s0,0xac0d
  40a6a4:	8f82806c 	lw	v0,-32660(gp)
  40a6a8:	00000000 	nop
  40a6ac:	8c420000 	lw	v0,0(v0)
  40a6b0:	00000000 	nop
  40a6b4:	1040ffb5 	beqz	v0,40a58c <wpa_cipher_to_suite+0x28>
  40a6b8:	00008021 	move	s0,zero
[31m  40a6bc:	8f9981d8 	lw	t9,printf[0m
  40a6c0:	3c040041 	lui	a0,0x41
  40a6c4:	248400f0 	addiu	a0,a0,240
  40a6c8:	0320f809 	jalr	t9
  40a6cc:	afa50018 	sw	a1,24(sp)
  40a6d0:	8fbc0010 	lw	gp,16(sp)
  40a6d4:	8fa50018 	lw	a1,24(sp)
  40a6d8:	3c040041 	lui	a0,0x41
[31m  40a6dc:	8f9981d8 	lw	t9,printf[0m
  40a6e0:	00000000 	nop
  40a6e4:	0320f809 	jalr	t9
--
  40a78c:	8f9980b4 	lw	t9,-32588(gp)
  40a790:	02002021 	move	a0,s0
  40a794:	02a02821 	move	a1,s5
  40a798:	02803021 	move	a2,s4
  40a79c:	0411f11f 	bal	406c1c <Radius_msg_verify>
  40a7a0:	02c03821 	move	a3,s6
  40a7a4:	8fbc0028 	lw	gp,40(sp)
  40a7a8:	14400028 	bnez	v0,40a84c <ieee802_1x_receive_auth+0x158>
  40a7ac:	00000000 	nop
  40a7b0:	8e02000c 	lw	v0,12(s0)
  40a7b4:	00000000 	nop
  40a7b8:	90420000 	lbu	v0,0(v0)
  40a7bc:	00000000 	nop
  40a7c0:	2443fffe 	addiu	v1,v0,-2
  40a7c4:	306300ff 	andi	v1,v1,0xff
  40a7c8:	2c630002 	sltiu	v1,v1,2
  40a7cc:	1460004e 	bnez	v1,40a908 <ieee802_1x_receive_auth+0x214>
  40a7d0:	2403000b 	li	v1,11
  40a7d4:	1043004c 	beq	v0,v1,40a908 <ieee802_1x_receive_auth+0x214>
  40a7d8:	00000000 	nop
  40a7dc:	8e420000 	lw	v0,0(s2)
  40a7e0:	00000000 	nop
  40a7e4:	2c420002 	sltiu	v0,v0,2
  40a7e8:	1440000b 	bnez	v0,40a818 <ieee802_1x_receive_auth+0x124>
  40a7ec:	241e0002 	li	s8,2
[31m  40a7f0:	8f9981d8 	lw	t9,printf[0m
  40a7f4:	3c040041 	lui	a0,0x41
  40a7f8:	0320f809 	jalr	t9
  40a7fc:	248400f0 	addiu	a0,a0,240
  40a800:	8fbc0028 	lw	gp,40(sp)
  40a804:	3c040041 	lui	a0,0x41
  40a808:	8f9981bc 	lw	t9,-32324(gp)
  40a80c:	00000000 	nop
  40a810:	0320f809 	jalr	t9
  40a814:	24841a50 	addiu	a0,a0,6736
  40a818:	8fbf02e4 	lw	ra,740(sp)
  40a81c:	03c01021 	move	v0,s8
  40a820:	8fb702dc 	lw	s7,732(sp)
  40a824:	8fbe02e0 	lw	s8,736(sp)
  40a828:	8fb602d8 	lw	s6,728(sp)
  40a82c:	8fb502d4 	lw	s5,724(sp)
  40a830:	8fb402d0 	lw	s4,720(sp)
  40a834:	8fb302cc 	lw	s3,716(sp)
  40a838:	8fb202c8 	lw	s2,712(sp)
  40a83c:	8fb102c4 	lw	s1,708(sp)
  40a840:	8fb002c0 	lw	s0,704(sp)
  40a844:	03e00008 	jr	ra
  40a848:	27bd02e8 	addiu	sp,sp,744
  40a84c:	8e420000 	lw	v0,0(s2)
  40a850:	00000000 	nop
  40a854:	1040fff0 	beqz	v0,40a818 <ieee802_1x_receive_auth+0x124>
  40a858:	241e0002 	li	s8,2
[31m  40a85c:	8f9981d8 	lw	t9,printf[0m
  40a860:	3c040041 	lui	a0,0x41
  40a864:	0320f809 	jalr	t9
  40a868:	248400f0 	addiu	a0,a0,240
  40a86c:	8fbc0028 	lw	gp,40(sp)
  40a870:	3c040041 	lui	a0,0x41
  40a874:	8f9981bc 	lw	t9,-32324(gp)
  40a878:	00000000 	nop
  40a87c:	0320f809 	jalr	t9
  40a880:	24841a04 	addiu	a0,a0,6660
  40a884:	08102a06 	j	40a818 <ieee802_1x_receive_auth+0x124>
  40a888:	00000000 	nop
[31m  40a88c:	8f9981d8 	lw	t9,printf[0m
  40a890:	3c040041 	lui	a0,0x41
  40a894:	0320f809 	jalr	t9
--
  40aae4:	afa202b4 	sw	v0,692(sp)
  40aae8:	8fbc0028 	lw	gp,40(sp)
  40aaec:	8fa30030 	lw	v1,48(sp)
  40aaf0:	8fa202b4 	lw	v0,692(sp)
  40aaf4:	00000000 	nop
  40aaf8:	ae220064 	sw	v0,100(s1)
  40aafc:	ae230068 	sw	v1,104(s1)
  40ab00:	8f9980c4 	lw	t9,-32572(gp)
  40ab04:	8e240050 	lw	a0,80(s1)
  40ab08:	0411e856 	bal	404c64 <eapol_sm_step>
  40ab0c:	241e0001 	li	s8,1
  40ab10:	8fbc0028 	lw	gp,40(sp)
  40ab14:	16feff40 	bne	s7,s8,40a818 <ieee802_1x_receive_auth+0x124>
  40ab18:	00000000 	nop
  40ab1c:	8f998044 	lw	t9,-32700(gp)
  40ab20:	02602021 	move	a0,s3
  40ab24:	04110db9 	bal	40e20c <Ap_free_sta>
  40ab28:	02202821 	move	a1,s1
  40ab2c:	08102a06 	j	40a818 <ieee802_1x_receive_auth+0x124>
  40ab30:	00000000 	nop
  40ab34:	8e420000 	lw	v0,0(s2)
  40ab38:	00000000 	nop
  40ab3c:	2c420002 	sltiu	v0,v0,2
  40ab40:	1440000c 	bnez	v0,40ab74 <ieee802_1x_receive_auth+0x480>
  40ab44:	3c040041 	lui	a0,0x41
[31m  40ab48:	8f9981d8 	lw	t9,printf[0m
  40ab4c:	00000000 	nop
  40ab50:	0320f809 	jalr	t9
--
  40ac0c:	00000000 	nop
  40ac10:	0320f809 	jalr	t9
  40ac14:	24060054 	li	a2,84
  40ac18:	8fbc0028 	lw	gp,40(sp)
  40ac1c:	02803821 	move	a3,s4
  40ac20:	02002021 	move	a0,s0
  40ac24:	8f9980cc 	lw	t9,-32564(gp)
  40ac28:	02c02821 	move	a1,s6
  40ac2c:	0411f1d8 	bal	407390 <Radius_msg_get_ms_keys>
  40ac30:	02a03021 	move	a2,s5
  40ac34:	8fbc0028 	lw	gp,40(sp)
  40ac38:	10400061 	beqz	v0,40adc0 <ieee802_1x_receive_auth+0x6cc>
  40ac3c:	0040a021 	move	s4,v0
  40ac40:	8c42000c 	lw	v0,12(v0)
  40ac44:	00000000 	nop
  40ac48:	1040005d 	beqz	v0,40adc0 <ieee802_1x_receive_auth+0x6cc>
  40ac4c:	00000000 	nop
  40ac50:	8e420000 	lw	v0,0(s2)
  40ac54:	8f95806c 	lw	s5,-32660(gp)
  40ac58:	2c420004 	sltiu	v0,v0,4
  40ac5c:	1040012b 	beqz	v0,40b10c <ieee802_1x_receive_auth+0xa18>
  40ac60:	3c1e0041 	lui	s8,0x41
  40ac64:	3c160041 	lui	s6,0x41
  40ac68:	3c150041 	lui	s5,0x41
  40ac6c:	8e820008 	lw	v0,8(s4)
[31m  40ac70:	8f9981d8 	lw	t9,printf[0m
  40ac74:	26c41ac4 	addiu	a0,s6,6852
  40ac78:	90430003 	lbu	v1,3(v0)
  40ac7c:	90450000 	lbu	a1,0(v0)
  40ac80:	90460001 	lbu	a2,1(v0)
  40ac84:	90470002 	lbu	a3,2(v0)
  40ac88:	afa30010 	sw	v1,16(sp)
  40ac8c:	90430004 	lbu	v1,4(v0)
  40ac90:	00000000 	nop
  40ac94:	afa30014 	sw	v1,20(sp)
  40ac98:	90430005 	lbu	v1,5(v0)
  40ac9c:	00000000 	nop
  40aca0:	afa30018 	sw	v1,24(sp)
  40aca4:	90430006 	lbu	v1,6(v0)
  40aca8:	00000000 	nop
  40acac:	afa3001c 	sw	v1,28(sp)
  40acb0:	9042000f 	lbu	v0,15(v0)
  40acb4:	0320f809 	jalr	t9
  40acb8:	afa20020 	sw	v0,32(sp)
  40acbc:	8e820008 	lw	v0,8(s4)
  40acc0:	8fbc0028 	lw	gp,40(sp)
  40acc4:	26a41ae8 	addiu	a0,s5,6888
  40acc8:	90430013 	lbu	v1,19(v0)
  40accc:	90450010 	lbu	a1,16(v0)
  40acd0:	90460011 	lbu	a2,17(v0)
  40acd4:	90470012 	lbu	a3,18(v0)
  40acd8:	afa30010 	sw	v1,16(sp)
  40acdc:	90430014 	lbu	v1,20(v0)
[31m  40ace0:	8f9981d8 	lw	t9,printf[0m
  40ace4:	afa30014 	sw	v1,20(sp)
  40ace8:	90430015 	lbu	v1,21(v0)
--
  40ade8:	92220088 	lbu	v0,136(s1)
  40adec:	9223000c 	lbu	v1,12(s1)
  40adf0:	afa2019c 	sw	v0,412(sp)
  40adf4:	8a22000b 	lwl	v0,11(s1)
  40adf8:	00000000 	nop
  40adfc:	9a220008 	lwr	v0,8(s1)
  40ae00:	a3a301a4 	sb	v1,420(sp)
  40ae04:	9223000d 	lbu	v1,13(s1)
  40ae08:	afa201a0 	sw	v0,416(sp)
  40ae0c:	a3a301a5 	sb	v1,421(sp)
  40ae10:	82850000 	lb	a1,0(s4)
  40ae14:	00000000 	nop
  40ae18:	30a200ff 	andi	v0,a1,0xff
  40ae1c:	2c420002 	sltiu	v0,v0,2
  40ae20:	1440014d 	bnez	v0,40b358 <ieee802_1x_receive_auth+0xc64>
  40ae24:	00000000 	nop
  40ae28:	8fb501ac 	lw	s5,428(sp)
  40ae2c:	8f9981c4 	lw	t9,-32316(gp)
  40ae30:	27a401b0 	addiu	a0,sp,432
  40ae34:	02a03021 	move	a2,s5
  40ae38:	0320f809 	jalr	t9
  40ae3c:	02802821 	move	a1,s4
  40ae40:	8fbc0028 	lw	gp,40(sp)
  40ae44:	afa001a8 	sw	zero,424(sp)
  40ae48:	00003021 	move	a2,zero
[31m  40ae4c:	8f9981d8 	lw	t9,printf[0m
  40ae50:	3c040041 	lui	a0,0x41
  40ae54:	02a02821 	move	a1,s5
--
  40aed0:	02002021 	move	a0,s0
  40aed4:	24050004 	li	a1,4
  40aed8:	0411f24b 	bal	407808 <Radius_msg_get_wfa_attr>
  40aedc:	27a601ac 	addiu	a2,sp,428
  40aee0:	8fbc0028 	lw	gp,40(sp)
  40aee4:	10400032 	beqz	v0,40afb0 <ieee802_1x_receive_auth+0x8bc>
  40aee8:	0040a021 	move	s4,v0
  40aeec:	92220088 	lbu	v0,136(s1)
  40aef0:	9223000c 	lbu	v1,12(s1)
  40aef4:	8fb601ac 	lw	s6,428(sp)
  40aef8:	afa2019c 	sw	v0,412(sp)
  40aefc:	8a22000b 	lwl	v0,11(s1)
  40af00:	8f9981c4 	lw	t9,-32316(gp)
  40af04:	02c03021 	move	a2,s6
  40af08:	9a220008 	lwr	v0,8(s1)
  40af0c:	a3a301a4 	sb	v1,420(sp)
  40af10:	9223000d 	lbu	v1,13(s1)
  40af14:	27a401b0 	addiu	a0,sp,432
  40af18:	02802821 	move	a1,s4
  40af1c:	a3a301a5 	sb	v1,421(sp)
  40af20:	0320f809 	jalr	t9
  40af24:	afa201a0 	sw	v0,416(sp)
  40af28:	8fbc0028 	lw	gp,40(sp)
  40af2c:	24020001 	li	v0,1
  40af30:	3c040041 	lui	a0,0x41
[31m  40af34:	8f9981d8 	lw	t9,printf[0m
  40af38:	24841bf4 	addiu	a0,a0,7156
  40af3c:	02c02821 	move	a1,s6
--
  40af84:	00000000 	nop
  40af88:	8e420000 	lw	v0,0(s2)
  40af8c:	00000000 	nop
  40af90:	1440015a 	bnez	v0,40b4fc <ieee802_1x_receive_auth+0xe08>
  40af94:	00000000 	nop
  40af98:	8f998120 	lw	t9,-32480(gp)
  40af9c:	00000000 	nop
  40afa0:	0320f809 	jalr	t9
  40afa4:	02802021 	move	a0,s4
  40afa8:	8fbc0028 	lw	gp,40(sp)
  40afac:	00000000 	nop
  40afb0:	8f9981bc 	lw	t9,-32324(gp)
  40afb4:	3c040041 	lui	a0,0x41
  40afb8:	0320f809 	jalr	t9
  40afbc:	24841c1c 	addiu	a0,a0,7196
  40afc0:	8fbc0028 	lw	gp,40(sp)
  40afc4:	02002021 	move	a0,s0
  40afc8:	24050005 	li	a1,5
  40afcc:	8f9980d0 	lw	t9,-32560(gp)
  40afd0:	00000000 	nop
  40afd4:	0411f20c 	bal	407808 <Radius_msg_get_wfa_attr>
  40afd8:	27a60030 	addiu	a2,sp,48
  40afdc:	8fbc0028 	lw	gp,40(sp)
  40afe0:	1040fea5 	beqz	v0,40aa78 <ieee802_1x_receive_auth+0x384>
  40afe4:	00408021 	move	s0,v0
[31m  40afe8:	8f9981d8 	lw	t9,printf[0m
  40afec:	8fa50030 	lw	a1,48(sp)
  40aff0:	80460000 	lb	a2,0(v0)
--
  40b0a8:	8fbc0028 	lw	gp,40(sp)
  40b0ac:	afa20010 	sw	v0,16(sp)
  40b0b0:	92220088 	lbu	v0,136(s1)
  40b0b4:	8f9980a4 	lw	t9,-32604(gp)
  40b0b8:	34058be1 	li	a1,0x8be1
  40b0bc:	afa20014 	sw	v0,20(sp)
  40b0c0:	34028928 	li	v0,0x8928
  40b0c4:	afa20018 	sw	v0,24(sp)
  40b0c8:	27a60088 	addiu	a2,sp,136
  40b0cc:	0411df74 	bal	402ea0 <RT_ioctl>
  40b0d0:	24070112 	li	a3,274
  40b0d4:	8fbc0028 	lw	gp,40(sp)
  40b0d8:	10400005 	beqz	v0,40b0f0 <ieee802_1x_receive_auth+0x9fc>
  40b0dc:	00000000 	nop
  40b0e0:	8e420000 	lw	v0,0(s2)
  40b0e4:	00000000 	nop
  40b0e8:	144000f6 	bnez	v0,40b4c4 <ieee802_1x_receive_auth+0xdd0>
  40b0ec:	3c040041 	lui	a0,0x41
  40b0f0:	8f998120 	lw	t9,-32480(gp)
  40b0f4:	00000000 	nop
  40b0f8:	0320f809 	jalr	t9
  40b0fc:	02002021 	move	a0,s0
  40b100:	8fbc0028 	lw	gp,40(sp)
  40b104:	08102a9e 	j	40aa78 <ieee802_1x_receive_auth+0x384>
  40b108:	00000000 	nop
[31m  40b10c:	8f9981d8 	lw	t9,printf[0m
  40b110:	00000000 	nop
  40b114:	0320f809 	jalr	t9
  40b118:	27c400f0 	addiu	a0,s8,240
  40b11c:	8fbc0028 	lw	gp,40(sp)
  40b120:	8e85000c 	lw	a1,12(s4)
  40b124:	3c040041 	lui	a0,0x41
[31m  40b128:	8f9981d8 	lw	t9,printf[0m
  40b12c:	00000000 	nop
  40b130:	0320f809 	jalr	t9
  40b134:	24841aa0 	addiu	a0,a0,6816
  40b138:	8ea20000 	lw	v0,0(s5)
  40b13c:	8fbc0028 	lw	gp,40(sp)
  40b140:	2c420004 	sltiu	v0,v0,4
  40b144:	1440fec7 	bnez	v0,40ac64 <ieee802_1x_receive_auth+0x570>
  40b148:	27c400f0 	addiu	a0,s8,240
[31m  40b14c:	8f9981d8 	lw	t9,printf[0m
  40b150:	00000000 	nop
  40b154:	0320f809 	jalr	t9
  40b158:	3c160041 	lui	s6,0x41
  40b15c:	8e820008 	lw	v0,8(s4)
  40b160:	8fbc0028 	lw	gp,40(sp)
  40b164:	26c41ac4 	addiu	a0,s6,6852
  40b168:	90430003 	lbu	v1,3(v0)
  40b16c:	90450000 	lbu	a1,0(v0)
  40b170:	90460001 	lbu	a2,1(v0)
  40b174:	90470002 	lbu	a3,2(v0)
  40b178:	afa30010 	sw	v1,16(sp)
  40b17c:	90430004 	lbu	v1,4(v0)
[31m  40b180:	8f9981d8 	lw	t9,printf[0m
  40b184:	afa30014 	sw	v1,20(sp)
  40b188:	90430005 	lbu	v1,5(v0)
  40b18c:	00000000 	nop
  40b190:	afa30018 	sw	v1,24(sp)
  40b194:	90430006 	lbu	v1,6(v0)
  40b198:	00000000 	nop
  40b19c:	afa3001c 	sw	v1,28(sp)
  40b1a0:	9042000f 	lbu	v0,15(v0)
  40b1a4:	0320f809 	jalr	t9
  40b1a8:	afa20020 	sw	v0,32(sp)
  40b1ac:	8ea20000 	lw	v0,0(s5)
  40b1b0:	8fbc0028 	lw	gp,40(sp)
  40b1b4:	2c420004 	sltiu	v0,v0,4
  40b1b8:	1440013f 	bnez	v0,40b6b8 <ieee802_1x_receive_auth+0xfc4>
  40b1bc:	27c400f0 	addiu	a0,s8,240
[31m  40b1c0:	8f9981d8 	lw	t9,printf[0m
  40b1c4:	00000000 	nop
  40b1c8:	0320f809 	jalr	t9
  40b1cc:	3c150041 	lui	s5,0x41
  40b1d0:	8e820008 	lw	v0,8(s4)
  40b1d4:	8fbc0028 	lw	gp,40(sp)
  40b1d8:	26a41ae8 	addiu	a0,s5,6888
  40b1dc:	90430013 	lbu	v1,19(v0)
  40b1e0:	90450010 	lbu	a1,16(v0)
  40b1e4:	90460011 	lbu	a2,17(v0)
  40b1e8:	90470012 	lbu	a3,18(v0)
  40b1ec:	afa30010 	sw	v1,16(sp)
  40b1f0:	90430014 	lbu	v1,20(v0)
[31m  40b1f4:	8f9981d8 	lw	t9,printf[0m
  40b1f8:	afa30014 	sw	v1,20(sp)
  40b1fc:	90430015 	lbu	v1,21(v0)
--
  40b2f4:	8fbc0028 	lw	gp,40(sp)
  40b2f8:	8e24007c 	lw	a0,124(s1)
  40b2fc:	8f998120 	lw	t9,-32480(gp)
  40b300:	00000000 	nop
  40b304:	0320f809 	jalr	t9
  40b308:	00000000 	nop
  40b30c:	8e83000c 	lw	v1,12(s4)
  40b310:	8e860000 	lw	a2,0(s4)
  40b314:	8e850004 	lw	a1,4(s4)
  40b318:	8e840008 	lw	a0,8(s4)
  40b31c:	8e220050 	lw	v0,80(s1)
  40b320:	8fbc0028 	lw	gp,40(sp)
  40b324:	ae230080 	sw	v1,128(s1)
  40b328:	24030001 	li	v1,1
  40b32c:	ae260074 	sw	a2,116(s1)
  40b330:	ae250078 	sw	a1,120(s1)
  40b334:	ae24007c 	sw	a0,124(s1)
  40b338:	ac43002c 	sw	v1,44(v0)
  40b33c:	8f998120 	lw	t9,-32480(gp)
  40b340:	00000000 	nop
  40b344:	0320f809 	jalr	t9
  40b348:	02802021 	move	a0,s4
  40b34c:	8fbc0028 	lw	gp,40(sp)
  40b350:	08102b70 	j	40adc0 <ieee802_1x_receive_auth+0x6cc>
  40b354:	00000000 	nop
[31m  40b358:	8f9981d8 	lw	t9,printf[0m
  40b35c:	3c040041 	lui	a0,0x41
  40b360:	0320f809 	jalr	t9
--
  40b428:	88490007 	lwl	t1,7(v0)
  40b42c:	8848000b 	lwl	t0,11(v0)
  40b430:	8847000f 	lwl	a3,15(v0)
  40b434:	88460013 	lwl	a2,19(v0)
  40b438:	88450017 	lwl	a1,23(v0)
  40b43c:	8844001b 	lwl	a0,27(v0)
  40b440:	8843001f 	lwl	v1,31(v0)
  40b444:	98490004 	lwr	t1,4(v0)
  40b448:	98480008 	lwr	t0,8(v0)
  40b44c:	9847000c 	lwr	a3,12(v0)
  40b450:	98460010 	lwr	a2,16(v0)
  40b454:	98450014 	lwr	a1,20(v0)
  40b458:	98440018 	lwr	a0,24(v0)
  40b45c:	9843001c 	lwr	v1,28(v0)
  40b460:	984a0000 	lwr	t2,0(v0)
  40b464:	00000000 	nop
  40b468:	afaa0068 	sw	t2,104(sp)
  40b46c:	afa9006c 	sw	t1,108(sp)
  40b470:	afa80070 	sw	t0,112(sp)
  40b474:	afa70074 	sw	a3,116(sp)
  40b478:	afa60078 	sw	a2,120(sp)
  40b47c:	afa5007c 	sw	a1,124(sp)
  40b480:	afa40080 	sw	a0,128(sp)
  40b484:	08102b5d 	j	40ad74 <ieee802_1x_receive_auth+0x680>
  40b488:	afa30084 	sw	v1,132(sp)
[31m  40b48c:	8f9981d8 	lw	t9,printf[0m
  40b490:	00000000 	nop
  40b494:	0320f809 	jalr	t9
  40b498:	248400f0 	addiu	a0,a0,240
  40b49c:	8fbc0028 	lw	gp,40(sp)
  40b4a0:	8fa501ac 	lw	a1,428(sp)
  40b4a4:	3c040041 	lui	a0,0x41
[31m  40b4a8:	8f9981d8 	lw	t9,printf[0m
  40b4ac:	00000000 	nop
  40b4b0:	0320f809 	jalr	t9
  40b4b4:	24841bb8 	addiu	a0,a0,7096
  40b4b8:	8fbc0028 	lw	gp,40(sp)
  40b4bc:	08102bad 	j	40aeb4 <ieee802_1x_receive_auth+0x7c0>
  40b4c0:	00000000 	nop
[31m  40b4c4:	8f9981d8 	lw	t9,printf[0m
  40b4c8:	00000000 	nop
  40b4cc:	0320f809 	jalr	t9
  40b4d0:	248400f0 	addiu	a0,a0,240
  40b4d4:	8fbc0028 	lw	gp,40(sp)
  40b4d8:	8ba50095 	lwl	a1,149(sp)
  40b4dc:	3c040041 	lui	a0,0x41
[31m  40b4e0:	8f9981d8 	lw	t9,printf[0m
  40b4e4:	9ba50092 	lwr	a1,146(sp)
  40b4e8:	0320f809 	jalr	t9
  40b4ec:	24841c58 	addiu	a0,a0,7256
  40b4f0:	8fbc0028 	lw	gp,40(sp)
  40b4f4:	08102c3c 	j	40b0f0 <ieee802_1x_receive_auth+0x9fc>
  40b4f8:	00000000 	nop
[31m  40b4fc:	8f9981d8 	lw	t9,printf[0m
  40b500:	3c040041 	lui	a0,0x41
  40b504:	0320f809 	jalr	t9
  40b508:	248400f0 	addiu	a0,a0,240
  40b50c:	8fbc0028 	lw	gp,40(sp)
  40b510:	8fa501ac 	lw	a1,428(sp)
  40b514:	3c040041 	lui	a0,0x41
[31m  40b518:	8f9981d8 	lw	t9,printf[0m
  40b51c:	00000000 	nop
  40b520:	0320f809 	jalr	t9
--
  40b57c:	02202821 	move	a1,s1
  40b580:	8fbc0028 	lw	gp,40(sp)
  40b584:	8e220050 	lw	v0,80(s1)
  40b588:	8fa702b4 	lw	a3,692(sp)
  40b58c:	8fa302b8 	lw	v1,696(sp)
  40b590:	08102af8 	j	40abe0 <ieee802_1x_receive_auth+0x4ec>
  40b594:	0000b821 	move	s7,zero
  40b598:	8e620004 	lw	v0,4(s3)
  40b59c:	8e64008c 	lw	a0,140(s3)
  40b5a0:	8f9980a4 	lw	t9,-32604(gp)
  40b5a4:	afa20010 	sw	v0,16(sp)
  40b5a8:	34028541 	li	v0,0x8541
  40b5ac:	afa00014 	sw	zero,20(sp)
  40b5b0:	afa20018 	sw	v0,24(sp)
  40b5b4:	34058be1 	li	a1,0x8be1
  40b5b8:	27a60034 	addiu	a2,sp,52
  40b5bc:	0411de38 	bal	402ea0 <RT_ioctl>
  40b5c0:	24070054 	li	a3,84
  40b5c4:	8fbc0028 	lw	gp,40(sp)
  40b5c8:	1040ff3e 	beqz	v0,40b2c4 <ieee802_1x_receive_auth+0xbd0>
  40b5cc:	00000000 	nop
  40b5d0:	8e420000 	lw	v0,0(s2)
  40b5d4:	00000000 	nop
  40b5d8:	1040fdf9 	beqz	v0,40adc0 <ieee802_1x_receive_auth+0x6cc>
  40b5dc:	3c040041 	lui	a0,0x41
[31m  40b5e0:	8f9981d8 	lw	t9,printf[0m
  40b5e4:	00000000 	nop
  40b5e8:	0320f809 	jalr	t9
  40b5ec:	248400f0 	addiu	a0,a0,240
  40b5f0:	8fbc0028 	lw	gp,40(sp)
  40b5f4:	3c040041 	lui	a0,0x41
  40b5f8:	8f9981bc 	lw	t9,-32324(gp)
  40b5fc:	00000000 	nop
  40b600:	0320f809 	jalr	t9
  40b604:	24841b0c 	addiu	a0,a0,6924
  40b608:	8fbc0028 	lw	gp,40(sp)
  40b60c:	08102b70 	j	40adc0 <ieee802_1x_receive_auth+0x6cc>
  40b610:	00000000 	nop
[31m  40b614:	8f9981d8 	lw	t9,printf[0m
  40b618:	00000000 	nop
  40b61c:	0320f809 	jalr	t9
  40b620:	248400f0 	addiu	a0,a0,240
  40b624:	8fbc0028 	lw	gp,40(sp)
  40b628:	3c040041 	lui	a0,0x41
  40b62c:	8f9981bc 	lw	t9,-32324(gp)
  40b630:	00000000 	nop
  40b634:	0320f809 	jalr	t9
  40b638:	24841b40 	addiu	a0,a0,6976
  40b63c:	8fbc0028 	lw	gp,40(sp)
  40b640:	08102b70 	j	40adc0 <ieee802_1x_receive_auth+0x6cc>
  40b644:	00000000 	nop
  40b648:	8c8206d8 	lw	v0,1752(a0)
  40b64c:	8fa602b0 	lw	a2,688(sp)
  40b650:	00000000 	nop
  40b654:	0046202b 	sltu	a0,v0,a2
  40b658:	10800002 	beqz	a0,40b664 <ieee802_1x_receive_auth+0xf70>
  40b65c:	00000000 	nop
  40b660:	00403021 	move	a2,v0
  40b664:	8f9980c8 	lw	t9,-32568(gp)
  40b668:	02602021 	move	a0,s3
  40b66c:	08102af0 	j	40abc0 <ieee802_1x_receive_auth+0x4cc>
  40b670:	02202821 	move	a1,s1
[31m  40b674:	8f9981d8 	lw	t9,printf[0m
  40b678:	afa302b8 	sw	v1,696(sp)
  40b67c:	afa702b4 	sw	a3,692(sp)
  40b680:	0320f809 	jalr	t9
  40b684:	248400f0 	addiu	a0,a0,240
  40b688:	8fbc0028 	lw	gp,40(sp)
  40b68c:	8fa502b0 	lw	a1,688(sp)
  40b690:	3c040041 	lui	a0,0x41
[31m  40b694:	8f9981d8 	lw	t9,printf[0m
  40b698:	00000000 	nop
  40b69c:	0320f809 	jalr	t9
--
  40b778:	90a7000d 	lbu	a3,13(a1)
  40b77c:	90a8000c 	lbu	t0,12(a1)
  40b780:	98a20008 	lwr	v0,8(a1)
  40b784:	8e260004 	lw	a2,4(s1)
  40b788:	90a30088 	lbu	v1,136(a1)
  40b78c:	8e24008c 	lw	a0,140(s1)
  40b790:	8f9980a4 	lw	t9,-32604(gp)
  40b794:	afa20028 	sw	v0,40(sp)
  40b798:	34028544 	li	v0,0x8544
  40b79c:	a3a7002d 	sb	a3,45(sp)
  40b7a0:	afa60010 	sw	a2,16(sp)
  40b7a4:	a3a8002c 	sb	t0,44(sp)
  40b7a8:	afa30014 	sw	v1,20(sp)
  40b7ac:	afa20018 	sw	v0,24(sp)
  40b7b0:	34058be1 	li	a1,0x8be1
  40b7b4:	27a60028 	addiu	a2,sp,40
  40b7b8:	0411ddb9 	bal	402ea0 <RT_ioctl>
  40b7bc:	24070006 	li	a3,6
  40b7c0:	8fbc0020 	lw	gp,32(sp)
  40b7c4:	1040ffce 	beqz	v0,40b700 <ieee802_1x_set_sta_authorized+0x40>
  40b7c8:	00000000 	nop
  40b7cc:	8e020000 	lw	v0,0(s0)
  40b7d0:	00000000 	nop
  40b7d4:	1040ffca 	beqz	v0,40b700 <ieee802_1x_set_sta_authorized+0x40>
  40b7d8:	00000000 	nop
[31m  40b7dc:	8f9981d8 	lw	t9,printf[0m
  40b7e0:	3c040041 	lui	a0,0x41
  40b7e4:	0320f809 	jalr	t9
  40b7e8:	248400f0 	addiu	a0,a0,240
  40b7ec:	8fbc0020 	lw	gp,32(sp)
  40b7f0:	3c040041 	lui	a0,0x41
  40b7f4:	8f9981bc 	lw	t9,-32324(gp)
  40b7f8:	00000000 	nop
  40b7fc:	0320f809 	jalr	t9
  40b800:	24841d04 	addiu	a0,a0,7428
  40b804:	08102dc0 	j	40b700 <ieee802_1x_set_sta_authorized+0x40>
  40b808:	00000000 	nop
[31m  40b80c:	8f9981d8 	lw	t9,printf[0m
  40b810:	3c040041 	lui	a0,0x41
  40b814:	0320f809 	jalr	t9
  40b818:	248400f0 	addiu	a0,a0,240
  40b81c:	8fbc0020 	lw	gp,32(sp)
  40b820:	3c040041 	lui	a0,0x41
  40b824:	8f9981bc 	lw	t9,-32324(gp)
  40b828:	00000000 	nop
  40b82c:	0320f809 	jalr	t9
  40b830:	24841cb0 	addiu	a0,a0,7344
  40b834:	08102dc0 	j	40b700 <ieee802_1x_set_sta_authorized+0x40>
  40b838:	00000000 	nop
[31m  40b83c:	8f9981d8 	lw	t9,printf[0m
  40b840:	afa50030 	sw	a1,48(sp)
  40b844:	0320f809 	jalr	t9
--
  40b86c:	08102dcf 	j	40b73c <ieee802_1x_set_sta_authorized+0x7c>
  40b870:	00000000 	nop

0040b874 <ieee802_1x_tx_canned_eap>:
  40b874:	3c1c0043 	lui	gp,0x43
  40b878:	279cac90 	addiu	gp,gp,-21360
  40b87c:	8f82806c 	lw	v0,-32660(gp)
  40b880:	27bdffc8 	addiu	sp,sp,-56
  40b884:	2ce70001 	sltiu	a3,a3,1
  40b888:	8c420000 	lw	v0,0(v0)
  40b88c:	afb00028 	sw	s0,40(sp)
  40b890:	24e70003 	addiu	a3,a3,3
  40b894:	30d000ff 	andi	s0,a2,0xff
  40b898:	24030400 	li	v1,1024
  40b89c:	2c420003 	sltiu	v0,v0,3
  40b8a0:	afb20030 	sw	s2,48(sp)
  40b8a4:	afb1002c 	sw	s1,44(sp)
  40b8a8:	afbf0034 	sw	ra,52(sp)
  40b8ac:	afbc0018 	sw	gp,24(sp)
  40b8b0:	00809021 	move	s2,a0
  40b8b4:	00a08821 	move	s1,a1
  40b8b8:	a3a70020 	sb	a3,32(sp)
  40b8bc:	a3b00021 	sb	s0,33(sp)
  40b8c0:	1440000c 	bnez	v0,40b8f4 <ieee802_1x_tx_canned_eap+0x80>
  40b8c4:	a7a30022 	sh	v1,34(sp)
[31m  40b8c8:	8f9981d8 	lw	t9,printf[0m
  40b8cc:	3c040041 	lui	a0,0x41
  40b8d0:	0320f809 	jalr	t9
  40b8d4:	248400f0 	addiu	a0,a0,240
  40b8d8:	8fbc0018 	lw	gp,24(sp)
  40b8dc:	3c040041 	lui	a0,0x41
  40b8e0:	24841d30 	addiu	a0,a0,7472
[31m  40b8e4:	8f9981d8 	lw	t9,printf[0m
  40b8e8:	00000000 	nop
  40b8ec:	0320f809 	jalr	t9
--
0040b928 <ieee802_1x_tx_req>:
  40b928:	8ca70064 	lw	a3,100(a1)
  40b92c:	3c1c0043 	lui	gp,0x43
  40b930:	27bdffc0 	addiu	sp,sp,-64
  40b934:	279cac90 	addiu	gp,gp,-21360
  40b938:	afb20038 	sw	s2,56(sp)
  40b93c:	afb10034 	sw	s1,52(sp)
  40b940:	afb00030 	sw	s0,48(sp)
  40b944:	afbf003c 	sw	ra,60(sp)
  40b948:	afbc0020 	sw	gp,32(sp)
  40b94c:	00a08021 	move	s0,a1
  40b950:	00809021 	move	s2,a0
  40b954:	10e00028 	beqz	a3,40b9f8 <ieee802_1x_tx_req+0xd0>
  40b958:	30d100ff 	andi	s1,a2,0xff
  40b95c:	90e20001 	lbu	v0,1(a3)
  40b960:	00000000 	nop
  40b964:	10510018 	beq	v0,s1,40b9c8 <ieee802_1x_tx_req+0xa0>
  40b968:	00000000 	nop
  40b96c:	8f82806c 	lw	v0,-32660(gp)
  40b970:	00000000 	nop
  40b974:	8c420000 	lw	v0,0(v0)
  40b978:	00000000 	nop
  40b97c:	2c420002 	sltiu	v0,v0,2
  40b980:	1440000f 	bnez	v0,40b9c0 <ieee802_1x_tx_req+0x98>
  40b984:	3c040041 	lui	a0,0x41
[31m  40b988:	8f9981d8 	lw	t9,printf[0m
  40b98c:	248400f0 	addiu	a0,a0,240
  40b990:	0320f809 	jalr	t9
  40b994:	afa70028 	sw	a3,40(sp)
  40b998:	8fa70028 	lw	a3,40(sp)
  40b99c:	8fbc0020 	lw	gp,32(sp)
  40b9a0:	3c040041 	lui	a0,0x41
  40b9a4:	90e60001 	lbu	a2,1(a3)
[31m  40b9a8:	8f9981d8 	lw	t9,printf[0m
  40b9ac:	24841de0 	addiu	a0,a0,7648
  40b9b0:	0320f809 	jalr	t9
  40b9b4:	02202821 	move	a1,s1
  40b9b8:	8fa70028 	lw	a3,40(sp)
  40b9bc:	00000000 	nop
  40b9c0:	a0f10001 	sb	s1,1(a3)
  40b9c4:	8e070064 	lw	a3,100(s0)
  40b9c8:	8e020068 	lw	v0,104(s0)
  40b9cc:	02402021 	move	a0,s2
  40b9d0:	02002821 	move	a1,s0
  40b9d4:	00003021 	move	a2,zero
  40b9d8:	0c102758 	jal	409d60 <ieee802_1x_send>
  40b9dc:	afa20010 	sw	v0,16(sp)
  40b9e0:	8fbf003c 	lw	ra,60(sp)
  40b9e4:	8fb20038 	lw	s2,56(sp)
  40b9e8:	8fb10034 	lw	s1,52(sp)
  40b9ec:	8fb00030 	lw	s0,48(sp)
  40b9f0:	03e00008 	jr	ra
  40b9f4:	27bd0040 	addiu	sp,sp,64
  40b9f8:	8f82806c 	lw	v0,-32660(gp)
  40b9fc:	00000000 	nop
  40ba00:	8c420000 	lw	v0,0(v0)
  40ba04:	00000000 	nop
  40ba08:	2c420002 	sltiu	v0,v0,2
  40ba0c:	1440fff4 	bnez	v0,40b9e0 <ieee802_1x_tx_req+0xb8>
  40ba10:	3c040041 	lui	a0,0x41
[31m  40ba14:	8f9981d8 	lw	t9,printf[0m
  40ba18:	00000000 	nop
  40ba1c:	0320f809 	jalr	t9
  40ba20:	248400f0 	addiu	a0,a0,240
  40ba24:	8fbc0020 	lw	gp,32(sp)
  40ba28:	9204000b 	lbu	a0,11(s0)
  40ba2c:	9203000c 	lbu	v1,12(s0)
  40ba30:	9202000d 	lbu	v0,13(s0)
  40ba34:	92050008 	lbu	a1,8(s0)
  40ba38:	92060009 	lbu	a2,9(s0)
  40ba3c:	9207000a 	lbu	a3,10(s0)
[31m  40ba40:	8f9981d8 	lw	t9,printf[0m
  40ba44:	afa40010 	sw	a0,16(sp)
  40ba48:	3c040041 	lui	a0,0x41
--
  40bcb4:	8e220004 	lw	v0,4(s1)
  40bcb8:	8f9980a4 	lw	t9,-32604(gp)
  40bcbc:	afb30014 	sw	s3,20(sp)
  40bcc0:	afa20010 	sw	v0,16(sp)
  40bcc4:	34028543 	li	v0,0x8543
  40bcc8:	afa20018 	sw	v0,24(sp)
  40bccc:	27a60038 	addiu	a2,sp,56
  40bcd0:	0411dc73 	bal	402ea0 <RT_ioctl>
  40bcd4:	24070054 	li	a3,84
  40bcd8:	8fbc0020 	lw	gp,32(sp)
  40bcdc:	10400007 	beqz	v0,40bcfc <ieee802_1x_tx_key+0x298>
  40bce0:	00000000 	nop
  40bce4:	8f82806c 	lw	v0,-32660(gp)
  40bce8:	00000000 	nop
  40bcec:	8c420000 	lw	v0,0(v0)
  40bcf0:	00000000 	nop
  40bcf4:	14400008 	bnez	v0,40bd18 <ieee802_1x_tx_key+0x2b4>
  40bcf8:	3c040041 	lui	a0,0x41
  40bcfc:	8fbf00a4 	lw	ra,164(sp)
  40bd00:	8fb300a0 	lw	s3,160(sp)
  40bd04:	8fb2009c 	lw	s2,156(sp)
  40bd08:	8fb10098 	lw	s1,152(sp)
  40bd0c:	8fb00094 	lw	s0,148(sp)
  40bd10:	03e00008 	jr	ra
  40bd14:	27bd00a8 	addiu	sp,sp,168
[31m  40bd18:	8f9981d8 	lw	t9,printf[0m
  40bd1c:	00000000 	nop
  40bd20:	0320f809 	jalr	t9
--
  40bd40:	8fbf00a4 	lw	ra,164(sp)
  40bd44:	8fb300a0 	lw	s3,160(sp)
  40bd48:	8fb2009c 	lw	s2,156(sp)
  40bd4c:	8fb10098 	lw	s1,152(sp)
  40bd50:	8fb00094 	lw	s0,148(sp)
  40bd54:	03e00008 	jr	ra
  40bd58:	27bd00a8 	addiu	sp,sp,168
  40bd5c:	8e220004 	lw	v0,4(s1)
  40bd60:	8f9980a4 	lw	t9,-32604(gp)
  40bd64:	afa00014 	sw	zero,20(sp)
  40bd68:	afa20010 	sw	v0,16(sp)
  40bd6c:	34028541 	li	v0,0x8541
  40bd70:	afa20018 	sw	v0,24(sp)
  40bd74:	27a60038 	addiu	a2,sp,56
  40bd78:	0411dc49 	bal	402ea0 <RT_ioctl>
  40bd7c:	24070054 	li	a3,84
  40bd80:	8fbc0020 	lw	gp,32(sp)
  40bd84:	1040ff93 	beqz	v0,40bbd4 <ieee802_1x_tx_key+0x170>
  40bd88:	00000000 	nop
  40bd8c:	8f82806c 	lw	v0,-32660(gp)
  40bd90:	00000000 	nop
  40bd94:	8c420000 	lw	v0,0(v0)
  40bd98:	00000000 	nop
  40bd9c:	1040ffd7 	beqz	v0,40bcfc <ieee802_1x_tx_key+0x298>
  40bda0:	3c040041 	lui	a0,0x41
[31m  40bda4:	8f9981d8 	lw	t9,printf[0m
  40bda8:	00000000 	nop
  40bdac:	0320f809 	jalr	t9
--
  40bf2c:	8fb70060 	lw	s7,96(sp)
  40bf30:	8fb6005c 	lw	s6,92(sp)
  40bf34:	8fb50058 	lw	s5,88(sp)
  40bf38:	8fb40054 	lw	s4,84(sp)
  40bf3c:	8fb30050 	lw	s3,80(sp)
  40bf40:	8fb2004c 	lw	s2,76(sp)
  40bf44:	8fb10048 	lw	s1,72(sp)
  40bf48:	8fb00044 	lw	s0,68(sp)
  40bf4c:	03e00008 	jr	ra
  40bf50:	27bd0068 	addiu	sp,sp,104
  40bf54:	9202000b 	lbu	v0,11(s0)
  40bf58:	9203000a 	lbu	v1,10(s0)
  40bf5c:	00021200 	sll	v0,v0,0x8
  40bf60:	00431025 	or	v0,v0,v1
  40bf64:	0002b202 	srl	s6,v0,0x8
  40bf68:	00021200 	sll	v0,v0,0x8
  40bf6c:	02c2b025 	or	s6,s6,v0
  40bf70:	32d6ffff 	andi	s6,s6,0xffff
  40bf74:	02f6102b 	sltu	v0,s7,s6
  40bf78:	1040ffde 	beqz	v0,40bef4 <ieee802_1x_receive+0xe8>
  40bf7c:	26100008 	addiu	s0,s0,8
  40bf80:	8e220000 	lw	v0,0(s1)
  40bf84:	00000000 	nop
  40bf88:	1040ffe7 	beqz	v0,40bf28 <ieee802_1x_receive+0x11c>
  40bf8c:	3c040041 	lui	a0,0x41
[31m  40bf90:	8f9981d8 	lw	t9,printf[0m
  40bf94:	00000000 	nop
  40bf98:	0320f809 	jalr	t9
  40bf9c:	248400f0 	addiu	a0,a0,240
  40bfa0:	8fbc0028 	lw	gp,40(sp)
  40bfa4:	3c040041 	lui	a0,0x41
  40bfa8:	8f9981bc 	lw	t9,-32324(gp)
  40bfac:	00000000 	nop
  40bfb0:	0320f809 	jalr	t9
  40bfb4:	24841e94 	addiu	a0,a0,7828
  40bfb8:	08102fca 	j	40bf28 <ieee802_1x_receive+0x11c>
  40bfbc:	00000000 	nop
[31m  40bfc0:	8f9981d8 	lw	t9,printf[0m
  40bfc4:	3c040041 	lui	a0,0x41
  40bfc8:	afa50038 	sw	a1,56(sp)
  40bfcc:	afa6003c 	sw	a2,60(sp)
  40bfd0:	0320f809 	jalr	t9
  40bfd4:	248400f0 	addiu	a0,a0,240
  40bfd8:	8fbc0028 	lw	gp,40(sp)
  40bfdc:	3c040041 	lui	a0,0x41
  40bfe0:	8f9981bc 	lw	t9,-32324(gp)
  40bfe4:	00000000 	nop
  40bfe8:	0320f809 	jalr	t9
  40bfec:	24841e6c 	addiu	a0,a0,7788
  40bff0:	8fbc0028 	lw	gp,40(sp)
  40bff4:	8fa6003c 	lw	a2,60(sp)
  40bff8:	8fa50038 	lw	a1,56(sp)
  40bffc:	08102fa1 	j	40be84 <ieee802_1x_receive+0x78>
  40c000:	00000000 	nop
[31m  40c004:	8f9981d8 	lw	t9,printf[0m
  40c008:	00000000 	nop
  40c00c:	0320f809 	jalr	t9
  40c010:	248400f0 	addiu	a0,a0,240
  40c014:	8fbc0028 	lw	gp,40(sp)
  40c018:	3c040041 	lui	a0,0x41
  40c01c:	24841ec0 	addiu	a0,a0,7872
[31m  40c020:	8f9981d8 	lw	t9,printf[0m
  40c024:	00000000 	nop
  40c028:	0320f809 	jalr	t9
  40c02c:	02402821 	move	a1,s2
  40c030:	08102fca 	j	40bf28 <ieee802_1x_receive+0x11c>
  40c034:	00000000 	nop
  40c038:	92020000 	lbu	v0,0(s0)
  40c03c:	00000000 	nop
  40c040:	2442ffff 	addiu	v0,v0,-1
  40c044:	304200ff 	andi	v0,v0,0xff
  40c048:	2c420002 	sltiu	v0,v0,2
  40c04c:	14400012 	bnez	v0,40c098 <ieee802_1x_receive+0x28c>
  40c050:	24030001 	li	v1,1
  40c054:	8e220000 	lw	v0,0(s1)
  40c058:	00000000 	nop
  40c05c:	1040ffb2 	beqz	v0,40bf28 <ieee802_1x_receive+0x11c>
  40c060:	3c040041 	lui	a0,0x41
[31m  40c064:	8f9981d8 	lw	t9,printf[0m
  40c068:	00000000 	nop
  40c06c:	0320f809 	jalr	t9
  40c070:	248400f0 	addiu	a0,a0,240
  40c074:	8fbc0028 	lw	gp,40(sp)
  40c078:	92050000 	lbu	a1,0(s0)
  40c07c:	3c040041 	lui	a0,0x41
[31m  40c080:	8f9981d8 	lw	t9,printf[0m
  40c084:	00000000 	nop
  40c088:	0320f809 	jalr	t9
--
  40c104:	92620088 	lbu	v0,136(s3)
  40c108:	00000000 	nop
  40c10c:	14400094 	bnez	v0,40c360 <ieee802_1x_receive+0x554>
  40c110:	00000000 	nop
  40c114:	8e220000 	lw	v0,0(s1)
  40c118:	00000000 	nop
  40c11c:	2c420003 	sltiu	v0,v0,3
  40c120:	104000fd 	beqz	v0,40c518 <ieee802_1x_receive+0x70c>
  40c124:	3c040041 	lui	a0,0x41
  40c128:	26d60003 	addiu	s6,s6,3
  40c12c:	02d7b02b 	sltu	s6,s6,s7
  40c130:	12c00005 	beqz	s6,40c148 <ieee802_1x_receive+0x33c>
  40c134:	02151021 	addu	v0,s0,s5
  40c138:	9044fff8 	lbu	a0,-8(v0)
  40c13c:	24030050 	li	v1,80
  40c140:	10830115 	beq	a0,v1,40c598 <ieee802_1x_receive+0x78c>
  40c144:	2403006f 	li	v1,111
  40c148:	8e640050 	lw	a0,80(s3)
  40c14c:	8f9980c4 	lw	t9,-32572(gp)
  40c150:	24020001 	li	v0,1
  40c154:	0411e2c3 	bal	404c64 <eapol_sm_step>
  40c158:	ac82004c 	sw	v0,76(a0)
  40c15c:	8fbc0028 	lw	gp,40(sp)
  40c160:	0810303a 	j	40c0e8 <ieee802_1x_receive+0x2dc>
  40c164:	00000000 	nop
[31m  40c168:	8f9981d8 	lw	t9,printf[0m
  40c16c:	00000000 	nop
  40c170:	0320f809 	jalr	t9
--
  40c198:	0810303b 	j	40c0ec <ieee802_1x_receive+0x2e0>
  40c19c:	00000000 	nop
  40c1a0:	8f9980e0 	lw	t9,-32544(gp)
  40c1a4:	00000000 	nop
  40c1a8:	0411e660 	bal	405b2c <eapol_sm_alloc>
  40c1ac:	02602821 	move	a1,s3
  40c1b0:	8fbc0028 	lw	gp,40(sp)
  40c1b4:	1440ff53 	bnez	v0,40bf04 <ieee802_1x_receive+0xf8>
  40c1b8:	ae620050 	sw	v0,80(s3)
  40c1bc:	08102fca 	j	40bf28 <ieee802_1x_receive+0x11c>
  40c1c0:	00000000 	nop
  40c1c4:	1044001c 	beq	v0,a0,40c238 <ieee802_1x_receive+0x42c>
  40c1c8:	00000000 	nop
  40c1cc:	24030004 	li	v1,4
  40c1d0:	10430022 	beq	v0,v1,40c25c <ieee802_1x_receive+0x450>
  40c1d4:	00000000 	nop
  40c1d8:	92620088 	lbu	v0,136(s3)
  40c1dc:	00000000 	nop
  40c1e0:	14400036 	bnez	v0,40c2bc <ieee802_1x_receive+0x4b0>
  40c1e4:	00000000 	nop
  40c1e8:	8e220000 	lw	v0,0(s1)
  40c1ec:	00000000 	nop
  40c1f0:	2c420003 	sltiu	v0,v0,3
  40c1f4:	1440ffbc 	bnez	v0,40c0e8 <ieee802_1x_receive+0x2dc>
  40c1f8:	3c040041 	lui	a0,0x41
[31m  40c1fc:	8f9981d8 	lw	t9,printf[0m
  40c200:	00000000 	nop
  40c204:	0320f809 	jalr	t9
  40c208:	248400f0 	addiu	a0,a0,240
  40c20c:	8fbc0028 	lw	gp,40(sp)
  40c210:	92050001 	lbu	a1,1(s0)
  40c214:	8e860008 	lw	a2,8(s4)
[31m  40c218:	8f9981d8 	lw	t9,printf[0m
  40c21c:	3c040041 	lui	a0,0x41
  40c220:	0320f809 	jalr	t9
  40c224:	248421a8 	addiu	a0,a0,8616
  40c228:	8fbc0028 	lw	gp,40(sp)
  40c22c:	8e640050 	lw	a0,80(s3)
  40c230:	0810303b 	j	40c0ec <ieee802_1x_receive+0x2e0>
  40c234:	00000000 	nop
  40c238:	8e640050 	lw	a0,80(s3)
  40c23c:	8f9980c4 	lw	t9,-32572(gp)
  40c240:	00000000 	nop
  40c244:	0411e287 	bal	404c64 <eapol_sm_step>
  40c248:	ac830048 	sw	v1,72(a0)
  40c24c:	8fbc0028 	lw	gp,40(sp)
  40c250:	8e640050 	lw	a0,80(s3)
  40c254:	0810303b 	j	40c0ec <ieee802_1x_receive+0x2e0>
  40c258:	00000000 	nop
  40c25c:	92620088 	lbu	v0,136(s3)
  40c260:	00000000 	nop
  40c264:	1440002a 	bnez	v0,40c310 <ieee802_1x_receive+0x504>
  40c268:	00000000 	nop
  40c26c:	8e220000 	lw	v0,0(s1)
  40c270:	00000000 	nop
  40c274:	2c420003 	sltiu	v0,v0,3
  40c278:	1440ff9b 	bnez	v0,40c0e8 <ieee802_1x_receive+0x2dc>
  40c27c:	3c040041 	lui	a0,0x41
[31m  40c280:	8f9981d8 	lw	t9,printf[0m
  40c284:	00000000 	nop
  40c288:	0320f809 	jalr	t9
  40c28c:	248400f0 	addiu	a0,a0,240
  40c290:	8fbc0028 	lw	gp,40(sp)
  40c294:	8e850008 	lw	a1,8(s4)
  40c298:	3c040041 	lui	a0,0x41
[31m  40c29c:	8f9981d8 	lw	t9,printf[0m
  40c2a0:	00000000 	nop
  40c2a4:	0320f809 	jalr	t9
  40c2a8:	2484216c 	addiu	a0,a0,8556
  40c2ac:	8fbc0028 	lw	gp,40(sp)
  40c2b0:	8e640050 	lw	a0,80(s3)
  40c2b4:	0810303b 	j	40c0ec <ieee802_1x_receive+0x2e0>
  40c2b8:	00000000 	nop
  40c2bc:	8e220000 	lw	v0,0(s1)
  40c2c0:	00000000 	nop
  40c2c4:	2c420003 	sltiu	v0,v0,3
  40c2c8:	1440ff87 	bnez	v0,40c0e8 <ieee802_1x_receive+0x2dc>
  40c2cc:	3c040041 	lui	a0,0x41
[31m  40c2d0:	8f9981d8 	lw	t9,printf[0m
  40c2d4:	00000000 	nop
  40c2d8:	0320f809 	jalr	t9
  40c2dc:	248400f0 	addiu	a0,a0,240
  40c2e0:	8fbc0028 	lw	gp,40(sp)
  40c2e4:	92050001 	lbu	a1,1(s0)
  40c2e8:	8e860004 	lw	a2,4(s4)
[31m  40c2ec:	8f9981d8 	lw	t9,printf[0m
  40c2f0:	92670088 	lbu	a3,136(s3)
  40c2f4:	3c040041 	lui	a0,0x41
  40c2f8:	0320f809 	jalr	t9
  40c2fc:	248421d8 	addiu	a0,a0,8664
  40c300:	8fbc0028 	lw	gp,40(sp)
  40c304:	8e640050 	lw	a0,80(s3)
  40c308:	0810303b 	j	40c0ec <ieee802_1x_receive+0x2e0>
  40c30c:	00000000 	nop
  40c310:	8e220000 	lw	v0,0(s1)
  40c314:	00000000 	nop
  40c318:	2c420003 	sltiu	v0,v0,3
  40c31c:	1440ff72 	bnez	v0,40c0e8 <ieee802_1x_receive+0x2dc>
  40c320:	3c040041 	lui	a0,0x41
[31m  40c324:	8f9981d8 	lw	t9,printf[0m
  40c328:	00000000 	nop
  40c32c:	0320f809 	jalr	t9
  40c330:	248400f0 	addiu	a0,a0,240
  40c334:	8fbc0028 	lw	gp,40(sp)
  40c338:	8e850004 	lw	a1,4(s4)
  40c33c:	92660088 	lbu	a2,136(s3)
[31m  40c340:	8f9981d8 	lw	t9,printf[0m
  40c344:	3c040041 	lui	a0,0x41
  40c348:	0320f809 	jalr	t9
  40c34c:	24842188 	addiu	a0,a0,8584
  40c350:	8fbc0028 	lw	gp,40(sp)
  40c354:	8e640050 	lw	a0,80(s3)
  40c358:	0810303b 	j	40c0ec <ieee802_1x_receive+0x2e0>
  40c35c:	00000000 	nop
  40c360:	8e220000 	lw	v0,0(s1)
  40c364:	00000000 	nop
  40c368:	2c420003 	sltiu	v0,v0,3
  40c36c:	1440ff6e 	bnez	v0,40c128 <ieee802_1x_receive+0x31c>
  40c370:	3c040041 	lui	a0,0x41
[31m  40c374:	8f9981d8 	lw	t9,printf[0m
  40c378:	00000000 	nop
  40c37c:	0320f809 	jalr	t9
  40c380:	248400f0 	addiu	a0,a0,240
  40c384:	8fbc0028 	lw	gp,40(sp)
  40c388:	8e850004 	lw	a1,4(s4)
  40c38c:	92660088 	lbu	a2,136(s3)
[31m  40c390:	8f9981d8 	lw	t9,printf[0m
  40c394:	3c040041 	lui	a0,0x41
  40c398:	0320f809 	jalr	t9
  40c39c:	24842120 	addiu	a0,a0,8480
  40c3a0:	8fbc0028 	lw	gp,40(sp)
  40c3a4:	0810304b 	j	40c12c <ieee802_1x_receive+0x320>
  40c3a8:	26d60003 	addiu	s6,s6,3
  40c3ac:	8e220000 	lw	v0,0(s1)
  40c3b0:	00000000 	nop
  40c3b4:	2c430003 	sltiu	v1,v0,3
  40c3b8:	1460ff46 	bnez	v1,40c0d4 <ieee802_1x_receive+0x2c8>
  40c3bc:	3c040041 	lui	a0,0x41
[31m  40c3c0:	8f9981d8 	lw	t9,printf[0m
  40c3c4:	00000000 	nop
  40c3c8:	0320f809 	jalr	t9
  40c3cc:	248400f0 	addiu	a0,a0,240
  40c3d0:	8fbc0028 	lw	gp,40(sp)
  40c3d4:	8e850004 	lw	a1,4(s4)
  40c3d8:	92660088 	lbu	a2,136(s3)
[31m  40c3dc:	8f9981d8 	lw	t9,printf[0m
  40c3e0:	3c040041 	lui	a0,0x41
  40c3e4:	0320f809 	jalr	t9
  40c3e8:	24841f28 	addiu	a0,a0,7976
  40c3ec:	8fbc0028 	lw	gp,40(sp)
  40c3f0:	00000000 	nop
  40c3f4:	8f82806c 	lw	v0,-32660(gp)
  40c3f8:	00000000 	nop
  40c3fc:	8c420000 	lw	v0,0(v0)
  40c400:	08103036 	j	40c0d8 <ieee802_1x_receive+0x2cc>
  40c404:	2ec30004 	sltiu	v1,s6,4
  40c408:	92030007 	lbu	v1,7(s0)
  40c40c:	92040006 	lbu	a0,6(s0)
  40c410:	2c420004 	sltiu	v0,v0,4
  40c414:	00031a00 	sll	v1,v1,0x8
  40c418:	00641825 	or	v1,v1,a0
  40c41c:	00039202 	srl	s2,v1,0x8
  40c420:	00031a00 	sll	v1,v1,0x8
  40c424:	02439025 	or	s2,s2,v1
  40c428:	1040002a 	beqz	v0,40c4d4 <ieee802_1x_receive+0x6c8>
  40c42c:	3252ffff 	andi	s2,s2,0xffff
  40c430:	2e420004 	sltiu	v0,s2,4
  40c434:	10400013 	beqz	v0,40c484 <ieee802_1x_receive+0x678>
  40c438:	02d2102b 	sltu	v0,s6,s2
  40c43c:	8e220000 	lw	v0,0(s1)
  40c440:	00000000 	nop
  40c444:	1040ff28 	beqz	v0,40c0e8 <ieee802_1x_receive+0x2dc>
  40c448:	3c040041 	lui	a0,0x41
[31m  40c44c:	8f9981d8 	lw	t9,printf[0m
  40c450:	00000000 	nop
  40c454:	0320f809 	jalr	t9
  40c458:	248400f0 	addiu	a0,a0,240
  40c45c:	8fbc0028 	lw	gp,40(sp)
  40c460:	3c040041 	lui	a0,0x41
  40c464:	8f9981bc 	lw	t9,-32324(gp)
  40c468:	00000000 	nop
  40c46c:	0320f809 	jalr	t9
  40c470:	24841fa4 	addiu	a0,a0,8100
  40c474:	8fbc0028 	lw	gp,40(sp)
  40c478:	8e640050 	lw	a0,80(s3)
  40c47c:	0810303b 	j	40c0ec <ieee802_1x_receive+0x2e0>
  40c480:	00000000 	nop
  40c484:	10400071 	beqz	v0,40c64c <ieee802_1x_receive+0x840>
  40c488:	0256102b 	sltu	v0,s2,s6
  40c48c:	8e220000 	lw	v0,0(s1)
  40c490:	00000000 	nop
  40c494:	1040ff14 	beqz	v0,40c0e8 <ieee802_1x_receive+0x2dc>
  40c498:	3c040041 	lui	a0,0x41
[31m  40c49c:	8f9981d8 	lw	t9,printf[0m
  40c4a0:	00000000 	nop
  40c4a4:	0320f809 	jalr	t9
  40c4a8:	248400f0 	addiu	a0,a0,240
  40c4ac:	8fbc0028 	lw	gp,40(sp)
  40c4b0:	3c040041 	lui	a0,0x41
  40c4b4:	8f9981bc 	lw	t9,-32324(gp)
  40c4b8:	00000000 	nop
  40c4bc:	0320f809 	jalr	t9
  40c4c0:	24841fb8 	addiu	a0,a0,8120
  40c4c4:	8fbc0028 	lw	gp,40(sp)
  40c4c8:	8e640050 	lw	a0,80(s3)
  40c4cc:	0810303b 	j	40c0ec <ieee802_1x_receive+0x2e0>
  40c4d0:	00000000 	nop
[31m  40c4d4:	8f9981d8 	lw	t9,printf[0m
  40c4d8:	3c040041 	lui	a0,0x41
  40c4dc:	0320f809 	jalr	t9
  40c4e0:	248400f0 	addiu	a0,a0,240
  40c4e4:	8fbc0028 	lw	gp,40(sp)
  40c4e8:	92620088 	lbu	v0,136(s3)
  40c4ec:	92050004 	lbu	a1,4(s0)
[31m  40c4f0:	8f9981d8 	lw	t9,printf[0m
  40c4f4:	92060005 	lbu	a2,5(s0)
  40c4f8:	3c040041 	lui	a0,0x41
  40c4fc:	afa20010 	sw	v0,16(sp)
  40c500:	24841f60 	addiu	a0,a0,8032
  40c504:	0320f809 	jalr	t9
  40c508:	02403821 	move	a3,s2
  40c50c:	8fbc0028 	lw	gp,40(sp)
  40c510:	0810310d 	j	40c434 <ieee802_1x_receive+0x628>
  40c514:	2e420004 	sltiu	v0,s2,4
[31m  40c518:	8f9981d8 	lw	t9,printf[0m
  40c51c:	00000000 	nop
  40c520:	0320f809 	jalr	t9
  40c524:	248400f0 	addiu	a0,a0,240
  40c528:	8fbc0028 	lw	gp,40(sp)
  40c52c:	8e850008 	lw	a1,8(s4)
  40c530:	3c040041 	lui	a0,0x41
[31m  40c534:	8f9981d8 	lw	t9,printf[0m
  40c538:	00000000 	nop
  40c53c:	0320f809 	jalr	t9
  40c540:	24842104 	addiu	a0,a0,8452
  40c544:	8fbc0028 	lw	gp,40(sp)
  40c548:	0810304b 	j	40c12c <ieee802_1x_receive+0x320>
  40c54c:	26d60003 	addiu	s6,s6,3
[31m  40c550:	8f9981d8 	lw	t9,printf[0m
  40c554:	00000000 	nop
  40c558:	0320f809 	jalr	t9
  40c55c:	248400f0 	addiu	a0,a0,240
  40c560:	8fbc0028 	lw	gp,40(sp)
  40c564:	8e850008 	lw	a1,8(s4)
  40c568:	3c040041 	lui	a0,0x41
[31m  40c56c:	8f9981d8 	lw	t9,printf[0m
  40c570:	00000000 	nop
  40c574:	0320f809 	jalr	t9
  40c578:	24841f0c 	addiu	a0,a0,7948
  40c57c:	8fbc0028 	lw	gp,40(sp)
  40c580:	00000000 	nop
  40c584:	8f82806c 	lw	v0,-32660(gp)
  40c588:	00000000 	nop
  40c58c:	8c420000 	lw	v0,0(v0)
  40c590:	08103036 	j	40c0d8 <ieee802_1x_receive+0x2cc>
  40c594:	2ec30004 	sltiu	v1,s6,4
  40c598:	9044fff9 	lbu	a0,-7(v0)
  40c59c:	00000000 	nop
  40c5a0:	1483fee9 	bne	a0,v1,40c148 <ieee802_1x_receive+0x33c>
  40c5a4:	2403009a 	li	v1,154
  40c5a8:	9044fffa 	lbu	a0,-6(v0)
  40c5ac:	00000000 	nop
  40c5b0:	1483fee5 	bne	a0,v1,40c148 <ieee802_1x_receive+0x33c>
  40c5b4:	00000000 	nop
  40c5b8:	9043fffb 	lbu	v1,-5(v0)
  40c5bc:	24020012 	li	v0,18
  40c5c0:	1462fee1 	bne	v1,v0,40c148 <ieee802_1x_receive+0x33c>
  40c5c4:	3c040041 	lui	a0,0x41
[31m  40c5c8:	8f9981d8 	lw	t9,printf[0m
  40c5cc:	24842140 	addiu	a0,a0,8512
  40c5d0:	0320f809 	jalr	t9
  40c5d4:	02e02821 	move	a1,s7
  40c5d8:	26b2fffd 	addiu	s2,s5,-3
  40c5dc:	8fbc0028 	lw	gp,40(sp)
  40c5e0:	26b1fffe 	addiu	s1,s5,-2
  40c5e4:	26b5ffff 	addiu	s5,s5,-1
  40c5e8:	0215a821 	addu	s5,s0,s5
  40c5ec:	02129021 	addu	s2,s0,s2
  40c5f0:	02118821 	addu	s1,s0,s1
  40c5f4:	92a20000 	lbu	v0,0(s5)
  40c5f8:	02178021 	addu	s0,s0,s7
  40c5fc:	92050000 	lbu	a1,0(s0)
[31m  40c600:	8f9981d8 	lw	t9,printf[0m
  40c604:	92460000 	lbu	a2,0(s2)
  40c608:	92270000 	lbu	a3,0(s1)
  40c60c:	3c040041 	lui	a0,0x41
  40c610:	afa20010 	sw	v0,16(sp)
  40c614:	0320f809 	jalr	t9
  40c618:	24842154 	addiu	a0,a0,8532
  40c61c:	92020000 	lbu	v0,0(s0)
  40c620:	8fbc0028 	lw	gp,40(sp)
  40c624:	a2620090 	sb	v0,144(s3)
  40c628:	92420000 	lbu	v0,0(s2)
  40c62c:	00000000 	nop
  40c630:	a2620091 	sb	v0,145(s3)
  40c634:	92a20000 	lbu	v0,0(s5)
  40c638:	92230000 	lbu	v1,0(s1)
  40c63c:	00021200 	sll	v0,v0,0x8
  40c640:	00431025 	or	v0,v0,v1
  40c644:	08103052 	j	40c148 <ieee802_1x_receive+0x33c>
  40c648:	a6620092 	sh	v0,146(s3)
  40c64c:	10400012 	beqz	v0,40c698 <ieee802_1x_receive+0x88c>
  40c650:	00000000 	nop
  40c654:	8e220000 	lw	v0,0(s1)
  40c658:	00000000 	nop
  40c65c:	2c420002 	sltiu	v0,v0,2
  40c660:	1440000d 	bnez	v0,40c698 <ieee802_1x_receive+0x88c>
  40c664:	3c040041 	lui	a0,0x41
[31m  40c668:	8f9981d8 	lw	t9,printf[0m
  40c66c:	00000000 	nop
  40c670:	0320f809 	jalr	t9
  40c674:	248400f0 	addiu	a0,a0,240
  40c678:	8fbc0028 	lw	gp,40(sp)
  40c67c:	3c040041 	lui	a0,0x41
  40c680:	24841fe4 	addiu	a0,a0,8164
[31m  40c684:	8f9981d8 	lw	t9,printf[0m
  40c688:	00000000 	nop
  40c68c:	0320f809 	jalr	t9
  40c690:	02d22823 	subu	a1,s6,s2
  40c694:	8fbc0028 	lw	gp,40(sp)
  40c698:	92030004 	lbu	v1,4(s0)
  40c69c:	24020002 	li	v0,2
  40c6a0:	8e640050 	lw	a0,80(s3)
  40c6a4:	1462fe91 	bne	v1,v0,40c0ec <ieee802_1x_receive+0x2e0>
  40c6a8:	00000000 	nop
  40c6ac:	108000bb 	beqz	a0,40c99c <ieee802_1x_receive+0xb90>
  40c6b0:	3c070041 	lui	a3,0x41
  40c6b4:	92030005 	lbu	v1,5(s0)
  40c6b8:	90820024 	lbu	v0,36(a0)
  40c6bc:	00000000 	nop
  40c6c0:	10620020 	beq	v1,v0,40c744 <ieee802_1x_receive+0x938>
  40c6c4:	2652fffc 	addiu	s2,s2,-4
  40c6c8:	8e220000 	lw	v0,0(s1)
  40c6cc:	00000000 	nop
  40c6d0:	2c420004 	sltiu	v0,v0,4
  40c6d4:	1440fe85 	bnez	v0,40c0ec <ieee802_1x_receive+0x2e0>
  40c6d8:	00000000 	nop
[31m  40c6dc:	8f9981d8 	lw	t9,printf[0m
  40c6e0:	3c040041 	lui	a0,0x41
  40c6e4:	0320f809 	jalr	t9
  40c6e8:	248400f0 	addiu	a0,a0,240
  40c6ec:	9262000b 	lbu	v0,11(s3)
  40c6f0:	92650008 	lbu	a1,8(s3)
  40c6f4:	92660009 	lbu	a2,9(s3)
  40c6f8:	9267000a 	lbu	a3,10(s3)
  40c6fc:	afa20010 	sw	v0,16(sp)
  40c700:	9262000c 	lbu	v0,12(s3)
  40c704:	92030005 	lbu	v1,5(s0)
  40c708:	8fbc0028 	lw	gp,40(sp)
  40c70c:	afa20014 	sw	v0,20(sp)
  40c710:	9262000d 	lbu	v0,13(s3)
  40c714:	afa3001c 	sw	v1,28(sp)
[31m  40c718:	8f9981d8 	lw	t9,printf[0m
  40c71c:	afa20018 	sw	v0,24(sp)
  40c720:	8e620050 	lw	v0,80(s3)
  40c724:	3c040041 	lui	a0,0x41
  40c728:	24842040 	addiu	a0,a0,8256
  40c72c:	90420024 	lbu	v0,36(v0)
  40c730:	0320f809 	jalr	t9
  40c734:	afa20020 	sw	v0,32(sp)
  40c738:	8fbc0028 	lw	gp,40(sp)
  40c73c:	0810303a 	j	40c0e8 <ieee802_1x_receive+0x2dc>
  40c740:	00000000 	nop
  40c744:	3252ffff 	andi	s2,s2,0xffff
  40c748:	16400014 	bnez	s2,40c79c <ieee802_1x_receive+0x990>
  40c74c:	00000000 	nop
  40c750:	8e220000 	lw	v0,0(s1)
  40c754:	00000000 	nop
  40c758:	2c420002 	sltiu	v0,v0,2
  40c75c:	1440fe63 	bnez	v0,40c0ec <ieee802_1x_receive+0x2e0>
  40c760:	00000000 	nop
[31m  40c764:	8f9981d8 	lw	t9,printf[0m
  40c768:	3c040041 	lui	a0,0x41
  40c76c:	0320f809 	jalr	t9
--
  40c900:	0320f809 	jalr	t9
  40c904:	00000000 	nop
  40c908:	8fbc0028 	lw	gp,40(sp)
  40c90c:	00000000 	nop
  40c910:	8f9981b8 	lw	t9,-32328(gp)
  40c914:	00000000 	nop
  40c918:	0320f809 	jalr	t9
  40c91c:	02402021 	move	a0,s2
  40c920:	8fbc0028 	lw	gp,40(sp)
  40c924:	1040fdf0 	beqz	v0,40c0e8 <ieee802_1x_receive+0x2dc>
  40c928:	ae62006c 	sw	v0,108(s3)
  40c92c:	8f9981c4 	lw	t9,-32316(gp)
  40c930:	00402021 	move	a0,v0
  40c934:	02002821 	move	a1,s0
  40c938:	0320f809 	jalr	t9
  40c93c:	02403021 	move	a2,s2
  40c940:	8fbc0028 	lw	gp,40(sp)
  40c944:	ae720070 	sw	s2,112(s3)
  40c948:	8e640050 	lw	a0,80(s3)
  40c94c:	0810303b 	j	40c0ec <ieee802_1x_receive+0x2e0>
  40c950:	00000000 	nop
  40c954:	8e220000 	lw	v0,0(s1)
  40c958:	00000000 	nop
  40c95c:	1040fde2 	beqz	v0,40c0e8 <ieee802_1x_receive+0x2dc>
  40c960:	3c040041 	lui	a0,0x41
[31m  40c964:	8f9981d8 	lw	t9,printf[0m
  40c968:	00000000 	nop
  40c96c:	0320f809 	jalr	t9
--
  40cc90:	8f9980bc 	lw	t9,-32580(gp)
  40cc94:	00000000 	nop
  40cc98:	0411e5c3 	bal	4063a8 <Radius_msg_free>
  40cc9c:	02202021 	move	a0,s1
  40cca0:	8fbc0028 	lw	gp,40(sp)
  40cca4:	00000000 	nop
  40cca8:	8f998120 	lw	t9,-32480(gp)
  40ccac:	00000000 	nop
  40ccb0:	0320f809 	jalr	t9
  40ccb4:	02202021 	move	a0,s1
  40ccb8:	8fbf00dc 	lw	ra,220(sp)
  40ccbc:	8fb500d8 	lw	s5,216(sp)
  40ccc0:	8fb400d4 	lw	s4,212(sp)
  40ccc4:	8fb300d0 	lw	s3,208(sp)
  40ccc8:	8fb200cc 	lw	s2,204(sp)
  40cccc:	8fb100c8 	lw	s1,200(sp)
  40ccd0:	8fb000c4 	lw	s0,196(sp)
  40ccd4:	03e00008 	jr	ra
  40ccd8:	27bd00e0 	addiu	sp,sp,224
  40ccdc:	8f82806c 	lw	v0,-32660(gp)
  40cce0:	00000000 	nop
  40cce4:	8c420000 	lw	v0,0(v0)
  40cce8:	00000000 	nop
  40ccec:	1040fff2 	beqz	v0,40ccb8 <ieee802_1x_send_resp_to_server+0x198>
  40ccf0:	00000000 	nop
[31m  40ccf4:	8f9981d8 	lw	t9,printf[0m
  40ccf8:	3c040041 	lui	a0,0x41
  40ccfc:	0320f809 	jalr	t9
--
  40ceec:	8ea20000 	lw	v0,0(s5)
  40cef0:	00000000 	nop
  40cef4:	144001cc 	bnez	v0,40d628 <ieee802_1x_send_resp_to_server+0xb08>
  40cef8:	3c040041 	lui	a0,0x41
  40cefc:	8e05001c 	lw	a1,28(s0)
  40cf00:	0c102959 	jal	40a564 <wpa_cipher_to_suite>
  40cf04:	24040002 	li	a0,2
  40cf08:	8fbc0028 	lw	gp,40(sp)
  40cf0c:	144000f5 	bnez	v0,40d2e4 <ieee802_1x_send_resp_to_server+0x7c4>
  40cf10:	00022e00 	sll	a1,v0,0x18
  40cf14:	8f9980f4 	lw	t9,-32524(gp)
  40cf18:	3c027805 	lui	v0,0x7805
  40cf1c:	afa20030 	sw	v0,48(sp)
  40cf20:	02202021 	move	a0,s1
  40cf24:	2405000c 	li	a1,12
  40cf28:	27a60030 	addiu	a2,sp,48
  40cf2c:	0411e53d 	bal	406424 <Radius_msg_add_attr>
  40cf30:	24070004 	li	a3,4
  40cf34:	8fbc0028 	lw	gp,40(sp)
  40cf38:	1440010f 	bnez	v0,40d378 <ieee802_1x_send_resp_to_server+0x858>
  40cf3c:	3c021300 	lui	v0,0x1300
  40cf40:	8ea20000 	lw	v0,0(s5)
  40cf44:	00000000 	nop
  40cf48:	1040ff51 	beqz	v0,40cc90 <ieee802_1x_send_resp_to_server+0x170>
  40cf4c:	3c040041 	lui	a0,0x41
[31m  40cf50:	8f9981d8 	lw	t9,printf[0m
  40cf54:	00000000 	nop
  40cf58:	0320f809 	jalr	t9
  40cf5c:	248400f0 	addiu	a0,a0,240
  40cf60:	8fbc0028 	lw	gp,40(sp)
  40cf64:	3c040041 	lui	a0,0x41
  40cf68:	8f9981bc 	lw	t9,-32324(gp)
  40cf6c:	00000000 	nop
  40cf70:	0320f809 	jalr	t9
  40cf74:	248423a0 	addiu	a0,a0,9120
  40cf78:	8fbc0028 	lw	gp,40(sp)
  40cf7c:	08103324 	j	40cc90 <ieee802_1x_send_resp_to_server+0x170>
  40cf80:	00000000 	nop
[31m  40cf84:	8f9981d8 	lw	t9,printf[0m
  40cf88:	00000000 	nop
  40cf8c:	0320f809 	jalr	t9
  40cf90:	248400f0 	addiu	a0,a0,240
  40cf94:	8fbc0028 	lw	gp,40(sp)
  40cf98:	3c040041 	lui	a0,0x41
  40cf9c:	8f9981bc 	lw	t9,-32324(gp)
  40cfa0:	00000000 	nop
  40cfa4:	0320f809 	jalr	t9
  40cfa8:	24842284 	addiu	a0,a0,8836
  40cfac:	8fbc0028 	lw	gp,40(sp)
  40cfb0:	08103324 	j	40cc90 <ieee802_1x_send_resp_to_server+0x170>
  40cfb4:	00000000 	nop
  40cfb8:	8f82806c 	lw	v0,-32660(gp)
  40cfbc:	00000000 	nop
  40cfc0:	8c420000 	lw	v0,0(v0)
  40cfc4:	00000000 	nop
  40cfc8:	1040ff31 	beqz	v0,40cc90 <ieee802_1x_send_resp_to_server+0x170>
  40cfcc:	3c040041 	lui	a0,0x41
[31m  40cfd0:	8f9981d8 	lw	t9,printf[0m
  40cfd4:	00000000 	nop
  40cfd8:	0320f809 	jalr	t9
  40cfdc:	248400f0 	addiu	a0,a0,240
  40cfe0:	8fbc0028 	lw	gp,40(sp)
  40cfe4:	3c040041 	lui	a0,0x41
  40cfe8:	8f9981bc 	lw	t9,-32324(gp)
  40cfec:	00000000 	nop
  40cff0:	0320f809 	jalr	t9
  40cff4:	24842244 	addiu	a0,a0,8772
  40cff8:	8fbc0028 	lw	gp,40(sp)
  40cffc:	08103324 	j	40cc90 <ieee802_1x_send_resp_to_server+0x170>
  40d000:	00000000 	nop
  40d004:	8f82806c 	lw	v0,-32660(gp)
  40d008:	00000000 	nop
  40d00c:	8c420000 	lw	v0,0(v0)
  40d010:	00000000 	nop
  40d014:	1040ff1e 	beqz	v0,40cc90 <ieee802_1x_send_resp_to_server+0x170>
  40d018:	3c040041 	lui	a0,0x41
[31m  40d01c:	8f9981d8 	lw	t9,printf[0m
  40d020:	00000000 	nop
  40d024:	0320f809 	jalr	t9
  40d028:	248400f0 	addiu	a0,a0,240
  40d02c:	8fbc0028 	lw	gp,40(sp)
  40d030:	3c040041 	lui	a0,0x41
  40d034:	8f9981bc 	lw	t9,-32324(gp)
  40d038:	00000000 	nop
  40d03c:	0320f809 	jalr	t9
  40d040:	2484222c 	addiu	a0,a0,8748
  40d044:	8fbc0028 	lw	gp,40(sp)
  40d048:	08103324 	j	40cc90 <ieee802_1x_send_resp_to_server+0x170>
  40d04c:	00000000 	nop
  40d050:	8f82806c 	lw	v0,-32660(gp)
  40d054:	00000000 	nop
  40d058:	8c420000 	lw	v0,0(v0)
  40d05c:	00000000 	nop
  40d060:	1040ff0b 	beqz	v0,40cc90 <ieee802_1x_send_resp_to_server+0x170>
  40d064:	3c040041 	lui	a0,0x41
[31m  40d068:	8f9981d8 	lw	t9,printf[0m
  40d06c:	00000000 	nop
  40d070:	0320f809 	jalr	t9
--
  40d098:	00000000 	nop
  40d09c:	00021e02 	srl	v1,v0,0x18
  40d0a0:	00022202 	srl	a0,v0,0x8
  40d0a4:	00a31825 	or	v1,a1,v1
  40d0a8:	3084ff00 	andi	a0,a0,0xff00
  40d0ac:	3042ff00 	andi	v0,v0,0xff00
  40d0b0:	00641825 	or	v1,v1,a0
  40d0b4:	8f9980f4 	lw	t9,-32524(gp)
  40d0b8:	00021200 	sll	v0,v0,0x8
  40d0bc:	00621025 	or	v0,v1,v0
  40d0c0:	afa20030 	sw	v0,48(sp)
  40d0c4:	02202021 	move	a0,s1
  40d0c8:	240500ba 	li	a1,186
  40d0cc:	27a60030 	addiu	a2,sp,48
  40d0d0:	0411e4d4 	bal	406424 <Radius_msg_add_attr>
  40d0d4:	24070004 	li	a3,4
  40d0d8:	8fbc0028 	lw	gp,40(sp)
  40d0dc:	1440ff60 	bnez	v0,40ce60 <ieee802_1x_send_resp_to_server+0x340>
  40d0e0:	00000000 	nop
  40d0e4:	8f82806c 	lw	v0,-32660(gp)
  40d0e8:	00000000 	nop
  40d0ec:	8c420000 	lw	v0,0(v0)
  40d0f0:	00000000 	nop
  40d0f4:	1040fee6 	beqz	v0,40cc90 <ieee802_1x_send_resp_to_server+0x170>
  40d0f8:	3c040041 	lui	a0,0x41
[31m  40d0fc:	8f9981d8 	lw	t9,printf[0m
  40d100:	00000000 	nop
  40d104:	0320f809 	jalr	t9
  40d108:	248400f0 	addiu	a0,a0,240
  40d10c:	8fbc0028 	lw	gp,40(sp)
  40d110:	3c040041 	lui	a0,0x41
  40d114:	8f9981bc 	lw	t9,-32324(gp)
  40d118:	00000000 	nop
  40d11c:	0320f809 	jalr	t9
  40d120:	24842300 	addiu	a0,a0,8960
  40d124:	8fbc0028 	lw	gp,40(sp)
  40d128:	08103324 	j	40cc90 <ieee802_1x_send_resp_to_server+0x170>
  40d12c:	00000000 	nop
  40d130:	30550007 	andi	s5,v0,0x7
  40d134:	2eb50001 	sltiu	s5,s5,1
  40d138:	08103392 	j	40ce48 <ieee802_1x_send_resp_to_server+0x328>
  40d13c:	0015a840 	sll	s5,s5,0x1
  40d140:	8f82806c 	lw	v0,-32660(gp)
  40d144:	00000000 	nop
  40d148:	8c420000 	lw	v0,0(v0)
  40d14c:	00000000 	nop
  40d150:	1040fecf 	beqz	v0,40cc90 <ieee802_1x_send_resp_to_server+0x170>
  40d154:	3c040041 	lui	a0,0x41
[31m  40d158:	8f9981d8 	lw	t9,printf[0m
  40d15c:	00000000 	nop
  40d160:	0320f809 	jalr	t9
  40d164:	248400f0 	addiu	a0,a0,240
  40d168:	8fbc0028 	lw	gp,40(sp)
  40d16c:	3c040041 	lui	a0,0x41
  40d170:	8f9981bc 	lw	t9,-32324(gp)
  40d174:	00000000 	nop
  40d178:	0320f809 	jalr	t9
  40d17c:	248422bc 	addiu	a0,a0,8892
  40d180:	8fbc0028 	lw	gp,40(sp)
  40d184:	08103324 	j	40cc90 <ieee802_1x_send_resp_to_server+0x170>
  40d188:	00000000 	nop
  40d18c:	8f82806c 	lw	v0,-32660(gp)
  40d190:	00000000 	nop
  40d194:	8c420000 	lw	v0,0(v0)
  40d198:	00000000 	nop
  40d19c:	1040febc 	beqz	v0,40cc90 <ieee802_1x_send_resp_to_server+0x170>
  40d1a0:	3c040041 	lui	a0,0x41
[31m  40d1a4:	8f9981d8 	lw	t9,printf[0m
  40d1a8:	00000000 	nop
  40d1ac:	0320f809 	jalr	t9
--
  40d1b8:	3c040041 	lui	a0,0x41
  40d1bc:	8f9981bc 	lw	t9,-32324(gp)
  40d1c0:	00000000 	nop
  40d1c4:	0320f809 	jalr	t9
  40d1c8:	248422dc 	addiu	a0,a0,8924
  40d1cc:	8fbc0028 	lw	gp,40(sp)
  40d1d0:	08103324 	j	40cc90 <ieee802_1x_send_resp_to_server+0x170>
  40d1d4:	00000000 	nop
  40d1d8:	24420f00 	addiu	v0,v0,3840
  40d1dc:	8f9980f4 	lw	t9,-32524(gp)
  40d1e0:	afa20030 	sw	v0,48(sp)
  40d1e4:	02202021 	move	a0,s1
  40d1e8:	240500bc 	li	a1,188
  40d1ec:	27a60030 	addiu	a2,sp,48
  40d1f0:	0411e48c 	bal	406424 <Radius_msg_add_attr>
  40d1f4:	24070004 	li	a3,4
  40d1f8:	8fbc0028 	lw	gp,40(sp)
  40d1fc:	00000000 	nop
  40d200:	8f95806c 	lw	s5,-32660(gp)
  40d204:	1440ff3d 	bnez	v0,40cefc <ieee802_1x_send_resp_to_server+0x3dc>
  40d208:	00000000 	nop
  40d20c:	8ea20000 	lw	v0,0(s5)
  40d210:	00000000 	nop
  40d214:	1040fe9e 	beqz	v0,40cc90 <ieee802_1x_send_resp_to_server+0x170>
  40d218:	3c040041 	lui	a0,0x41
[31m  40d21c:	8f9981d8 	lw	t9,printf[0m
  40d220:	00000000 	nop
  40d224:	0320f809 	jalr	t9
--
  40d24c:	00000000 	nop
  40d250:	00022602 	srl	a0,v0,0x18
  40d254:	00021a02 	srl	v1,v0,0x8
  40d258:	00a42025 	or	a0,a1,a0
  40d25c:	3063ff00 	andi	v1,v1,0xff00
  40d260:	3042ff00 	andi	v0,v0,0xff00
  40d264:	00831825 	or	v1,a0,v1
  40d268:	8f9980f4 	lw	t9,-32524(gp)
  40d26c:	00021200 	sll	v0,v0,0x8
  40d270:	00621025 	or	v0,v1,v0
  40d274:	afa20030 	sw	v0,48(sp)
  40d278:	02202021 	move	a0,s1
  40d27c:	240500bb 	li	a1,187
  40d280:	27a60030 	addiu	a2,sp,48
  40d284:	0411e467 	bal	406424 <Radius_msg_add_attr>
  40d288:	24070004 	li	a3,4
  40d28c:	8fbc0028 	lw	gp,40(sp)
  40d290:	1440fef9 	bnez	v0,40ce78 <ieee802_1x_send_resp_to_server+0x358>
  40d294:	00000000 	nop
  40d298:	8f82806c 	lw	v0,-32660(gp)
  40d29c:	00000000 	nop
  40d2a0:	8c420000 	lw	v0,0(v0)
  40d2a4:	00000000 	nop
  40d2a8:	1040fe79 	beqz	v0,40cc90 <ieee802_1x_send_resp_to_server+0x170>
  40d2ac:	3c040041 	lui	a0,0x41
[31m  40d2b0:	8f9981d8 	lw	t9,printf[0m
  40d2b4:	00000000 	nop
  40d2b8:	0320f809 	jalr	t9
--
  40d2d8:	8fbc0028 	lw	gp,40(sp)
  40d2dc:	08103324 	j	40cc90 <ieee802_1x_send_resp_to_server+0x170>
  40d2e0:	00000000 	nop
  40d2e4:	00022602 	srl	a0,v0,0x18
  40d2e8:	00021a02 	srl	v1,v0,0x8
  40d2ec:	00a42025 	or	a0,a1,a0
  40d2f0:	3063ff00 	andi	v1,v1,0xff00
  40d2f4:	3042ff00 	andi	v0,v0,0xff00
  40d2f8:	00831825 	or	v1,a0,v1
  40d2fc:	8f9980f4 	lw	t9,-32524(gp)
  40d300:	00021200 	sll	v0,v0,0x8
  40d304:	00621025 	or	v0,v1,v0
  40d308:	afa20030 	sw	v0,48(sp)
  40d30c:	02202021 	move	a0,s1
  40d310:	240500bd 	li	a1,189
  40d314:	27a60030 	addiu	a2,sp,48
  40d318:	0411e442 	bal	406424 <Radius_msg_add_attr>
  40d31c:	24070004 	li	a3,4
  40d320:	8fbc0028 	lw	gp,40(sp)
  40d324:	1440fefb 	bnez	v0,40cf14 <ieee802_1x_send_resp_to_server+0x3f4>
  40d328:	00000000 	nop
  40d32c:	8ea20000 	lw	v0,0(s5)
  40d330:	00000000 	nop
  40d334:	1040fe56 	beqz	v0,40cc90 <ieee802_1x_send_resp_to_server+0x170>
  40d338:	3c040041 	lui	a0,0x41
[31m  40d33c:	8f9981d8 	lw	t9,printf[0m
  40d340:	00000000 	nop
  40d344:	0320f809 	jalr	t9
--
  40d34c:	8fbc0028 	lw	gp,40(sp)
  40d350:	3c040041 	lui	a0,0x41
  40d354:	8f9981bc 	lw	t9,-32324(gp)
  40d358:	00000000 	nop
  40d35c:	0320f809 	jalr	t9
  40d360:	24842378 	addiu	a0,a0,9080
  40d364:	8fbc0028 	lw	gp,40(sp)
  40d368:	08103324 	j	40cc90 <ieee802_1x_send_resp_to_server+0x170>
  40d36c:	00000000 	nop
  40d370:	08103477 	j	40d1dc <ieee802_1x_send_resp_to_server+0x6bc>
  40d374:	24420f00 	addiu	v0,v0,3840
  40d378:	8f9980f4 	lw	t9,-32524(gp)
  40d37c:	afa20030 	sw	v0,48(sp)
  40d380:	02202021 	move	a0,s1
  40d384:	2405003d 	li	a1,61
  40d388:	27a60030 	addiu	a2,sp,48
  40d38c:	0411e425 	bal	406424 <Radius_msg_add_attr>
  40d390:	24070004 	li	a3,4
  40d394:	8fbc0028 	lw	gp,40(sp)
  40d398:	14400014 	bnez	v0,40d3ec <ieee802_1x_send_resp_to_server+0x8cc>
  40d39c:	00000000 	nop
  40d3a0:	8ea20000 	lw	v0,0(s5)
  40d3a4:	00000000 	nop
  40d3a8:	1040fe39 	beqz	v0,40cc90 <ieee802_1x_send_resp_to_server+0x170>
  40d3ac:	3c040041 	lui	a0,0x41
[31m  40d3b0:	8f9981d8 	lw	t9,printf[0m
  40d3b4:	00000000 	nop
  40d3b8:	0320f809 	jalr	t9
  40d3bc:	248400f0 	addiu	a0,a0,240
  40d3c0:	8fbc0028 	lw	gp,40(sp)
  40d3c4:	3c040041 	lui	a0,0x41
  40d3c8:	8f9981bc 	lw	t9,-32324(gp)
  40d3cc:	00000000 	nop
  40d3d0:	0320f809 	jalr	t9
  40d3d4:	248423bc 	addiu	a0,a0,9148
  40d3d8:	8fbc0028 	lw	gp,40(sp)
  40d3dc:	08103324 	j	40cc90 <ieee802_1x_send_resp_to_server+0x170>
  40d3e0:	00000000 	nop
  40d3e4:	08103477 	j	40d1dc <ieee802_1x_send_resp_to_server+0x6bc>
  40d3e8:	24420f00 	addiu	v0,v0,3840
  40d3ec:	12600019 	beqz	s3,40d454 <ieee802_1x_send_resp_to_server+0x934>
  40d3f0:	02202021 	move	a0,s1
  40d3f4:	8f9980f8 	lw	t9,-32520(gp)
  40d3f8:	02602821 	move	a1,s3
  40d3fc:	0411e57c 	bal	4069f0 <Radius_msg_add_eap>
  40d400:	02803021 	move	a2,s4
  40d404:	8fbc0028 	lw	gp,40(sp)
  40d408:	14400012 	bnez	v0,40d454 <ieee802_1x_send_resp_to_server+0x934>
  40d40c:	00000000 	nop
  40d410:	8ea20000 	lw	v0,0(s5)
  40d414:	00000000 	nop
  40d418:	1040fe1d 	beqz	v0,40cc90 <ieee802_1x_send_resp_to_server+0x170>
  40d41c:	3c040041 	lui	a0,0x41
[31m  40d420:	8f9981d8 	lw	t9,printf[0m
  40d424:	00000000 	nop
  40d428:	0320f809 	jalr	t9
--
  40d454:	92020091 	lbu	v0,145(s0)
  40d458:	00000000 	nop
  40d45c:	14400028 	bnez	v0,40d500 <ieee802_1x_send_resp_to_server+0x9e0>
  40d460:	3c02689f 	lui	v0,0x689f
  40d464:	8e050058 	lw	a1,88(s0)
  40d468:	00000000 	nop
  40d46c:	10a00007 	beqz	a1,40d48c <ieee802_1x_send_resp_to_server+0x96c>
  40d470:	00000000 	nop
  40d474:	8ca2000c 	lw	v0,12(a1)
  40d478:	00000000 	nop
  40d47c:	90430000 	lbu	v1,0(v0)
  40d480:	2402000b 	li	v0,11
  40d484:	1062004c 	beq	v1,v0,40d5b8 <ieee802_1x_send_resp_to_server+0xa98>
  40d488:	02202021 	move	a0,s1
  40d48c:	8f9980fc 	lw	t9,-32516(gp)
  40d490:	92070088 	lbu	a3,136(s0)
  40d494:	02402021 	move	a0,s2
  40d498:	02202821 	move	a1,s1
  40d49c:	041105f5 	bal	40ec74 <Radius_client_send>
  40d4a0:	00003021 	move	a2,zero
  40d4a4:	8ea30000 	lw	v1,0(s5)
  40d4a8:	8fbc0028 	lw	gp,40(sp)
  40d4ac:	2c630003 	sltiu	v1,v1,3
  40d4b0:	1460fe01 	bnez	v1,40ccb8 <ieee802_1x_send_resp_to_server+0x198>
  40d4b4:	00000000 	nop
[31m  40d4b8:	8f9981d8 	lw	t9,printf[0m
  40d4bc:	3c040041 	lui	a0,0x41
  40d4c0:	248400f0 	addiu	a0,a0,240
  40d4c4:	0320f809 	jalr	t9
  40d4c8:	afa200b8 	sw	v0,184(sp)
  40d4cc:	8fbc0028 	lw	gp,40(sp)
  40d4d0:	8fa500b8 	lw	a1,184(sp)
  40d4d4:	3c040041 	lui	a0,0x41
[31m  40d4d8:	8f9981d8 	lw	t9,printf[0m
  40d4dc:	00000000 	nop
  40d4e0:	0320f809 	jalr	t9
  40d4e4:	24842464 	addiu	a0,a0,9316
  40d4e8:	0810332e 	j	40ccb8 <ieee802_1x_send_resp_to_server+0x198>
  40d4ec:	00000000 	nop
  40d4f0:	08103477 	j	40d1dc <ieee802_1x_send_resp_to_server+0x6bc>
  40d4f4:	24420f00 	addiu	v0,v0,3840
  40d4f8:	08103477 	j	40d1dc <ieee802_1x_send_resp_to_server+0x6bc>
  40d4fc:	24420f00 	addiu	v0,v0,3840
  40d500:	92030090 	lbu	v1,144(s0)
[31m  40d504:	8f9981d8 	lw	t9,printf[0m
  40d508:	96050092 	lhu	a1,146(s0)
  40d50c:	afa20030 	sw	v0,48(sp)
--
  40d518:	24020003 	li	v0,3
  40d51c:	248423f4 	addiu	a0,a0,9204
  40d520:	a3a3003a 	sb	v1,58(sp)
  40d524:	0320f809 	jalr	t9
  40d528:	a3a20038 	sb	v0,56(sp)
  40d52c:	8fbc0028 	lw	gp,40(sp)
  40d530:	96020092 	lhu	v0,146(s0)
  40d534:	02202021 	move	a0,s1
  40d538:	8f9980f4 	lw	t9,-32524(gp)
  40d53c:	00021a02 	srl	v1,v0,0x8
  40d540:	a3a2003c 	sb	v0,60(sp)
  40d544:	24020005 	li	v0,5
  40d548:	a3a3003b 	sb	v1,59(sp)
  40d54c:	a3a20039 	sb	v0,57(sp)
  40d550:	2405001a 	li	a1,26
  40d554:	27a60034 	addiu	a2,sp,52
  40d558:	0411e3b2 	bal	406424 <Radius_msg_add_attr>
  40d55c:	24070009 	li	a3,9
  40d560:	8fbc0028 	lw	gp,40(sp)
  40d564:	1440ffbf 	bnez	v0,40d464 <ieee802_1x_send_resp_to_server+0x944>
  40d568:	00000000 	nop
  40d56c:	8ea20000 	lw	v0,0(s5)
  40d570:	00000000 	nop
  40d574:	1040ffbb 	beqz	v0,40d464 <ieee802_1x_send_resp_to_server+0x944>
  40d578:	3c040041 	lui	a0,0x41
[31m  40d57c:	8f9981d8 	lw	t9,printf[0m
  40d580:	00000000 	nop
  40d584:	0320f809 	jalr	t9
  40d588:	248400f0 	addiu	a0,a0,240
  40d58c:	8fbc0028 	lw	gp,40(sp)
  40d590:	3c040041 	lui	a0,0x41
  40d594:	8f9981bc 	lw	t9,-32324(gp)
  40d598:	00000000 	nop
  40d59c:	0320f809 	jalr	t9
  40d5a0:	24842400 	addiu	a0,a0,9216
  40d5a4:	8fbc0028 	lw	gp,40(sp)
  40d5a8:	08103519 	j	40d464 <ieee802_1x_send_resp_to_server+0x944>
  40d5ac:	00000000 	nop
  40d5b0:	08103477 	j	40d1dc <ieee802_1x_send_resp_to_server+0x6bc>
  40d5b4:	24420f00 	addiu	v0,v0,3840
  40d5b8:	8f998100 	lw	t9,-32512(gp)
  40d5bc:	00000000 	nop
  40d5c0:	0411e70e 	bal	4071fc <Radius_msg_copy_attr>
  40d5c4:	24060018 	li	a2,24
  40d5c8:	8fbc0028 	lw	gp,40(sp)
  40d5cc:	0441ffaf 	bgez	v0,40d48c <ieee802_1x_send_resp_to_server+0x96c>
  40d5d0:	00000000 	nop
  40d5d4:	8ea20000 	lw	v0,0(s5)
  40d5d8:	00000000 	nop
  40d5dc:	1040fdac 	beqz	v0,40cc90 <ieee802_1x_send_resp_to_server+0x170>
  40d5e0:	3c040041 	lui	a0,0x41
[31m  40d5e4:	8f9981d8 	lw	t9,printf[0m
  40d5e8:	00000000 	nop
  40d5ec:	0320f809 	jalr	t9
  40d5f0:	248400f0 	addiu	a0,a0,240
  40d5f4:	8fbc0028 	lw	gp,40(sp)
  40d5f8:	3c040041 	lui	a0,0x41
  40d5fc:	8f9981bc 	lw	t9,-32324(gp)
  40d600:	00000000 	nop
  40d604:	0320f809 	jalr	t9
  40d608:	24842424 	addiu	a0,a0,9252
  40d60c:	8fbc0028 	lw	gp,40(sp)
  40d610:	08103324 	j	40cc90 <ieee802_1x_send_resp_to_server+0x170>
  40d614:	00000000 	nop
  40d618:	08103477 	j	40d1dc <ieee802_1x_send_resp_to_server+0x6bc>
  40d61c:	24420f00 	addiu	v0,v0,3840
  40d620:	08103477 	j	40d1dc <ieee802_1x_send_resp_to_server+0x6bc>
  40d624:	24420f00 	addiu	v0,v0,3840
[31m  40d628:	8f9981d8 	lw	t9,printf[0m
  40d62c:	248400f0 	addiu	a0,a0,240
  40d630:	0320f809 	jalr	t9
  40d634:	afa500b8 	sw	a1,184(sp)
  40d638:	8fbc0028 	lw	gp,40(sp)
  40d63c:	8fa500b8 	lw	a1,184(sp)
  40d640:	3c040041 	lui	a0,0x41
[31m  40d644:	8f9981d8 	lw	t9,printf[0m
  40d648:	00000000 	nop
  40d64c:	0320f809 	jalr	t9
--
  40d760:	8c630000 	lw	v1,0(v1)
  40d764:	a2020000 	sb	v0,0(s0)
  40d768:	a2130001 	sb	s3,1(s0)
  40d76c:	2c630004 	sltiu	v1,v1,4
  40d770:	a6040002 	sh	a0,2(s0)
  40d774:	10600013 	beqz	v1,40d7c4 <ieee802_1x_request_identity+0xc8>
  40d778:	a2020004 	sb	v0,4(s0)
  40d77c:	02402021 	move	a0,s2
  40d780:	02202821 	move	a1,s1
  40d784:	02003821 	move	a3,s0
  40d788:	24020005 	li	v0,5
  40d78c:	00003021 	move	a2,zero
  40d790:	0c102758 	jal	409d60 <ieee802_1x_send>
  40d794:	afa20010 	sw	v0,16(sp)
  40d798:	8fbc0018 	lw	gp,24(sp)
  40d79c:	02002021 	move	a0,s0
  40d7a0:	8fbf0034 	lw	ra,52(sp)
  40d7a4:	8fb30030 	lw	s3,48(sp)
  40d7a8:	8fb2002c 	lw	s2,44(sp)
  40d7ac:	8fb10028 	lw	s1,40(sp)
  40d7b0:	8fb00024 	lw	s0,36(sp)
  40d7b4:	8f998120 	lw	t9,-32480(gp)
  40d7b8:	00000000 	nop
  40d7bc:	03200008 	jr	t9
  40d7c0:	27bd0038 	addiu	sp,sp,56
[31m  40d7c4:	8f9981d8 	lw	t9,printf[0m
  40d7c8:	3c040041 	lui	a0,0x41
  40d7cc:	0320f809 	jalr	t9
  40d7d0:	248400f0 	addiu	a0,a0,240
  40d7d4:	8fbc0018 	lw	gp,24(sp)
  40d7d8:	3c040041 	lui	a0,0x41
  40d7dc:	248424b8 	addiu	a0,a0,9400
[31m  40d7e0:	8f9981d8 	lw	t9,printf[0m
  40d7e4:	00000000 	nop
  40d7e8:	0320f809 	jalr	t9
  40d7ec:	24050005 	li	a1,5
  40d7f0:	081035e0 	j	40d780 <ieee802_1x_request_identity+0x84>
  40d7f4:	02402021 	move	a0,s2
  40d7f8:	8f82806c 	lw	v0,-32660(gp)
  40d7fc:	00000000 	nop
  40d800:	8c420000 	lw	v0,0(v0)
  40d804:	00000000 	nop
  40d808:	14400008 	bnez	v0,40d82c <ieee802_1x_request_identity+0x130>
  40d80c:	3c040041 	lui	a0,0x41
  40d810:	8fbf0034 	lw	ra,52(sp)
  40d814:	8fb30030 	lw	s3,48(sp)
  40d818:	8fb2002c 	lw	s2,44(sp)
  40d81c:	8fb10028 	lw	s1,40(sp)
  40d820:	8fb00024 	lw	s0,36(sp)
  40d824:	03e00008 	jr	ra
  40d828:	27bd0038 	addiu	sp,sp,56
[31m  40d82c:	8f9981d8 	lw	t9,printf[0m
  40d830:	00000000 	nop
  40d834:	0320f809 	jalr	t9
--
  40d940:	8e420004 	lw	v0,4(s2)
  40d944:	8e44008c 	lw	a0,140(s2)
  40d948:	8f9980a4 	lw	t9,-32604(gp)
  40d94c:	afa20010 	sw	v0,16(sp)
  40d950:	34028542 	li	v0,0x8542
  40d954:	afa60014 	sw	a2,20(sp)
  40d958:	afa20018 	sw	v0,24(sp)
  40d95c:	34058be1 	li	a1,0x8be1
  40d960:	02003021 	move	a2,s0
  40d964:	0411d54e 	bal	402ea0 <RT_ioctl>
  40d968:	24070010 	li	a3,16
  40d96c:	8fbc0020 	lw	gp,32(sp)
  40d970:	1040001c 	beqz	v0,40d9e4 <Ap_handle_session_timer+0x174>
  40d974:	02002021 	move	a0,s0
  40d978:	8e220000 	lw	v0,0(s1)
  40d97c:	00000000 	nop
  40d980:	14400043 	bnez	v0,40da90 <Ap_handle_session_timer+0x220>
  40d984:	3c040041 	lui	a0,0x41
  40d988:	8fbf0044 	lw	ra,68(sp)
  40d98c:	8fb30040 	lw	s3,64(sp)
  40d990:	8fb2003c 	lw	s2,60(sp)
  40d994:	8fb10038 	lw	s1,56(sp)
  40d998:	8fb00034 	lw	s0,52(sp)
  40d99c:	03e00008 	jr	ra
  40d9a0:	27bd0048 	addiu	sp,sp,72
[31m  40d9a4:	8f9981d8 	lw	t9,printf[0m
  40d9a8:	3c040041 	lui	a0,0x41
  40d9ac:	afa50028 	sw	a1,40(sp)
  40d9b0:	0320f809 	jalr	t9
  40d9b4:	248400f0 	addiu	a0,a0,240
  40d9b8:	8fbc0020 	lw	gp,32(sp)
  40d9bc:	3c040041 	lui	a0,0x41
  40d9c0:	8f9981bc 	lw	t9,-32324(gp)
  40d9c4:	00000000 	nop
  40d9c8:	0320f809 	jalr	t9
  40d9cc:	2484251c 	addiu	a0,a0,9500
  40d9d0:	8fa50028 	lw	a1,40(sp)
  40d9d4:	8fbc0020 	lw	gp,32(sp)
  40d9d8:	90a60088 	lbu	a2,136(a1)
  40d9dc:	08103650 	j	40d940 <Ap_handle_session_timer+0xd0>
  40d9e0:	00000000 	nop
  40d9e4:	8fbf0044 	lw	ra,68(sp)
  40d9e8:	8fb30040 	lw	s3,64(sp)
  40d9ec:	8fb2003c 	lw	s2,60(sp)
  40d9f0:	8fb10038 	lw	s1,56(sp)
  40d9f4:	8fb00034 	lw	s0,52(sp)
  40d9f8:	8f998120 	lw	t9,-32480(gp)
  40d9fc:	00000000 	nop
  40da00:	03200008 	jr	t9
  40da04:	27bd0048 	addiu	sp,sp,72
  40da08:	1260ffdf 	beqz	s3,40d988 <Ap_handle_session_timer+0x118>
  40da0c:	3c040041 	lui	a0,0x41
[31m  40da10:	8f9981d8 	lw	t9,printf[0m
  40da14:	00000000 	nop
  40da18:	0320f809 	jalr	t9
  40da1c:	248400f0 	addiu	a0,a0,240
  40da20:	8fbc0020 	lw	gp,32(sp)
  40da24:	8fbf0044 	lw	ra,68(sp)
  40da28:	8fb30040 	lw	s3,64(sp)
  40da2c:	8fb2003c 	lw	s2,60(sp)
  40da30:	8fb10038 	lw	s1,56(sp)
  40da34:	8fb00034 	lw	s0,52(sp)
[31m  40da38:	8f9981d8 	lw	t9,printf[0m
  40da3c:	3c040041 	lui	a0,0x41
  40da40:	24841874 	addiu	a0,a0,6260
  40da44:	24050010 	li	a1,16
  40da48:	03200008 	jr	t9
  40da4c:	27bd0048 	addiu	sp,sp,72
[31m  40da50:	8f9981d8 	lw	t9,printf[0m
  40da54:	3c040041 	lui	a0,0x41
  40da58:	afa50028 	sw	a1,40(sp)
  40da5c:	0320f809 	jalr	t9
  40da60:	248400f0 	addiu	a0,a0,240
  40da64:	8fbc0020 	lw	gp,32(sp)
  40da68:	3c040041 	lui	a0,0x41
  40da6c:	8f9981bc 	lw	t9,-32324(gp)
  40da70:	00000000 	nop
  40da74:	0320f809 	jalr	t9
  40da78:	24842500 	addiu	a0,a0,9472
  40da7c:	8fbc0020 	lw	gp,32(sp)
  40da80:	8e330000 	lw	s3,0(s1)
  40da84:	8fa50028 	lw	a1,40(sp)
  40da88:	0810362a 	j	40d8a8 <Ap_handle_session_timer+0x38>
  40da8c:	00000000 	nop
[31m  40da90:	8f9981d8 	lw	t9,printf[0m
  40da94:	00000000 	nop
  40da98:	0320f809 	jalr	t9
--
  40db64:	14400011 	bnez	v0,40dbac <Ap_get_sta+0xe0>
  40db68:	00000000 	nop
  40db6c:	8f82806c 	lw	v0,-32660(gp)
  40db70:	00000000 	nop
  40db74:	8c420000 	lw	v0,0(v0)
  40db78:	00000000 	nop
  40db7c:	2c420003 	sltiu	v0,v0,3
  40db80:	1040003d 	beqz	v0,40dc78 <Ap_get_sta+0x1ac>
  40db84:	3c040041 	lui	a0,0x41
  40db88:	8fbf0074 	lw	ra,116(sp)
  40db8c:	02001021 	move	v0,s0
  40db90:	8fb40070 	lw	s4,112(sp)
  40db94:	8fb3006c 	lw	s3,108(sp)
  40db98:	8fb20068 	lw	s2,104(sp)
  40db9c:	8fb10064 	lw	s1,100(sp)
  40dba0:	8fb00060 	lw	s0,96(sp)
  40dba4:	03e00008 	jr	ra
  40dba8:	27bd0078 	addiu	sp,sp,120
  40dbac:	8f82806c 	lw	v0,-32660(gp)
  40dbb0:	00000000 	nop
  40dbb4:	8c420000 	lw	v0,0(v0)
  40dbb8:	00000000 	nop
  40dbbc:	2c420003 	sltiu	v0,v0,3
  40dbc0:	1440fff1 	bnez	v0,40db88 <Ap_get_sta+0xbc>
  40dbc4:	3c040041 	lui	a0,0x41
[31m  40dbc8:	8f9981d8 	lw	t9,printf[0m
  40dbcc:	00000000 	nop
  40dbd0:	0320f809 	jalr	t9
  40dbd4:	248400f0 	addiu	a0,a0,240
  40dbd8:	8fbc0030 	lw	gp,48(sp)
  40dbdc:	8e450004 	lw	a1,4(s2)
  40dbe0:	92060088 	lbu	a2,136(s0)
[31m  40dbe4:	8f9981d8 	lw	t9,printf[0m
  40dbe8:	3c040041 	lui	a0,0x41
  40dbec:	0320f809 	jalr	t9
  40dbf0:	24842698 	addiu	a0,a0,9880
  40dbf4:	8fbf0074 	lw	ra,116(sp)
  40dbf8:	02001021 	move	v0,s0
  40dbfc:	8fb40070 	lw	s4,112(sp)
  40dc00:	8fb3006c 	lw	s3,108(sp)
  40dc04:	8fb20068 	lw	s2,104(sp)
  40dc08:	8fb10064 	lw	s1,100(sp)
  40dc0c:	8fb00060 	lw	s0,96(sp)
  40dc10:	03e00008 	jr	ra
  40dc14:	27bd0078 	addiu	sp,sp,120
  40dc18:	8e4200f0 	lw	v0,240(s2)
  40dc1c:	00000000 	nop
  40dc20:	28420400 	slti	v0,v0,1024
  40dc24:	14400028 	bnez	v0,40dcc8 <Ap_get_sta+0x1fc>
  40dc28:	00000000 	nop
  40dc2c:	8f82806c 	lw	v0,-32660(gp)
  40dc30:	00000000 	nop
  40dc34:	8c420000 	lw	v0,0(v0)
  40dc38:	00000000 	nop
  40dc3c:	1040ffd2 	beqz	v0,40db88 <Ap_get_sta+0xbc>
  40dc40:	00008021 	move	s0,zero
[31m  40dc44:	8f9981d8 	lw	t9,printf[0m
  40dc48:	3c040041 	lui	a0,0x41
  40dc4c:	0320f809 	jalr	t9
  40dc50:	248400f0 	addiu	a0,a0,240
  40dc54:	8fbc0030 	lw	gp,48(sp)
  40dc58:	8e4500f0 	lw	a1,240(s2)
  40dc5c:	3c040041 	lui	a0,0x41
[31m  40dc60:	8f9981d8 	lw	t9,printf[0m
  40dc64:	2484254c 	addiu	a0,a0,9548
  40dc68:	0320f809 	jalr	t9
  40dc6c:	24060400 	li	a2,1024
  40dc70:	081036e2 	j	40db88 <Ap_get_sta+0xbc>
  40dc74:	00000000 	nop
[31m  40dc78:	8f9981d8 	lw	t9,printf[0m
  40dc7c:	00000000 	nop
  40dc80:	0320f809 	jalr	t9
  40dc84:	248400f0 	addiu	a0,a0,240
  40dc88:	8fbc0030 	lw	gp,48(sp)
  40dc8c:	8e450004 	lw	a1,4(s2)
  40dc90:	3c040041 	lui	a0,0x41
[31m  40dc94:	8f9981d8 	lw	t9,printf[0m
  40dc98:	00000000 	nop
  40dc9c:	0320f809 	jalr	t9
--
  40dd58:	92250005 	lbu	a1,5(s1)
  40dd5c:	92030088 	lbu	v1,136(s0)
  40dd60:	8e44008c 	lw	a0,140(s2)
  40dd64:	8f9980a4 	lw	t9,-32604(gp)
  40dd68:	afa20038 	sw	v0,56(sp)
  40dd6c:	24020549 	li	v0,1353
  40dd70:	afa0003c 	sw	zero,60(sp)
  40dd74:	a7a00040 	sh	zero,64(sp)
  40dd78:	a3a6003c 	sb	a2,60(sp)
  40dd7c:	a3a5003d 	sb	a1,61(sp)
  40dd80:	afa30014 	sw	v1,20(sp)
  40dd84:	afa20018 	sw	v0,24(sp)
  40dd88:	34058be1 	li	a1,0x8be1
  40dd8c:	27a60038 	addiu	a2,sp,56
  40dd90:	0411d443 	bal	402ea0 <RT_ioctl>
  40dd94:	2407000a 	li	a3,10
  40dd98:	8fbc0030 	lw	gp,48(sp)
  40dd9c:	144000a0 	bnez	v0,40e020 <Ap_get_sta+0x554>
  40dda0:	00000000 	nop
  40dda4:	8e630000 	lw	v1,0(s3)
  40dda8:	8ba20041 	lwl	v0,65(sp)
  40ddac:	2c630003 	sltiu	v1,v1,3
  40ddb0:	9ba2003e 	lwr	v0,62(sp)
  40ddb4:	14600016 	bnez	v1,40de10 <Ap_get_sta+0x344>
  40ddb8:	a602000e 	sh	v0,14(s0)
[31m  40ddbc:	8f9981d8 	lw	t9,printf[0m
  40ddc0:	3c040041 	lui	a0,0x41
  40ddc4:	0320f809 	jalr	t9
  40ddc8:	248400f0 	addiu	a0,a0,240
  40ddcc:	92240003 	lbu	a0,3(s1)
  40ddd0:	92220005 	lbu	v0,5(s1)
  40ddd4:	92230004 	lbu	v1,4(s1)
  40ddd8:	8fbc0030 	lw	gp,48(sp)
  40dddc:	afa40010 	sw	a0,16(sp)
  40dde0:	afa30014 	sw	v1,20(sp)
  40dde4:	afa20018 	sw	v0,24(sp)
  40dde8:	9602000e 	lhu	v0,14(s0)
  40ddec:	92250000 	lbu	a1,0(s1)
[31m  40ddf0:	8f9981d8 	lw	t9,printf[0m
  40ddf4:	92260001 	lbu	a2,1(s1)
  40ddf8:	92270002 	lbu	a3,2(s1)
--
  40de6c:	24070016 	li	a3,22
  40de70:	8fbc0030 	lw	gp,48(sp)
  40de74:	14400052 	bnez	v0,40dfc0 <Ap_get_sta+0x4f4>
  40de78:	00000000 	nop
  40de7c:	8e630000 	lw	v1,0(s3)
  40de80:	8ba2004d 	lwl	v0,77(sp)
  40de84:	2c630003 	sltiu	v1,v1,3
  40de88:	9ba2004a 	lwr	v0,74(sp)
  40de8c:	00000000 	nop
  40de90:	ae020010 	sw	v0,16(s0)
  40de94:	8ba20051 	lwl	v0,81(sp)
  40de98:	00000000 	nop
  40de9c:	9ba2004e 	lwr	v0,78(sp)
  40dea0:	00000000 	nop
  40dea4:	ae020014 	sw	v0,20(s0)
  40dea8:	8ba20055 	lwl	v0,85(sp)
  40deac:	00000000 	nop
  40deb0:	9ba20052 	lwr	v0,82(sp)
  40deb4:	00000000 	nop
  40deb8:	ae020018 	sw	v0,24(s0)
  40debc:	8ba20059 	lwl	v0,89(sp)
  40dec0:	00000000 	nop
  40dec4:	9ba20056 	lwr	v0,86(sp)
  40dec8:	1460001c 	bnez	v1,40df3c <Ap_get_sta+0x470>
  40decc:	ae02001c 	sw	v0,28(s0)
[31m  40ded0:	8f9981d8 	lw	t9,printf[0m
  40ded4:	3c040041 	lui	a0,0x41
  40ded8:	0320f809 	jalr	t9
  40dedc:	248400f0 	addiu	a0,a0,240
  40dee0:	92240003 	lbu	a0,3(s1)
  40dee4:	92220005 	lbu	v0,5(s1)
  40dee8:	92230004 	lbu	v1,4(s1)
  40deec:	afa40010 	sw	a0,16(sp)
  40def0:	afa20018 	sw	v0,24(sp)
  40def4:	afa30014 	sw	v1,20(sp)
  40def8:	8e020010 	lw	v0,16(s0)
  40defc:	92250000 	lbu	a1,0(s1)
  40df00:	92260001 	lbu	a2,1(s1)
  40df04:	afa2001c 	sw	v0,28(sp)
  40df08:	8e020014 	lw	v0,20(s0)
  40df0c:	92270002 	lbu	a3,2(s1)
  40df10:	8fbc0030 	lw	gp,48(sp)
  40df14:	afa20020 	sw	v0,32(sp)
  40df18:	8e020018 	lw	v0,24(s0)
[31m  40df1c:	8f9981d8 	lw	t9,printf[0m
  40df20:	3c040041 	lui	a0,0x41
  40df24:	afa20024 	sw	v0,36(sp)
--
  40e000:	9ba20052 	lwr	v0,82(sp)
  40e004:	00000000 	nop
  40e008:	ae020018 	sw	v0,24(s0)
  40e00c:	8ba20059 	lwl	v0,89(sp)
  40e010:	00000000 	nop
  40e014:	9ba20056 	lwr	v0,86(sp)
  40e018:	081037cf 	j	40df3c <Ap_get_sta+0x470>
  40e01c:	ae02001c 	sw	v0,28(s0)
  40e020:	8e620000 	lw	v0,0(s3)
  40e024:	00000000 	nop
  40e028:	1440004d 	bnez	v0,40e160 <Ap_get_sta+0x694>
  40e02c:	3c040041 	lui	a0,0x41
  40e030:	8ba20041 	lwl	v0,65(sp)
  40e034:	00000000 	nop
  40e038:	9ba2003e 	lwr	v0,62(sp)
  40e03c:	08103784 	j	40de10 <Ap_get_sta+0x344>
  40e040:	a602000e 	sh	v0,14(s0)
  40e044:	a2000088 	sb	zero,136(s0)
  40e048:	8f93806c 	lw	s3,-32660(gp)
  40e04c:	00000000 	nop
  40e050:	8e620000 	lw	v0,0(s3)
  40e054:	00000000 	nop
  40e058:	2c420003 	sltiu	v0,v0,3
  40e05c:	1440ff39 	bnez	v0,40dd44 <Ap_get_sta+0x278>
  40e060:	3c040041 	lui	a0,0x41
[31m  40e064:	8f9981d8 	lw	t9,printf[0m
  40e068:	00000000 	nop
  40e06c:	0320f809 	jalr	t9
  40e070:	248400f0 	addiu	a0,a0,240
  40e074:	8fbc0030 	lw	gp,48(sp)
  40e078:	8e450008 	lw	a1,8(s2)
  40e07c:	3c040041 	lui	a0,0x41
[31m  40e080:	8f9981d8 	lw	t9,printf[0m
  40e084:	00000000 	nop
  40e088:	0320f809 	jalr	t9
  40e08c:	24842580 	addiu	a0,a0,9600
  40e090:	8fbc0030 	lw	gp,48(sp)
  40e094:	08103751 	j	40dd44 <Ap_get_sta+0x278>
  40e098:	00000000 	nop
  40e09c:	8f82806c 	lw	v0,-32660(gp)
  40e0a0:	00000000 	nop
  40e0a4:	8c420000 	lw	v0,0(v0)
  40e0a8:	00000000 	nop
  40e0ac:	1040feb6 	beqz	v0,40db88 <Ap_get_sta+0xbc>
  40e0b0:	3c040041 	lui	a0,0x41
[31m  40e0b4:	8f9981d8 	lw	t9,printf[0m
  40e0b8:	00000000 	nop
  40e0bc:	0320f809 	jalr	t9
  40e0c0:	248400f0 	addiu	a0,a0,240
  40e0c4:	8fbc0030 	lw	gp,48(sp)
  40e0c8:	3c040041 	lui	a0,0x41
  40e0cc:	8f9981bc 	lw	t9,-32324(gp)
  40e0d0:	00000000 	nop
  40e0d4:	0320f809 	jalr	t9
  40e0d8:	24842570 	addiu	a0,a0,9584
  40e0dc:	081036e2 	j	40db88 <Ap_get_sta+0xbc>
  40e0e0:	00000000 	nop
[31m  40e0e4:	8f9981d8 	lw	t9,printf[0m
  40e0e8:	00000000 	nop
  40e0ec:	0320f809 	jalr	t9
  40e0f0:	248400f0 	addiu	a0,a0,240
  40e0f4:	8fbc0030 	lw	gp,48(sp)
  40e0f8:	3c040041 	lui	a0,0x41
  40e0fc:	8f9981bc 	lw	t9,-32324(gp)
  40e100:	00000000 	nop
  40e104:	0320f809 	jalr	t9
  40e108:	248425f8 	addiu	a0,a0,9720
  40e10c:	8fbc0030 	lw	gp,48(sp)
  40e110:	00000000 	nop
  40e114:	8f82806c 	lw	v0,-32660(gp)
  40e118:	00000000 	nop
  40e11c:	8c430000 	lw	v1,0(v0)
  40e120:	081037a0 	j	40de80 <Ap_get_sta+0x3b4>
  40e124:	00000000 	nop
[31m  40e128:	8f9981d8 	lw	t9,printf[0m
  40e12c:	00000000 	nop
  40e130:	0320f809 	jalr	t9
  40e134:	248400f0 	addiu	a0,a0,240
  40e138:	8fbc0030 	lw	gp,48(sp)
  40e13c:	8e450004 	lw	a1,4(s2)
  40e140:	92060088 	lbu	a2,136(s0)
[31m  40e144:	8f9981d8 	lw	t9,printf[0m
  40e148:	3c040041 	lui	a0,0x41
  40e14c:	0320f809 	jalr	t9
  40e150:	24842580 	addiu	a0,a0,9600
  40e154:	8fbc0030 	lw	gp,48(sp)
  40e158:	08103751 	j	40dd44 <Ap_get_sta+0x278>
  40e15c:	00000000 	nop
[31m  40e160:	8f9981d8 	lw	t9,printf[0m
  40e164:	00000000 	nop
  40e168:	0320f809 	jalr	t9
--
  40e2d8:	14400064 	bnez	v0,40e46c <Ap_free_sta+0x260>
  40e2dc:	00000000 	nop
  40e2e0:	8e2300f4 	lw	v1,244(s1)
  40e2e4:	00000000 	nop
  40e2e8:	1203004d 	beq	s0,v1,40e420 <Ap_free_sta+0x214>
  40e2ec:	00000000 	nop
  40e2f0:	1060000e 	beqz	v1,40e32c <Ap_free_sta+0x120>
  40e2f4:	00000000 	nop
  40e2f8:	8c620000 	lw	v0,0(v1)
  40e2fc:	00000000 	nop
  40e300:	12020023 	beq	s0,v0,40e390 <Ap_free_sta+0x184>
  40e304:	00000000 	nop
  40e308:	10400008 	beqz	v0,40e32c <Ap_free_sta+0x120>
  40e30c:	00000000 	nop
  40e310:	8c430000 	lw	v1,0(v0)
  40e314:	00000000 	nop
  40e318:	1203001e 	beq	s0,v1,40e394 <Ap_free_sta+0x188>
  40e31c:	00000000 	nop
  40e320:	00601021 	move	v0,v1
  40e324:	1440fffa 	bnez	v0,40e310 <Ap_free_sta+0x104>
  40e328:	00000000 	nop
  40e32c:	8e420000 	lw	v0,0(s2)
  40e330:	00000000 	nop
  40e334:	1040001a 	beqz	v0,40e3a0 <Ap_free_sta+0x194>
  40e338:	3c040041 	lui	a0,0x41
[31m  40e33c:	8f9981d8 	lw	t9,printf[0m
  40e340:	00000000 	nop
  40e344:	0320f809 	jalr	t9
  40e348:	248400f0 	addiu	a0,a0,240
  40e34c:	8fbc0020 	lw	gp,32(sp)
  40e350:	9204000b 	lbu	a0,11(s0)
  40e354:	9203000c 	lbu	v1,12(s0)
  40e358:	9202000d 	lbu	v0,13(s0)
  40e35c:	92050008 	lbu	a1,8(s0)
  40e360:	92060009 	lbu	a2,9(s0)
  40e364:	9207000a 	lbu	a3,10(s0)
[31m  40e368:	8f9981d8 	lw	t9,printf[0m
  40e36c:	afa40010 	sw	a0,16(sp)
  40e370:	3c040041 	lui	a0,0x41
--
  40e3c8:	8f998120 	lw	t9,-32480(gp)
  40e3cc:	00000000 	nop
  40e3d0:	0320f809 	jalr	t9
  40e3d4:	00000000 	nop
  40e3d8:	8fbc0020 	lw	gp,32(sp)
  40e3dc:	02002021 	move	a0,s0
  40e3e0:	8fbf0044 	lw	ra,68(sp)
  40e3e4:	8fb50040 	lw	s5,64(sp)
  40e3e8:	8fb4003c 	lw	s4,60(sp)
  40e3ec:	8fb30038 	lw	s3,56(sp)
  40e3f0:	8fb20034 	lw	s2,52(sp)
  40e3f4:	8fb10030 	lw	s1,48(sp)
  40e3f8:	8fb0002c 	lw	s0,44(sp)
  40e3fc:	8f998120 	lw	t9,-32480(gp)
  40e400:	00000000 	nop
  40e404:	03200008 	jr	t9
  40e408:	27bd0048 	addiu	sp,sp,72
  40e40c:	8e820004 	lw	v0,4(s4)
  40e410:	8e2300f4 	lw	v1,244(s1)
  40e414:	00000000 	nop
  40e418:	1603ffb5 	bne	s0,v1,40e2f0 <Ap_free_sta+0xe4>
  40e41c:	ae620000 	sw	v0,0(s3)
  40e420:	8e020000 	lw	v0,0(s0)
  40e424:	081038e8 	j	40e3a0 <Ap_free_sta+0x194>
  40e428:	ae2200f4 	sw	v0,244(s1)
[31m  40e42c:	8f9981d8 	lw	t9,printf[0m
  40e430:	3c040041 	lui	a0,0x41
  40e434:	0320f809 	jalr	t9
  40e438:	248400f0 	addiu	a0,a0,240
  40e43c:	8fbc0020 	lw	gp,32(sp)
  40e440:	3c040041 	lui	a0,0x41
  40e444:	8f9981bc 	lw	t9,-32324(gp)
  40e448:	00000000 	nop
  40e44c:	0320f809 	jalr	t9
  40e450:	248426b4 	addiu	a0,a0,9908
  40e454:	8fbc0020 	lw	gp,32(sp)
  40e458:	08103894 	j	40e250 <Ap_free_sta+0x44>
  40e45c:	00000000 	nop
  40e460:	8e620004 	lw	v0,4(s3)
  40e464:	081038b8 	j	40e2e0 <Ap_free_sta+0xd4>
  40e468:	ae820004 	sw	v0,4(s4)
[31m  40e46c:	8f9981d8 	lw	t9,printf[0m
  40e470:	3c040041 	lui	a0,0x41
  40e474:	0320f809 	jalr	t9
  40e478:	248400f0 	addiu	a0,a0,240
  40e47c:	8fbc0020 	lw	gp,32(sp)
  40e480:	9204000b 	lbu	a0,11(s0)
  40e484:	9203000c 	lbu	v1,12(s0)
  40e488:	9202000d 	lbu	v0,13(s0)
  40e48c:	92050008 	lbu	a1,8(s0)
  40e490:	92060009 	lbu	a2,9(s0)
  40e494:	9207000a 	lbu	a3,10(s0)
[31m  40e498:	8f9981d8 	lw	t9,printf[0m
  40e49c:	afa40010 	sw	a0,16(sp)
  40e4a0:	3c040041 	lui	a0,0x41
--
  40e4dc:	8e620000 	lw	v0,0(s3)
  40e4e0:	afbf0044 	sw	ra,68(sp)
  40e4e4:	afb50040 	sw	s5,64(sp)
  40e4e8:	2c420003 	sltiu	v0,v0,3
  40e4ec:	afb4003c 	sw	s4,60(sp)
  40e4f0:	afb10030 	sw	s1,48(sp)
  40e4f4:	afbc0020 	sw	gp,32(sp)
  40e4f8:	8c9000f4 	lw	s0,244(a0)
  40e4fc:	10400031 	beqz	v0,40e5c4 <Apd_free_stas+0x104>
  40e500:	00809021 	move	s2,a0
  40e504:	12000026 	beqz	s0,40e5a0 <Apd_free_stas+0xe0>
  40e508:	3c150041 	lui	s5,0x41
  40e50c:	3c140041 	lui	s4,0x41
  40e510:	26b500f0 	addiu	s5,s5,240
  40e514:	0810394c 	j	40e530 <Apd_free_stas+0x70>
  40e518:	2694275c 	addiu	s4,s4,10076
  40e51c:	0c103883 	jal	40e20c <Ap_free_sta>
  40e520:	02402021 	move	a0,s2
  40e524:	8fbc0020 	lw	gp,32(sp)
  40e528:	1220001d 	beqz	s1,40e5a0 <Apd_free_stas+0xe0>
  40e52c:	02208021 	move	s0,s1
  40e530:	8e620000 	lw	v0,0(s3)
  40e534:	8e110000 	lw	s1,0(s0)
  40e538:	1040fff8 	beqz	v0,40e51c <Apd_free_stas+0x5c>
  40e53c:	02002821 	move	a1,s0
[31m  40e540:	8f9981d8 	lw	t9,printf[0m
  40e544:	00000000 	nop
  40e548:	0320f809 	jalr	t9
  40e54c:	02a02021 	move	a0,s5
  40e550:	9202000b 	lbu	v0,11(s0)
  40e554:	92050008 	lbu	a1,8(s0)
  40e558:	92060009 	lbu	a2,9(s0)
  40e55c:	9207000a 	lbu	a3,10(s0)
  40e560:	afa20010 	sw	v0,16(sp)
  40e564:	9202000c 	lbu	v0,12(s0)
  40e568:	8fbc0020 	lw	gp,32(sp)
  40e56c:	02802021 	move	a0,s4
  40e570:	afa20014 	sw	v0,20(sp)
  40e574:	9202000d 	lbu	v0,13(s0)
[31m  40e578:	8f9981d8 	lw	t9,printf[0m
  40e57c:	00000000 	nop
  40e580:	0320f809 	jalr	t9
  40e584:	afa20018 	sw	v0,24(sp)
  40e588:	02002821 	move	a1,s0
  40e58c:	0c103883 	jal	40e20c <Ap_free_sta>
  40e590:	02402021 	move	a0,s2
  40e594:	8fbc0020 	lw	gp,32(sp)
  40e598:	1620ffe5 	bnez	s1,40e530 <Apd_free_stas+0x70>
  40e59c:	02208021 	move	s0,s1
  40e5a0:	8fbf0044 	lw	ra,68(sp)
  40e5a4:	8fb50040 	lw	s5,64(sp)
  40e5a8:	8fb4003c 	lw	s4,60(sp)
  40e5ac:	8fb30038 	lw	s3,56(sp)
  40e5b0:	8fb20034 	lw	s2,52(sp)
  40e5b4:	8fb10030 	lw	s1,48(sp)
  40e5b8:	8fb0002c 	lw	s0,44(sp)
  40e5bc:	03e00008 	jr	ra
  40e5c0:	27bd0048 	addiu	sp,sp,72
[31m  40e5c4:	8f9981d8 	lw	t9,printf[0m
  40e5c8:	3c040041 	lui	a0,0x41
  40e5cc:	0320f809 	jalr	t9
--
  40e5d8:	3c040041 	lui	a0,0x41
  40e5dc:	8f9981bc 	lw	t9,-32324(gp)
  40e5e0:	00000000 	nop
  40e5e4:	0320f809 	jalr	t9
  40e5e8:	2484274c 	addiu	a0,a0,10060
  40e5ec:	8fbc0020 	lw	gp,32(sp)
  40e5f0:	08103941 	j	40e504 <Apd_free_stas+0x44>
  40e5f4:	00000000 	nop

0040e5f8 <Ap_sta_session_timeout>:
  40e5f8:	3c1c0043 	lui	gp,0x43
  40e5fc:	279cac90 	addiu	gp,gp,-21360
  40e600:	8f82806c 	lw	v0,-32660(gp)
  40e604:	27bdffc8 	addiu	sp,sp,-56
  40e608:	afb20030 	sw	s2,48(sp)
  40e60c:	8c420000 	lw	v0,0(v0)
  40e610:	afb1002c 	sw	s1,44(sp)
  40e614:	afbf0034 	sw	ra,52(sp)
  40e618:	2c420003 	sltiu	v0,v0,3
  40e61c:	afb00028 	sw	s0,40(sp)
  40e620:	afbc0018 	sw	gp,24(sp)
  40e624:	00803821 	move	a3,a0
  40e628:	00a08821 	move	s1,a1
  40e62c:	1440000f 	bnez	v0,40e66c <Ap_sta_session_timeout+0x74>
  40e630:	00c09021 	move	s2,a2
[31m  40e634:	8f9981d8 	lw	t9,printf[0m
  40e638:	3c040041 	lui	a0,0x41
  40e63c:	afa70020 	sw	a3,32(sp)
  40e640:	0320f809 	jalr	t9
  40e644:	248400f0 	addiu	a0,a0,240
  40e648:	8fbc0018 	lw	gp,24(sp)
  40e64c:	3c040041 	lui	a0,0x41
  40e650:	2484278c 	addiu	a0,a0,10124
[31m  40e654:	8f9981d8 	lw	t9,printf[0m
  40e658:	00000000 	nop
  40e65c:	0320f809 	jalr	t9
--
  40e930:	26940001 	addiu	s4,s4,1
  40e934:	8f9980bc 	lw	t9,-32580(gp)
  40e938:	00000000 	nop
  40e93c:	0411de9a 	bal	4063a8 <Radius_msg_free>
  40e940:	02602021 	move	a0,s3
  40e944:	8fbc0018 	lw	gp,24(sp)
  40e948:	00000000 	nop
  40e94c:	8f998120 	lw	t9,-32480(gp)
  40e950:	00000000 	nop
  40e954:	0320f809 	jalr	t9
  40e958:	02602021 	move	a0,s3
  40e95c:	0c1039bc 	jal	40e6f0 <Radius_client_msg_free>
  40e960:	02002021 	move	a0,s0
  40e964:	8fbf0c04 	lw	ra,3076(sp)
  40e968:	8fbe0c00 	lw	s8,3072(sp)
  40e96c:	8fb70bfc 	lw	s7,3068(sp)
  40e970:	8fb60bf8 	lw	s6,3064(sp)
  40e974:	8fb50bf4 	lw	s5,3060(sp)
  40e978:	8fb40bf0 	lw	s4,3056(sp)
  40e97c:	8fb30bec 	lw	s3,3052(sp)
  40e980:	8fb20be8 	lw	s2,3048(sp)
  40e984:	8fb10be4 	lw	s1,3044(sp)
  40e988:	8fb00be0 	lw	s0,3040(sp)
  40e98c:	03e00008 	jr	ra
  40e990:	27bd0c08 	addiu	sp,sp,3080
[31m  40e994:	8f9981d8 	lw	t9,printf[0m
  40e998:	00000000 	nop
  40e99c:	0320f809 	jalr	t9
  40e9a0:	02c02021 	move	a0,s6
  40e9a4:	8fbc0018 	lw	gp,24(sp)
  40e9a8:	92050000 	lbu	a1,0(s0)
[31m  40e9ac:	8f9981d8 	lw	t9,printf[0m
  40e9b0:	00000000 	nop
  40e9b4:	0320f809 	jalr	t9
  40e9b8:	02802021 	move	a0,s4
  40e9bc:	8e420000 	lw	v0,0(s2)
  40e9c0:	8fbc0018 	lw	gp,24(sp)
  40e9c4:	08103a07 	j	40e81c <Radius_client_receive+0xc8>
  40e9c8:	2c420004 	sltiu	v0,v0,4
[31m  40e9cc:	8f9981d8 	lw	t9,printf[0m
  40e9d0:	3c040041 	lui	a0,0x41
  40e9d4:	0320f809 	jalr	t9
  40e9d8:	248400f0 	addiu	a0,a0,240
  40e9dc:	8fbc0018 	lw	gp,24(sp)
  40e9e0:	3c040041 	lui	a0,0x41
  40e9e4:	248427cc 	addiu	a0,a0,10188
[31m  40e9e8:	8f9981d8 	lw	t9,printf[0m
  40e9ec:	00000000 	nop
  40e9f0:	0320f809 	jalr	t9
  40e9f4:	02202821 	move	a1,s1
  40e9f8:	8fbc0018 	lw	gp,24(sp)
  40e9fc:	081039ea 	j	40e7a8 <Radius_client_receive+0x54>
  40ea00:	00000000 	nop
  40ea04:	8e420000 	lw	v0,0(s2)
  40ea08:	00000000 	nop
  40ea0c:	1040ffd5 	beqz	v0,40e964 <Radius_client_receive+0x210>
  40ea10:	00000000 	nop
[31m  40ea14:	8f9981d8 	lw	t9,printf[0m
  40ea18:	3c040041 	lui	a0,0x41
  40ea1c:	0320f809 	jalr	t9
  40ea20:	248400f0 	addiu	a0,a0,240
  40ea24:	8fbc0018 	lw	gp,24(sp)
  40ea28:	3c040041 	lui	a0,0x41
  40ea2c:	8f9981bc 	lw	t9,-32324(gp)
  40ea30:	00000000 	nop
  40ea34:	0320f809 	jalr	t9
  40ea38:	24842804 	addiu	a0,a0,10244
  40ea3c:	08103a59 	j	40e964 <Radius_client_receive+0x210>
  40ea40:	00000000 	nop
[31m  40ea44:	8f9981d8 	lw	t9,printf[0m
  40ea48:	00000000 	nop
  40ea4c:	0320f809 	jalr	t9
--
  40ea7c:	00000000 	nop
  40ea80:	00431021 	addu	v0,v0,v1
  40ea84:	afa20bd8 	sw	v0,3032(sp)
  40ea88:	169eff97 	bne	s4,s8,40e8e8 <Radius_client_receive+0x194>
  40ea8c:	02801021 	move	v0,s4
  40ea90:	8e420000 	lw	v0,0(s2)
  40ea94:	00000000 	nop
  40ea98:	1440003d 	bnez	v0,40eb90 <Radius_client_receive+0x43c>
  40ea9c:	00000000 	nop
  40eaa0:	0c1039bc 	jal	40e6f0 <Radius_client_msg_free>
  40eaa4:	02002021 	move	a0,s0
  40eaa8:	8fbc0018 	lw	gp,24(sp)
  40eaac:	00000000 	nop
  40eab0:	8f9980bc 	lw	t9,-32580(gp)
  40eab4:	00000000 	nop
  40eab8:	0411de3b 	bal	4063a8 <Radius_msg_free>
  40eabc:	02602021 	move	a0,s3
  40eac0:	8fbc0018 	lw	gp,24(sp)
  40eac4:	00000000 	nop
  40eac8:	8f998120 	lw	t9,-32480(gp)
  40eacc:	00000000 	nop
  40ead0:	0320f809 	jalr	t9
  40ead4:	02602021 	move	a0,s3
  40ead8:	08103a59 	j	40e964 <Radius_client_receive+0x210>
  40eadc:	00000000 	nop
[31m  40eae0:	8f9981d8 	lw	t9,printf[0m
  40eae4:	00000000 	nop
  40eae8:	0320f809 	jalr	t9
  40eaec:	248400f0 	addiu	a0,a0,240
  40eaf0:	8fbc0018 	lw	gp,24(sp)
  40eaf4:	3c040041 	lui	a0,0x41
  40eaf8:	24842840 	addiu	a0,a0,10304
[31m  40eafc:	8f9981d8 	lw	t9,printf[0m
  40eb00:	00000000 	nop
  40eb04:	0320f809 	jalr	t9
  40eb08:	02e02821 	move	a1,s7
  40eb0c:	8fbc0018 	lw	gp,24(sp)
  40eb10:	00000000 	nop
  40eb14:	8f82806c 	lw	v0,-32660(gp)
  40eb18:	00000000 	nop
  40eb1c:	8c420000 	lw	v0,0(v0)
  40eb20:	081039ff 	j	40e7fc <Radius_client_receive+0xa8>
  40eb24:	2c420004 	sltiu	v0,v0,4
  40eb28:	8e420000 	lw	v0,0(s2)
  40eb2c:	00000000 	nop
  40eb30:	1040ff8c 	beqz	v0,40e964 <Radius_client_receive+0x210>
  40eb34:	00000000 	nop
[31m  40eb38:	8f9981d8 	lw	t9,printf[0m
  40eb3c:	3c040041 	lui	a0,0x41
  40eb40:	0320f809 	jalr	t9
  40eb44:	248400f0 	addiu	a0,a0,240
  40eb48:	8fbc0018 	lw	gp,24(sp)
  40eb4c:	3c040041 	lui	a0,0x41
  40eb50:	8f9981bc 	lw	t9,-32324(gp)
  40eb54:	00000000 	nop
  40eb58:	0320f809 	jalr	t9
  40eb5c:	2484285c 	addiu	a0,a0,10332
  40eb60:	08103a59 	j	40e964 <Radius_client_receive+0x210>
  40eb64:	00000000 	nop
  40eb68:	8f9981c0 	lw	t9,-32320(gp)
  40eb6c:	3c040041 	lui	a0,0x41
  40eb70:	0320f809 	jalr	t9
  40eb74:	248427f4 	addiu	a0,a0,10228
  40eb78:	08103a59 	j	40e964 <Radius_client_receive+0x210>
  40eb7c:	00000000 	nop
  40eb80:	08103a31 	j	40e8c4 <Radius_client_receive+0x170>
  40eb84:	aca20048 	sw	v0,72(a1)
  40eb88:	08103aa4 	j	40ea90 <Radius_client_receive+0x33c>
  40eb8c:	afa00bd8 	sw	zero,3032(sp)
[31m  40eb90:	8f9981d8 	lw	t9,printf[0m
  40eb94:	3c040041 	lui	a0,0x41
  40eb98:	0320f809 	jalr	t9
  40eb9c:	248400f0 	addiu	a0,a0,240
  40eba0:	8e62000c 	lw	v0,12(s3)
  40eba4:	8fbc0018 	lw	gp,24(sp)
  40eba8:	90460000 	lbu	a2,0(v0)
  40ebac:	90470001 	lbu	a3,1(v0)
  40ebb0:	8fa20bd8 	lw	v0,3032(sp)
  40ebb4:	00000000 	nop
  40ebb8:	1040000b 	beqz	v0,40ebe8 <Radius_client_receive+0x494>
  40ebbc:	3c020041 	lui	v0,0x41
  40ebc0:	3c020041 	lui	v0,0x41
  40ebc4:	244227b0 	addiu	v0,v0,10160
[31m  40ebc8:	8f9981d8 	lw	t9,printf[0m
  40ebcc:	3c040041 	lui	a0,0x41
  40ebd0:	afa20010 	sw	v0,16(sp)
--
  40edac:	10400018 	beqz	v0,40ee10 <Radius_client_send+0x19c>
  40edb0:	3c040041 	lui	a0,0x41
  40edb4:	8f9980bc 	lw	t9,-32580(gp)
  40edb8:	00000000 	nop
  40edbc:	0411dd7a 	bal	4063a8 <Radius_msg_free>
  40edc0:	02202021 	move	a0,s1
  40edc4:	8fbc0018 	lw	gp,24(sp)
  40edc8:	00000000 	nop
  40edcc:	8f998120 	lw	t9,-32480(gp)
  40edd0:	00000000 	nop
  40edd4:	0320f809 	jalr	t9
  40edd8:	02202021 	move	a0,s1
  40eddc:	8fbf0054 	lw	ra,84(sp)
  40ede0:	02e01021 	move	v0,s7
  40ede4:	8fbe0050 	lw	s8,80(sp)
  40ede8:	8fb7004c 	lw	s7,76(sp)
  40edec:	8fb60048 	lw	s6,72(sp)
  40edf0:	8fb50044 	lw	s5,68(sp)
  40edf4:	8fb40040 	lw	s4,64(sp)
  40edf8:	8fb3003c 	lw	s3,60(sp)
  40edfc:	8fb20038 	lw	s2,56(sp)
  40ee00:	8fb10034 	lw	s1,52(sp)
  40ee04:	8fb00030 	lw	s0,48(sp)
  40ee08:	03e00008 	jr	ra
  40ee0c:	27bd0058 	addiu	sp,sp,88
[31m  40ee10:	8f9981d8 	lw	t9,printf[0m
  40ee14:	00000000 	nop
  40ee18:	0320f809 	jalr	t9
--
  40eec4:	8c44004c 	lw	a0,76(v0)
  40eec8:	ae030024 	sw	v1,36(s0)
  40eecc:	2c83001e 	sltiu	v1,a0,30
  40eed0:	1460002b 	bnez	v1,40ef80 <Radius_client_send+0x30c>
  40eed4:	ac500048 	sw	s0,72(v0)
  40eed8:	8e820000 	lw	v0,0(s4)
  40eedc:	00000000 	nop
  40eee0:	2c420003 	sltiu	v0,v0,3
  40eee4:	10400042 	beqz	v0,40eff0 <Radius_client_send+0x37c>
  40eee8:	00000000 	nop
  40eeec:	08103bbf 	j	40eefc <Radius_client_send+0x288>
  40eef0:	00001821 	move	v1,zero
  40eef4:	02001821 	move	v1,s0
  40eef8:	00408021 	move	s0,v0
  40eefc:	8e020024 	lw	v0,36(s0)
  40ef00:	00000000 	nop
  40ef04:	1440fffb 	bnez	v0,40eef4 <Radius_client_send+0x280>
  40ef08:	00000000 	nop
  40ef0c:	1060ffb3 	beqz	v1,40eddc <Radius_client_send+0x168>
  40ef10:	00000000 	nop
  40ef14:	ac600024 	sw	zero,36(v1)
  40ef18:	0c1039bc 	jal	40e6f0 <Radius_client_msg_free>
  40ef1c:	02002021 	move	a0,s0
  40ef20:	08103b77 	j	40eddc <Radius_client_send+0x168>
  40ef24:	00000000 	nop
[31m  40ef28:	8f9981d8 	lw	t9,printf[0m
  40ef2c:	3c040041 	lui	a0,0x41
  40ef30:	0320f809 	jalr	t9
  40ef34:	248400f0 	addiu	a0,a0,240
  40ef38:	8e420000 	lw	v0,0(s2)
  40ef3c:	8fbc0018 	lw	gp,24(sp)
  40ef40:	00501021 	addu	v0,v0,s0
  40ef44:	8c420000 	lw	v0,0(v0)
  40ef48:	8f998154 	lw	t9,-32428(gp)
  40ef4c:	8c440000 	lw	a0,0(v0)
  40ef50:	0320f809 	jalr	t9
  40ef54:	00000000 	nop
  40ef58:	8fbc0018 	lw	gp,24(sp)
  40ef5c:	3c040041 	lui	a0,0x41
  40ef60:	248428cc 	addiu	a0,a0,10444
[31m  40ef64:	8f9981d8 	lw	t9,printf[0m
  40ef68:	00000000 	nop
  40ef6c:	0320f809 	jalr	t9
  40ef70:	00402821 	move	a1,v0
  40ef74:	8fbc0018 	lw	gp,24(sp)
  40ef78:	08103b44 	j	40ed10 <Radius_client_send+0x9c>
  40ef7c:	00000000 	nop
  40ef80:	24840001 	addiu	a0,a0,1
  40ef84:	08103b77 	j	40eddc <Radius_client_send+0x168>
  40ef88:	ac44004c 	sw	a0,76(v0)
  40ef8c:	8f9981c0 	lw	t9,-32320(gp)
  40ef90:	3c040041 	lui	a0,0x41
  40ef94:	0320f809 	jalr	t9
  40ef98:	248428e8 	addiu	a0,a0,10472
  40ef9c:	8fbc0018 	lw	gp,24(sp)
  40efa0:	08103b61 	j	40ed84 <Radius_client_send+0x110>
  40efa4:	00000000 	nop
  40efa8:	8e820000 	lw	v0,0(s4)
  40efac:	00000000 	nop
  40efb0:	2c420003 	sltiu	v0,v0,3
  40efb4:	1440ff7f 	bnez	v0,40edb4 <Radius_client_send+0x140>
  40efb8:	3c040041 	lui	a0,0x41
[31m  40efbc:	8f9981d8 	lw	t9,printf[0m
  40efc0:	00000000 	nop
  40efc4:	0320f809 	jalr	t9
  40efc8:	248400f0 	addiu	a0,a0,240
  40efcc:	8fbc0018 	lw	gp,24(sp)
  40efd0:	3c040041 	lui	a0,0x41
  40efd4:	8f9981bc 	lw	t9,-32324(gp)
  40efd8:	00000000 	nop
  40efdc:	0320f809 	jalr	t9
  40efe0:	2484290c 	addiu	a0,a0,10508
  40efe4:	8fbc0018 	lw	gp,24(sp)
  40efe8:	08103b6d 	j	40edb4 <Radius_client_send+0x140>
  40efec:	00000000 	nop
[31m  40eff0:	8f9981d8 	lw	t9,printf[0m
  40eff4:	3c040041 	lui	a0,0x41
  40eff8:	0320f809 	jalr	t9
--
  40f1c4:	279cac90 	addiu	gp,gp,-21360
  40f1c8:	afb10024 	sw	s1,36(sp)
  40f1cc:	afb00020 	sw	s0,32(sp)
  40f1d0:	afbf002c 	sw	ra,44(sp)
  40f1d4:	afb20028 	sw	s2,40(sp)
  40f1d8:	afbc0018 	sw	gp,24(sp)
  40f1dc:	00808821 	move	s1,a0
  40f1e0:	10c00006 	beqz	a2,40f1fc <Radius_change_server.isra.0+0x40>
  40f1e4:	00a08021 	move	s0,a1
  40f1e8:	8ca2000c 	lw	v0,12(a1)
  40f1ec:	8cc3000c 	lw	v1,12(a2)
  40f1f0:	00000000 	nop
  40f1f4:	10430024 	beq	v0,v1,40f288 <Radius_change_server.isra.0+0xcc>
  40f1f8:	00000000 	nop
  40f1fc:	0c103c51 	jal	40f144 <Radius_client_flush>
  40f200:	02202021 	move	a0,s1
  40f204:	8fbc0018 	lw	gp,24(sp)
  40f208:	00000000 	nop
  40f20c:	8f82806c 	lw	v0,-32660(gp)
  40f210:	00000000 	nop
  40f214:	8c420000 	lw	v0,0(v0)
  40f218:	00000000 	nop
  40f21c:	2c420003 	sltiu	v0,v0,3
  40f220:	14400012 	bnez	v0,40f26c <Radius_change_server.isra.0+0xb0>
  40f224:	3c040041 	lui	a0,0x41
[31m  40f228:	8f9981d8 	lw	t9,printf[0m
  40f22c:	00000000 	nop
  40f230:	0320f809 	jalr	t9
  40f234:	248400f0 	addiu	a0,a0,240
  40f238:	8fbc0018 	lw	gp,24(sp)
  40f23c:	8e040000 	lw	a0,0(s0)
  40f240:	8f998154 	lw	t9,-32428(gp)
  40f244:	00000000 	nop
  40f248:	0320f809 	jalr	t9
  40f24c:	00000000 	nop
  40f250:	8fbc0018 	lw	gp,24(sp)
  40f254:	3c040041 	lui	a0,0x41
  40f258:	2484298c 	addiu	a0,a0,10636
[31m  40f25c:	8f9981d8 	lw	t9,printf[0m
  40f260:	00000000 	nop
  40f264:	0320f809 	jalr	t9
--
  40f3c4:	0c103c6f 	jal	40f1bc <Radius_change_server.isra.0>
  40f3c8:	ace30000 	sw	v1,0(a3)
  40f3cc:	8fbc0018 	lw	gp,24(sp)
  40f3d0:	8e220000 	lw	v0,0(s1)
  40f3d4:	00000000 	nop
  40f3d8:	8c430014 	lw	v1,20(v0)
  40f3dc:	00000000 	nop
  40f3e0:	0203182a 	slt	v1,s0,v1
  40f3e4:	1460ffe2 	bnez	v1,40f370 <Radius_retry_primary_timer+0x48>
  40f3e8:	00000000 	nop
  40f3ec:	8c4406d0 	lw	a0,1744(v0)
  40f3f0:	00000000 	nop
  40f3f4:	10800007 	beqz	a0,40f414 <Radius_retry_primary_timer+0xec>
  40f3f8:	3c060041 	lui	a2,0x41
  40f3fc:	8f99808c 	lw	t9,-32628(gp)
  40f400:	afa00010 	sw	zero,16(sp)
  40f404:	00002821 	move	a1,zero
  40f408:	24c6f328 	addiu	a2,a2,-3288
  40f40c:	0411d153 	bal	40395c <eloop_register_timeout>
  40f410:	02203821 	move	a3,s1
  40f414:	8fbf002c 	lw	ra,44(sp)
  40f418:	8fb10028 	lw	s1,40(sp)
  40f41c:	8fb00024 	lw	s0,36(sp)
  40f420:	03e00008 	jr	ra
  40f424:	27bd0030 	addiu	sp,sp,48
[31m  40f428:	8f9981d8 	lw	t9,printf[0m
  40f42c:	3c040041 	lui	a0,0x41
  40f430:	0320f809 	jalr	t9
--
  40f4f4:	27de2a34 	addiu	s8,s8,10804
  40f4f8:	8fb30020 	lw	s3,32(sp)
  40f4fc:	8e02000c 	lw	v0,12(s0)
  40f500:	00000000 	nop
  40f504:	0262102a 	slt	v0,s3,v0
  40f508:	1040008f 	beqz	v0,40f748 <Radius_client_timer+0x2ec>
  40f50c:	00000000 	nop
  40f510:	8e020010 	lw	v0,16(s0)
  40f514:	00000000 	nop
  40f518:	28420005 	slti	v0,v0,5
  40f51c:	14400019 	bnez	v0,40f584 <Radius_client_timer+0x128>
  40f520:	00000000 	nop
  40f524:	8e020004 	lw	v0,4(s0)
  40f528:	00000000 	nop
  40f52c:	14400015 	bnez	v0,40f584 <Radius_client_timer+0x128>
  40f530:	27a40020 	addiu	a0,sp,32
  40f534:	92020020 	lbu	v0,32(s0)
  40f538:	8ec30000 	lw	v1,0(s6)
  40f53c:	00021080 	sll	v0,v0,0x2
  40f540:	00821021 	addu	v0,a0,v0
  40f544:	8c440004 	lw	a0,4(v0)
  40f548:	2c630002 	sltiu	v1,v1,2
  40f54c:	24840001 	addiu	a0,a0,1
  40f550:	1460000c 	bnez	v1,40f584 <Radius_client_timer+0x128>
  40f554:	ac440004 	sw	a0,4(v0)
[31m  40f558:	8f9981d8 	lw	t9,printf[0m
  40f55c:	00000000 	nop
  40f560:	0320f809 	jalr	t9
  40f564:	02e02021 	move	a0,s7
  40f568:	8fbc0018 	lw	gp,24(sp)
  40f56c:	03c02021 	move	a0,s8
[31m  40f570:	8f9981d8 	lw	t9,printf[0m
  40f574:	00000000 	nop
  40f578:	0320f809 	jalr	t9
--
  40f654:	00463021 	addu	a2,v0,a2
  40f658:	8ca70000 	lw	a3,0(a1)
  40f65c:	8cc60000 	lw	a2,0(a2)
  40f660:	2463ffff 	addiu	v1,v1,-1
  40f664:	00031900 	sll	v1,v1,0x4
  40f668:	24c50010 	addiu	a1,a2,16
  40f66c:	00e31821 	addu	v1,a3,v1
  40f670:	0065182b 	sltu	v1,v1,a1
  40f674:	10600002 	beqz	v1,40f680 <Radius_client_timer+0x224>
  40f678:	00000000 	nop
  40f67c:	00e02821 	move	a1,a3
  40f680:	00042080 	sll	a0,a0,0x2
  40f684:	00441021 	addu	v0,v0,a0
  40f688:	ac450000 	sw	a1,0(v0)
  40f68c:	0c103c6f 	jal	40f1bc <Radius_change_server.isra.0>
  40f690:	02402021 	move	a0,s2
  40f694:	8fbc0018 	lw	gp,24(sp)
  40f698:	00000000 	nop
  40f69c:	8f82806c 	lw	v0,-32660(gp)
  40f6a0:	00000000 	nop
  40f6a4:	8c420000 	lw	v0,0(v0)
  40f6a8:	1600006d 	bnez	s0,40f860 <Radius_client_timer+0x404>
  40f6ac:	2c420002 	sltiu	v0,v0,2
  40f6b0:	1440000b 	bnez	v0,40f6e0 <Radius_client_timer+0x284>
  40f6b4:	00000000 	nop
[31m  40f6b8:	8f9981d8 	lw	t9,printf[0m
  40f6bc:	00000000 	nop
  40f6c0:	0320f809 	jalr	t9
  40f6c4:	02602021 	move	a0,s3
  40f6c8:	8fbc0018 	lw	gp,24(sp)
  40f6cc:	8e450008 	lw	a1,8(s2)
[31m  40f6d0:	8f9981d8 	lw	t9,printf[0m
  40f6d4:	00000000 	nop
  40f6d8:	0320f809 	jalr	t9
--
  40f7bc:	2843000a 	slti	v1,v0,10
  40f7c0:	1460ff56 	bnez	v1,40f51c <Radius_client_timer+0xc0>
  40f7c4:	28420005 	slti	v0,v0,5
  40f7c8:	8ec20000 	lw	v0,0(s6)
  40f7cc:	00000000 	nop
  40f7d0:	14400013 	bnez	v0,40f820 <Radius_client_timer+0x3c4>
  40f7d4:	00000000 	nop
  40f7d8:	12a0001d 	beqz	s5,40f850 <Radius_client_timer+0x3f4>
  40f7dc:	00000000 	nop
  40f7e0:	8e020024 	lw	v0,36(s0)
  40f7e4:	00000000 	nop
  40f7e8:	aea20024 	sw	v0,36(s5)
  40f7ec:	8e130024 	lw	s3,36(s0)
  40f7f0:	0c1039bc 	jal	40e6f0 <Radius_client_msg_free>
  40f7f4:	02002021 	move	a0,s0
  40f7f8:	8e4208f8 	lw	v0,2296(s2)
  40f7fc:	02608021 	move	s0,s3
  40f800:	8fbc0018 	lw	gp,24(sp)
  40f804:	8c43004c 	lw	v1,76(v0)
  40f808:	00000000 	nop
  40f80c:	2463ffff 	addiu	v1,v1,-1
  40f810:	1600ff39 	bnez	s0,40f4f8 <Radius_client_timer+0x9c>
  40f814:	ac43004c 	sw	v1,76(v0)
  40f818:	08103d68 	j	40f5a0 <Radius_client_timer+0x144>
  40f81c:	00000000 	nop
[31m  40f820:	8f9981d8 	lw	t9,printf[0m
  40f824:	00000000 	nop
  40f828:	0320f809 	jalr	t9
  40f82c:	02e02021 	move	a0,s7
  40f830:	8fbc0018 	lw	gp,24(sp)
  40f834:	3c020041 	lui	v0,0x41
  40f838:	8f9981bc 	lw	t9,-32324(gp)
  40f83c:	00000000 	nop
  40f840:	0320f809 	jalr	t9
  40f844:	244429e8 	addiu	a0,v0,10728
  40f848:	16a0ffe5 	bnez	s5,40f7e0 <Radius_client_timer+0x384>
  40f84c:	00000000 	nop
  40f850:	8e4208f8 	lw	v0,2296(s2)
  40f854:	8e130024 	lw	s3,36(s0)
  40f858:	08103dfc 	j	40f7f0 <Radius_client_timer+0x394>
  40f85c:	ac530048 	sw	s3,72(v0)
  40f860:	1440ff9f 	bnez	v0,40f6e0 <Radius_client_timer+0x284>
  40f864:	00000000 	nop
[31m  40f868:	8f9981d8 	lw	t9,printf[0m
  40f86c:	00000000 	nop
  40f870:	0320f809 	jalr	t9
  40f874:	02602021 	move	a0,s3
  40f878:	8fbc0018 	lw	gp,24(sp)
  40f87c:	8e450004 	lw	a1,4(s2)
  40f880:	02a02021 	move	a0,s5
[31m  40f884:	8f9981d8 	lw	t9,printf[0m
  40f888:	00000000 	nop
  40f88c:	0320f809 	jalr	t9
--
  40f950:	0203182a 	slt	v1,s0,v1
  40f954:	10600029 	beqz	v1,40f9fc <Radius_client_init+0x138>
  40f958:	00402021 	move	a0,v0
  40f95c:	8e2708f8 	lw	a3,2296(s1)
  40f960:	00101880 	sll	v1,s0,0x2
  40f964:	00e33821 	addu	a3,a3,v1
  40f968:	8ce40000 	lw	a0,0(a3)
  40f96c:	00000000 	nop
  40f970:	0481fff4 	bgez	a0,40f944 <Radius_client_init+0x80>
  40f974:	26080112 	addiu	t0,s0,274
  40f978:	00084080 	sll	t0,t0,0x2
  40f97c:	00482021 	addu	a0,v0,t0
  40f980:	8c840000 	lw	a0,0(a0)
  40f984:	00000000 	nop
  40f988:	1080ffef 	beqz	a0,40f948 <Radius_client_init+0x84>
  40f98c:	00000000 	nop
  40f990:	8c840000 	lw	a0,0(a0)
  40f994:	00000000 	nop
  40f998:	14800049 	bnez	a0,40fac0 <Radius_client_init+0x1fc>
  40f99c:	24050001 	li	a1,1
  40f9a0:	8e630000 	lw	v1,0(s3)
  40f9a4:	16000035 	bnez	s0,40fa7c <Radius_client_init+0x1b8>
  40f9a8:	2c630002 	sltiu	v1,v1,2
  40f9ac:	1460ffe6 	bnez	v1,40f948 <Radius_client_init+0x84>
  40f9b0:	02802021 	move	a0,s4
[31m  40f9b4:	8f9981d8 	lw	t9,printf[0m
  40f9b8:	00000000 	nop
  40f9bc:	0320f809 	jalr	t9
  40f9c0:	26100001 	addiu	s0,s0,1
  40f9c4:	8fbc0018 	lw	gp,24(sp)
  40f9c8:	8e250008 	lw	a1,8(s1)
  40f9cc:	3c040041 	lui	a0,0x41
[31m  40f9d0:	8f9981d8 	lw	t9,printf[0m
  40f9d4:	00000000 	nop
  40f9d8:	0320f809 	jalr	t9
--
  40fa20:	10800009 	beqz	a0,40fa48 <Radius_client_init+0x184>
  40fa24:	00008021 	move	s0,zero
  40fa28:	16e00007 	bnez	s7,40fa48 <Radius_client_init+0x184>
  40fa2c:	3c060041 	lui	a2,0x41
  40fa30:	8f99808c 	lw	t9,-32628(gp)
  40fa34:	afa00010 	sw	zero,16(sp)
  40fa38:	00002821 	move	a1,zero
  40fa3c:	24c6f328 	addiu	a2,a2,-3288
  40fa40:	0411cfc6 	bal	40395c <eloop_register_timeout>
  40fa44:	02203821 	move	a3,s1
  40fa48:	8fbf0054 	lw	ra,84(sp)
  40fa4c:	02001021 	move	v0,s0
  40fa50:	8fbe0050 	lw	s8,80(sp)
  40fa54:	8fb7004c 	lw	s7,76(sp)
  40fa58:	8fb60048 	lw	s6,72(sp)
  40fa5c:	8fb50044 	lw	s5,68(sp)
  40fa60:	8fb40040 	lw	s4,64(sp)
  40fa64:	8fb3003c 	lw	s3,60(sp)
  40fa68:	8fb20038 	lw	s2,56(sp)
  40fa6c:	8fb10034 	lw	s1,52(sp)
  40fa70:	8fb00030 	lw	s0,48(sp)
  40fa74:	03e00008 	jr	ra
  40fa78:	27bd0058 	addiu	sp,sp,88
  40fa7c:	1460ffb2 	bnez	v1,40f948 <Radius_client_init+0x84>
  40fa80:	00000000 	nop
[31m  40fa84:	8f9981d8 	lw	t9,printf[0m
  40fa88:	00000000 	nop
  40fa8c:	0320f809 	jalr	t9
  40fa90:	02802021 	move	a0,s4
  40fa94:	8fbc0018 	lw	gp,24(sp)
  40fa98:	8e250004 	lw	a1,4(s1)
  40fa9c:	26c42b38 	addiu	a0,s6,11064
[31m  40faa0:	8f9981d8 	lw	t9,printf[0m
  40faa4:	00000000 	nop
  40faa8:	0320f809 	jalr	t9
--
  40fb1c:	8fbc0018 	lw	gp,24(sp)
  40fb20:	8fa30028 	lw	v1,40(sp)
  40fb24:	1440000f 	bnez	v0,40fb64 <Radius_client_init+0x2a0>
  40fb28:	02a02821 	move	a1,s5
  40fb2c:	8e2208f8 	lw	v0,2296(s1)
  40fb30:	8f998050 	lw	t9,-32688(gp)
  40fb34:	00431821 	addu	v1,v0,v1
  40fb38:	8c640000 	lw	a0,0(v1)
  40fb3c:	02203021 	move	a2,s1
  40fb40:	0411cf58 	bal	4038a4 <eloop_register_read_sock>
  40fb44:	00003821 	move	a3,zero
  40fb48:	8fbc0018 	lw	gp,24(sp)
  40fb4c:	10400018 	beqz	v0,40fbb0 <Radius_client_init+0x2ec>
  40fb50:	00000000 	nop
  40fb54:	8e620000 	lw	v0,0(s3)
  40fb58:	00000000 	nop
  40fb5c:	1440002a 	bnez	v0,40fc08 <Radius_client_init+0x344>
  40fb60:	00000000 	nop
  40fb64:	8e220000 	lw	v0,0(s1)
  40fb68:	08103e52 	j	40f948 <Radius_client_init+0x84>
  40fb6c:	00000000 	nop
  40fb70:	8e620000 	lw	v0,0(s3)
  40fb74:	00000000 	nop
  40fb78:	1040ffb3 	beqz	v0,40fa48 <Radius_client_init+0x184>
  40fb7c:	2410ffff 	li	s0,-1
[31m  40fb80:	8f9981d8 	lw	t9,printf[0m
  40fb84:	3c040041 	lui	a0,0x41
  40fb88:	0320f809 	jalr	t9
  40fb8c:	248400f0 	addiu	a0,a0,240
  40fb90:	8fbc0018 	lw	gp,24(sp)
  40fb94:	3c040041 	lui	a0,0x41
  40fb98:	8f9981bc 	lw	t9,-32324(gp)
  40fb9c:	00000000 	nop
  40fba0:	0320f809 	jalr	t9
  40fba4:	24842bf4 	addiu	a0,a0,11252
  40fba8:	08103e92 	j	40fa48 <Radius_client_init+0x184>
  40fbac:	00000000 	nop
  40fbb0:	8e220000 	lw	v0,0(s1)
  40fbb4:	08103e52 	j	40f948 <Radius_client_init+0x84>
  40fbb8:	26520001 	addiu	s2,s2,1
[31m  40fbbc:	8f9981d8 	lw	t9,printf[0m
  40fbc0:	3c040041 	lui	a0,0x41
  40fbc4:	0320f809 	jalr	t9
  40fbc8:	248400f0 	addiu	a0,a0,240
  40fbcc:	8fbc0018 	lw	gp,24(sp)
  40fbd0:	3c040041 	lui	a0,0x41
  40fbd4:	24842c2c 	addiu	a0,a0,11308
[31m  40fbd8:	8f9981d8 	lw	t9,printf[0m
  40fbdc:	02402821 	move	a1,s2
  40fbe0:	0320f809 	jalr	t9
  40fbe4:	00008021 	move	s0,zero
  40fbe8:	8e240000 	lw	a0,0(s1)
  40fbec:	8fbc0018 	lw	gp,24(sp)
  40fbf0:	8c8406d0 	lw	a0,1744(a0)
  40fbf4:	00000000 	nop
  40fbf8:	1480ff8b 	bnez	a0,40fa28 <Radius_client_init+0x164>
  40fbfc:	00000000 	nop
  40fc00:	08103e92 	j	40fa48 <Radius_client_init+0x184>
  40fc04:	00000000 	nop
[31m  40fc08:	8f9981d8 	lw	t9,printf[0m
  40fc0c:	00000000 	nop
  40fc10:	0320f809 	jalr	t9
  40fc14:	02802021 	move	a0,s4
  40fc18:	8fbc0018 	lw	gp,24(sp)
  40fc1c:	27c42bac 	addiu	a0,s8,11180
[31m  40fc20:	8f9981d8 	lw	t9,printf[0m
  40fc24:	00000000 	nop
  40fc28:	0320f809 	jalr	t9

[0m
[[0;33m*[0m] Function [0;33mprintf[0m used [0;33m372[0m times [0;33mrt2860apd[0m

