[0m
[[0;33m*[0m] Function [0;33mfprintf[0m tear down of [0;33mhnap_push_service[0m

  401aa4:	0320f809 	jalr	t9
  401aa8:	24a573e8 	addiu	a1,a1,29672
  401aac:	8fbc0010 	lw	gp,16(sp)
  401ab0:	8f848018 	lw	a0,-32744(gp)
  401ab4:	8c827034 	lw	v0,28724(a0)
  401ab8:	10400006 	beqz	v0,401ad4 <_ftext@@Base+0x194>
  401abc:	8f99804c 	lw	t9,-32692(gp)
  401ac0:	13200004 	beqz	t9,401ad4 <_ftext@@Base+0x194>
  401ac4:	8fbf001c 	lw	ra,28(sp)
  401ac8:	24847034 	addiu	a0,a0,28724
  401acc:	03200008 	jr	t9
  401ad0:	27bd0020 	addiu	sp,sp,32
  401ad4:	8fbf001c 	lw	ra,28(sp)
  401ad8:	03e00008 	jr	ra
  401adc:	27bd0020 	addiu	sp,sp,32
  401ae0:	27bdffe0 	addiu	sp,sp,-32
  401ae4:	afbf001c 	sw	ra,28(sp)
  401ae8:	3c1c0043 	lui	gp,0x43
  401aec:	279cf1a0 	addiu	gp,gp,-3680
  401af0:	afbc0010 	sw	gp,16(sp)
  401af4:	8f82809c 	lw	v0,-32612(gp)
  401af8:	8c440000 	lw	a0,0(v0)
  401afc:	3c050041 	lui	a1,0x41
  401b00:	24a54750 	addiu	a1,a1,18256
  401b04:	3c060041 	lui	a2,0x41
[31m  401b08:	8f998154 	lw	t9,fprintf[0m
  401b0c:	0320f809 	jalr	t9
  401b10:	24c64af8 	addiu	a2,a2,19192
--
  401cec:	26051ae0 	addiu	a1,s0,6880
  401cf0:	8fbc0010 	lw	gp,16(sp)
  401cf4:	2404000d 	li	a0,13
  401cf8:	8f99811c 	lw	t9,-32484(gp)
  401cfc:	0320f809 	jalr	t9
  401d00:	24050001 	li	a1,1
  401d04:	8fbc0010 	lw	gp,16(sp)
  401d08:	2404000b 	li	a0,11
  401d0c:	3c050040 	lui	a1,0x40
  401d10:	8f99811c 	lw	t9,-32484(gp)
  401d14:	0320f809 	jalr	t9
  401d18:	24a522ac 	addiu	a1,a1,8876
  401d1c:	8fbc0010 	lw	gp,16(sp)
  401d20:	8f9981d4 	lw	t9,-32300(gp)
  401d24:	0320f809 	jalr	t9
  401d28:	00000000 	nop
  401d2c:	8fbc0010 	lw	gp,16(sp)
  401d30:	2403ffff 	li	v1,-1
  401d34:	1443000c 	bne	v0,v1,401d68 <main@@Base+0xf4>
  401d38:	3c040a55 	lui	a0,0xa55
  401d3c:	8f82809c 	lw	v0,-32612(gp)
  401d40:	8c440000 	lw	a0,0(v0)
  401d44:	3c050041 	lui	a1,0x41
  401d48:	24a54778 	addiu	a1,a1,18296
  401d4c:	3c060041 	lui	a2,0x41
[31m  401d50:	8f998154 	lw	t9,fprintf[0m
  401d54:	0320f809 	jalr	t9
  401d58:	24c64ae0 	addiu	a2,a2,19168
  401d5c:	8fbc0010 	lw	gp,16(sp)
  401d60:	100000d5 	b	4020b8 <main@@Base+0x444>
  401d64:	2415ffff 	li	s5,-1
  401d68:	8f99815c 	lw	t9,-32420(gp)
  401d6c:	0320f809 	jalr	t9
  401d70:	3484a00c 	ori	a0,a0,0xa00c
  401d74:	8fbc0010 	lw	gp,16(sp)
  401d78:	1440000c 	bnez	v0,401dac <main@@Base+0x138>
  401d7c:	00408821 	move	s1,v0
  401d80:	8f82809c 	lw	v0,-32612(gp)
  401d84:	8c440000 	lw	a0,0(v0)
  401d88:	3c050041 	lui	a1,0x41
  401d8c:	24a547ac 	addiu	a1,a1,18348
  401d90:	3c060041 	lui	a2,0x41
[31m  401d94:	8f998154 	lw	t9,fprintf[0m
  401d98:	0320f809 	jalr	t9
  401d9c:	24c64ae0 	addiu	a2,a2,19168
  401da0:	8fbc0010 	lw	gp,16(sp)
  401da4:	100000c4 	b	4020b8 <main@@Base+0x444>
  401da8:	2415ffff 	li	s5,-1
  401dac:	3c040005 	lui	a0,0x5
  401db0:	8f9981b4 	lw	t9,-32332(gp)
  401db4:	0320f809 	jalr	t9
  401db8:	34842b16 	ori	a0,a0,0x2b16
  401dbc:	8fbc0010 	lw	gp,16(sp)
  401dc0:	8f83819c 	lw	v1,-32356(gp)
  401dc4:	1440000c 	bnez	v0,401df8 <main@@Base+0x184>
  401dc8:	ac620000 	sw	v0,0(v1)
  401dcc:	8f82809c 	lw	v0,-32612(gp)
  401dd0:	8c440000 	lw	a0,0(v0)
  401dd4:	3c050041 	lui	a1,0x41
  401dd8:	24a547e0 	addiu	a1,a1,18400
  401ddc:	3c060041 	lui	a2,0x41
[31m  401de0:	8f998154 	lw	t9,fprintf[0m
  401de4:	0320f809 	jalr	t9
  401de8:	24c64ae0 	addiu	a2,a2,19168
--
  402068:	00000000 	nop
  40206c:	8fbc0010 	lw	gp,16(sp)
  402070:	8e250020 	lw	a1,32(s1)
  402074:	8f99808c 	lw	t9,-32628(gp)
  402078:	0320f809 	jalr	t9
  40207c:	00402021 	move	a0,v0
  402080:	0c1006f4 	jal	401bd0 <_ftext@@Base+0x290>
  402084:	00002021 	move	a0,zero
  402088:	8fbc0010 	lw	gp,16(sp)
  40208c:	10000005 	b	4020a4 <main@@Base+0x430>
  402090:	afa00028 	sw	zero,40(sp)
  402094:	8f998208 	lw	t9,-32248(gp)
  402098:	0320f809 	jalr	t9
  40209c:	00000000 	nop
  4020a0:	8fbc0010 	lw	gp,16(sp)
  4020a4:	8e027400 	lw	v0,29696(s0)
  4020a8:	1040ff7c 	beqz	v0,401e9c <main@@Base+0x228>
  4020ac:	00002821 	move	a1,zero
  4020b0:	10000067 	b	402250 <main@@Base+0x5dc>
  4020b4:	0000a821 	move	s5,zero
  4020b8:	8f82809c 	lw	v0,-32612(gp)
  4020bc:	8c440000 	lw	a0,0(v0)
  4020c0:	3c050041 	lui	a1,0x41
  4020c4:	24a54840 	addiu	a1,a1,18496
  4020c8:	3c060041 	lui	a2,0x41
[31m  4020cc:	8f998154 	lw	t9,fprintf[0m
  4020d0:	0320f809 	jalr	t9
  4020d4:	24c64ae0 	addiu	a2,a2,19168
--
  4020e0:	8f998090 	lw	t9,-32624(gp)
  4020e4:	0320f809 	jalr	t9
  4020e8:	00000000 	nop
  4020ec:	8fbc0010 	lw	gp,16(sp)
  4020f0:	8f8281c8 	lw	v0,-32312(gp)
  4020f4:	90420005 	lbu	v0,5(v0)
  4020f8:	1040000d 	beqz	v0,402130 <main@@Base+0x4bc>
  4020fc:	00000000 	nop
  402100:	8f9081c8 	lw	s0,-32312(gp)
  402104:	8f998090 	lw	t9,-32624(gp)
  402108:	0320f809 	jalr	t9
  40210c:	02002021 	move	a0,s0
  402110:	8fbc0010 	lw	gp,16(sp)
  402114:	8f9981d8 	lw	t9,-32296(gp)
  402118:	0320f809 	jalr	t9
  40211c:	3404c350 	li	a0,0xc350
  402120:	8fbc0010 	lw	gp,16(sp)
  402124:	92020005 	lbu	v0,5(s0)
  402128:	1440fff6 	bnez	v0,402104 <main@@Base+0x490>
  40212c:	00000000 	nop
  402130:	8f82809c 	lw	v0,-32612(gp)
  402134:	8c440000 	lw	a0,0(v0)
  402138:	3c050041 	lui	a1,0x41
  40213c:	24a5487c 	addiu	a1,a1,18556
  402140:	3c060041 	lui	a2,0x41
[31m  402144:	8f998154 	lw	t9,fprintf[0m
  402148:	0320f809 	jalr	t9
  40214c:	24c64ae0 	addiu	a2,a2,19168
--
  4022f8:	afb10054 	sw	s1,84(sp)
  4022fc:	afb00050 	sw	s0,80(sp)
  402300:	3c1c0043 	lui	gp,0x43
  402304:	279cf1a0 	addiu	gp,gp,-3680
  402308:	afbc0020 	sw	gp,32(sp)
  40230c:	00809021 	move	s2,a0
  402310:	00a08821 	move	s1,a1
  402314:	3c020041 	lui	v0,0x41
  402318:	90424ac0 	lbu	v0,19136(v0)
  40231c:	a3a20028 	sb	v0,40(sp)
  402320:	27a40029 	addiu	a0,sp,41
  402324:	00002821 	move	a1,zero
  402328:	8f9980d4 	lw	t9,-32556(gp)
  40232c:	0320f809 	jalr	t9
  402330:	2406001f 	li	a2,31
  402334:	8fbc0020 	lw	gp,32(sp)
  402338:	12400003 	beqz	s2,402348 <main@@Base+0x6d4>
  40233c:	afa00048 	sw	zero,72(sp)
  402340:	1620000b 	bnez	s1,402370 <main@@Base+0x6fc>
  402344:	27a50028 	addiu	a1,sp,40
  402348:	8f82809c 	lw	v0,-32612(gp)
  40234c:	8c440000 	lw	a0,0(v0)
  402350:	3c050041 	lui	a1,0x41
  402354:	24a54904 	addiu	a1,a1,18692
  402358:	3c060041 	lui	a2,0x41
[31m  40235c:	8f998154 	lw	t9,fprintf[0m
  402360:	0320f809 	jalr	t9
  402364:	24c64b04 	addiu	a2,a2,19204
  402368:	10000059 	b	4024d0 <main@@Base+0x85c>
  40236c:	2402ffff 	li	v0,-1
  402370:	02202021 	move	a0,s1
  402374:	8f998068 	lw	t9,-32664(gp)
  402378:	0320f809 	jalr	t9
  40237c:	27a60048 	addiu	a2,sp,72
  402380:	8fbc0020 	lw	gp,32(sp)
  402384:	04400008 	bltz	v0,4023a8 <main@@Base+0x734>
  402388:	3c050041 	lui	a1,0x41
  40238c:	8f82819c 	lw	v0,-32356(gp)
  402390:	8c500000 	lw	s0,0(v0)
  402394:	92020005 	lbu	v0,5(s0)
  402398:	1440000d 	bnez	v0,4023d0 <main@@Base+0x75c>
  40239c:	24030001 	li	v1,1
  4023a0:	10000012 	b	4023ec <main@@Base+0x778>
  4023a4:	00000000 	nop
  4023a8:	8f82809c 	lw	v0,-32612(gp)
  4023ac:	8c440000 	lw	a0,0(v0)
  4023b0:	24a54934 	addiu	a1,a1,18740
  4023b4:	3c060041 	lui	a2,0x41
  4023b8:	24c64b04 	addiu	a2,a2,19204
[31m  4023bc:	8f998154 	lw	t9,fprintf[0m
  4023c0:	0320f809 	jalr	t9
  4023c4:	02203821 	move	a3,s1
  4023c8:	10000041 	b	4024d0 <main@@Base+0x85c>
  4023cc:	2402fffe 	li	v0,-2
  4023d0:	3402844f 	li	v0,0x844f
  4023d4:	02021021 	addu	v0,s0,v0
  4023d8:	3406844f 	li	a2,0x844f
  4023dc:	2405000a 	li	a1,10
  4023e0:	90440005 	lbu	a0,5(v0)
  4023e4:	14800005 	bnez	a0,4023fc <main@@Base+0x788>
  4023e8:	00408021 	move	s0,v0
  4023ec:	16000010 	bnez	s0,402430 <main@@Base+0x7bc>
  4023f0:	00002821 	move	a1,zero
  4023f4:	10000004 	b	402408 <main@@Base+0x794>
  4023f8:	00000000 	nop
  4023fc:	24630001 	addiu	v1,v1,1
  402400:	1465fff7 	bne	v1,a1,4023e0 <main@@Base+0x76c>
  402404:	00461021 	addu	v0,v0,a2
  402408:	8f82809c 	lw	v0,-32612(gp)
  40240c:	8c440000 	lw	a0,0(v0)
  402410:	3c050041 	lui	a1,0x41
  402414:	24a54968 	addiu	a1,a1,18792
  402418:	3c060041 	lui	a2,0x41
[31m  40241c:	8f998154 	lw	t9,fprintf[0m
  402420:	0320f809 	jalr	t9
  402424:	24c64b04 	addiu	a2,a2,19204
--
  4042a0:	009e2021 	addu	a0,a0,s8
  4042a4:	248414f0 	addiu	a0,a0,5360
  4042a8:	0c100ba5 	jal	402e94 <ixmlAppendNewElement@@Base+0x1fc>
  4042ac:	02e42021 	addu	a0,s7,a0
  4042b0:	8fbc0010 	lw	gp,16(sp)
  4042b4:	0040a021 	move	s4,v0
  4042b8:	8e300000 	lw	s0,0(s1)
  4042bc:	3c020005 	lui	v0,0x5
  4042c0:	34425830 	ori	v0,v0,0x5830
  4042c4:	005d1021 	addu	v0,v0,sp
  4042c8:	8c440000 	lw	a0,0(v0)
  4042cc:	8f99806c 	lw	t9,-32660(gp)
  4042d0:	0320f809 	jalr	t9
  4042d4:	00000000 	nop
  4042d8:	8fbc0010 	lw	gp,16(sp)
  4042dc:	16020013 	bne	s0,v0,40432c <ReviewPolicyFromFile@@Base+0x1384>
  4042e0:	3c020005 	lui	v0,0x5
  4042e4:	16600011 	bnez	s3,40432c <ReviewPolicyFromFile@@Base+0x1384>
  4042e8:	00000000 	nop
  4042ec:	16800010 	bnez	s4,404330 <ReviewPolicyFromFile@@Base+0x1388>
  4042f0:	34425834 	ori	v0,v0,0x5834
  4042f4:	8f82809c 	lw	v0,-32612(gp)
  4042f8:	8c440000 	lw	a0,0(v0)
  4042fc:	3c050041 	lui	a1,0x41
  404300:	8ec60000 	lw	a2,0(s6)
[31m  404304:	8f998154 	lw	t9,fprintf[0m
  404308:	0320f809 	jalr	t9
  40430c:	24a54cf8 	addiu	a1,a1,19704
  404310:	8fbc0010 	lw	gp,16(sp)
  404314:	24040001 	li	a0,1
  404318:	3c030005 	lui	v1,0x5
  40431c:	34635868 	ori	v1,v1,0x5868
  404320:	007d1821 	addu	v1,v1,sp
  404324:	100001e8 	b	404ac8 <ReviewPolicyFromFile@@Base+0x1b20>
  404328:	ac640000 	sw	a0,0(v1)
  40432c:	34425834 	ori	v0,v0,0x5834
  404330:	005d1021 	addu	v0,v0,sp
  404334:	8c440000 	lw	a0,0(v0)
  404338:	8f99806c 	lw	t9,-32660(gp)
  40433c:	0320f809 	jalr	t9
  404340:	00000000 	nop
  404344:	8fbc0010 	lw	gp,16(sp)
  404348:	16020013 	bne	s0,v0,404398 <ReviewPolicyFromFile@@Base+0x13f0>
  40434c:	3c020005 	lui	v0,0x5
  404350:	16600011 	bnez	s3,404398 <ReviewPolicyFromFile@@Base+0x13f0>
  404354:	00000000 	nop
  404358:	16800010 	bnez	s4,40439c <ReviewPolicyFromFile@@Base+0x13f4>
  40435c:	34425838 	ori	v0,v0,0x5838
  404360:	8f82809c 	lw	v0,-32612(gp)
  404364:	8c440000 	lw	a0,0(v0)
  404368:	3c050041 	lui	a1,0x41
  40436c:	8ec60000 	lw	a2,0(s6)
[31m  404370:	8f998154 	lw	t9,fprintf[0m
  404374:	0320f809 	jalr	t9
  404378:	24a54d3c 	addiu	a1,a1,19772
  40437c:	8fbc0010 	lw	gp,16(sp)
  404380:	24040001 	li	a0,1
  404384:	3c030005 	lui	v1,0x5
  404388:	34635868 	ori	v1,v1,0x5868
  40438c:	007d1821 	addu	v1,v1,sp
  404390:	100001cd 	b	404ac8 <ReviewPolicyFromFile@@Base+0x1b20>
  404394:	ac640000 	sw	a0,0(v1)
  404398:	34425838 	ori	v0,v0,0x5838
  40439c:	005d1021 	addu	v0,v0,sp
  4043a0:	8c440000 	lw	a0,0(v0)
  4043a4:	8f99806c 	lw	t9,-32660(gp)
  4043a8:	0320f809 	jalr	t9
  4043ac:	00000000 	nop
  4043b0:	8fbc0010 	lw	gp,16(sp)
  4043b4:	16020013 	bne	s0,v0,404404 <ReviewPolicyFromFile@@Base+0x145c>
  4043b8:	3c020005 	lui	v0,0x5
  4043bc:	16600011 	bnez	s3,404404 <ReviewPolicyFromFile@@Base+0x145c>
  4043c0:	00000000 	nop
  4043c4:	16800010 	bnez	s4,404408 <ReviewPolicyFromFile@@Base+0x1460>
  4043c8:	3442583c 	ori	v0,v0,0x583c
  4043cc:	8f82809c 	lw	v0,-32612(gp)
  4043d0:	8c440000 	lw	a0,0(v0)
  4043d4:	3c050041 	lui	a1,0x41
  4043d8:	8ec60000 	lw	a2,0(s6)
[31m  4043dc:	8f998154 	lw	t9,fprintf[0m
  4043e0:	0320f809 	jalr	t9
  4043e4:	24a54d80 	addiu	a1,a1,19840
  4043e8:	8fbc0010 	lw	gp,16(sp)
  4043ec:	24040001 	li	a0,1
  4043f0:	3c030005 	lui	v1,0x5
  4043f4:	3463586c 	ori	v1,v1,0x586c
  4043f8:	007d1821 	addu	v1,v1,sp
  4043fc:	100001b2 	b	404ac8 <ReviewPolicyFromFile@@Base+0x1b20>
  404400:	ac640000 	sw	a0,0(v1)
  404404:	3442583c 	ori	v0,v0,0x583c
  404408:	005d1021 	addu	v0,v0,sp
  40440c:	8c440000 	lw	a0,0(v0)
  404410:	8f99806c 	lw	t9,-32660(gp)
  404414:	0320f809 	jalr	t9
  404418:	00000000 	nop
  40441c:	8fbc0010 	lw	gp,16(sp)
  404420:	16020013 	bne	s0,v0,404470 <ReviewPolicyFromFile@@Base+0x14c8>
  404424:	3c020005 	lui	v0,0x5
  404428:	16600011 	bnez	s3,404470 <ReviewPolicyFromFile@@Base+0x14c8>
  40442c:	00000000 	nop
  404430:	16800010 	bnez	s4,404474 <ReviewPolicyFromFile@@Base+0x14cc>
  404434:	34425840 	ori	v0,v0,0x5840
  404438:	8f82809c 	lw	v0,-32612(gp)
  40443c:	8c440000 	lw	a0,0(v0)
  404440:	3c050041 	lui	a1,0x41
  404444:	8ec60000 	lw	a2,0(s6)
[31m  404448:	8f998154 	lw	t9,fprintf[0m
  40444c:	0320f809 	jalr	t9
  404450:	24a54dc4 	addiu	a1,a1,19908
  404454:	8fbc0010 	lw	gp,16(sp)
  404458:	24040001 	li	a0,1
  40445c:	3c030005 	lui	v1,0x5
  404460:	3463586c 	ori	v1,v1,0x586c
  404464:	007d1821 	addu	v1,v1,sp
  404468:	10000197 	b	404ac8 <ReviewPolicyFromFile@@Base+0x1b20>
  40446c:	ac640000 	sw	a0,0(v1)
  404470:	34425840 	ori	v0,v0,0x5840
  404474:	005d1021 	addu	v0,v0,sp
  404478:	8c440000 	lw	a0,0(v0)
  40447c:	8f99806c 	lw	t9,-32660(gp)
  404480:	0320f809 	jalr	t9
  404484:	00000000 	nop
  404488:	8fbc0010 	lw	gp,16(sp)
  40448c:	16020013 	bne	s0,v0,4044dc <ReviewPolicyFromFile@@Base+0x1534>
  404490:	3c020005 	lui	v0,0x5
  404494:	16600011 	bnez	s3,4044dc <ReviewPolicyFromFile@@Base+0x1534>
  404498:	00000000 	nop
  40449c:	16800010 	bnez	s4,4044e0 <ReviewPolicyFromFile@@Base+0x1538>
  4044a0:	34425844 	ori	v0,v0,0x5844
  4044a4:	8f82809c 	lw	v0,-32612(gp)
  4044a8:	8c440000 	lw	a0,0(v0)
  4044ac:	3c050041 	lui	a1,0x41
  4044b0:	8ec60000 	lw	a2,0(s6)
[31m  4044b4:	8f998154 	lw	t9,fprintf[0m
  4044b8:	0320f809 	jalr	t9
  4044bc:	24a54e00 	addiu	a1,a1,19968
  4044c0:	8fbc0010 	lw	gp,16(sp)
  4044c4:	24040001 	li	a0,1
  4044c8:	3c030005 	lui	v1,0x5
  4044cc:	34635870 	ori	v1,v1,0x5870
  4044d0:	007d1821 	addu	v1,v1,sp
  4044d4:	1000017c 	b	404ac8 <ReviewPolicyFromFile@@Base+0x1b20>
  4044d8:	ac640000 	sw	a0,0(v1)
  4044dc:	34425844 	ori	v0,v0,0x5844
  4044e0:	005d1021 	addu	v0,v0,sp
  4044e4:	8c440000 	lw	a0,0(v0)
  4044e8:	8f99806c 	lw	t9,-32660(gp)
  4044ec:	0320f809 	jalr	t9
  4044f0:	00000000 	nop
  4044f4:	8fbc0010 	lw	gp,16(sp)
  4044f8:	16020013 	bne	s0,v0,404548 <ReviewPolicyFromFile@@Base+0x15a0>
  4044fc:	3c020005 	lui	v0,0x5
  404500:	16600011 	bnez	s3,404548 <ReviewPolicyFromFile@@Base+0x15a0>
  404504:	00000000 	nop
  404508:	16800010 	bnez	s4,40454c <ReviewPolicyFromFile@@Base+0x15a4>
  40450c:	34425848 	ori	v0,v0,0x5848
  404510:	8f82809c 	lw	v0,-32612(gp)
  404514:	8c440000 	lw	a0,0(v0)
  404518:	3c050041 	lui	a1,0x41
  40451c:	8ec60000 	lw	a2,0(s6)
[31m  404520:	8f998154 	lw	t9,fprintf[0m
  404524:	0320f809 	jalr	t9
  404528:	24a54e3c 	addiu	a1,a1,20028
  40452c:	8fbc0010 	lw	gp,16(sp)
  404530:	24040001 	li	a0,1
  404534:	3c030005 	lui	v1,0x5
  404538:	34635870 	ori	v1,v1,0x5870
  40453c:	007d1821 	addu	v1,v1,sp
  404540:	10000161 	b	404ac8 <ReviewPolicyFromFile@@Base+0x1b20>
  404544:	ac640000 	sw	a0,0(v1)
  404548:	34425848 	ori	v0,v0,0x5848
  40454c:	005d1021 	addu	v0,v0,sp
  404550:	8c440000 	lw	a0,0(v0)
  404554:	8f99806c 	lw	t9,-32660(gp)
  404558:	0320f809 	jalr	t9
  40455c:	00000000 	nop
  404560:	8fbc0010 	lw	gp,16(sp)
  404564:	16020013 	bne	s0,v0,4045b4 <ReviewPolicyFromFile@@Base+0x160c>
  404568:	3c020005 	lui	v0,0x5
  40456c:	16600011 	bnez	s3,4045b4 <ReviewPolicyFromFile@@Base+0x160c>
  404570:	00000000 	nop
  404574:	16800010 	bnez	s4,4045b8 <ReviewPolicyFromFile@@Base+0x1610>
  404578:	3442584c 	ori	v0,v0,0x584c
  40457c:	8f82809c 	lw	v0,-32612(gp)
  404580:	8c440000 	lw	a0,0(v0)
  404584:	3c050041 	lui	a1,0x41
  404588:	8ec60000 	lw	a2,0(s6)
[31m  40458c:	8f998154 	lw	t9,fprintf[0m
  404590:	0320f809 	jalr	t9
  404594:	24a54e80 	addiu	a1,a1,20096
  404598:	8fbc0010 	lw	gp,16(sp)
  40459c:	24040001 	li	a0,1
  4045a0:	3c030005 	lui	v1,0x5
  4045a4:	34635868 	ori	v1,v1,0x5868
  4045a8:	007d1821 	addu	v1,v1,sp
  4045ac:	10000146 	b	404ac8 <ReviewPolicyFromFile@@Base+0x1b20>
  4045b0:	ac640000 	sw	a0,0(v1)
  4045b4:	3442584c 	ori	v0,v0,0x584c
  4045b8:	005d1021 	addu	v0,v0,sp
  4045bc:	8c440000 	lw	a0,0(v0)
  4045c0:	8f99806c 	lw	t9,-32660(gp)
  4045c4:	0320f809 	jalr	t9
  4045c8:	00000000 	nop
  4045cc:	8fbc0010 	lw	gp,16(sp)
  4045d0:	16020013 	bne	s0,v0,404620 <ReviewPolicyFromFile@@Base+0x1678>
  4045d4:	3c020005 	lui	v0,0x5
  4045d8:	16600011 	bnez	s3,404620 <ReviewPolicyFromFile@@Base+0x1678>
  4045dc:	00000000 	nop
  4045e0:	16800010 	bnez	s4,404624 <ReviewPolicyFromFile@@Base+0x167c>
  4045e4:	34425850 	ori	v0,v0,0x5850
  4045e8:	8f82809c 	lw	v0,-32612(gp)
  4045ec:	8c440000 	lw	a0,0(v0)
  4045f0:	3c050041 	lui	a1,0x41
  4045f4:	8ec60000 	lw	a2,0(s6)
[31m  4045f8:	8f998154 	lw	t9,fprintf[0m
  4045fc:	0320f809 	jalr	t9
  404600:	24a54ec4 	addiu	a1,a1,20164
--
  406c70:	27a40071 	addiu	a0,sp,113
  406c74:	00002821 	move	a1,zero
  406c78:	8f9980d4 	lw	t9,-32556(gp)
  406c7c:	0320f809 	jalr	t9
  406c80:	240600ff 	li	a2,255
  406c84:	8fbc0020 	lw	gp,32(sp)
  406c88:	02602021 	move	a0,s3
  406c8c:	8f99812c 	lw	t9,-32468(gp)
  406c90:	0320f809 	jalr	t9
  406c94:	02002821 	move	a1,s0
  406c98:	8fbc0020 	lw	gp,32(sp)
  406c9c:	10400007 	beqz	v0,406cbc <NotifierSettingsCheck@@Base+0x244>
  406ca0:	00402021 	move	a0,v0
  406ca4:	02e02821 	move	a1,s7
  406ca8:	27a60070 	addiu	a2,sp,112
  406cac:	8f998118 	lw	t9,-32488(gp)
  406cb0:	0320f809 	jalr	t9
  406cb4:	24070100 	li	a3,256
  406cb8:	8fbc0020 	lw	gp,32(sp)
  406cbc:	8f82809c 	lw	v0,-32612(gp)
  406cc0:	8c440000 	lw	a0,0(v0)
  406cc4:	27a20070 	addiu	v0,sp,112
  406cc8:	afa20010 	sw	v0,16(sp)
  406ccc:	02c02821 	move	a1,s6
  406cd0:	02803021 	move	a2,s4
[31m  406cd4:	8f998154 	lw	t9,fprintf[0m
  406cd8:	0320f809 	jalr	t9
  406cdc:	02203821 	move	a3,s1
--
  406f1c:	8fa40598 	lw	a0,1432(sp)
  406f20:	8fa5059c 	lw	a1,1436(sp)
  406f24:	8fa605a0 	lw	a2,1440(sp)
  406f28:	8f9981a0 	lw	t9,-32352(gp)
  406f2c:	0320f809 	jalr	t9
  406f30:	24070001 	li	a3,1
  406f34:	8fbc0020 	lw	gp,32(sp)
  406f38:	27a20170 	addiu	v0,sp,368
  406f3c:	afa2057c 	sw	v0,1404(sp)
  406f40:	27a30070 	addiu	v1,sp,112
  406f44:	afa3058c 	sw	v1,1420(sp)
  406f48:	afa30010 	sw	v1,16(sp)
  406f4c:	8fa20584 	lw	v0,1412(sp)
  406f50:	afa20014 	sw	v0,20(sp)
  406f54:	8fa4057c 	lw	a0,1404(sp)
  406f58:	8fa605a4 	lw	a2,1444(sp)
  406f5c:	8fa70574 	lw	a3,1396(sp)
  406f60:	8f9981ec 	lw	t9,-32276(gp)
  406f64:	0320f809 	jalr	t9
  406f68:	24050100 	li	a1,256
  406f6c:	8fbc0020 	lw	gp,32(sp)
  406f70:	8f83809c 	lw	v1,-32612(gp)
  406f74:	8c640000 	lw	a0,0(v1)
  406f78:	8fa505a8 	lw	a1,1448(sp)
  406f7c:	8fa6057c 	lw	a2,1404(sp)
[31m  406f80:	8f998154 	lw	t9,fprintf[0m
  406f84:	0320f809 	jalr	t9
  406f88:	00000000 	nop
--
  406ff4:	0320f809 	jalr	t9
  406ff8:	24a55440 	addiu	a1,a1,21568
  406ffc:	8fbc0020 	lw	gp,32(sp)
  407000:	27a30370 	addiu	v1,sp,880
  407004:	afa30574 	sw	v1,1396(sp)
  407008:	8fa2058c 	lw	v0,1420(sp)
  40700c:	afa20010 	sw	v0,16(sp)
  407010:	8fa30584 	lw	v1,1412(sp)
  407014:	afa30014 	sw	v1,20(sp)
  407018:	8fa2057c 	lw	v0,1404(sp)
  40701c:	afa20018 	sw	v0,24(sp)
  407020:	8fa305ac 	lw	v1,1452(sp)
  407024:	afa3001c 	sw	v1,28(sp)
  407028:	8fa40574 	lw	a0,1396(sp)
  40702c:	240501ff 	li	a1,511
  407030:	3c060041 	lui	a2,0x41
  407034:	8fa70588 	lw	a3,1416(sp)
  407038:	8f9981ec 	lw	t9,-32276(gp)
  40703c:	0320f809 	jalr	t9
  407040:	24c65454 	addiu	a2,a2,21588
  407044:	8fbc0020 	lw	gp,32(sp)
  407048:	8f82809c 	lw	v0,-32612(gp)
  40704c:	8c440000 	lw	a0,0(v0)
  407050:	3c050041 	lui	a1,0x41
  407054:	8fa60574 	lw	a2,1396(sp)
[31m  407058:	8f998154 	lw	t9,fprintf[0m
  40705c:	0320f809 	jalr	t9
  407060:	24a554ec 	addiu	a1,a1,21740
--
  4087f4:	8f99806c 	lw	t9,-32660(gp)
  4087f8:	0320f809 	jalr	t9
  4087fc:	0040a821 	move	s5,v0
  408800:	8fbc0028 	lw	gp,40(sp)
  408804:	16020073 	bne	s0,v0,4089d4 <PushDCHEventNotifyCheck@@Base+0x17c4>
  408808:	3c030005 	lui	v1,0x5
  40880c:	16600071 	bnez	s3,4089d4 <PushDCHEventNotifyCheck@@Base+0x17c4>
  408810:	00000000 	nop
  408814:	16a00070 	bnez	s5,4089d8 <PushDCHEventNotifyCheck@@Base+0x17c8>
  408818:	34635f94 	ori	v1,v1,0x5f94
  40881c:	3c050005 	lui	a1,0x5
  408820:	02e52021 	addu	a0,s7,a1
  408824:	3c020041 	lui	v0,0x41
  408828:	90425eb0 	lbu	v0,24240(v0)
  40882c:	a0825854 	sb	v0,22612(a0)
  408830:	24845855 	addiu	a0,a0,22613
  408834:	00002821 	move	a1,zero
  408838:	8f9980d4 	lw	t9,-32556(gp)
  40883c:	0320f809 	jalr	t9
  408840:	240600ff 	li	a2,255
  408844:	8fbc0028 	lw	gp,40(sp)
  408848:	8f82809c 	lw	v0,-32612(gp)
  40884c:	8c440000 	lw	a0,0(v0)
  408850:	3c050041 	lui	a1,0x41
  408854:	8fc60000 	lw	a2,0(s8)
[31m  408858:	8f998154 	lw	t9,fprintf[0m
  40885c:	0320f809 	jalr	t9
  408860:	24a554fc 	addiu	a1,a1,21756
--
  4089e0:	8f99806c 	lw	t9,-32660(gp)
  4089e4:	0320f809 	jalr	t9
  4089e8:	00000000 	nop
  4089ec:	8fbc0028 	lw	gp,40(sp)
  4089f0:	16020073 	bne	s0,v0,408bc0 <PushDCHEventNotifyCheck@@Base+0x19b0>
  4089f4:	3c030005 	lui	v1,0x5
  4089f8:	16600072 	bnez	s3,408bc4 <PushDCHEventNotifyCheck@@Base+0x19b4>
  4089fc:	34635f9c 	ori	v1,v1,0x5f9c
  408a00:	16a0006f 	bnez	s5,408bc0 <PushDCHEventNotifyCheck@@Base+0x19b0>
  408a04:	3c030005 	lui	v1,0x5
  408a08:	3c050005 	lui	a1,0x5
  408a0c:	02e52021 	addu	a0,s7,a1
  408a10:	3c020041 	lui	v0,0x41
  408a14:	90425eb0 	lbu	v0,24240(v0)
  408a18:	a0825854 	sb	v0,22612(a0)
  408a1c:	24845855 	addiu	a0,a0,22613
  408a20:	00002821 	move	a1,zero
  408a24:	8f9980d4 	lw	t9,-32556(gp)
  408a28:	0320f809 	jalr	t9
  408a2c:	240600ff 	li	a2,255
  408a30:	8fbc0028 	lw	gp,40(sp)
  408a34:	8f82809c 	lw	v0,-32612(gp)
  408a38:	8c440000 	lw	a0,0(v0)
  408a3c:	3c050041 	lui	a1,0x41
  408a40:	8fc60000 	lw	a2,0(s8)
[31m  408a44:	8f998154 	lw	t9,fprintf[0m
  408a48:	0320f809 	jalr	t9
  408a4c:	24a55590 	addiu	a1,a1,21904
--
  408bcc:	8f99806c 	lw	t9,-32660(gp)
  408bd0:	0320f809 	jalr	t9
  408bd4:	00000000 	nop
  408bd8:	8fbc0028 	lw	gp,40(sp)
  408bdc:	16020073 	bne	s0,v0,408dac <PushDCHEventNotifyCheck@@Base+0x1b9c>
  408be0:	3c030005 	lui	v1,0x5
  408be4:	16600072 	bnez	s3,408db0 <PushDCHEventNotifyCheck@@Base+0x1ba0>
  408be8:	34635fa0 	ori	v1,v1,0x5fa0
  408bec:	16a0006f 	bnez	s5,408dac <PushDCHEventNotifyCheck@@Base+0x1b9c>
  408bf0:	3c030005 	lui	v1,0x5
  408bf4:	3c050005 	lui	a1,0x5
  408bf8:	02e52021 	addu	a0,s7,a1
  408bfc:	3c020041 	lui	v0,0x41
  408c00:	90425eb0 	lbu	v0,24240(v0)
  408c04:	a0825854 	sb	v0,22612(a0)
  408c08:	24845855 	addiu	a0,a0,22613
  408c0c:	00002821 	move	a1,zero
  408c10:	8f9980d4 	lw	t9,-32556(gp)
  408c14:	0320f809 	jalr	t9
  408c18:	240600ff 	li	a2,255
  408c1c:	8fbc0028 	lw	gp,40(sp)
  408c20:	8f82809c 	lw	v0,-32612(gp)
  408c24:	8c440000 	lw	a0,0(v0)
  408c28:	3c050041 	lui	a1,0x41
  408c2c:	8fc60000 	lw	a2,0(s8)
[31m  408c30:	8f998154 	lw	t9,fprintf[0m
  408c34:	0320f809 	jalr	t9
  408c38:	24a555d0 	addiu	a1,a1,21968
--
  408db8:	8f99806c 	lw	t9,-32660(gp)
  408dbc:	0320f809 	jalr	t9
  408dc0:	00000000 	nop
  408dc4:	8fbc0028 	lw	gp,40(sp)
  408dc8:	16020073 	bne	s0,v0,408f98 <PushDCHEventNotifyCheck@@Base+0x1d88>
  408dcc:	3c030005 	lui	v1,0x5
  408dd0:	16600072 	bnez	s3,408f9c <PushDCHEventNotifyCheck@@Base+0x1d8c>
  408dd4:	34635fa8 	ori	v1,v1,0x5fa8
  408dd8:	16a0006f 	bnez	s5,408f98 <PushDCHEventNotifyCheck@@Base+0x1d88>
  408ddc:	3c030005 	lui	v1,0x5
  408de0:	3c050005 	lui	a1,0x5
  408de4:	02e52021 	addu	a0,s7,a1
  408de8:	3c020041 	lui	v0,0x41
  408dec:	90425eb0 	lbu	v0,24240(v0)
  408df0:	a0825854 	sb	v0,22612(a0)
  408df4:	24845855 	addiu	a0,a0,22613
  408df8:	00002821 	move	a1,zero
  408dfc:	8f9980d4 	lw	t9,-32556(gp)
  408e00:	0320f809 	jalr	t9
  408e04:	240600ff 	li	a2,255
  408e08:	8fbc0028 	lw	gp,40(sp)
  408e0c:	8f82809c 	lw	v0,-32612(gp)
  408e10:	8c440000 	lw	a0,0(v0)
  408e14:	3c050041 	lui	a1,0x41
  408e18:	8fc60000 	lw	a2,0(s8)
[31m  408e1c:	8f998154 	lw	t9,fprintf[0m
  408e20:	0320f809 	jalr	t9
  408e24:	24a5566c 	addiu	a1,a1,22124
--
  408fa0:	8c640000 	lw	a0,0(v1)
  408fa4:	8f99806c 	lw	t9,-32660(gp)
  408fa8:	0320f809 	jalr	t9
  408fac:	00000000 	nop
  408fb0:	8fbc0028 	lw	gp,40(sp)
  408fb4:	16020072 	bne	s0,v0,409180 <PushDCHEventNotifyCheck@@Base+0x1f70>
  408fb8:	3c030041 	lui	v1,0x41
  408fbc:	16600070 	bnez	s3,409180 <PushDCHEventNotifyCheck@@Base+0x1f70>
  408fc0:	00000000 	nop
  408fc4:	16a0006e 	bnez	s5,409180 <PushDCHEventNotifyCheck@@Base+0x1f70>
  408fc8:	3c050005 	lui	a1,0x5
  408fcc:	02e52021 	addu	a0,s7,a1
  408fd0:	3c020041 	lui	v0,0x41
  408fd4:	90425eb0 	lbu	v0,24240(v0)
  408fd8:	a0825854 	sb	v0,22612(a0)
  408fdc:	24845855 	addiu	a0,a0,22613
  408fe0:	00002821 	move	a1,zero
  408fe4:	8f9980d4 	lw	t9,-32556(gp)
  408fe8:	0320f809 	jalr	t9
  408fec:	240600ff 	li	a2,255
  408ff0:	8fbc0028 	lw	gp,40(sp)
  408ff4:	8f82809c 	lw	v0,-32612(gp)
  408ff8:	8c440000 	lw	a0,0(v0)
  408ffc:	3c050041 	lui	a1,0x41
  409000:	8fc60000 	lw	a2,0(s8)
[31m  409004:	8f998154 	lw	t9,fprintf[0m
  409008:	0320f809 	jalr	t9
  40900c:	24a556ac 	addiu	a1,a1,22188
--
  40917c:	00000000 	nop
  409180:	8f99806c 	lw	t9,-32660(gp)
  409184:	0320f809 	jalr	t9
  409188:	24644ebc 	addiu	a0,v1,20156
  40918c:	8fbc0028 	lw	gp,40(sp)
  409190:	16020072 	bne	s0,v0,40935c <PushDCHEventNotifyCheck@@Base+0x214c>
  409194:	3c040041 	lui	a0,0x41
  409198:	16600070 	bnez	s3,40935c <PushDCHEventNotifyCheck@@Base+0x214c>
  40919c:	00000000 	nop
  4091a0:	16a0006e 	bnez	s5,40935c <PushDCHEventNotifyCheck@@Base+0x214c>
  4091a4:	3c050005 	lui	a1,0x5
  4091a8:	02e52021 	addu	a0,s7,a1
  4091ac:	3c020041 	lui	v0,0x41
  4091b0:	90425eb0 	lbu	v0,24240(v0)
  4091b4:	a0825854 	sb	v0,22612(a0)
  4091b8:	24845855 	addiu	a0,a0,22613
  4091bc:	00002821 	move	a1,zero
  4091c0:	8f9980d4 	lw	t9,-32556(gp)
  4091c4:	0320f809 	jalr	t9
  4091c8:	240600ff 	li	a2,255
  4091cc:	8fbc0028 	lw	gp,40(sp)
  4091d0:	8f82809c 	lw	v0,-32612(gp)
  4091d4:	8c440000 	lw	a0,0(v0)
  4091d8:	3c050041 	lui	a1,0x41
  4091dc:	8fc60000 	lw	a2,0(s8)
[31m  4091e0:	8f998154 	lw	t9,fprintf[0m
  4091e4:	0320f809 	jalr	t9
  4091e8:	24a556ec 	addiu	a1,a1,22252
--
  409358:	00000000 	nop
  40935c:	8f99806c 	lw	t9,-32660(gp)
  409360:	0320f809 	jalr	t9
  409364:	2484572c 	addiu	a0,a0,22316
  409368:	8fbc0028 	lw	gp,40(sp)
  40936c:	16020079 	bne	s0,v0,409554 <PushDCHEventNotifyCheck@@Base+0x2344>
  409370:	3c040041 	lui	a0,0x41
  409374:	16600077 	bnez	s3,409554 <PushDCHEventNotifyCheck@@Base+0x2344>
  409378:	00000000 	nop
  40937c:	16a00075 	bnez	s5,409554 <PushDCHEventNotifyCheck@@Base+0x2344>
  409380:	3c030005 	lui	v1,0x5
  409384:	02e32021 	addu	a0,s7,v1
  409388:	3c020041 	lui	v0,0x41
  40938c:	90425eb0 	lbu	v0,24240(v0)
  409390:	a0825854 	sb	v0,22612(a0)
  409394:	24845855 	addiu	a0,a0,22613
  409398:	00002821 	move	a1,zero
  40939c:	8f9980d4 	lw	t9,-32556(gp)
  4093a0:	0320f809 	jalr	t9
  4093a4:	240600ff 	li	a2,255
  4093a8:	8fbc0028 	lw	gp,40(sp)
  4093ac:	8f82809c 	lw	v0,-32612(gp)
  4093b0:	8c440000 	lw	a0,0(v0)
  4093b4:	3c050041 	lui	a1,0x41
  4093b8:	8fc60000 	lw	a2,0(s8)
[31m  4093bc:	8f998154 	lw	t9,fprintf[0m
  4093c0:	0320f809 	jalr	t9
  4093c4:	24a55734 	addiu	a1,a1,22324
--
  409550:	00000000 	nop
  409554:	8f99806c 	lw	t9,-32660(gp)
  409558:	0320f809 	jalr	t9
  40955c:	248457d0 	addiu	a0,a0,22480
  409560:	8fbc0028 	lw	gp,40(sp)
  409564:	16020075 	bne	s0,v0,40973c <PushDCHEventNotifyCheck@@Base+0x252c>
  409568:	3c040041 	lui	a0,0x41
  40956c:	16600073 	bnez	s3,40973c <PushDCHEventNotifyCheck@@Base+0x252c>
  409570:	00000000 	nop
  409574:	16a00071 	bnez	s5,40973c <PushDCHEventNotifyCheck@@Base+0x252c>
  409578:	3c030005 	lui	v1,0x5
  40957c:	02e32021 	addu	a0,s7,v1
  409580:	3c020041 	lui	v0,0x41
  409584:	90425eb0 	lbu	v0,24240(v0)
  409588:	a0825854 	sb	v0,22612(a0)
  40958c:	24845855 	addiu	a0,a0,22613
  409590:	00002821 	move	a1,zero
  409594:	8f9980d4 	lw	t9,-32556(gp)
  409598:	0320f809 	jalr	t9
  40959c:	240600ff 	li	a2,255
  4095a0:	8fbc0028 	lw	gp,40(sp)
  4095a4:	8f82809c 	lw	v0,-32612(gp)
  4095a8:	8c440000 	lw	a0,0(v0)
  4095ac:	3c050041 	lui	a1,0x41
  4095b0:	8fc60000 	lw	a2,0(s8)
[31m  4095b4:	8f998154 	lw	t9,fprintf[0m
  4095b8:	0320f809 	jalr	t9
  4095bc:	24a557d8 	addiu	a1,a1,22488
--
  409738:	00000000 	nop
  40973c:	8f99806c 	lw	t9,-32660(gp)
  409740:	0320f809 	jalr	t9
  409744:	24844bb8 	addiu	a0,a0,19384
  409748:	8fbc0028 	lw	gp,40(sp)
  40974c:	160200bc 	bne	s0,v0,409a40 <PushDCHEventNotifyCheck@@Base+0x2830>
  409750:	00000000 	nop
  409754:	166000ba 	bnez	s3,409a40 <PushDCHEventNotifyCheck@@Base+0x2830>
  409758:	00000000 	nop
  40975c:	16a000b8 	bnez	s5,409a40 <PushDCHEventNotifyCheck@@Base+0x2830>
  409760:	3c030005 	lui	v1,0x5
  409764:	02e32021 	addu	a0,s7,v1
  409768:	3c020041 	lui	v0,0x41
  40976c:	90425eb0 	lbu	v0,24240(v0)
  409770:	a0825854 	sb	v0,22612(a0)
  409774:	24845855 	addiu	a0,a0,22613
  409778:	00002821 	move	a1,zero
  40977c:	8f9980d4 	lw	t9,-32556(gp)
  409780:	0320f809 	jalr	t9
  409784:	240600ff 	li	a2,255
  409788:	8fbc0028 	lw	gp,40(sp)
  40978c:	8f82809c 	lw	v0,-32612(gp)
  409790:	8c440000 	lw	a0,0(v0)
  409794:	3c050041 	lui	a1,0x41
  409798:	8fc60000 	lw	a2,0(s8)
[31m  40979c:	8f998154 	lw	t9,fprintf[0m
  4097a0:	0320f809 	jalr	t9
  4097a4:	24a55870 	addiu	a1,a1,22640
--
  409a40:	3c040041 	lui	a0,0x41
  409a44:	8f99806c 	lw	t9,-32660(gp)
  409a48:	0320f809 	jalr	t9
  409a4c:	24844bb0 	addiu	a0,a0,19376
  409a50:	8fbc0028 	lw	gp,40(sp)
  409a54:	160200bc 	bne	s0,v0,409d48 <PushDCHEventNotifyCheck@@Base+0x2b38>
  409a58:	00000000 	nop
  409a5c:	166000ba 	bnez	s3,409d48 <PushDCHEventNotifyCheck@@Base+0x2b38>
  409a60:	00000000 	nop
  409a64:	16a000b8 	bnez	s5,409d48 <PushDCHEventNotifyCheck@@Base+0x2b38>
  409a68:	3c030005 	lui	v1,0x5
  409a6c:	02e32021 	addu	a0,s7,v1
  409a70:	3c020041 	lui	v0,0x41
  409a74:	90425eb0 	lbu	v0,24240(v0)
  409a78:	a0825854 	sb	v0,22612(a0)
  409a7c:	24845855 	addiu	a0,a0,22613
  409a80:	00002821 	move	a1,zero
  409a84:	8f9980d4 	lw	t9,-32556(gp)
  409a88:	0320f809 	jalr	t9
  409a8c:	240600ff 	li	a2,255
  409a90:	8fbc0028 	lw	gp,40(sp)
  409a94:	8f82809c 	lw	v0,-32612(gp)
  409a98:	8c440000 	lw	a0,0(v0)
  409a9c:	3c050041 	lui	a1,0x41
  409aa0:	8fc60000 	lw	a2,0(s8)
[31m  409aa4:	8f998154 	lw	t9,fprintf[0m
  409aa8:	0320f809 	jalr	t9
  409aac:	24a55958 	addiu	a1,a1,22872
--
  409d8c:	34845fb8 	ori	a0,a0,0x5fb8
  409d90:	009d2021 	addu	a0,a0,sp
  409d94:	100000d8 	b	40a0f8 <PushDCHEventNotifyCheck@@Base+0x2ee8>
  409d98:	ac850000 	sw	a1,0(a0)
  409d9c:	02e61021 	addu	v0,s7,a2
  409da0:	ac505848 	sw	s0,22600(v0)
  409da4:	3c070005 	lui	a3,0x5
  409da8:	34e75fb8 	ori	a3,a3,0x5fb8
  409dac:	00fd3821 	addu	a3,a3,sp
  409db0:	8ce70000 	lw	a3,0(a3)
  409db4:	14e000d1 	bnez	a3,40a0fc <PushDCHEventNotifyCheck@@Base+0x2eec>
  409db8:	3c050005 	lui	a1,0x5
  409dbc:	120000d0 	beqz	s0,40a100 <PushDCHEventNotifyCheck@@Base+0x2ef0>
  409dc0:	34a55fac 	ori	a1,a1,0x5fac
  409dc4:	8c47584c 	lw	a3,22604(v0)
  409dc8:	10e000cc 	beqz	a3,40a0fc <PushDCHEventNotifyCheck@@Base+0x2eec>
  409dcc:	3c050005 	lui	a1,0x5
  409dd0:	8c425850 	lw	v0,22608(v0)
  409dd4:	104000ca 	beqz	v0,40a100 <PushDCHEventNotifyCheck@@Base+0x2ef0>
  409dd8:	34a55fac 	ori	a1,a1,0x5fac
  409ddc:	8f83809c 	lw	v1,-32612(gp)
  409de0:	8c640000 	lw	a0,0(v1)
  409de4:	afa20010 	sw	v0,16(sp)
  409de8:	3c050041 	lui	a1,0x41
  409dec:	24a55998 	addiu	a1,a1,22936
[31m  409df0:	8f998154 	lw	t9,fprintf[0m
  409df4:	0320f809 	jalr	t9
  409df8:	02003021 	move	a2,s0
--
  40a270:	34845fb8 	ori	a0,a0,0x5fb8
  40a274:	009d2021 	addu	a0,a0,sp
  40a278:	100000d8 	b	40a5dc <PushDCHEventNotifyCheck@@Base+0x33cc>
  40a27c:	ac850000 	sw	a1,0(a0)
  40a280:	02e61021 	addu	v0,s7,a2
  40a284:	ac50584c 	sw	s0,22604(v0)
  40a288:	3c070005 	lui	a3,0x5
  40a28c:	34e75fb8 	ori	a3,a3,0x5fb8
  40a290:	00fd3821 	addu	a3,a3,sp
  40a294:	8ce70000 	lw	a3,0(a3)
  40a298:	14e000d1 	bnez	a3,40a5e0 <PushDCHEventNotifyCheck@@Base+0x33d0>
  40a29c:	3c050005 	lui	a1,0x5
  40a2a0:	8c465848 	lw	a2,22600(v0)
  40a2a4:	10c000cf 	beqz	a2,40a5e4 <PushDCHEventNotifyCheck@@Base+0x33d4>
  40a2a8:	34a55fac 	ori	a1,a1,0x5fac
  40a2ac:	120000cc 	beqz	s0,40a5e0 <PushDCHEventNotifyCheck@@Base+0x33d0>
  40a2b0:	3c050005 	lui	a1,0x5
  40a2b4:	8c425850 	lw	v0,22608(v0)
  40a2b8:	104000ca 	beqz	v0,40a5e4 <PushDCHEventNotifyCheck@@Base+0x33d4>
  40a2bc:	34a55fac 	ori	a1,a1,0x5fac
  40a2c0:	8f83809c 	lw	v1,-32612(gp)
  40a2c4:	8c640000 	lw	a0,0(v1)
  40a2c8:	afa20010 	sw	v0,16(sp)
  40a2cc:	3c050041 	lui	a1,0x41
  40a2d0:	24a55998 	addiu	a1,a1,22936
[31m  40a2d4:	8f998154 	lw	t9,fprintf[0m
  40a2d8:	0320f809 	jalr	t9
  40a2dc:	02003821 	move	a3,s0
--
  40a754:	34845fb8 	ori	a0,a0,0x5fb8
  40a758:	009d2021 	addu	a0,a0,sp
  40a75c:	100000d8 	b	40aac0 <PushDCHEventNotifyCheck@@Base+0x38b0>
  40a760:	ac850000 	sw	a1,0(a0)
  40a764:	02e61021 	addu	v0,s7,a2
  40a768:	ac50584c 	sw	s0,22604(v0)
  40a76c:	3c070005 	lui	a3,0x5
  40a770:	34e75fb8 	ori	a3,a3,0x5fb8
  40a774:	00fd3821 	addu	a3,a3,sp
  40a778:	8ce70000 	lw	a3,0(a3)
  40a77c:	14e000d1 	bnez	a3,40aac4 <PushDCHEventNotifyCheck@@Base+0x38b4>
  40a780:	3c050005 	lui	a1,0x5
  40a784:	8c465848 	lw	a2,22600(v0)
  40a788:	10c000cf 	beqz	a2,40aac8 <PushDCHEventNotifyCheck@@Base+0x38b8>
  40a78c:	34a55fac 	ori	a1,a1,0x5fac
  40a790:	120000cc 	beqz	s0,40aac4 <PushDCHEventNotifyCheck@@Base+0x38b4>
  40a794:	3c050005 	lui	a1,0x5
  40a798:	8c425850 	lw	v0,22608(v0)
  40a79c:	104000ca 	beqz	v0,40aac8 <PushDCHEventNotifyCheck@@Base+0x38b8>
  40a7a0:	34a55fac 	ori	a1,a1,0x5fac
  40a7a4:	8f83809c 	lw	v1,-32612(gp)
  40a7a8:	8c640000 	lw	a0,0(v1)
  40a7ac:	afa20010 	sw	v0,16(sp)
  40a7b0:	3c050041 	lui	a1,0x41
  40a7b4:	24a55998 	addiu	a1,a1,22936
[31m  40a7b8:	8f998154 	lw	t9,fprintf[0m
  40a7bc:	0320f809 	jalr	t9
  40a7c0:	02003821 	move	a3,s0
--
  40ac38:	3c040005 	lui	a0,0x5
  40ac3c:	34845fb8 	ori	a0,a0,0x5fb8
  40ac40:	009d2021 	addu	a0,a0,sp
  40ac44:	100000d7 	b	40afa4 <PushDCHEventNotifyCheck@@Base+0x3d94>
  40ac48:	ac850000 	sw	a1,0(a0)
  40ac4c:	02e61021 	addu	v0,s7,a2
  40ac50:	ac505850 	sw	s0,22608(v0)
  40ac54:	3c070005 	lui	a3,0x5
  40ac58:	34e75fb8 	ori	a3,a3,0x5fb8
  40ac5c:	00fd3821 	addu	a3,a3,sp
  40ac60:	8ce70000 	lw	a3,0(a3)
  40ac64:	14e000d0 	bnez	a3,40afa8 <PushDCHEventNotifyCheck@@Base+0x3d98>
  40ac68:	3c050005 	lui	a1,0x5
  40ac6c:	8c465848 	lw	a2,22600(v0)
  40ac70:	10c000ce 	beqz	a2,40afac <PushDCHEventNotifyCheck@@Base+0x3d9c>
  40ac74:	34a55fac 	ori	a1,a1,0x5fac
  40ac78:	8c47584c 	lw	a3,22604(v0)
  40ac7c:	10e000ca 	beqz	a3,40afa8 <PushDCHEventNotifyCheck@@Base+0x3d98>
  40ac80:	3c050005 	lui	a1,0x5
  40ac84:	120000c9 	beqz	s0,40afac <PushDCHEventNotifyCheck@@Base+0x3d9c>
  40ac88:	34a55fac 	ori	a1,a1,0x5fac
  40ac8c:	8f82809c 	lw	v0,-32612(gp)
  40ac90:	8c440000 	lw	a0,0(v0)
  40ac94:	afb00010 	sw	s0,16(sp)
  40ac98:	3c050041 	lui	a1,0x41
[31m  40ac9c:	8f998154 	lw	t9,fprintf[0m
  40aca0:	0320f809 	jalr	t9
  40aca4:	24a55998 	addiu	a1,a1,22936
--
  40b0b0:	8f998224 	lw	t9,-32220(gp)
  40b0b4:	0320f809 	jalr	t9
  40b0b8:	02003821 	move	a3,s0
  40b0bc:	8fbc0028 	lw	gp,40(sp)
  40b0c0:	8f998134 	lw	t9,-32460(gp)
  40b0c4:	0320f809 	jalr	t9
  40b0c8:	02002021 	move	a0,s0
  40b0cc:	8fbc0028 	lw	gp,40(sp)
  40b0d0:	10000196 	b	40b72c <PushDCHEventNotifyCheck@@Base+0x451c>
  40b0d4:	00000000 	nop
  40b0d8:	34427815 	ori	v0,v0,0x7815
  40b0dc:	02021021 	addu	v0,s0,v0
  40b0e0:	2c42002c 	sltiu	v0,v0,44
  40b0e4:	14400005 	bnez	v0,40b0fc <PushDCHEventNotifyCheck@@Base+0x3eec>
  40b0e8:	24130001 	li	s3,1
  40b0ec:	3c13fff9 	lui	s3,0xfff9
  40b0f0:	36738ebe 	ori	s3,s3,0x8ebe
  40b0f4:	02139821 	addu	s3,s0,s3
  40b0f8:	2e730027 	sltiu	s3,s3,39
  40b0fc:	12a00087 	beqz	s5,40b31c <PushDCHEventNotifyCheck@@Base+0x410c>
  40b100:	3c050041 	lui	a1,0x41
  40b104:	8f82809c 	lw	v0,-32612(gp)
  40b108:	8c440000 	lw	a0,0(v0)
  40b10c:	24a55a8c 	addiu	a1,a1,23180
  40b110:	8fc60000 	lw	a2,0(s8)
[31m  40b114:	8f998154 	lw	t9,fprintf[0m
  40b118:	0320f809 	jalr	t9
  40b11c:	02003821 	move	a3,s0
--
  40d2cc:	1642007e 	bne	s2,v0,40d4c8 <PushDCHEventNotifyCheck@@Base+0x62b8>
  40d2d0:	3c050005 	lui	a1,0x5
  40d2d4:	16a0007d 	bnez	s5,40d4cc <PushDCHEventNotifyCheck@@Base+0x62bc>
  40d2d8:	34a587f4 	ori	a1,a1,0x87f4
  40d2dc:	16c00079 	bnez	s6,40d4c4 <PushDCHEventNotifyCheck@@Base+0x62b4>
  40d2e0:	3c020041 	lui	v0,0x41
  40d2e4:	90425eb0 	lbu	v0,24240(v0)
  40d2e8:	a2e280ac 	sb	v0,-32596(s7)
  40d2ec:	3c050005 	lui	a1,0x5
  40d2f0:	34a58800 	ori	a1,a1,0x8800
  40d2f4:	00bd2821 	addu	a1,a1,sp
  40d2f8:	8ca40000 	lw	a0,0(a1)
  40d2fc:	00002821 	move	a1,zero
  40d300:	8f9980d4 	lw	t9,-32556(gp)
  40d304:	0320f809 	jalr	t9
  40d308:	240600ff 	li	a2,255
  40d30c:	8fbc0028 	lw	gp,40(sp)
  40d310:	8f82809c 	lw	v0,-32612(gp)
  40d314:	8c440000 	lw	a0,0(v0)
  40d318:	3c050041 	lui	a1,0x41
  40d31c:	3c020005 	lui	v0,0x5
  40d320:	344287fc 	ori	v0,v0,0x87fc
  40d324:	005d1021 	addu	v0,v0,sp
  40d328:	8c420000 	lw	v0,0(v0)
  40d32c:	8c460000 	lw	a2,0(v0)
[31m  40d330:	8f998154 	lw	t9,fprintf[0m
  40d334:	0320f809 	jalr	t9
  40d338:	24a55acc 	addiu	a1,a1,23244
--
  40d4e4:	1642007e 	bne	s2,v0,40d6e0 <PushDCHEventNotifyCheck@@Base+0x64d0>
  40d4e8:	3c050005 	lui	a1,0x5
  40d4ec:	16a0007d 	bnez	s5,40d6e4 <PushDCHEventNotifyCheck@@Base+0x64d4>
  40d4f0:	34a587f8 	ori	a1,a1,0x87f8
  40d4f4:	16c00079 	bnez	s6,40d6dc <PushDCHEventNotifyCheck@@Base+0x64cc>
  40d4f8:	3c020041 	lui	v0,0x41
  40d4fc:	90425eb0 	lbu	v0,24240(v0)
  40d500:	a2e280ac 	sb	v0,-32596(s7)
  40d504:	3c020005 	lui	v0,0x5
  40d508:	34428800 	ori	v0,v0,0x8800
  40d50c:	005d1021 	addu	v0,v0,sp
  40d510:	8c440000 	lw	a0,0(v0)
  40d514:	00002821 	move	a1,zero
  40d518:	8f9980d4 	lw	t9,-32556(gp)
  40d51c:	0320f809 	jalr	t9
  40d520:	240600ff 	li	a2,255
  40d524:	8fbc0028 	lw	gp,40(sp)
  40d528:	8f82809c 	lw	v0,-32612(gp)
  40d52c:	8c440000 	lw	a0,0(v0)
  40d530:	3c050041 	lui	a1,0x41
  40d534:	3c030005 	lui	v1,0x5
  40d538:	346387fc 	ori	v1,v1,0x87fc
  40d53c:	007d1821 	addu	v1,v1,sp
  40d540:	8c630000 	lw	v1,0(v1)
  40d544:	8c660000 	lw	a2,0(v1)
[31m  40d548:	8f998154 	lw	t9,fprintf[0m
  40d54c:	0320f809 	jalr	t9
  40d550:	24a55b04 	addiu	a1,a1,23300
--
  40d6fc:	1642007e 	bne	s2,v0,40d8f8 <PushDCHEventNotifyCheck@@Base+0x66e8>
  40d700:	3c050005 	lui	a1,0x5
  40d704:	16a0007d 	bnez	s5,40d8fc <PushDCHEventNotifyCheck@@Base+0x66ec>
  40d708:	34a587e4 	ori	a1,a1,0x87e4
  40d70c:	16c00079 	bnez	s6,40d8f4 <PushDCHEventNotifyCheck@@Base+0x66e4>
  40d710:	3c020041 	lui	v0,0x41
  40d714:	90425eb0 	lbu	v0,24240(v0)
  40d718:	a2e280ac 	sb	v0,-32596(s7)
  40d71c:	3c020005 	lui	v0,0x5
  40d720:	34428800 	ori	v0,v0,0x8800
  40d724:	005d1021 	addu	v0,v0,sp
  40d728:	8c440000 	lw	a0,0(v0)
  40d72c:	00002821 	move	a1,zero
  40d730:	8f9980d4 	lw	t9,-32556(gp)
  40d734:	0320f809 	jalr	t9
  40d738:	240600ff 	li	a2,255
  40d73c:	8fbc0028 	lw	gp,40(sp)
  40d740:	8f82809c 	lw	v0,-32612(gp)
  40d744:	8c440000 	lw	a0,0(v0)
  40d748:	3c050041 	lui	a1,0x41
  40d74c:	3c030005 	lui	v1,0x5
  40d750:	346387fc 	ori	v1,v1,0x87fc
  40d754:	007d1821 	addu	v1,v1,sp
  40d758:	8c630000 	lw	v1,0(v1)
  40d75c:	8c660000 	lw	a2,0(v1)
[31m  40d760:	8f998154 	lw	t9,fprintf[0m
  40d764:	0320f809 	jalr	t9
  40d768:	24a55b3c 	addiu	a1,a1,23356
--
  40d914:	1642007e 	bne	s2,v0,40db10 <PushDCHEventNotifyCheck@@Base+0x6900>
  40d918:	3c050005 	lui	a1,0x5
  40d91c:	16a0007d 	bnez	s5,40db14 <PushDCHEventNotifyCheck@@Base+0x6904>
  40d920:	34a587e8 	ori	a1,a1,0x87e8
  40d924:	16c00079 	bnez	s6,40db0c <PushDCHEventNotifyCheck@@Base+0x68fc>
  40d928:	3c020041 	lui	v0,0x41
  40d92c:	90425eb0 	lbu	v0,24240(v0)
  40d930:	a2e280ac 	sb	v0,-32596(s7)
  40d934:	3c020005 	lui	v0,0x5
  40d938:	34428800 	ori	v0,v0,0x8800
  40d93c:	005d1021 	addu	v0,v0,sp
  40d940:	8c440000 	lw	a0,0(v0)
  40d944:	00002821 	move	a1,zero
  40d948:	8f9980d4 	lw	t9,-32556(gp)
  40d94c:	0320f809 	jalr	t9
  40d950:	240600ff 	li	a2,255
  40d954:	8fbc0028 	lw	gp,40(sp)
  40d958:	8f82809c 	lw	v0,-32612(gp)
  40d95c:	8c440000 	lw	a0,0(v0)
  40d960:	3c050041 	lui	a1,0x41
  40d964:	3c030005 	lui	v1,0x5
  40d968:	346387fc 	ori	v1,v1,0x87fc
  40d96c:	007d1821 	addu	v1,v1,sp
  40d970:	8c630000 	lw	v1,0(v1)
  40d974:	8c660000 	lw	a2,0(v1)
[31m  40d978:	8f998154 	lw	t9,fprintf[0m
  40d97c:	0320f809 	jalr	t9
  40d980:	24a55b74 	addiu	a1,a1,23412
--
  40db2c:	1642007d 	bne	s2,v0,40dd24 <PushDCHEventNotifyCheck@@Base+0x6b14>
  40db30:	3c050041 	lui	a1,0x41
  40db34:	16a0007b 	bnez	s5,40dd24 <PushDCHEventNotifyCheck@@Base+0x6b14>
  40db38:	00000000 	nop
  40db3c:	16c00079 	bnez	s6,40dd24 <PushDCHEventNotifyCheck@@Base+0x6b14>
  40db40:	3c020041 	lui	v0,0x41
  40db44:	90425eb0 	lbu	v0,24240(v0)
  40db48:	a2e280ac 	sb	v0,-32596(s7)
  40db4c:	3c020005 	lui	v0,0x5
  40db50:	34428800 	ori	v0,v0,0x8800
  40db54:	005d1021 	addu	v0,v0,sp
  40db58:	8c440000 	lw	a0,0(v0)
  40db5c:	00002821 	move	a1,zero
  40db60:	8f9980d4 	lw	t9,-32556(gp)
  40db64:	0320f809 	jalr	t9
  40db68:	240600ff 	li	a2,255
  40db6c:	8fbc0028 	lw	gp,40(sp)
  40db70:	8f82809c 	lw	v0,-32612(gp)
  40db74:	8c440000 	lw	a0,0(v0)
  40db78:	3c050041 	lui	a1,0x41
  40db7c:	3c030005 	lui	v1,0x5
  40db80:	346387fc 	ori	v1,v1,0x87fc
  40db84:	007d1821 	addu	v1,v1,sp
  40db88:	8c630000 	lw	v1,0(v1)
  40db8c:	8c660000 	lw	a2,0(v1)
[31m  40db90:	8f998154 	lw	t9,fprintf[0m
  40db94:	0320f809 	jalr	t9
  40db98:	24a55bb0 	addiu	a1,a1,23472
--
  40dd34:	1642007d 	bne	s2,v0,40df2c <PushDCHEventNotifyCheck@@Base+0x6d1c>
  40dd38:	00000000 	nop
  40dd3c:	16a0007b 	bnez	s5,40df2c <PushDCHEventNotifyCheck@@Base+0x6d1c>
  40dd40:	00000000 	nop
  40dd44:	16c00079 	bnez	s6,40df2c <PushDCHEventNotifyCheck@@Base+0x6d1c>
  40dd48:	3c020041 	lui	v0,0x41
  40dd4c:	90425eb0 	lbu	v0,24240(v0)
  40dd50:	a2e280ac 	sb	v0,-32596(s7)
  40dd54:	3c020005 	lui	v0,0x5
  40dd58:	34428800 	ori	v0,v0,0x8800
  40dd5c:	005d1021 	addu	v0,v0,sp
  40dd60:	8c440000 	lw	a0,0(v0)
  40dd64:	00002821 	move	a1,zero
  40dd68:	8f9980d4 	lw	t9,-32556(gp)
  40dd6c:	0320f809 	jalr	t9
  40dd70:	240600ff 	li	a2,255
  40dd74:	8fbc0028 	lw	gp,40(sp)
  40dd78:	8f82809c 	lw	v0,-32612(gp)
  40dd7c:	8c440000 	lw	a0,0(v0)
  40dd80:	3c050041 	lui	a1,0x41
  40dd84:	3c030005 	lui	v1,0x5
  40dd88:	346387fc 	ori	v1,v1,0x87fc
  40dd8c:	007d1821 	addu	v1,v1,sp
  40dd90:	8c630000 	lw	v1,0(v1)
  40dd94:	8c660000 	lw	a2,0(v1)
[31m  40dd98:	8f998154 	lw	t9,fprintf[0m
  40dd9c:	0320f809 	jalr	t9
  40dda0:	24a55be8 	addiu	a1,a1,23528
--
  40df40:	16420085 	bne	s2,v0,40e158 <PushDCHEventNotifyCheck@@Base+0x6f48>
  40df44:	3c040041 	lui	a0,0x41
  40df48:	16a00083 	bnez	s5,40e158 <PushDCHEventNotifyCheck@@Base+0x6f48>
  40df4c:	00000000 	nop
  40df50:	16c00081 	bnez	s6,40e158 <PushDCHEventNotifyCheck@@Base+0x6f48>
  40df54:	3c020041 	lui	v0,0x41
  40df58:	90425eb0 	lbu	v0,24240(v0)
  40df5c:	a2e280ac 	sb	v0,-32596(s7)
  40df60:	3c050005 	lui	a1,0x5
  40df64:	34a58800 	ori	a1,a1,0x8800
  40df68:	00bd2821 	addu	a1,a1,sp
  40df6c:	8ca40000 	lw	a0,0(a1)
  40df70:	00002821 	move	a1,zero
  40df74:	8f9980d4 	lw	t9,-32556(gp)
  40df78:	0320f809 	jalr	t9
  40df7c:	240600ff 	li	a2,255
  40df80:	8fbc0028 	lw	gp,40(sp)
  40df84:	8f82809c 	lw	v0,-32612(gp)
  40df88:	8c440000 	lw	a0,0(v0)
  40df8c:	3c050041 	lui	a1,0x41
  40df90:	3c020005 	lui	v0,0x5
  40df94:	344287fc 	ori	v0,v0,0x87fc
  40df98:	005d1021 	addu	v0,v0,sp
  40df9c:	8c420000 	lw	v0,0(v0)
  40dfa0:	8c460000 	lw	a2,0(v0)
[31m  40dfa4:	8f998154 	lw	t9,fprintf[0m
  40dfa8:	0320f809 	jalr	t9
  40dfac:	24a55c24 	addiu	a1,a1,23588
--
  40e168:	16420081 	bne	s2,v0,40e370 <PushDCHEventNotifyCheck@@Base+0x7160>
  40e16c:	3c040041 	lui	a0,0x41
  40e170:	16a0007f 	bnez	s5,40e370 <PushDCHEventNotifyCheck@@Base+0x7160>
  40e174:	00000000 	nop
  40e178:	16c0007d 	bnez	s6,40e370 <PushDCHEventNotifyCheck@@Base+0x7160>
  40e17c:	3c020041 	lui	v0,0x41
  40e180:	90425eb0 	lbu	v0,24240(v0)
  40e184:	a2e280ac 	sb	v0,-32596(s7)
  40e188:	3c050005 	lui	a1,0x5
  40e18c:	34a58800 	ori	a1,a1,0x8800
  40e190:	00bd2821 	addu	a1,a1,sp
  40e194:	8ca40000 	lw	a0,0(a1)
  40e198:	00002821 	move	a1,zero
  40e19c:	8f9980d4 	lw	t9,-32556(gp)
  40e1a0:	0320f809 	jalr	t9
  40e1a4:	240600ff 	li	a2,255
  40e1a8:	8fbc0028 	lw	gp,40(sp)
  40e1ac:	8f82809c 	lw	v0,-32612(gp)
  40e1b0:	8c440000 	lw	a0,0(v0)
  40e1b4:	3c050041 	lui	a1,0x41
  40e1b8:	3c020005 	lui	v0,0x5
  40e1bc:	344287fc 	ori	v0,v0,0x87fc
  40e1c0:	005d1021 	addu	v0,v0,sp
  40e1c4:	8c420000 	lw	v0,0(v0)
  40e1c8:	8c460000 	lw	a2,0(v0)
[31m  40e1cc:	8f998154 	lw	t9,fprintf[0m
  40e1d0:	0320f809 	jalr	t9
  40e1d4:	24a55c60 	addiu	a1,a1,23648
--
  40e3a4:	24050001 	li	a1,1
  40e3a8:	3c040005 	lui	a0,0x5
  40e3ac:	34848820 	ori	a0,a0,0x8820
  40e3b0:	009d2021 	addu	a0,a0,sp
  40e3b4:	100000eb 	b	40e764 <PushDCHEventNotifyCheck@@Base+0x7554>
  40e3b8:	ac850000 	sw	a1,0(a0)
  40e3bc:	aef280a0 	sw	s2,-32608(s7)
  40e3c0:	34428820 	ori	v0,v0,0x8820
  40e3c4:	005d1021 	addu	v0,v0,sp
  40e3c8:	8c420000 	lw	v0,0(v0)
  40e3cc:	144000e6 	bnez	v0,40e768 <PushDCHEventNotifyCheck@@Base+0x7558>
  40e3d0:	3c030005 	lui	v1,0x5
  40e3d4:	124000e5 	beqz	s2,40e76c <PushDCHEventNotifyCheck@@Base+0x755c>
  40e3d8:	34638804 	ori	v1,v1,0x8804
  40e3dc:	8ee780a4 	lw	a3,-32604(s7)
  40e3e0:	10e000e1 	beqz	a3,40e768 <PushDCHEventNotifyCheck@@Base+0x7558>
  40e3e4:	3c030005 	lui	v1,0x5
  40e3e8:	8ee280a8 	lw	v0,-32600(s7)
  40e3ec:	104000df 	beqz	v0,40e76c <PushDCHEventNotifyCheck@@Base+0x755c>
  40e3f0:	34638804 	ori	v1,v1,0x8804
  40e3f4:	8f83809c 	lw	v1,-32612(gp)
  40e3f8:	8c640000 	lw	a0,0(v1)
  40e3fc:	afa20010 	sw	v0,16(sp)
  40e400:	3c050041 	lui	a1,0x41
  40e404:	24a55998 	addiu	a1,a1,22936
[31m  40e408:	8f998154 	lw	t9,fprintf[0m
  40e40c:	0320f809 	jalr	t9
  40e410:	02403021 	move	a2,s2
--
  40e8d8:	24050001 	li	a1,1
  40e8dc:	3c040005 	lui	a0,0x5
  40e8e0:	34848820 	ori	a0,a0,0x8820
  40e8e4:	009d2021 	addu	a0,a0,sp
  40e8e8:	100000eb 	b	40ec98 <PushDCHEventNotifyCheck@@Base+0x7a88>
  40e8ec:	ac850000 	sw	a1,0(a0)
  40e8f0:	aef280a4 	sw	s2,-32604(s7)
  40e8f4:	34428820 	ori	v0,v0,0x8820
  40e8f8:	005d1021 	addu	v0,v0,sp
  40e8fc:	8c420000 	lw	v0,0(v0)
  40e900:	144000e6 	bnez	v0,40ec9c <PushDCHEventNotifyCheck@@Base+0x7a8c>
  40e904:	3c030005 	lui	v1,0x5
  40e908:	8ee680a0 	lw	a2,-32608(s7)
  40e90c:	10c000e4 	beqz	a2,40eca0 <PushDCHEventNotifyCheck@@Base+0x7a90>
  40e910:	34638804 	ori	v1,v1,0x8804
  40e914:	124000e1 	beqz	s2,40ec9c <PushDCHEventNotifyCheck@@Base+0x7a8c>
  40e918:	3c030005 	lui	v1,0x5
  40e91c:	8ee280a8 	lw	v0,-32600(s7)
  40e920:	104000df 	beqz	v0,40eca0 <PushDCHEventNotifyCheck@@Base+0x7a90>
  40e924:	34638804 	ori	v1,v1,0x8804
  40e928:	8f83809c 	lw	v1,-32612(gp)
  40e92c:	8c640000 	lw	a0,0(v1)
  40e930:	afa20010 	sw	v0,16(sp)
  40e934:	3c050041 	lui	a1,0x41
  40e938:	24a55998 	addiu	a1,a1,22936
[31m  40e93c:	8f998154 	lw	t9,fprintf[0m
  40e940:	0320f809 	jalr	t9
  40e944:	02403821 	move	a3,s2
--
  40ee0c:	24050001 	li	a1,1
  40ee10:	3c040005 	lui	a0,0x5
  40ee14:	34848820 	ori	a0,a0,0x8820
  40ee18:	009d2021 	addu	a0,a0,sp
  40ee1c:	100000eb 	b	40f1cc <PushDCHEventNotifyCheck@@Base+0x7fbc>
  40ee20:	ac850000 	sw	a1,0(a0)
  40ee24:	aef280a4 	sw	s2,-32604(s7)
  40ee28:	34428820 	ori	v0,v0,0x8820
  40ee2c:	005d1021 	addu	v0,v0,sp
  40ee30:	8c420000 	lw	v0,0(v0)
  40ee34:	144000e6 	bnez	v0,40f1d0 <PushDCHEventNotifyCheck@@Base+0x7fc0>
  40ee38:	3c030005 	lui	v1,0x5
  40ee3c:	8ee680a0 	lw	a2,-32608(s7)
  40ee40:	10c000e4 	beqz	a2,40f1d4 <PushDCHEventNotifyCheck@@Base+0x7fc4>
  40ee44:	34638804 	ori	v1,v1,0x8804
  40ee48:	124000e1 	beqz	s2,40f1d0 <PushDCHEventNotifyCheck@@Base+0x7fc0>
  40ee4c:	3c030005 	lui	v1,0x5
  40ee50:	8ee280a8 	lw	v0,-32600(s7)
  40ee54:	104000df 	beqz	v0,40f1d4 <PushDCHEventNotifyCheck@@Base+0x7fc4>
  40ee58:	34638804 	ori	v1,v1,0x8804
  40ee5c:	8f83809c 	lw	v1,-32612(gp)
  40ee60:	8c640000 	lw	a0,0(v1)
  40ee64:	afa20010 	sw	v0,16(sp)
  40ee68:	3c050041 	lui	a1,0x41
  40ee6c:	24a55998 	addiu	a1,a1,22936
[31m  40ee70:	8f998154 	lw	t9,fprintf[0m
  40ee74:	0320f809 	jalr	t9
  40ee78:	02403821 	move	a3,s2
--
  40f33c:	3c020005 	lui	v0,0x5
  40f340:	24050001 	li	a1,1
  40f344:	3c040005 	lui	a0,0x5
  40f348:	34848820 	ori	a0,a0,0x8820
  40f34c:	009d2021 	addu	a0,a0,sp
  40f350:	100000ea 	b	40f6fc <PushDCHEventNotifyCheck@@Base+0x84ec>
  40f354:	ac850000 	sw	a1,0(a0)
  40f358:	aef280a8 	sw	s2,-32600(s7)
  40f35c:	34428820 	ori	v0,v0,0x8820
  40f360:	005d1021 	addu	v0,v0,sp
  40f364:	8c420000 	lw	v0,0(v0)
  40f368:	144000e5 	bnez	v0,40f700 <PushDCHEventNotifyCheck@@Base+0x84f0>
  40f36c:	3c030005 	lui	v1,0x5
  40f370:	8ee680a0 	lw	a2,-32608(s7)
  40f374:	10c000e3 	beqz	a2,40f704 <PushDCHEventNotifyCheck@@Base+0x84f4>
  40f378:	34638804 	ori	v1,v1,0x8804
  40f37c:	8ee780a4 	lw	a3,-32604(s7)
  40f380:	10e000df 	beqz	a3,40f700 <PushDCHEventNotifyCheck@@Base+0x84f0>
  40f384:	3c030005 	lui	v1,0x5
  40f388:	124000de 	beqz	s2,40f704 <PushDCHEventNotifyCheck@@Base+0x84f4>
  40f38c:	34638804 	ori	v1,v1,0x8804
  40f390:	8f82809c 	lw	v0,-32612(gp)
  40f394:	8c440000 	lw	a0,0(v0)
  40f398:	afb20010 	sw	s2,16(sp)
  40f39c:	3c050041 	lui	a1,0x41
[31m  40f3a0:	8f998154 	lw	t9,fprintf[0m
  40f3a4:	0320f809 	jalr	t9
  40f3a8:	24a55998 	addiu	a1,a1,22936
--
  410398:	14400003 	bnez	v0,4103a8 <PushDCHEventNotifyCheck@@Base+0x9198>
  41039c:	24020001 	li	v0,1
  4103a0:	10000002 	b	4103ac <PushDCHEventNotifyCheck@@Base+0x919c>
  4103a4:	afb1002c 	sw	s1,44(sp)
  4103a8:	afa2013c 	sw	v0,316(sp)
  4103ac:	26100001 	addiu	s0,s0,1
  4103b0:	0216102a 	slt	v0,s0,s6
  4103b4:	1440ffb3 	bnez	v0,410284 <PushDCHEventNotifyCheck@@Base+0x9074>
  4103b8:	00000000 	nop
  4103bc:	8fa3013c 	lw	v1,316(sp)
  4103c0:	1460005e 	bnez	v1,41053c <PushDCHEventNotifyCheck@@Base+0x932c>
  4103c4:	00000000 	nop
  4103c8:	8fa60024 	lw	a2,36(sp)
  4103cc:	10c0005b 	beqz	a2,41053c <PushDCHEventNotifyCheck@@Base+0x932c>
  4103d0:	00000000 	nop
  4103d4:	8fa70028 	lw	a3,40(sp)
  4103d8:	10e00058 	beqz	a3,41053c <PushDCHEventNotifyCheck@@Base+0x932c>
  4103dc:	00000000 	nop
  4103e0:	8fa2002c 	lw	v0,44(sp)
  4103e4:	10400055 	beqz	v0,41053c <PushDCHEventNotifyCheck@@Base+0x932c>
  4103e8:	00000000 	nop
  4103ec:	8f83809c 	lw	v1,-32612(gp)
  4103f0:	8c640000 	lw	a0,0(v1)
  4103f4:	afa20010 	sw	v0,16(sp)
  4103f8:	8fa50154 	lw	a1,340(sp)
[31m  4103fc:	8f998154 	lw	t9,fprintf[0m
  410400:	0320f809 	jalr	t9
  410404:	00000000 	nop
--
  4111e8:	8fbe00f0 	lw	s8,240(sp)
  4111ec:	8fb700ec 	lw	s7,236(sp)
  4111f0:	8fb600e8 	lw	s6,232(sp)
  4111f4:	8fb500e4 	lw	s5,228(sp)
  4111f8:	8fb400e0 	lw	s4,224(sp)
  4111fc:	8fb300dc 	lw	s3,220(sp)
  411200:	8fb200d8 	lw	s2,216(sp)
  411204:	8fb100d4 	lw	s1,212(sp)
  411208:	8fb000d0 	lw	s0,208(sp)
  41120c:	03e00008 	jr	ra
  411210:	27bd00f8 	addiu	sp,sp,248
	...

00411220 <load_device_stop@@Base>:
  411220:	27bdffe0 	addiu	sp,sp,-32
  411224:	afbf001c 	sw	ra,28(sp)
  411228:	3c1c0043 	lui	gp,0x43
  41122c:	279cf1a0 	addiu	gp,gp,-3680
  411230:	afbc0010 	sw	gp,16(sp)
  411234:	1480000a 	bnez	a0,411260 <load_device_stop@@Base+0x40>
  411238:	3c050041 	lui	a1,0x41
  41123c:	8f82809c 	lw	v0,-32612(gp)
  411240:	8c440000 	lw	a0,0(v0)
  411244:	24a55ed0 	addiu	a1,a1,24272
  411248:	3c060041 	lui	a2,0x41
[31m  41124c:	8f998154 	lw	t9,fprintf[0m
  411250:	0320f809 	jalr	t9
  411254:	24c66840 	addiu	a2,a2,26688
  411258:	10000004 	b	41126c <load_device_stop@@Base+0x4c>
  41125c:	2402ffff 	li	v0,-1
  411260:	24020001 	li	v0,1
  411264:	a0820004 	sb	v0,4(a0)
  411268:	00001021 	move	v0,zero
  41126c:	8fbf001c 	lw	ra,28(sp)
  411270:	03e00008 	jr	ra
  411274:	27bd0020 	addiu	sp,sp,32

00411278 <push_dchevent_stop@@Base>:
  411278:	27bdffe0 	addiu	sp,sp,-32
  41127c:	afbf001c 	sw	ra,28(sp)
  411280:	3c1c0043 	lui	gp,0x43
  411284:	279cf1a0 	addiu	gp,gp,-3680
  411288:	afbc0010 	sw	gp,16(sp)
  41128c:	1480000a 	bnez	a0,4112b8 <push_dchevent_stop@@Base+0x40>
  411290:	3c050041 	lui	a1,0x41
  411294:	8f82809c 	lw	v0,-32612(gp)
  411298:	8c440000 	lw	a0,0(v0)
  41129c:	24a55ed0 	addiu	a1,a1,24272
  4112a0:	3c060041 	lui	a2,0x41
[31m  4112a4:	8f998154 	lw	t9,fprintf[0m
  4112a8:	0320f809 	jalr	t9
  4112ac:	24c66880 	addiu	a2,a2,26752
--
  4112bc:	a0820004 	sb	v0,4(a0)
  4112c0:	00001021 	move	v0,zero
  4112c4:	8fbf001c 	lw	ra,28(sp)
  4112c8:	03e00008 	jr	ra
  4112cc:	27bd0020 	addiu	sp,sp,32

004112d0 <load_device_start@@Base>:
  4112d0:	27bdffb0 	addiu	sp,sp,-80
  4112d4:	afbf004c 	sw	ra,76(sp)
  4112d8:	afb10048 	sw	s1,72(sp)
  4112dc:	afb00044 	sw	s0,68(sp)
  4112e0:	3c1c0043 	lui	gp,0x43
  4112e4:	279cf1a0 	addiu	gp,gp,-3680
  4112e8:	afbc0010 	sw	gp,16(sp)
  4112ec:	14800003 	bnez	a0,4112fc <load_device_start@@Base+0x2c>
  4112f0:	00808021 	move	s0,a0
  4112f4:	10000048 	b	411418 <load_device_start@@Base+0x148>
  4112f8:	2402ffff 	li	v0,-1
  4112fc:	90820005 	lbu	v0,5(a0)
  411300:	1040000a 	beqz	v0,41132c <load_device_start@@Base+0x5c>
  411304:	3c050041 	lui	a1,0x41
  411308:	8f82809c 	lw	v0,-32612(gp)
  41130c:	8c440000 	lw	a0,0(v0)
  411310:	24a55efc 	addiu	a1,a1,24316
  411314:	3c060041 	lui	a2,0x41
[31m  411318:	8f998154 	lw	t9,fprintf[0m
  41131c:	0320f809 	jalr	t9
  411320:	24c66854 	addiu	a2,a2,26708
  411324:	1000003c 	b	411418 <load_device_start@@Base+0x148>
  411328:	2402ffff 	li	v0,-1
  41132c:	8f9981f0 	lw	t9,-32272(gp)
  411330:	0320f809 	jalr	t9
  411334:	27a40018 	addiu	a0,sp,24
  411338:	8fbc0010 	lw	gp,16(sp)
  41133c:	1040000b 	beqz	v0,41136c <load_device_start@@Base+0x9c>
  411340:	27a40018 	addiu	a0,sp,24
  411344:	8f82809c 	lw	v0,-32612(gp)
  411348:	8c440000 	lw	a0,0(v0)
  41134c:	3c050041 	lui	a1,0x41
  411350:	24a55f28 	addiu	a1,a1,24360
  411354:	3c060041 	lui	a2,0x41
[31m  411358:	8f998154 	lw	t9,fprintf[0m
  41135c:	0320f809 	jalr	t9
  411360:	24c66854 	addiu	a2,a2,26708
  411364:	1000002c 	b	411418 <load_device_start@@Base+0x148>
  411368:	2402ffff 	li	v0,-1
  41136c:	8f998044 	lw	t9,-32700(gp)
  411370:	0320f809 	jalr	t9
  411374:	24050001 	li	a1,1
  411378:	8fbc0010 	lw	gp,16(sp)
  41137c:	1040000f 	beqz	v0,4113bc <load_device_start@@Base+0xec>
  411380:	02002021 	move	a0,s0
  411384:	8f998204 	lw	t9,-32252(gp)
  411388:	0320f809 	jalr	t9
  41138c:	27a40018 	addiu	a0,sp,24
  411390:	8fbc0010 	lw	gp,16(sp)
  411394:	8f82809c 	lw	v0,-32612(gp)
  411398:	8c440000 	lw	a0,0(v0)
  41139c:	3c050041 	lui	a1,0x41
  4113a0:	24a55f64 	addiu	a1,a1,24420
  4113a4:	3c060041 	lui	a2,0x41
[31m  4113a8:	8f998154 	lw	t9,fprintf[0m
  4113ac:	0320f809 	jalr	t9
  4113b0:	24c66854 	addiu	a2,a2,26708
  4113b4:	10000018 	b	411418 <load_device_start@@Base+0x148>
  4113b8:	2402ffff 	li	v0,-1
  4113bc:	a2000004 	sb	zero,4(s0)
  4113c0:	27b10018 	addiu	s1,sp,24
  4113c4:	02202821 	move	a1,s1
  4113c8:	3c060041 	lui	a2,0x41
  4113cc:	24c6272c 	addiu	a2,a2,10028
  4113d0:	8f9981f4 	lw	t9,-32268(gp)
  4113d4:	0320f809 	jalr	t9
  4113d8:	02003821 	move	a3,s0
  4113dc:	8fbc0010 	lw	gp,16(sp)
  4113e0:	8f998204 	lw	t9,-32252(gp)
  4113e4:	0320f809 	jalr	t9
  4113e8:	02202021 	move	a0,s1
  4113ec:	8fbc0010 	lw	gp,16(sp)
  4113f0:	10400009 	beqz	v0,411418 <load_device_start@@Base+0x148>
  4113f4:	3c050041 	lui	a1,0x41
  4113f8:	8f82809c 	lw	v0,-32612(gp)
  4113fc:	8c440000 	lw	a0,0(v0)
  411400:	24a55fac 	addiu	a1,a1,24492
  411404:	3c060041 	lui	a2,0x41
[31m  411408:	8f998154 	lw	t9,fprintf[0m
  41140c:	0320f809 	jalr	t9
  411410:	24c66854 	addiu	a2,a2,26708
--
  411418:	8fbf004c 	lw	ra,76(sp)
  41141c:	8fb10048 	lw	s1,72(sp)
  411420:	8fb00044 	lw	s0,68(sp)
  411424:	03e00008 	jr	ra
  411428:	27bd0050 	addiu	sp,sp,80

0041142c <push_dchevent_start@@Base>:
  41142c:	27bdffb0 	addiu	sp,sp,-80
  411430:	afbf004c 	sw	ra,76(sp)
  411434:	afb10048 	sw	s1,72(sp)
  411438:	afb00044 	sw	s0,68(sp)
  41143c:	3c1c0043 	lui	gp,0x43
  411440:	279cf1a0 	addiu	gp,gp,-3680
  411444:	afbc0010 	sw	gp,16(sp)
  411448:	14800003 	bnez	a0,411458 <push_dchevent_start@@Base+0x2c>
  41144c:	00808021 	move	s0,a0
  411450:	10000048 	b	411574 <push_dchevent_start@@Base+0x148>
  411454:	2402ffff 	li	v0,-1
  411458:	90820005 	lbu	v0,5(a0)
  41145c:	1040000a 	beqz	v0,411488 <push_dchevent_start@@Base+0x5c>
  411460:	3c050041 	lui	a1,0x41
  411464:	8f82809c 	lw	v0,-32612(gp)
  411468:	8c440000 	lw	a0,0(v0)
  41146c:	24a55efc 	addiu	a1,a1,24316
  411470:	3c060041 	lui	a2,0x41
[31m  411474:	8f998154 	lw	t9,fprintf[0m
  411478:	0320f809 	jalr	t9
  41147c:	24c66894 	addiu	a2,a2,26772
  411480:	1000003c 	b	411574 <push_dchevent_start@@Base+0x148>
  411484:	2402ffff 	li	v0,-1
  411488:	8f9981f0 	lw	t9,-32272(gp)
  41148c:	0320f809 	jalr	t9
  411490:	27a40018 	addiu	a0,sp,24
  411494:	8fbc0010 	lw	gp,16(sp)
  411498:	1040000b 	beqz	v0,4114c8 <push_dchevent_start@@Base+0x9c>
  41149c:	27a40018 	addiu	a0,sp,24
  4114a0:	8f82809c 	lw	v0,-32612(gp)
  4114a4:	8c440000 	lw	a0,0(v0)
  4114a8:	3c050041 	lui	a1,0x41
  4114ac:	24a55f28 	addiu	a1,a1,24360
  4114b0:	3c060041 	lui	a2,0x41
[31m  4114b4:	8f998154 	lw	t9,fprintf[0m
  4114b8:	0320f809 	jalr	t9
  4114bc:	24c66894 	addiu	a2,a2,26772
  4114c0:	1000002c 	b	411574 <push_dchevent_start@@Base+0x148>
  4114c4:	2402ffff 	li	v0,-1
  4114c8:	8f998044 	lw	t9,-32700(gp)
  4114cc:	0320f809 	jalr	t9
  4114d0:	24050001 	li	a1,1
  4114d4:	8fbc0010 	lw	gp,16(sp)
  4114d8:	1040000f 	beqz	v0,411518 <push_dchevent_start@@Base+0xec>
  4114dc:	02002021 	move	a0,s0
  4114e0:	8f998204 	lw	t9,-32252(gp)
  4114e4:	0320f809 	jalr	t9
  4114e8:	27a40018 	addiu	a0,sp,24
  4114ec:	8fbc0010 	lw	gp,16(sp)
  4114f0:	8f82809c 	lw	v0,-32612(gp)
  4114f4:	8c440000 	lw	a0,0(v0)
  4114f8:	3c050041 	lui	a1,0x41
  4114fc:	24a55f64 	addiu	a1,a1,24420
  411500:	3c060041 	lui	a2,0x41
[31m  411504:	8f998154 	lw	t9,fprintf[0m
  411508:	0320f809 	jalr	t9
  41150c:	24c66894 	addiu	a2,a2,26772
  411510:	10000018 	b	411574 <push_dchevent_start@@Base+0x148>
  411514:	2402ffff 	li	v0,-1
  411518:	a2000004 	sb	zero,4(s0)
  41151c:	27b10018 	addiu	s1,sp,24
  411520:	02202821 	move	a1,s1
  411524:	3c060041 	lui	a2,0x41
  411528:	24c62570 	addiu	a2,a2,9584
  41152c:	8f9981f4 	lw	t9,-32268(gp)
  411530:	0320f809 	jalr	t9
  411534:	02003821 	move	a3,s0
  411538:	8fbc0010 	lw	gp,16(sp)
  41153c:	8f998204 	lw	t9,-32252(gp)
  411540:	0320f809 	jalr	t9
  411544:	02202021 	move	a0,s1
  411548:	8fbc0010 	lw	gp,16(sp)
  41154c:	10400009 	beqz	v0,411574 <push_dchevent_start@@Base+0x148>
  411550:	3c050041 	lui	a1,0x41
  411554:	8f82809c 	lw	v0,-32612(gp)
  411558:	8c440000 	lw	a0,0(v0)
  41155c:	24a55fac 	addiu	a1,a1,24492
  411560:	3c060041 	lui	a2,0x41
[31m  411564:	8f998154 	lw	t9,fprintf[0m
  411568:	0320f809 	jalr	t9
  41156c:	24c66894 	addiu	a2,a2,26772
  411570:	2402ffff 	li	v0,-1
  411574:	8fbf004c 	lw	ra,76(sp)
  411578:	8fb10048 	lw	s1,72(sp)
  41157c:	8fb00044 	lw	s0,68(sp)
  411580:	03e00008 	jr	ra
  411584:	27bd0050 	addiu	sp,sp,80
  411588:	27bdffe0 	addiu	sp,sp,-32
  41158c:	afbf001c 	sw	ra,28(sp)
  411590:	afb00018 	sw	s0,24(sp)
  411594:	3c1c0043 	lui	gp,0x43
  411598:	279cf1a0 	addiu	gp,gp,-3680
  41159c:	afbc0010 	sw	gp,16(sp)
  4115a0:	8f9980a8 	lw	t9,-32600(gp)
  4115a4:	0320f809 	jalr	t9
  4115a8:	00a08021 	move	s0,a1
  4115ac:	8fbc0010 	lw	gp,16(sp)
  4115b0:	1440000a 	bnez	v0,4115dc <push_dchevent_start@@Base+0x1b0>
  4115b4:	3c050041 	lui	a1,0x41
  4115b8:	8f82809c 	lw	v0,-32612(gp)
  4115bc:	8c440000 	lw	a0,0(v0)
  4115c0:	24a55fec 	addiu	a1,a1,24556
  4115c4:	3c060041 	lui	a2,0x41
[31m  4115c8:	8f998154 	lw	t9,fprintf[0m
  4115cc:	0320f809 	jalr	t9
  4115d0:	24c668ec 	addiu	a2,a2,26860
--
  411640:	00808021 	move	s0,a0
  411644:	00a08821 	move	s1,a1
  411648:	00c09821 	move	s3,a2
  41164c:	3c020041 	lui	v0,0x41
  411650:	904267f0 	lbu	v0,26608(v0)
  411654:	a3a20028 	sb	v0,40(sp)
  411658:	27a40029 	addiu	a0,sp,41
  41165c:	00002821 	move	a1,zero
  411660:	8f9980d4 	lw	t9,-32556(gp)
  411664:	0320f809 	jalr	t9
  411668:	2406004f 	li	a2,79
  41166c:	8fbc0010 	lw	gp,16(sp)
  411670:	24040002 	li	a0,2
  411674:	24050002 	li	a1,2
  411678:	8f998194 	lw	t9,-32364(gp)
  41167c:	0320f809 	jalr	t9
  411680:	00003021 	move	a2,zero
  411684:	8fbc0010 	lw	gp,16(sp)
  411688:	0441000b 	bgez	v0,4116b8 <push_dchevent_start@@Base+0x28c>
  41168c:	ae020000 	sw	v0,0(s0)
  411690:	8f82809c 	lw	v0,-32612(gp)
  411694:	8c440000 	lw	a0,0(v0)
  411698:	3c050041 	lui	a1,0x41
  41169c:	24a5601c 	addiu	a1,a1,24604
  4116a0:	3c060041 	lui	a2,0x41
[31m  4116a4:	8f998154 	lw	t9,fprintf[0m
  4116a8:	0320f809 	jalr	t9
  4116ac:	24c668e0 	addiu	a2,a2,26848
  4116b0:	10000064 	b	411844 <push_dchevent_start@@Base+0x418>
  4116b4:	00001021 	move	v0,zero
  4116b8:	27b20028 	addiu	s2,sp,40
  4116bc:	02202021 	move	a0,s1
  4116c0:	0c104562 	jal	411588 <push_dchevent_start@@Base+0x15c>
  4116c4:	02402821 	move	a1,s2
  4116c8:	8fbc0010 	lw	gp,16(sp)
  4116cc:	0441000a 	bgez	v0,4116f8 <push_dchevent_start@@Base+0x2cc>
  4116d0:	3c050041 	lui	a1,0x41
  4116d4:	8f82809c 	lw	v0,-32612(gp)
  4116d8:	8c440000 	lw	a0,0(v0)
  4116dc:	24a5604c 	addiu	a1,a1,24652
  4116e0:	3c060041 	lui	a2,0x41
[31m  4116e4:	8f998154 	lw	t9,fprintf[0m
  4116e8:	0320f809 	jalr	t9
  4116ec:	24c668e0 	addiu	a2,a2,26848
--
  4116fc:	a7a20018 	sh	v0,24(sp)
  411700:	8f998144 	lw	t9,-32444(gp)
  411704:	0320f809 	jalr	t9
  411708:	02402021 	move	a0,s2
  41170c:	8fbc0010 	lw	gp,16(sp)
  411710:	afa2001c 	sw	v0,28(sp)
  411714:	a7b3001a 	sh	s3,26(sp)
  411718:	8e040000 	lw	a0,0(s0)
  41171c:	24050003 	li	a1,3
  411720:	8f998040 	lw	t9,-32704(gp)
  411724:	0320f809 	jalr	t9
  411728:	00003021 	move	a2,zero
  41172c:	8fbc0010 	lw	gp,16(sp)
  411730:	04410010 	bgez	v0,411774 <push_dchevent_start@@Base+0x348>
  411734:	24050004 	li	a1,4
  411738:	8e040000 	lw	a0,0(s0)
  41173c:	8f99803c 	lw	t9,-32708(gp)
  411740:	0320f809 	jalr	t9
  411744:	00000000 	nop
  411748:	8fbc0010 	lw	gp,16(sp)
  41174c:	8f82809c 	lw	v0,-32612(gp)
  411750:	8c440000 	lw	a0,0(v0)
  411754:	3c050041 	lui	a1,0x41
  411758:	24a5607c 	addiu	a1,a1,24700
  41175c:	3c060041 	lui	a2,0x41
[31m  411760:	8f998154 	lw	t9,fprintf[0m
  411764:	0320f809 	jalr	t9
  411768:	24c668e0 	addiu	a2,a2,26848
  41176c:	10000035 	b	411844 <push_dchevent_start@@Base+0x418>
  411770:	00001021 	move	v0,zero
  411774:	8e040000 	lw	a0,0(s0)
  411778:	8f998040 	lw	t9,-32704(gp)
  41177c:	0320f809 	jalr	t9
  411780:	34460080 	ori	a2,v0,0x80
  411784:	8fbc0010 	lw	gp,16(sp)
  411788:	04410010 	bgez	v0,4117cc <push_dchevent_start@@Base+0x3a0>
  41178c:	24110005 	li	s1,5
  411790:	8f82809c 	lw	v0,-32612(gp)
  411794:	8c440000 	lw	a0,0(v0)
  411798:	3c050041 	lui	a1,0x41
  41179c:	24a560b4 	addiu	a1,a1,24756
  4117a0:	3c060041 	lui	a2,0x41
[31m  4117a4:	8f998154 	lw	t9,fprintf[0m
  4117a8:	0320f809 	jalr	t9
  4117ac:	24c668e0 	addiu	a2,a2,26848
--
  4117d0:	8e040000 	lw	a0,0(s0)
  4117d4:	02402821 	move	a1,s2
  4117d8:	8f9981fc 	lw	t9,-32260(gp)
  4117dc:	0320f809 	jalr	t9
  4117e0:	24060010 	li	a2,16
  4117e4:	8fbc0010 	lw	gp,16(sp)
  4117e8:	04410016 	bgez	v0,411844 <push_dchevent_start@@Base+0x418>
  4117ec:	24020001 	li	v0,1
  4117f0:	8f9981a8 	lw	t9,-32344(gp)
  4117f4:	0320f809 	jalr	t9
  4117f8:	24040001 	li	a0,1
  4117fc:	8fbc0010 	lw	gp,16(sp)
  411800:	24020001 	li	v0,1
  411804:	1622fff2 	bne	s1,v0,4117d0 <push_dchevent_start@@Base+0x3a4>
  411808:	2631ffff 	addiu	s1,s1,-1
  41180c:	8e040000 	lw	a0,0(s0)
  411810:	8f99803c 	lw	t9,-32708(gp)
  411814:	0320f809 	jalr	t9
  411818:	00000000 	nop
  41181c:	8fbc0010 	lw	gp,16(sp)
  411820:	8f82809c 	lw	v0,-32612(gp)
  411824:	8c440000 	lw	a0,0(v0)
  411828:	3c050041 	lui	a1,0x41
  41182c:	24a560e8 	addiu	a1,a1,24808
  411830:	3c060041 	lui	a2,0x41
[31m  411834:	8f998154 	lw	t9,fprintf[0m
  411838:	0320f809 	jalr	t9
  41183c:	24c668e0 	addiu	a2,a2,26848
--
  41189c:	904267f0 	lbu	v0,26608(v0)
  4118a0:	a3a20020 	sb	v0,32(sp)
  4118a4:	27a40021 	addiu	a0,sp,33
  4118a8:	00002821 	move	a1,zero
  4118ac:	8f9980d4 	lw	t9,-32556(gp)
  4118b0:	0320f809 	jalr	t9
  4118b4:	240605b3 	li	a2,1459
  4118b8:	8fbc0018 	lw	gp,24(sp)
  4118bc:	1240000b 	beqz	s2,4118ec <push_dchevent_start@@Base+0x4c0>
  4118c0:	00000000 	nop
  4118c4:	12200009 	beqz	s1,4118ec <push_dchevent_start@@Base+0x4c0>
  4118c8:	00000000 	nop
  4118cc:	06000007 	bltz	s0,4118ec <push_dchevent_start@@Base+0x4c0>
  4118d0:	00000000 	nop
  4118d4:	3c020001 	lui	v0,0x1
  4118d8:	0202102a 	slt	v0,s0,v0
  4118dc:	10400003 	beqz	v0,4118ec <push_dchevent_start@@Base+0x4c0>
  4118e0:	00000000 	nop
  4118e4:	1660000b 	bnez	s3,411914 <push_dchevent_start@@Base+0x4e8>
  4118e8:	02402021 	move	a0,s2
  4118ec:	8f82809c 	lw	v0,-32612(gp)
  4118f0:	8c440000 	lw	a0,0(v0)
  4118f4:	3c050041 	lui	a1,0x41
  4118f8:	24a55ed0 	addiu	a1,a1,24272
  4118fc:	3c060041 	lui	a2,0x41
[31m  411900:	8f998154 	lw	t9,fprintf[0m
  411904:	0320f809 	jalr	t9
  411908:	24c668d0 	addiu	a2,a2,26832
  41190c:	10000072 	b	411ad8 <push_dchevent_start@@Base+0x6ac>
  411910:	2402ffff 	li	v0,-1
  411914:	02202821 	move	a1,s1
  411918:	0c104587 	jal	41161c <push_dchevent_start@@Base+0x1f0>
  41191c:	02003021 	move	a2,s0
  411920:	8fbc0018 	lw	gp,24(sp)
  411924:	1440000c 	bnez	v0,411958 <push_dchevent_start@@Base+0x52c>
  411928:	2402ffff 	li	v0,-1
  41192c:	ae420000 	sw	v0,0(s2)
  411930:	8f82809c 	lw	v0,-32612(gp)
  411934:	8c440000 	lw	a0,0(v0)
  411938:	3c050041 	lui	a1,0x41
  41193c:	24a5611c 	addiu	a1,a1,24860
  411940:	3c060041 	lui	a2,0x41
[31m  411944:	8f998154 	lw	t9,fprintf[0m
  411948:	0320f809 	jalr	t9
  41194c:	24c668d0 	addiu	a2,a2,26832
--
  4119d8:	8e440000 	lw	a0,0(s2)
  4119dc:	02002821 	move	a1,s0
  4119e0:	00403021 	move	a2,v0
  4119e4:	8f998178 	lw	t9,-32392(gp)
  4119e8:	0320f809 	jalr	t9
  4119ec:	00003821 	move	a3,zero
  4119f0:	8fbc0018 	lw	gp,24(sp)
  4119f4:	04400005 	bltz	v0,411a0c <push_dchevent_start@@Base+0x5e0>
  4119f8:	00000000 	nop
  4119fc:	16800014 	bnez	s4,411a50 <push_dchevent_start@@Base+0x624>
  411a00:	02608821 	move	s1,s3
  411a04:	10000034 	b	411ad8 <push_dchevent_start@@Base+0x6ac>
  411a08:	00001021 	move	v0,zero
  411a0c:	8e440000 	lw	a0,0(s2)
  411a10:	8f99803c 	lw	t9,-32708(gp)
  411a14:	0320f809 	jalr	t9
  411a18:	00000000 	nop
  411a1c:	8fbc0018 	lw	gp,24(sp)
  411a20:	2402ffff 	li	v0,-1
  411a24:	ae420000 	sw	v0,0(s2)
  411a28:	8f82809c 	lw	v0,-32612(gp)
  411a2c:	8c440000 	lw	a0,0(v0)
  411a30:	3c050041 	lui	a1,0x41
  411a34:	24a56264 	addiu	a1,a1,25188
  411a38:	3c060041 	lui	a2,0x41
[31m  411a3c:	8f998154 	lw	t9,fprintf[0m
  411a40:	0320f809 	jalr	t9
  411a44:	24c668d0 	addiu	a2,a2,26832
--
  411a54:	241305b4 	li	s3,1460
  411a58:	2a0605b5 	slti	a2,s0,1461
  411a5c:	8e440000 	lw	a0,0(s2)
  411a60:	02202821 	move	a1,s1
  411a64:	02601021 	move	v0,s3
  411a68:	0206100b 	0x206100b
  411a6c:	00403021 	move	a2,v0
  411a70:	8f998178 	lw	t9,-32392(gp)
  411a74:	0320f809 	jalr	t9
  411a78:	00003821 	move	a3,zero
  411a7c:	8fbc0018 	lw	gp,24(sp)
  411a80:	04410012 	bgez	v0,411acc <push_dchevent_start@@Base+0x6a0>
  411a84:	02028023 	subu	s0,s0,v0
  411a88:	8e440000 	lw	a0,0(s2)
  411a8c:	8f99803c 	lw	t9,-32708(gp)
  411a90:	0320f809 	jalr	t9
  411a94:	00000000 	nop
  411a98:	8fbc0018 	lw	gp,24(sp)
  411a9c:	2402ffff 	li	v0,-1
  411aa0:	ae420000 	sw	v0,0(s2)
  411aa4:	8f82809c 	lw	v0,-32612(gp)
  411aa8:	8c440000 	lw	a0,0(v0)
  411aac:	3c050041 	lui	a1,0x41
  411ab0:	24a56298 	addiu	a1,a1,25240
  411ab4:	3c060041 	lui	a2,0x41
[31m  411ab8:	8f998154 	lw	t9,fprintf[0m
  411abc:	0320f809 	jalr	t9
  411ac0:	24c668d0 	addiu	a2,a2,26832
--
  411b88:	02031804 	sllv	v1,v1,s0
  411b8c:	8c440000 	lw	a0,0(v0)
  411b90:	00831825 	or	v1,a0,v1
  411b94:	ac430000 	sw	v1,0(v0)
  411b98:	00009821 	move	s3,zero
  411b9c:	26150001 	addiu	s5,s0,1
  411ba0:	27b600a0 	addiu	s6,sp,160
  411ba4:	27b70020 	addiu	s7,sp,32
  411ba8:	3c1e0041 	lui	s8,0x41
  411bac:	27de6318 	addiu	s8,s8,25368
  411bb0:	afb60010 	sw	s6,16(sp)
  411bb4:	02a02021 	move	a0,s5
  411bb8:	02e02821 	move	a1,s7
  411bbc:	00003021 	move	a2,zero
  411bc0:	8f998190 	lw	t9,-32368(gp)
  411bc4:	0320f809 	jalr	t9
  411bc8:	00003821 	move	a3,zero
  411bcc:	8fbc0018 	lw	gp,24(sp)
  411bd0:	0441000b 	bgez	v0,411c00 <push_dchevent_start@@Base+0x7d4>
  411bd4:	02002021 	move	a0,s0
  411bd8:	8f82809c 	lw	v0,-32612(gp)
  411bdc:	8c440000 	lw	a0,0(v0)
  411be0:	3c050041 	lui	a1,0x41
  411be4:	24a562d0 	addiu	a1,a1,25296
  411be8:	3c060041 	lui	a2,0x41
[31m  411bec:	8f998154 	lw	t9,fprintf[0m
  411bf0:	0320f809 	jalr	t9
  411bf4:	24c668fc 	addiu	a2,a2,26876
  411bf8:	10000030 	b	411cbc <push_dchevent_start@@Base+0x890>
  411bfc:	2402ffff 	li	v0,-1
  411c00:	02802821 	move	a1,s4
  411c04:	24060001 	li	a2,1
  411c08:	8f998200 	lw	t9,-32256(gp)
  411c0c:	0320f809 	jalr	t9
  411c10:	00003821 	move	a3,zero
  411c14:	8fbc0018 	lw	gp,24(sp)
  411c18:	1c40000b 	bgtz	v0,411c48 <push_dchevent_start@@Base+0x81c>
  411c1c:	02629821 	addu	s3,s3,v0
  411c20:	8f82809c 	lw	v0,-32612(gp)
  411c24:	8c440000 	lw	a0,0(v0)
  411c28:	3c050041 	lui	a1,0x41
  411c2c:	24a562f4 	addiu	a1,a1,25332
  411c30:	3c060041 	lui	a2,0x41
[31m  411c34:	8f998154 	lw	t9,fprintf[0m
  411c38:	0320f809 	jalr	t9
  411c3c:	24c668fc 	addiu	a2,a2,26876
  411c40:	1000001e 	b	411cbc <push_dchevent_start@@Base+0x890>
  411c44:	2402ffff 	li	v0,-1
  411c48:	2a620004 	slti	v0,s3,4
  411c4c:	1440000d 	bnez	v0,411c84 <push_dchevent_start@@Base+0x858>
  411c50:	0233a021 	addu	s4,s1,s3
  411c54:	0272102a 	slt	v0,s3,s2
  411c58:	1040000d 	beqz	v0,411c90 <push_dchevent_start@@Base+0x864>
  411c5c:	2684fffc 	addiu	a0,s4,-4
  411c60:	03c02821 	move	a1,s8
  411c64:	8f998114 	lw	t9,-32492(gp)
  411c68:	0320f809 	jalr	t9
  411c6c:	24060004 	li	a2,4
  411c70:	8fbc0018 	lw	gp,24(sp)
  411c74:	1440ffce 	bnez	v0,411bb0 <push_dchevent_start@@Base+0x784>
  411c78:	00000000 	nop
  411c7c:	1000000f 	b	411cbc <push_dchevent_start@@Base+0x890>
  411c80:	00000000 	nop
  411c84:	0272102a 	slt	v0,s3,s2
  411c88:	1440ffc9 	bnez	v0,411bb0 <push_dchevent_start@@Base+0x784>
  411c8c:	00000000 	nop
  411c90:	8f82809c 	lw	v0,-32612(gp)
  411c94:	8c440000 	lw	a0,0(v0)
  411c98:	3c050041 	lui	a1,0x41
  411c9c:	24a56320 	addiu	a1,a1,25376
  411ca0:	3c060041 	lui	a2,0x41
[31m  411ca4:	8f998154 	lw	t9,fprintf[0m
  411ca8:	0320f809 	jalr	t9
  411cac:	24c668fc 	addiu	a2,a2,26876
--
  411d28:	afa00024 	sw	zero,36(sp)
  411d2c:	afa00028 	sw	zero,40(sp)
  411d30:	3c020041 	lui	v0,0x41
  411d34:	904267f0 	lbu	v0,26608(v0)
  411d38:	a3a200b4 	sb	v0,180(sp)
  411d3c:	27a400b5 	addiu	a0,sp,181
  411d40:	00002821 	move	a1,zero
  411d44:	8f9980d4 	lw	t9,-32556(gp)
  411d48:	0320f809 	jalr	t9
  411d4c:	240605b3 	li	a2,1459
  411d50:	8fbc0018 	lw	gp,24(sp)
  411d54:	12200008 	beqz	s1,411d78 <push_dchevent_start@@Base+0x94c>
  411d58:	00000000 	nop
  411d5c:	06000006 	bltz	s0,411d78 <push_dchevent_start@@Base+0x94c>
  411d60:	3c020001 	lui	v0,0x1
  411d64:	0202102a 	slt	v0,s0,v0
  411d68:	10400003 	beqz	v0,411d78 <push_dchevent_start@@Base+0x94c>
  411d6c:	00000000 	nop
  411d70:	1640000b 	bnez	s2,411da0 <push_dchevent_start@@Base+0x974>
  411d74:	27a40020 	addiu	a0,sp,32
  411d78:	8f82809c 	lw	v0,-32612(gp)
  411d7c:	8c440000 	lw	a0,0(v0)
  411d80:	3c050041 	lui	a1,0x41
  411d84:	24a55ed0 	addiu	a1,a1,24272
  411d88:	3c060041 	lui	a2,0x41
[31m  411d8c:	8f998154 	lw	t9,fprintf[0m
  411d90:	0320f809 	jalr	t9
  411d94:	24c668c0 	addiu	a2,a2,26816
  411d98:	100000e0 	b	41211c <push_dchevent_start@@Base+0xcf0>
  411d9c:	2410ffff 	li	s0,-1
  411da0:	02202821 	move	a1,s1
  411da4:	02003021 	move	a2,s0
  411da8:	0c104618 	jal	411860 <push_dchevent_start@@Base+0x434>
  411dac:	02403821 	move	a3,s2
  411db0:	8fbc0018 	lw	gp,24(sp)
  411db4:	2403ffff 	li	v1,-1
  411db8:	1443000c 	bne	v0,v1,411dec <push_dchevent_start@@Base+0x9c0>
  411dbc:	00002821 	move	a1,zero
  411dc0:	8f82809c 	lw	v0,-32612(gp)
  411dc4:	8c440000 	lw	a0,0(v0)
  411dc8:	3c050041 	lui	a1,0x41
  411dcc:	24a5634c 	addiu	a1,a1,25420
  411dd0:	3c060041 	lui	a2,0x41
[31m  411dd4:	8f998154 	lw	t9,fprintf[0m
  411dd8:	0320f809 	jalr	t9
  411ddc:	24c668c0 	addiu	a2,a2,26816
  411de0:	8fbc0018 	lw	gp,24(sp)
  411de4:	100000c6 	b	412100 <push_dchevent_start@@Base+0xcd4>
  411de8:	2410ffff 	li	s0,-1
  411dec:	27b000b4 	addiu	s0,sp,180
  411df0:	02002021 	move	a0,s0
  411df4:	8f9980d4 	lw	t9,-32556(gp)
  411df8:	0320f809 	jalr	t9
  411dfc:	240605b4 	li	a2,1460
  411e00:	8fa40020 	lw	a0,32(sp)
  411e04:	02002821 	move	a1,s0
  411e08:	0c1046be 	jal	411af8 <push_dchevent_start@@Base+0x6cc>
  411e0c:	240605b4 	li	a2,1460
  411e10:	8fbc0018 	lw	gp,24(sp)
  411e14:	1040000c 	beqz	v0,411e48 <push_dchevent_start@@Base+0xa1c>
  411e18:	27a400bc 	addiu	a0,sp,188
  411e1c:	8f82809c 	lw	v0,-32612(gp)
  411e20:	8c440000 	lw	a0,0(v0)
  411e24:	3c050041 	lui	a1,0x41
  411e28:	24a5637c 	addiu	a1,a1,25468
  411e2c:	3c060041 	lui	a2,0x41
[31m  411e30:	8f998154 	lw	t9,fprintf[0m
  411e34:	0320f809 	jalr	t9
  411e38:	24c668c0 	addiu	a2,a2,26816
  411e3c:	8fbc0018 	lw	gp,24(sp)
  411e40:	100000af 	b	412100 <push_dchevent_start@@Base+0xcd4>
  411e44:	2410ffff 	li	s0,-1
  411e48:	3c100041 	lui	s0,0x41
  411e4c:	26105108 	addiu	s0,s0,20744
  411e50:	02002821 	move	a1,s0
  411e54:	8f9980f0 	lw	t9,-32528(gp)
  411e58:	0320f809 	jalr	t9
  411e5c:	27a60024 	addiu	a2,sp,36
  411e60:	8fbc0018 	lw	gp,24(sp)
  411e64:	8fa70024 	lw	a3,36(sp)
  411e68:	240200c8 	li	v0,200
  411e6c:	10e2000b 	beq	a3,v0,411e9c <push_dchevent_start@@Base+0xa70>
  411e70:	3c050041 	lui	a1,0x41
  411e74:	8f82809c 	lw	v0,-32612(gp)
  411e78:	8c440000 	lw	a0,0(v0)
  411e7c:	24a563ac 	addiu	a1,a1,25516
  411e80:	3c060041 	lui	a2,0x41
[31m  411e84:	8f998154 	lw	t9,fprintf[0m
  411e88:	0320f809 	jalr	t9
  411e8c:	24c668c0 	addiu	a2,a2,26816
  411e90:	8fbc0018 	lw	gp,24(sp)
  411e94:	1000009a 	b	412100 <push_dchevent_start@@Base+0xcd4>
  411e98:	2410ffff 	li	s0,-1
  411e9c:	27a400b4 	addiu	a0,sp,180
  411ea0:	3c050041 	lui	a1,0x41
  411ea4:	8f998128 	lw	t9,-32472(gp)
  411ea8:	0320f809 	jalr	t9
  411eac:	24a563e4 	addiu	a1,a1,25572
  411eb0:	8fbc0018 	lw	gp,24(sp)
  411eb4:	1440000c 	bnez	v0,411ee8 <push_dchevent_start@@Base+0xabc>
  411eb8:	24440010 	addiu	a0,v0,16
  411ebc:	8f82809c 	lw	v0,-32612(gp)
  411ec0:	8c440000 	lw	a0,0(v0)
  411ec4:	3c050041 	lui	a1,0x41
  411ec8:	24a563f4 	addiu	a1,a1,25588
  411ecc:	3c060041 	lui	a2,0x41
[31m  411ed0:	8f998154 	lw	t9,fprintf[0m
  411ed4:	0320f809 	jalr	t9
  411ed8:	24c668c0 	addiu	a2,a2,26816
  411edc:	8fbc0018 	lw	gp,24(sp)
  411ee0:	10000087 	b	412100 <push_dchevent_start@@Base+0xcd4>
  411ee4:	2410ffff 	li	s0,-1
  411ee8:	02002821 	move	a1,s0
  411eec:	8f9980f0 	lw	t9,-32528(gp)
  411ef0:	0320f809 	jalr	t9
  411ef4:	27a60028 	addiu	a2,sp,40
  411ef8:	8fbc0018 	lw	gp,24(sp)
  411efc:	8fa20028 	lw	v0,40(sp)
  411f00:	2c4205b4 	sltiu	v0,v0,1460
  411f04:	1440000d 	bnez	v0,411f3c <push_dchevent_start@@Base+0xb10>
  411f08:	24020005 	li	v0,5
  411f0c:	8f82809c 	lw	v0,-32612(gp)
  411f10:	8c440000 	lw	a0,0(v0)
  411f14:	3c050041 	lui	a1,0x41
  411f18:	24a56438 	addiu	a1,a1,25656
  411f1c:	3c060041 	lui	a2,0x41
[31m  411f20:	8f998154 	lw	t9,fprintf[0m
  411f24:	0320f809 	jalr	t9
  411f28:	24c668c0 	addiu	a2,a2,26816
--
  411f8c:	8f9980d4 	lw	t9,-32556(gp)
  411f90:	0320f809 	jalr	t9
  411f94:	240605b4 	li	a2,1460
  411f98:	8fbc0018 	lw	gp,24(sp)
  411f9c:	1a00003a 	blez	s0,412088 <push_dchevent_start@@Base+0xc5c>
  411fa0:	00008821 	move	s1,zero
  411fa4:	27b2002c 	addiu	s2,sp,44
  411fa8:	27b300ac 	addiu	s3,sp,172
  411fac:	27b400b4 	addiu	s4,sp,180
  411fb0:	afb30010 	sw	s3,16(sp)
  411fb4:	8fa40020 	lw	a0,32(sp)
  411fb8:	24840001 	addiu	a0,a0,1
  411fbc:	02402821 	move	a1,s2
  411fc0:	00003021 	move	a2,zero
  411fc4:	8f998190 	lw	t9,-32368(gp)
  411fc8:	0320f809 	jalr	t9
  411fcc:	00003821 	move	a3,zero
  411fd0:	8fbc0018 	lw	gp,24(sp)
  411fd4:	0441000c 	bgez	v0,412008 <push_dchevent_start@@Base+0xbdc>
  411fd8:	2a0205b5 	slti	v0,s0,1461
  411fdc:	8f82809c 	lw	v0,-32612(gp)
  411fe0:	8c440000 	lw	a0,0(v0)
  411fe4:	3c050041 	lui	a1,0x41
  411fe8:	24a56474 	addiu	a1,a1,25716
  411fec:	3c060041 	lui	a2,0x41
[31m  411ff0:	8f998154 	lw	t9,fprintf[0m
  411ff4:	0320f809 	jalr	t9
  411ff8:	24c668c0 	addiu	a2,a2,26816
--
  412004:	2410ffff 	li	s0,-1
  412008:	14400009 	bnez	v0,412030 <push_dchevent_start@@Base+0xc04>
  41200c:	02912821 	addu	a1,s4,s1
  412010:	8fa40020 	lw	a0,32(sp)
  412014:	240605b4 	li	a2,1460
  412018:	8f998200 	lw	t9,-32256(gp)
  41201c:	0320f809 	jalr	t9
  412020:	00003821 	move	a3,zero
  412024:	8fbc0018 	lw	gp,24(sp)
  412028:	10000007 	b	412048 <push_dchevent_start@@Base+0xc1c>
  41202c:	00000000 	nop
  412030:	8fa40020 	lw	a0,32(sp)
  412034:	02003021 	move	a2,s0
  412038:	8f998200 	lw	t9,-32256(gp)
  41203c:	0320f809 	jalr	t9
  412040:	00003821 	move	a3,zero
  412044:	8fbc0018 	lw	gp,24(sp)
  412048:	1c40000d 	bgtz	v0,412080 <push_dchevent_start@@Base+0xc54>
  41204c:	02028023 	subu	s0,s0,v0
  412050:	02028021 	addu	s0,s0,v0
  412054:	8f82809c 	lw	v0,-32612(gp)
  412058:	8c440000 	lw	a0,0(v0)
  41205c:	3c050041 	lui	a1,0x41
  412060:	24a564a4 	addiu	a1,a1,25764
  412064:	3c060041 	lui	a2,0x41
[31m  412068:	8f998154 	lw	t9,fprintf[0m
  41206c:	0320f809 	jalr	t9
  412070:	24c668c0 	addiu	a2,a2,26816
  412074:	8fbc0018 	lw	gp,24(sp)
  412078:	10000021 	b	412100 <push_dchevent_start@@Base+0xcd4>
  41207c:	2410ffff 	li	s0,-1
  412080:	1e00ffcb 	bgtz	s0,411fb0 <push_dchevent_start@@Base+0xb84>
  412084:	02228821 	addu	s1,s1,v0
  412088:	8f82809c 	lw	v0,-32612(gp)
  41208c:	8c440000 	lw	a0,0(v0)
  412090:	27b000b4 	addiu	s0,sp,180
  412094:	3c060041 	lui	a2,0x41
  412098:	24c668c0 	addiu	a2,a2,26816
  41209c:	afa60010 	sw	a2,16(sp)
  4120a0:	3c050041 	lui	a1,0x41
  4120a4:	24a564d4 	addiu	a1,a1,25812
[31m  4120a8:	8f998154 	lw	t9,fprintf[0m
  4120ac:	0320f809 	jalr	t9
  4120b0:	02003821 	move	a3,s0
  4120b4:	8fbc0018 	lw	gp,24(sp)
  4120b8:	02002021 	move	a0,s0
  4120bc:	3c050041 	lui	a1,0x41
  4120c0:	8f998128 	lw	t9,-32472(gp)
  4120c4:	0320f809 	jalr	t9
  4120c8:	24a56544 	addiu	a1,a1,25924
  4120cc:	8fbc0018 	lw	gp,24(sp)
  4120d0:	1440000b 	bnez	v0,412100 <push_dchevent_start@@Base+0xcd4>
  4120d4:	00008021 	move	s0,zero
  4120d8:	8f82809c 	lw	v0,-32612(gp)
  4120dc:	8c440000 	lw	a0,0(v0)
  4120e0:	3c050041 	lui	a1,0x41
  4120e4:	24a56570 	addiu	a1,a1,25968
  4120e8:	3c060041 	lui	a2,0x41
[31m  4120ec:	8f998154 	lw	t9,fprintf[0m
  4120f0:	0320f809 	jalr	t9
  4120f4:	24c668c0 	addiu	a2,a2,26816
--
  412178:	00808821 	move	s1,a0
  41217c:	afa500d4 	sw	a1,212(sp)
  412180:	afa600d8 	sw	a2,216(sp)
  412184:	3c020041 	lui	v0,0x41
  412188:	904267f0 	lbu	v0,26608(v0)
  41218c:	a3a20018 	sb	v0,24(sp)
  412190:	27a40019 	addiu	a0,sp,25
  412194:	00002821 	move	a1,zero
  412198:	8f9980d4 	lw	t9,-32556(gp)
  41219c:	0320f809 	jalr	t9
  4121a0:	2406001f 	li	a2,31
  4121a4:	8fbc0010 	lw	gp,16(sp)
  4121a8:	12200007 	beqz	s1,4121c8 <getTargetIPAndPort@@Base+0x88>
  4121ac:	00000000 	nop
  4121b0:	8fa200d4 	lw	v0,212(sp)
  4121b4:	10400004 	beqz	v0,4121c8 <getTargetIPAndPort@@Base+0x88>
  4121b8:	00000000 	nop
  4121bc:	8fa300d8 	lw	v1,216(sp)
  4121c0:	1460000b 	bnez	v1,4121f0 <getTargetIPAndPort@@Base+0xb0>
  4121c4:	00000000 	nop
  4121c8:	8f82809c 	lw	v0,-32612(gp)
  4121cc:	8c440000 	lw	a0,0(v0)
  4121d0:	3c050041 	lui	a1,0x41
  4121d4:	24a55ed0 	addiu	a1,a1,24272
  4121d8:	3c060041 	lui	a2,0x41
[31m  4121dc:	8f998154 	lw	t9,fprintf[0m
  4121e0:	0320f809 	jalr	t9
  4121e4:	24c6690c 	addiu	a2,a2,26892
--
  412248:	00000000 	nop
  41224c:	3c040041 	lui	a0,0x41
  412250:	8f9980e0 	lw	t9,-32544(gp)
  412254:	0320f809 	jalr	t9
  412258:	248465a0 	addiu	a0,a0,26016
  41225c:	8fbc0010 	lw	gp,16(sp)
  412260:	14400017 	bnez	v0,4122c0 <getTargetIPAndPort@@Base+0x180>
  412264:	afa20094 	sw	v0,148(sp)
  412268:	3c040007 	lui	a0,0x7
  41226c:	8f9981d8 	lw	t9,-32296(gp)
  412270:	0320f809 	jalr	t9
  412274:	3484a120 	ori	a0,a0,0xa120
  412278:	8fbc0010 	lw	gp,16(sp)
  41227c:	3c040041 	lui	a0,0x41
  412280:	8f9980e0 	lw	t9,-32544(gp)
  412284:	0320f809 	jalr	t9
  412288:	248465a0 	addiu	a0,a0,26016
  41228c:	8fbc0010 	lw	gp,16(sp)
  412290:	1440000b 	bnez	v0,4122c0 <getTargetIPAndPort@@Base+0x180>
  412294:	afa20094 	sw	v0,148(sp)
  412298:	8f82809c 	lw	v0,-32612(gp)
  41229c:	8c440000 	lw	a0,0(v0)
  4122a0:	3c050041 	lui	a1,0x41
  4122a4:	24a565bc 	addiu	a1,a1,26044
  4122a8:	3c060041 	lui	a2,0x41
[31m  4122ac:	8f998154 	lw	t9,fprintf[0m
  4122b0:	0320f809 	jalr	t9
  4122b4:	24c6690c 	addiu	a2,a2,26892
  4122b8:	100000a0 	b	41253c <getTargetIPAndPort@@Base+0x3fc>
  4122bc:	2410ffff 	li	s0,-1
  4122c0:	8fa40094 	lw	a0,148(sp)
  4122c4:	3c050041 	lui	a1,0x41
  4122c8:	8f9980b0 	lw	t9,-32592(gp)
  4122cc:	0320f809 	jalr	t9
  4122d0:	24a565e8 	addiu	a1,a1,26088
  4122d4:	8fbc0010 	lw	gp,16(sp)
  4122d8:	14400010 	bnez	v0,41231c <getTargetIPAndPort@@Base+0x1dc>
  4122dc:	00409821 	move	s3,v0
  4122e0:	8f82809c 	lw	v0,-32612(gp)
  4122e4:	8c440000 	lw	a0,0(v0)
  4122e8:	3c050041 	lui	a1,0x41
  4122ec:	24a565f0 	addiu	a1,a1,26096
  4122f0:	3c060041 	lui	a2,0x41
[31m  4122f4:	8f998154 	lw	t9,fprintf[0m
  4122f8:	0320f809 	jalr	t9
  4122fc:	24c6690c 	addiu	a2,a2,26892
  412300:	8fbc0010 	lw	gp,16(sp)
  412304:	8fa40094 	lw	a0,148(sp)
  412308:	8f998174 	lw	t9,-32396(gp)
  41230c:	0320f809 	jalr	t9
  412310:	2410ffff 	li	s0,-1
  412314:	1000008a 	b	412540 <getTargetIPAndPort@@Base+0x400>
  412318:	02001021 	move	v0,s0
  41231c:	8f9981c4 	lw	t9,-32316(gp)
  412320:	0320f809 	jalr	t9
  412324:	00402021 	move	a0,v0
  412328:	8fbc0010 	lw	gp,16(sp)
  41232c:	1c400014 	bgtz	v0,412380 <getTargetIPAndPort@@Base+0x240>
  412330:	0040a021 	move	s4,v0
  412334:	8f82809c 	lw	v0,-32612(gp)
  412338:	8c440000 	lw	a0,0(v0)
  41233c:	3c050041 	lui	a1,0x41
  412340:	24a56618 	addiu	a1,a1,26136
  412344:	3c060041 	lui	a2,0x41
[31m  412348:	8f998154 	lw	t9,fprintf[0m
  41234c:	0320f809 	jalr	t9
  412350:	24c6690c 	addiu	a2,a2,26892
--
  412548:	8fb700c4 	lw	s7,196(sp)
  41254c:	8fb600c0 	lw	s6,192(sp)
  412550:	8fb500bc 	lw	s5,188(sp)
  412554:	8fb400b8 	lw	s4,184(sp)
  412558:	8fb300b4 	lw	s3,180(sp)
  41255c:	8fb200b0 	lw	s2,176(sp)
  412560:	8fb100ac 	lw	s1,172(sp)
  412564:	8fb000a8 	lw	s0,168(sp)
  412568:	03e00008 	jr	ra
  41256c:	27bd00d0 	addiu	sp,sp,208
  412570:	27bdffd0 	addiu	sp,sp,-48
  412574:	afbf002c 	sw	ra,44(sp)
  412578:	afb20028 	sw	s2,40(sp)
  41257c:	afb10024 	sw	s1,36(sp)
  412580:	afb00020 	sw	s0,32(sp)
  412584:	3c1c0043 	lui	gp,0x43
  412588:	279cf1a0 	addiu	gp,gp,-3680
  41258c:	afbc0018 	sw	gp,24(sp)
  412590:	1480000b 	bnez	a0,4125c0 <getTargetIPAndPort@@Base+0x480>
  412594:	00808021 	move	s0,a0
  412598:	8f82809c 	lw	v0,-32612(gp)
  41259c:	8c440000 	lw	a0,0(v0)
  4125a0:	3c050041 	lui	a1,0x41
  4125a4:	24a55ed0 	addiu	a1,a1,24272
  4125a8:	3c060041 	lui	a2,0x41
[31m  4125ac:	8f998154 	lw	t9,fprintf[0m
  4125b0:	0320f809 	jalr	t9
  4125b4:	24c668a8 	addiu	a2,a2,26792
  4125b8:	10000044 	b	4126cc <getTargetIPAndPort@@Base+0x58c>
  4125bc:	00001021 	move	v0,zero
  4125c0:	24020001 	li	v0,1
  4125c4:	a0820005 	sb	v0,5(a0)
  4125c8:	90820004 	lbu	v0,4(a0)
  4125cc:	1040000b 	beqz	v0,4125fc <getTargetIPAndPort@@Base+0x4bc>
  4125d0:	24910026 	addiu	s1,a0,38
  4125d4:	8f82809c 	lw	v0,-32612(gp)
  4125d8:	8c440000 	lw	a0,0(v0)
  4125dc:	3c050041 	lui	a1,0x41
  4125e0:	24a56658 	addiu	a1,a1,26200
  4125e4:	3c060041 	lui	a2,0x41
[31m  4125e8:	8f998154 	lw	t9,fprintf[0m
  4125ec:	0320f809 	jalr	t9
  4125f0:	24c668a8 	addiu	a2,a2,26792
  4125f4:	10000034 	b	4126c8 <getTargetIPAndPort@@Base+0x588>
  4125f8:	a2000005 	sb	zero,5(s0)
  4125fc:	24920006 	addiu	s2,a0,6
  412600:	02202021 	move	a0,s1
  412604:	02402821 	move	a1,s2
  412608:	0c104850 	jal	412140 <getTargetIPAndPort@@Base>
  41260c:	26060046 	addiu	a2,s0,70
  412610:	8fbc0018 	lw	gp,24(sp)
  412614:	0441000c 	bgez	v0,412648 <getTargetIPAndPort@@Base+0x508>
  412618:	3c050041 	lui	a1,0x41
  41261c:	8f82809c 	lw	v0,-32612(gp)
  412620:	8c440000 	lw	a0,0(v0)
  412624:	3c050041 	lui	a1,0x41
  412628:	24a56680 	addiu	a1,a1,26240
  41262c:	3c060041 	lui	a2,0x41
  412630:	24c668a8 	addiu	a2,a2,26792
[31m  412634:	8f998154 	lw	t9,fprintf[0m
  412638:	0320f809 	jalr	t9
  41263c:	02203821 	move	a3,s1
  412640:	10000021 	b	4126c8 <getTargetIPAndPort@@Base+0x588>
  412644:	a2000005 	sb	zero,5(s0)
  412648:	8f82809c 	lw	v0,-32612(gp)
  41264c:	8c440000 	lw	a0,0(v0)
  412650:	afb20010 	sw	s2,16(sp)
  412654:	8a020046 	lwl	v0,70(s0)
  412658:	9a020049 	lwr	v0,73(s0)
  41265c:	afa20014 	sw	v0,20(sp)
  412660:	24a566c4 	addiu	a1,a1,26308
  412664:	3c060041 	lui	a2,0x41
  412668:	24c668a8 	addiu	a2,a2,26792
[31m  41266c:	8f998154 	lw	t9,fprintf[0m
  412670:	0320f809 	jalr	t9
  412674:	02203821 	move	a3,s1
  412678:	8a050046 	lwl	a1,70(s0)
  41267c:	02402021 	move	a0,s2
  412680:	9a050049 	lwr	a1,73(s0)
  412684:	0c10473b 	jal	411cec <push_dchevent_start@@Base+0x8c0>
  412688:	2606004b 	addiu	a2,s0,75
  41268c:	8fbc0018 	lw	gp,24(sp)
  412690:	1040000b 	beqz	v0,4126c0 <getTargetIPAndPort@@Base+0x580>
  412694:	24020001 	li	v0,1
  412698:	8f82809c 	lw	v0,-32612(gp)
  41269c:	8c440000 	lw	a0,0(v0)
  4126a0:	3c050041 	lui	a1,0x41
  4126a4:	24a56710 	addiu	a1,a1,26384
  4126a8:	3c060041 	lui	a2,0x41
[31m  4126ac:	8f998154 	lw	t9,fprintf[0m
  4126b0:	0320f809 	jalr	t9
  4126b4:	24c668a8 	addiu	a2,a2,26792
--
  41270c:	3c040041 	lui	a0,0x41
  412710:	8f9981b8 	lw	t9,-32328(gp)
  412714:	0320f809 	jalr	t9
  412718:	248467b0 	addiu	a0,a0,26544
  41271c:	00001021 	move	v0,zero
  412720:	8fbf001c 	lw	ra,28(sp)
  412724:	03e00008 	jr	ra
  412728:	27bd0020 	addiu	sp,sp,32
  41272c:	27bdffd0 	addiu	sp,sp,-48
  412730:	afbf002c 	sw	ra,44(sp)
  412734:	afb40028 	sw	s4,40(sp)
  412738:	afb30024 	sw	s3,36(sp)
  41273c:	afb20020 	sw	s2,32(sp)
  412740:	afb1001c 	sw	s1,28(sp)
  412744:	afb00018 	sw	s0,24(sp)
  412748:	3c1c0043 	lui	gp,0x43
  41274c:	279cf1a0 	addiu	gp,gp,-3680
  412750:	afbc0010 	sw	gp,16(sp)
  412754:	1480000b 	bnez	a0,412784 <getTargetIPAndPort@@Base+0x644>
  412758:	00808821 	move	s1,a0
  41275c:	8f82809c 	lw	v0,-32612(gp)
  412760:	8c440000 	lw	a0,0(v0)
  412764:	3c050041 	lui	a1,0x41
  412768:	24a55ed0 	addiu	a1,a1,24272
  41276c:	3c060041 	lui	a2,0x41
[31m  412770:	8f998154 	lw	t9,fprintf[0m
  412774:	0320f809 	jalr	t9
  412778:	24c66868 	addiu	a2,a2,26728
  41277c:	1000002a 	b	412828 <getTargetIPAndPort@@Base+0x6e8>
  412780:	00001021 	move	v0,zero
  412784:	24020001 	li	v0,1
  412788:	a0820005 	sb	v0,5(a0)
  41278c:	90820004 	lbu	v0,4(a0)
  412790:	1040000a 	beqz	v0,4127bc <getTargetIPAndPort@@Base+0x67c>
  412794:	3c050041 	lui	a1,0x41
  412798:	8f82809c 	lw	v0,-32612(gp)
  41279c:	8c440000 	lw	a0,0(v0)
  4127a0:	24a56658 	addiu	a1,a1,26200
  4127a4:	3c060041 	lui	a2,0x41
[31m  4127a8:	8f998154 	lw	t9,fprintf[0m
  4127ac:	0320f809 	jalr	t9
  4127b0:	24c66868 	addiu	a2,a2,26728
--
  412fcc:	00101042 	srl	v0,s0,0x1
  412fd0:	82220000 	lb	v0,0(s1)
  412fd4:	28430030 	slti	v1,v0,48
  412fd8:	1460002a 	bnez	v1,413084 <encrypt@@Base+0x340>
  412fdc:	304300ff 	andi	v1,v0,0xff
  412fe0:	2464ffc6 	addiu	a0,v1,-58
  412fe4:	308400ff 	andi	a0,a0,0xff
  412fe8:	2c840007 	sltiu	a0,a0,7
  412fec:	14800025 	bnez	a0,413084 <encrypt@@Base+0x340>
  412ff0:	2463ffb9 	addiu	v1,v1,-71
  412ff4:	306300ff 	andi	v1,v1,0xff
  412ff8:	2c63001a 	sltiu	v1,v1,26
  412ffc:	14600021 	bnez	v1,413084 <encrypt@@Base+0x340>
  413000:	00000000 	nop
  413004:	28420067 	slti	v0,v0,103
  413008:	1440002a 	bnez	v0,4130b4 <encrypt@@Base+0x370>
  41300c:	00000000 	nop
  413010:	1000001c 	b	413084 <encrypt@@Base+0x340>
  413014:	00000000 	nop
  413018:	8f82809c 	lw	v0,-32612(gp)
  41301c:	8c440000 	lw	a0,0(v0)
  413020:	afb00010 	sw	s0,16(sp)
  413024:	24a56920 	addiu	a1,a1,26912
  413028:	3c060041 	lui	a2,0x41
  41302c:	24c66948 	addiu	a2,a2,26952
[31m  413030:	8f998154 	lw	t9,fprintf[0m
  413034:	0320f809 	jalr	t9
  413038:	240700be 	li	a3,190
  41303c:	10000037 	b	41311c <encrypt@@Base+0x3d8>
  413040:	00001021 	move	v0,zero
  413044:	80630000 	lb	v1,0(v1)
  413048:	28640030 	slti	a0,v1,48
  41304c:	1480000d 	bnez	a0,413084 <encrypt@@Base+0x340>
  413050:	306400ff 	andi	a0,v1,0xff
  413054:	2485ffc6 	addiu	a1,a0,-58
  413058:	30a500ff 	andi	a1,a1,0xff
  41305c:	2ca50007 	sltiu	a1,a1,7
  413060:	14a00008 	bnez	a1,413084 <encrypt@@Base+0x340>
  413064:	2484ffb9 	addiu	a0,a0,-71
  413068:	308400ff 	andi	a0,a0,0xff
  41306c:	2c84001a 	sltiu	a0,a0,26
  413070:	14800004 	bnez	a0,413084 <encrypt@@Base+0x340>
  413074:	28630067 	slti	v1,v1,103
  413078:	14600010 	bnez	v1,4130bc <encrypt@@Base+0x378>
  41307c:	24420001 	addiu	v0,v0,1
  413080:	2442ffff 	addiu	v0,v0,-1
  413084:	8f82809c 	lw	v0,-32612(gp)
  413088:	8c440000 	lw	a0,0(v0)
  41308c:	afb10010 	sw	s1,16(sp)
  413090:	3c050041 	lui	a1,0x41
  413094:	24a56950 	addiu	a1,a1,26960
  413098:	3c060041 	lui	a2,0x41
  41309c:	24c66948 	addiu	a2,a2,26952
[31m  4130a0:	8f998154 	lw	t9,fprintf[0m
  4130a4:	0320f809 	jalr	t9
  4130a8:	240700ca 	li	a3,202
--
  413428:	240603ff 	li	a2,1023
  41342c:	8fbc0010 	lw	gp,16(sp)
  413430:	3c020041 	lui	v0,0x41
  413434:	94426f50 	lhu	v0,28496(v0)
  413438:	a7a20418 	sh	v0,1048(sp)
  41343c:	a7a0041a 	sh	zero,1050(sp)
  413440:	3c020041 	lui	v0,0x41
  413444:	8c426f54 	lw	v0,28500(v0)
  413448:	afa2041c 	sw	v0,1052(sp)
  41344c:	afa00420 	sw	zero,1056(sp)
  413450:	afa00424 	sw	zero,1060(sp)
  413454:	afa00428 	sw	zero,1064(sp)
  413458:	afa0042c 	sw	zero,1068(sp)
  41345c:	afa00430 	sw	zero,1072(sp)
  413460:	afa00434 	sw	zero,1076(sp)
  413464:	12a000f8 	beqz	s5,413848 <AESDecrypt@@Base+0x5dc>
  413468:	afa00438 	sw	zero,1080(sp)
  41346c:	92a6000e 	lbu	a2,14(s5)
  413470:	00063200 	sll	a2,a2,0x8
  413474:	92a2000f 	lbu	v0,15(s5)
  413478:	00463025 	or	a2,v0,a2
  41347c:	10c000f2 	beqz	a2,413848 <AESDecrypt@@Base+0x5dc>
  413480:	3c050041 	lui	a1,0x41
  413484:	8f90809c 	lw	s0,-32612(gp)
  413488:	8e040000 	lw	a0,0(s0)
[31m  41348c:	8f998154 	lw	t9,fprintf[0m
  413490:	0320f809 	jalr	t9
  413494:	24a56990 	addiu	a1,a1,27024
  413498:	8fbc0010 	lw	gp,16(sp)
  41349c:	8e040000 	lw	a0,0(s0)
  4134a0:	3c050041 	lui	a1,0x41
  4134a4:	24a569b8 	addiu	a1,a1,27064
[31m  4134a8:	8f998154 	lw	t9,fprintf[0m
  4134ac:	0320f809 	jalr	t9
  4134b0:	24060010 	li	a2,16
--
  4134c4:	8fbc0010 	lw	gp,16(sp)
  4134c8:	104000df 	beqz	v0,413848 <AESDecrypt@@Base+0x5dc>
  4134cc:	0040a021 	move	s4,v0
  4134d0:	26a20010 	addiu	v0,s5,16
  4134d4:	afa2044c 	sw	v0,1100(sp)
  4134d8:	00408021 	move	s0,v0
  4134dc:	0000b821 	move	s7,zero
  4134e0:	8f9e809c 	lw	s8,-32612(gp)
  4134e4:	3c020042 	lui	v0,0x42
  4134e8:	24427058 	addiu	v0,v0,28760
  4134ec:	afa20450 	sw	v0,1104(sp)
  4134f0:	27a30418 	addiu	v1,sp,1048
  4134f4:	afa30454 	sw	v1,1108(sp)
  4134f8:	3c020041 	lui	v0,0x41
  4134fc:	24426a18 	addiu	v0,v0,27160
  413500:	afa20440 	sw	v0,1088(sp)
  413504:	3c020041 	lui	v0,0x41
  413508:	24426a28 	addiu	v0,v0,27176
  41350c:	afa20448 	sw	v0,1096(sp)
  413510:	92060000 	lbu	a2,0(s0)
  413514:	00063200 	sll	a2,a2,0x8
  413518:	92020001 	lbu	v0,1(s0)
  41351c:	8fc40000 	lw	a0,0(s8)
  413520:	3c050041 	lui	a1,0x41
  413524:	24a569d8 	addiu	a1,a1,27096
[31m  413528:	8f998154 	lw	t9,fprintf[0m
  41352c:	0320f809 	jalr	t9
  413530:	00463025 	or	a2,v0,a2
  413534:	8fbc0010 	lw	gp,16(sp)
  413538:	92060002 	lbu	a2,2(s0)
  41353c:	00063200 	sll	a2,a2,0x8
  413540:	92020003 	lbu	v0,3(s0)
  413544:	8fc40000 	lw	a0,0(s8)
  413548:	3c050041 	lui	a1,0x41
  41354c:	24a569f4 	addiu	a1,a1,27124
[31m  413550:	8f998154 	lw	t9,fprintf[0m
  413554:	0320f809 	jalr	t9
  413558:	00463025 	or	a2,v0,a2
--
  413d90:	9443000c 	lhu	v1,12(v0)
  413d94:	a7a3003c 	sh	v1,60(sp)
  413d98:	9042000e 	lbu	v0,14(v0)
  413d9c:	a3a2003e 	sb	v0,62(sp)
  413da0:	27a4003f 	addiu	a0,sp,63
  413da4:	00002821 	move	a1,zero
  413da8:	8f9980d4 	lw	t9,-32556(gp)
  413dac:	0320f809 	jalr	t9
  413db0:	24060031 	li	a2,49
  413db4:	8fbc0018 	lw	gp,24(sp)
  413db8:	3c020041 	lui	v0,0x41
  413dbc:	90426b50 	lbu	v0,27472(v0)
  413dc0:	a3a20070 	sb	v0,112(sp)
  413dc4:	27a40071 	addiu	a0,sp,113
  413dc8:	00002821 	move	a1,zero
  413dcc:	8f9980d4 	lw	t9,-32556(gp)
  413dd0:	0320f809 	jalr	t9
  413dd4:	2406000f 	li	a2,15
  413dd8:	8fbc0018 	lw	gp,24(sp)
  413ddc:	1660000a 	bnez	s3,413e08 <sendEventMsg@@Base+0xd4>
  413de0:	3c050041 	lui	a1,0x41
  413de4:	8f82809c 	lw	v0,-32612(gp)
  413de8:	8c440000 	lw	a0,0(v0)
  413dec:	24a55ed0 	addiu	a1,a1,24272
  413df0:	3c060041 	lui	a2,0x41
[31m  413df4:	8f998154 	lw	t9,fprintf[0m
  413df8:	0320f809 	jalr	t9
  413dfc:	24c66ff4 	addiu	a2,a2,28660
--
  413e1c:	2410ffff 	li	s0,-1
  413e20:	27b00030 	addiu	s0,sp,48
  413e24:	8f998064 	lw	t9,strlen
  413e28:	0320f809 	jalr	t9
  413e2c:	02002021 	move	a0,s0
  413e30:	afa20010 	sw	v0,16(sp)
  413e34:	02602021 	move	a0,s3
  413e38:	00002821 	move	a1,zero
  413e3c:	27a60070 	addiu	a2,sp,112
  413e40:	0c104e1e 	jal	413878 <fillEventMessageContent@@Base>
  413e44:	02003821 	move	a3,s0
  413e48:	8fbc0018 	lw	gp,24(sp)
  413e4c:	24040002 	li	a0,2
  413e50:	24050001 	li	a1,1
  413e54:	8f998194 	lw	t9,-32364(gp)
  413e58:	0320f809 	jalr	t9
  413e5c:	00003021 	move	a2,zero
  413e60:	8fbc0018 	lw	gp,24(sp)
  413e64:	0441000c 	bgez	v0,413e98 <sendEventMsg@@Base+0x164>
  413e68:	0040a021 	move	s4,v0
  413e6c:	8f82809c 	lw	v0,-32612(gp)
  413e70:	8c440000 	lw	a0,0(v0)
  413e74:	3c050041 	lui	a1,0x41
  413e78:	24a56a38 	addiu	a1,a1,27192
  413e7c:	3c060041 	lui	a2,0x41
[31m  413e80:	8f998154 	lw	t9,fprintf[0m
  413e84:	0320f809 	jalr	t9
  413e88:	24c66ff4 	addiu	a2,a2,28660
--
  413ee8:	8f96809c 	lw	s6,-32612(gp)
  413eec:	3c170041 	lui	s7,0x41
  413ef0:	26f76aa0 	addiu	s7,s7,27296
  413ef4:	3c1e0041 	lui	s8,0x41
  413ef8:	27de6ff4 	addiu	s8,s8,28660
  413efc:	00122900 	sll	a1,s2,0x4
  413f00:	00121400 	sll	v0,s2,0x10
  413f04:	00a22821 	addu	a1,a1,v0
  413f08:	8fa20080 	lw	v0,128(sp)
  413f0c:	afa20010 	sw	v0,16(sp)
  413f10:	afb50014 	sw	s5,20(sp)
  413f14:	02802021 	move	a0,s4
  413f18:	02652821 	addu	a1,s3,a1
  413f1c:	02203021 	move	a2,s1
  413f20:	8f998100 	lw	t9,-32512(gp)
  413f24:	0320f809 	jalr	t9
  413f28:	00003821 	move	a3,zero
  413f2c:	8fbc0018 	lw	gp,24(sp)
  413f30:	1c40000c 	bgtz	v0,413f64 <sendEventMsg@@Base+0x230>
  413f34:	00408021 	move	s0,v0
  413f38:	8f82809c 	lw	v0,-32612(gp)
  413f3c:	8c440000 	lw	a0,0(v0)
  413f40:	3c050041 	lui	a1,0x41
  413f44:	24a56a6c 	addiu	a1,a1,27244
  413f48:	3c060041 	lui	a2,0x41
[31m  413f4c:	8f998154 	lw	t9,fprintf[0m
  413f50:	0320f809 	jalr	t9
  413f54:	24c66ff4 	addiu	a2,a2,28660
  413f58:	8fbc0018 	lw	gp,24(sp)
  413f5c:	1000000c 	b	413f90 <sendEventMsg@@Base+0x25c>
  413f60:	2410ffff 	li	s0,-1
  413f64:	8ec40000 	lw	a0,0(s6)
  413f68:	02e02821 	move	a1,s7
  413f6c:	03c03021 	move	a2,s8
[31m  413f70:	8f998154 	lw	t9,fprintf[0m
  413f74:	0320f809 	jalr	t9
  413f78:	00403821 	move	a3,v0
--
  414000:	00000000 	nop
  414004:	00001021 	move	v0,zero
  414008:	8fbf001c 	lw	ra,28(sp)
  41400c:	03e00008 	jr	ra
  414010:	27bd0020 	addiu	sp,sp,32

00414014 <initEventMsg@@Base>:
  414014:	27bdffe0 	addiu	sp,sp,-32
  414018:	afbf001c 	sw	ra,28(sp)
  41401c:	afb00018 	sw	s0,24(sp)
  414020:	3c1c0043 	lui	gp,0x43
  414024:	279cf1a0 	addiu	gp,gp,-3680
  414028:	afbc0010 	sw	gp,16(sp)
  41402c:	3c040001 	lui	a0,0x1
  414030:	8f9981b4 	lw	t9,-32332(gp)
  414034:	0320f809 	jalr	t9
  414038:	34840010 	ori	a0,a0,0x10
  41403c:	8fbc0010 	lw	gp,16(sp)
  414040:	1440000b 	bnez	v0,414070 <initEventMsg@@Base+0x5c>
  414044:	00408021 	move	s0,v0
  414048:	8f82809c 	lw	v0,-32612(gp)
  41404c:	8c440000 	lw	a0,0(v0)
  414050:	3c050041 	lui	a1,0x41
  414054:	24a56ad8 	addiu	a1,a1,27352
  414058:	3c060041 	lui	a2,0x41
[31m  41405c:	8f998154 	lw	t9,fprintf[0m
  414060:	0320f809 	jalr	t9
  414064:	24c67004 	addiu	a2,a2,28676

[0m
[[0;33m*[0m] Function [0;33mfprintf[0m used [0;33m103[0m times [0;33mhnap_push_service[0m

