[[0;33m*[0m] Binary protection state of [0;33mmpstat[0m

  	RELRO          CANARY            NX           PIE          RPATH        RUNPATH      SYMBOLS      
  	[31mNo RELRO[0m       [31mNo Canary found[0m   [31mNX disabled[0m  [31mNo PIE[0m       [32mNo RPATH[0m     [32mNo RUNPATH[0m   [32mNo Symbols[0m

[0m
[[0;33m*[0m] Function [0;33mfprintf[0m tear down of [0;33mmpstat[0m

  401b84:	8fbf001c 	lw	ra,28(sp)
  401b88:	00000000 	nop
  401b8c:	03e00008 	jr	ra
  401b90:	27bd0020 	addiu	sp,sp,32
	...
  401ba0:	24030001 	li	v1,1
  401ba4:	3c020042 	lui	v0,0x42
  401ba8:	03e00008 	jr	ra
  401bac:	ac43e990 	sw	v1,-5744(v0)
  401bb0:	3c1c0042 	lui	gp,0x42
  401bb4:	279c6770 	addiu	gp,gp,26480
  401bb8:	3c020042 	lui	v0,0x42
  401bbc:	8c44e760 	lw	a0,-6304(v0)
  401bc0:	8f99818c 	lw	t9,-32372(gp)
  401bc4:	00000000 	nop
  401bc8:	03200008 	jr	t9
  401bcc:	00000000 	nop
  401bd0:	3c020041 	lui	v0,0x41
  401bd4:	03e00008 	jr	ra
  401bd8:	2442d420 	addiu	v0,v0,-11232
  401bdc:	3c1c0042 	lui	gp,0x42
  401be0:	27bdffe0 	addiu	sp,sp,-32
  401be4:	279c6770 	addiu	gp,gp,26480
  401be8:	afb00018 	sw	s0,24(sp)
  401bec:	8f908128 	lw	s0,-32472(gp)
[31m  401bf0:	8f998178 	lw	t9,fprintf[0m
  401bf4:	00803021 	move	a2,a0
  401bf8:	8e040000 	lw	a0,0(s0)
--
  404a68:	00872021 	addu	a0,a0,a3
  404a6c:	00452821 	addu	a1,v0,a1
  404a70:	00641821 	addu	v1,v1,a0
  404a74:	00a2102b 	sltu	v0,a1,v0
  404a78:	00661821 	addu	v1,v1,a2
  404a7c:	00431021 	addu	v0,v0,v1
  404a80:	8fdc0038 	lw	gp,56(s8)
  404a84:	aea50000 	sw	a1,0(s5)
  404a88:	081011b7 	j	4046dc <read_stat_cpu+0xa0>
  404a8c:	aea20004 	sw	v0,4(s5)
  404a90:	8f998114 	lw	t9,-32492(gp)
  404a94:	8f828128 	lw	v0,-32472(gp)
  404a98:	00000000 	nop
  404a9c:	8c500000 	lw	s0,0(v0)
  404aa0:	0320f809 	jalr	t9
  404aa4:	00000000 	nop
  404aa8:	8fdc0038 	lw	gp,56(s8)
  404aac:	8c440000 	lw	a0,0(v0)
  404ab0:	8f9981d0 	lw	t9,-32304(gp)
  404ab4:	00000000 	nop
  404ab8:	0320f809 	jalr	t9
  404abc:	00000000 	nop
  404ac0:	8fdc0038 	lw	gp,56(s8)
  404ac4:	3c050041 	lui	a1,0x41
  404ac8:	02002021 	move	a0,s0
[31m  404acc:	8f998178 	lw	t9,fprintf[0m
  404ad0:	24a5d73c 	addiu	a1,a1,-10436
  404ad4:	2666d730 	addiu	a2,s3,-10448
--
  40b2d4:	02002021 	move	a0,s0
  40b2d8:	8fbf0044 	lw	ra,68(sp)
  40b2dc:	26620001 	addiu	v0,s3,1
  40b2e0:	8fb40040 	lw	s4,64(sp)
  40b2e4:	8fb3003c 	lw	s3,60(sp)
  40b2e8:	8fb20038 	lw	s2,56(sp)
  40b2ec:	8fb10034 	lw	s1,52(sp)
  40b2f0:	8fb00030 	lw	s0,48(sp)
  40b2f4:	03e00008 	jr	ra
  40b2f8:	27bd0048 	addiu	sp,sp,72
  40b2fc:	8f998114 	lw	t9,-32492(gp)
  40b300:	8f828128 	lw	v0,-32472(gp)
  40b304:	00000000 	nop
  40b308:	8c500000 	lw	s0,0(v0)
  40b30c:	0320f809 	jalr	t9
  40b310:	00000000 	nop
  40b314:	8fbc0010 	lw	gp,16(sp)
  40b318:	8c440000 	lw	a0,0(v0)
  40b31c:	8f9981d0 	lw	t9,-32304(gp)
  40b320:	00000000 	nop
  40b324:	0320f809 	jalr	t9
  40b328:	00000000 	nop
  40b32c:	8fbc0010 	lw	gp,16(sp)
  40b330:	3c050041 	lui	a1,0x41
  40b334:	02002021 	move	a0,s0
[31m  40b338:	8f998178 	lw	t9,fprintf[0m
  40b33c:	24a5d73c 	addiu	a1,a1,-10436
  40b340:	2626d730 	addiu	a2,s1,-10448

[0m
[[0;33m*[0m] Function [0;33mfprintf[0m used [0;33m3[0m times [0;33mmpstat[0m

