[0m
[[0;33m*[0m] Function [0;33mstrcpy[0m tear down of [0;33mlibweb.so.0[0m

    38bc:	8f99810c 	lw	t9,-32500(gp)
    38c0:	0320f809 	jalr	t9
    38c4:	00402021 	move	a0,v0
    38c8:	8fbc0010 	lw	gp,16(sp)
    38cc:	8e040020 	lw	a0,32(s0)
    38d0:	8f9980e4 	lw	t9,-32540(gp)
    38d4:	0320f809 	jalr	t9
    38d8:	ae020008 	sw	v0,8(s0)
    38dc:	8fbc0010 	lw	gp,16(sp)
    38e0:	8f99810c 	lw	t9,-32500(gp)
    38e4:	0320f809 	jalr	t9
    38e8:	00402021 	move	a0,v0
    38ec:	8fbc0010 	lw	gp,16(sp)
    38f0:	8e040020 	lw	a0,32(s0)
    38f4:	8f998118 	lw	t9,-32488(gp)
    38f8:	0320f809 	jalr	t9
    38fc:	ae020010 	sw	v0,16(s0)
    3900:	8fbc0010 	lw	gp,16(sp)
    3904:	8f99810c 	lw	t9,-32500(gp)
    3908:	0320f809 	jalr	t9
    390c:	00402021 	move	a0,v0
    3910:	02402021 	move	a0,s2
    3914:	8fbc0010 	lw	gp,16(sp)
    3918:	ae02000c 	sw	v0,12(s0)
    391c:	8f838018 	lw	v1,-32744(gp)
[31m    3920:	8f998294 	lw	t9,strcpy[0m
    3924:	8c7315f4 	lw	s3,5620(v1)
    3928:	a2200000 	sb	zero,0(s1)
--
    4d84:	0320f809 	jalr	t9
    4d88:	0040b021 	move	s6,v0
    4d8c:	8fbc0020 	lw	gp,32(sp)
    4d90:	8fa50074 	lw	a1,116(sp)
    4d94:	8f9981b0 	lw	t9,-32336(gp)
    4d98:	8fa40070 	lw	a0,112(sp)
    4d9c:	0320f809 	jalr	t9
    4da0:	00000000 	nop
    4da4:	02403821 	move	a3,s2
    4da8:	27c5fd60 	addiu	a1,s8,-672
    4dac:	8fbc0020 	lw	gp,32(sp)
    4db0:	00403021 	move	a2,v0
    4db4:	02c02021 	move	a0,s6
    4db8:	8f9980cc 	lw	t9,-32564(gp)
    4dbc:	0320f809 	jalr	t9
    4dc0:	afb40010 	sw	s4,16(sp)
    4dc4:	02c02021 	move	a0,s6
    4dc8:	8fbc0020 	lw	gp,32(sp)
    4dcc:	8fa3007c 	lw	v1,124(sp)
    4dd0:	8f9981b0 	lw	t9,-32336(gp)
    4dd4:	0320f809 	jalr	t9
    4dd8:	00602821 	move	a1,v1
    4ddc:	02a02021 	move	a0,s5
    4de0:	8fbc0020 	lw	gp,32(sp)
    4de4:	00402821 	move	a1,v0
[31m    4de8:	8f998294 	lw	t9,strcpy[0m
    4dec:	0320f809 	jalr	t9
    4df0:	0040b821 	move	s7,v0
--
    4e74:	0040b821 	move	s7,v0
    4e78:	8fbc0020 	lw	gp,32(sp)
    4e7c:	02e2b821 	addu	s7,s7,v0
    4e80:	26e40002 	addiu	a0,s7,2
    4e84:	8f9981ec 	lw	t9,-32276(gp)
    4e88:	0320f809 	jalr	t9
    4e8c:	26f70001 	addiu	s7,s7,1
    4e90:	8fbc0020 	lw	gp,32(sp)
    4e94:	00402021 	move	a0,v0
    4e98:	8fa600b0 	lw	a2,176(sp)
    4e9c:	8f858024 	lw	a1,-32732(gp)
    4ea0:	8fa700c4 	lw	a3,196(sp)
    4ea4:	8f9980cc 	lw	t9,-32564(gp)
    4ea8:	24a5fd90 	addiu	a1,a1,-624
    4eac:	0320f809 	jalr	t9
    4eb0:	afa2007c 	sw	v0,124(sp)
    4eb4:	02e02821 	move	a1,s7
    4eb8:	8fbc0020 	lw	gp,32(sp)
    4ebc:	8fa3007c 	lw	v1,124(sp)
    4ec0:	8f9981b0 	lw	t9,-32336(gp)
    4ec4:	0320f809 	jalr	t9
    4ec8:	00602021 	move	a0,v1
    4ecc:	02002021 	move	a0,s0
    4ed0:	8fbc0020 	lw	gp,32(sp)
    4ed4:	00402821 	move	a1,v0
[31m    4ed8:	8f998294 	lw	t9,strcpy[0m
    4edc:	0320f809 	jalr	t9
    4ee0:	0040b821 	move	s7,v0
--
    4fa0:	02c2b021 	addu	s6,s6,v0
    4fa4:	8f9981ec 	lw	t9,-32276(gp)
    4fa8:	0320f809 	jalr	t9
    4fac:	26c40001 	addiu	a0,s6,1
    4fb0:	02a03021 	move	a2,s5
    4fb4:	8fbc0020 	lw	gp,32(sp)
    4fb8:	0040a821 	move	s5,v0
    4fbc:	8fa200cc 	lw	v0,204(sp)
    4fc0:	02403821 	move	a3,s2
    4fc4:	8f858024 	lw	a1,-32732(gp)
    4fc8:	02a02021 	move	a0,s5
    4fcc:	8f9980cc 	lw	t9,-32564(gp)
    4fd0:	24a5fd84 	addiu	a1,a1,-636
    4fd4:	afa20010 	sw	v0,16(sp)
    4fd8:	afb40014 	sw	s4,20(sp)
    4fdc:	afb10018 	sw	s1,24(sp)
    4fe0:	0320f809 	jalr	t9
    4fe4:	afb0001c 	sw	s0,28(sp)
    4fe8:	02c02821 	move	a1,s6
    4fec:	8fbc0020 	lw	gp,32(sp)
    4ff0:	8f9981b0 	lw	t9,-32336(gp)
    4ff4:	0320f809 	jalr	t9
    4ff8:	02a02021 	move	a0,s5
    4ffc:	02602021 	move	a0,s3
    5000:	8fbc0020 	lw	gp,32(sp)
[31m    5004:	8f998294 	lw	t9,strcpy[0m
    5008:	0320f809 	jalr	t9
    500c:	00402821 	move	a1,v0
--
    50b0:	00a31821 	addu	v1,a1,v1
    50b4:	24630002 	addiu	v1,v1,2
    50b8:	00621821 	addu	v1,v1,v0
    50bc:	8f9981ec 	lw	t9,-32276(gp)
    50c0:	24640001 	addiu	a0,v1,1
    50c4:	0320f809 	jalr	t9
    50c8:	afa3007c 	sw	v1,124(sp)
    50cc:	02e03021 	move	a2,s7
    50d0:	27c5fd60 	addiu	a1,s8,-672
    50d4:	8fbc0020 	lw	gp,32(sp)
    50d8:	00402021 	move	a0,v0
    50dc:	8fa70080 	lw	a3,128(sp)
    50e0:	0040b821 	move	s7,v0
    50e4:	8f9980cc 	lw	t9,-32564(gp)
    50e8:	0320f809 	jalr	t9
    50ec:	afb60010 	sw	s6,16(sp)
    50f0:	02e02021 	move	a0,s7
    50f4:	8fbc0020 	lw	gp,32(sp)
    50f8:	8fa3007c 	lw	v1,124(sp)
    50fc:	8f9981b0 	lw	t9,-32336(gp)
    5100:	0320f809 	jalr	t9
    5104:	00602821 	move	a1,v1
    5108:	02a02021 	move	a0,s5
    510c:	8fbc0020 	lw	gp,32(sp)
    5110:	00402821 	move	a1,v0
[31m    5114:	8f998294 	lw	t9,strcpy[0m
    5118:	0320f809 	jalr	t9
    511c:	0040b021 	move	s6,v0
--
    515c:	8f998070 	lw	t9,strlen
    5160:	02402021 	move	a0,s2
    5164:	0320f809 	jalr	t9
    5168:	00000000 	nop
    516c:	8fbc0020 	lw	gp,32(sp)
    5170:	24440043 	addiu	a0,v0,67
    5174:	8f9981ec 	lw	t9,-32276(gp)
    5178:	0320f809 	jalr	t9
    517c:	24540042 	addiu	s4,v0,66
    5180:	02a03021 	move	a2,s5
    5184:	27c5fd60 	addiu	a1,s8,-672
    5188:	8fbc0020 	lw	gp,32(sp)
    518c:	02403821 	move	a3,s2
    5190:	00402021 	move	a0,v0
    5194:	afb00010 	sw	s0,16(sp)
    5198:	8f9980cc 	lw	t9,-32564(gp)
    519c:	0320f809 	jalr	t9
    51a0:	00408821 	move	s1,v0
    51a4:	02802821 	move	a1,s4
    51a8:	8fbc0020 	lw	gp,32(sp)
    51ac:	8f9981b0 	lw	t9,-32336(gp)
    51b0:	0320f809 	jalr	t9
    51b4:	02202021 	move	a0,s1
    51b8:	02602021 	move	a0,s3
    51bc:	8fbc0020 	lw	gp,32(sp)
[31m    51c0:	8f998294 	lw	t9,strcpy[0m
    51c4:	0320f809 	jalr	t9
    51c8:	00402821 	move	a1,v0
--
    5204:	0320f809 	jalr	t9
    5208:	0040a021 	move	s4,v0
    520c:	8fbc0020 	lw	gp,32(sp)
    5210:	0282a021 	addu	s4,s4,v0
    5214:	26840002 	addiu	a0,s4,2
    5218:	8f9981ec 	lw	t9,-32276(gp)
    521c:	0320f809 	jalr	t9
    5220:	26940001 	addiu	s4,s4,1
    5224:	8fbc0020 	lw	gp,32(sp)
    5228:	00402021 	move	a0,v0
    522c:	8fa600b0 	lw	a2,176(sp)
    5230:	00408821 	move	s1,v0
    5234:	8f858024 	lw	a1,-32732(gp)
    5238:	8fa700c4 	lw	a3,196(sp)
    523c:	8f9980cc 	lw	t9,-32564(gp)
    5240:	0320f809 	jalr	t9
    5244:	24a5fd90 	addiu	a1,a1,-624
    5248:	02802821 	move	a1,s4
    524c:	8fbc0020 	lw	gp,32(sp)
    5250:	8f9981b0 	lw	t9,-32336(gp)
    5254:	0320f809 	jalr	t9
    5258:	02202021 	move	a0,s1
    525c:	02002021 	move	a0,s0
    5260:	8fbc0020 	lw	gp,32(sp)
    5264:	00402821 	move	a1,v0
[31m    5268:	8f998294 	lw	t9,strcpy[0m
    526c:	0320f809 	jalr	t9
    5270:	0040a021 	move	s4,v0
--
    5364:	8fbc0030 	lw	gp,48(sp)
    5368:	24060040 	li	a2,64
    536c:	8fa40500 	lw	a0,1280(sp)
    5370:	8f998100 	lw	t9,-32512(gp)
    5374:	afa000fc 	sw	zero,252(sp)
    5378:	aec00004 	sw	zero,4(s6)
    537c:	aec00008 	sw	zero,8(s6)
    5380:	aec0000c 	sw	zero,12(s6)
    5384:	aec00010 	sw	zero,16(s6)
    5388:	aec00014 	sw	zero,20(s6)
    538c:	aec00018 	sw	zero,24(s6)
    5390:	aec0001c 	sw	zero,28(s6)
    5394:	0320f809 	jalr	t9
    5398:	aec00020 	sw	zero,32(s6)
    539c:	24060040 	li	a2,64
    53a0:	02002021 	move	a0,s0
    53a4:	8fbc0030 	lw	gp,48(sp)
    53a8:	8f998100 	lw	t9,-32512(gp)
    53ac:	0320f809 	jalr	t9
    53b0:	00002821 	move	a1,zero
    53b4:	27a20058 	addiu	v0,sp,88
    53b8:	02c02021 	move	a0,s6
    53bc:	8fbc0030 	lw	gp,48(sp)
    53c0:	26a50007 	addiu	a1,s5,7
    53c4:	ac400020 	sw	zero,32(v0)
[31m    53c8:	8f998294 	lw	t9,strcpy[0m
    53cc:	afa00058 	sw	zero,88(sp)
    53d0:	ac400004 	sw	zero,4(v0)
--
    59b4:	27a50038 	addiu	a1,sp,56
    59b8:	afa0001c 	sw	zero,28(sp)
    59bc:	afa00020 	sw	zero,32(sp)
    59c0:	afa00024 	sw	zero,36(sp)
    59c4:	afa00028 	sw	zero,40(sp)
    59c8:	afa0002c 	sw	zero,44(sp)
    59cc:	afa00030 	sw	zero,48(sp)
    59d0:	afa00034 	sw	zero,52(sp)
    59d4:	0320f809 	jalr	t9
    59d8:	afb30018 	sw	s3,24(sp)
    59dc:	27a40018 	addiu	a0,sp,24
    59e0:	8fbc0010 	lw	gp,16(sp)
    59e4:	00402821 	move	a1,v0
    59e8:	8f9981f4 	lw	t9,-32268(gp)
    59ec:	0320f809 	jalr	t9
    59f0:	2406003a 	li	a2,58
    59f4:	24030001 	li	v1,1
    59f8:	8fbc0010 	lw	gp,16(sp)
    59fc:	10430005 	beq	v0,v1,5a14 <usrDecBasic@@Base+0xdc>
    5a00:	02402021 	move	a0,s2
    5a04:	1053000b 	beq	v0,s3,5a34 <usrDecBasic@@Base+0xfc>
    5a08:	00000000 	nop
    5a0c:	1000ffdf 	b	598c <usrDecBasic@@Base+0x54>
    5a10:	2402fffe 	li	v0,-2
    5a14:	8f828024 	lw	v0,-32732(gp)
[31m    5a18:	8f998294 	lw	t9,strcpy[0m
    5a1c:	9042fbe8 	lbu	v0,-1048(v0)
    5a20:	8fa50020 	lw	a1,32(sp)
    5a24:	0320f809 	jalr	t9
    5a28:	a2220000 	sb	v0,0(s1)
    5a2c:	1000ffd7 	b	598c <usrDecBasic@@Base+0x54>
    5a30:	00001021 	move	v0,zero
[31m    5a34:	8f998294 	lw	t9,strcpy[0m
    5a38:	8fa50030 	lw	a1,48(sp)
    5a3c:	0320f809 	jalr	t9
    5a40:	02202021 	move	a0,s1
    5a44:	8fbc0010 	lw	gp,16(sp)
    5a48:	8fa50020 	lw	a1,32(sp)
[31m    5a4c:	8f998294 	lw	t9,strcpy[0m
    5a50:	0320f809 	jalr	t9
    5a54:	02402021 	move	a0,s2
--
    5e14:	0320f809 	jalr	t9
    5e18:	00403021 	move	a2,v0
    5e1c:	02601021 	move	v0,s3
    5e20:	8fbf0044 	lw	ra,68(sp)
    5e24:	8fbe0040 	lw	s8,64(sp)
    5e28:	8fb7003c 	lw	s7,60(sp)
    5e2c:	8fb60038 	lw	s6,56(sp)
    5e30:	8fb50034 	lw	s5,52(sp)
    5e34:	8fb40030 	lw	s4,48(sp)
    5e38:	8fb3002c 	lw	s3,44(sp)
    5e3c:	8fb20028 	lw	s2,40(sp)
    5e40:	8fb10024 	lw	s1,36(sp)
    5e44:	8fb00020 	lw	s0,32(sp)
    5e48:	03e00008 	jr	ra
    5e4c:	27bd0048 	addiu	sp,sp,72
    5e50:	8f9980e0 	lw	t9,-32544(gp)
    5e54:	8e460000 	lw	a2,0(s2)
    5e58:	0320f809 	jalr	t9
    5e5c:	02202821 	move	a1,s1
    5e60:	8fbc0010 	lw	gp,16(sp)
    5e64:	1840ffcf 	blez	v0,5da4 <usrAuthByAuthenticate@@Base+0x1cc>
    5e68:	00000000 	nop
    5e6c:	8fa30054 	lw	v1,84(sp)
    5e70:	1060ffea 	beqz	v1,5e1c <usrAuthByAuthenticate@@Base+0x244>
    5e74:	00602021 	move	a0,v1
[31m    5e78:	8f998294 	lw	t9,strcpy[0m
    5e7c:	0320f809 	jalr	t9
    5e80:	02002821 	move	a1,s0
--
    60c8:	2652000c 	addiu	s2,s2,12
    60cc:	02002021 	move	a0,s0
    60d0:	24060006 	li	a2,6
    60d4:	8e420004 	lw	v0,4(s2)
    60d8:	8f99813c 	lw	t9,-32452(gp)
    60dc:	1040fff7 	beqz	v0,60bc <usrAuth@@Base+0x1b4>
    60e0:	02802821 	move	a1,s4
    60e4:	0320f809 	jalr	t9
    60e8:	00000000 	nop
    60ec:	02002021 	move	a0,s0
    60f0:	24060007 	li	a2,7
    60f4:	8fbc0010 	lw	gp,16(sp)
    60f8:	8f99813c 	lw	t9,-32452(gp)
    60fc:	1440ffea 	bnez	v0,60a8 <usrAuth@@Base+0x1a0>
    6100:	02a02821 	move	a1,s5
    6104:	8f9980e0 	lw	t9,-32544(gp)
    6108:	8e260000 	lw	a2,0(s1)
    610c:	0320f809 	jalr	t9
    6110:	02402821 	move	a1,s2
    6114:	8fbc0010 	lw	gp,16(sp)
    6118:	1840ffe8 	blez	v0,60bc <usrAuth@@Base+0x1b4>
    611c:	00000000 	nop
    6120:	8fa20054 	lw	v0,84(sp)
    6124:	10400004 	beqz	v0,6138 <usrAuth@@Base+0x230>
    6128:	00402021 	move	a0,v0
[31m    612c:	8f998294 	lw	t9,strcpy[0m
    6130:	0320f809 	jalr	t9
    6134:	02002821 	move	a1,s0
--
    f064:	27bd0030 	addiu	sp,sp,48
    f068:	8f828178 	lw	v0,-32392(gp)
    f06c:	8c440000 	lw	a0,0(v0)
    f070:	10800006 	beqz	a0,f08c <scmdl@@Base+0x90>
    f074:	02402821 	move	a1,s2
    f078:	8f99818c 	lw	t9,-32372(gp)
    f07c:	0320f809 	jalr	t9
    f080:	afa70018 	sw	a3,24(sp)
    f084:	8fbc0010 	lw	gp,16(sp)
    f088:	8fa70018 	lw	a3,24(sp)
    f08c:	8f9980e8 	lw	t9,-32536(gp)
    f090:	02202021 	move	a0,s1
    f094:	00e03021 	move	a2,a3
    f098:	0320f809 	jalr	t9
    f09c:	02002821 	move	a1,s0
    f0a0:	8fbc0010 	lw	gp,16(sp)
    f0a4:	1840ffe9 	blez	v0,f04c <scmdl@@Base+0x50>
    f0a8:	2411fffe 	li	s1,-2
    f0ac:	8f998024 	lw	t9,-32732(gp)
    f0b0:	2739ed98 	addiu	t9,t9,-4712
    f0b4:	0320f809 	jalr	t9
    f0b8:	02002021 	move	a0,s0
    f0bc:	8fbc0010 	lw	gp,16(sp)
    f0c0:	1040ffe2 	beqz	v0,f04c <scmdl@@Base+0x50>
    f0c4:	00408821 	move	s1,v0
[31m    f0c8:	8f998294 	lw	t9,strcpy[0m
    f0cc:	02002021 	move	a0,s0
    f0d0:	0320f809 	jalr	t9
    f0d4:	26050003 	addiu	a1,s0,3
    f0d8:	80430000 	lb	v1,0(v0)
    f0dc:	24020020 	li	v0,32
    f0e0:	8fbc0010 	lw	gp,16(sp)
    f0e4:	1462ffd9 	bne	v1,v0,f04c <scmdl@@Base+0x50>
    f0e8:	02002021 	move	a0,s0
[31m    f0ec:	8f998294 	lw	t9,strcpy[0m
    f0f0:	0320f809 	jalr	t9
    f0f4:	26050001 	addiu	a1,s0,1

[0m
[[0;33m*[0m] Function [0;33mstrcpy[0m used [0;33m15[0m times [0;33mlibweb.so.0[0m

