[[0;33m*[0m] Binary protection state of [0;33miwlist[0m

  	RELRO          CANARY            NX           PIE          RPATH        RUNPATH      SYMBOLS      
  	[31mNo RELRO[0m       [31mNo Canary found[0m   [31mNX disabled[0m  [31mNo PIE[0m       [32mNo RPATH[0m     [32mNo RUNPATH[0m   [32mNo Symbols[0m

[0m
[[0;33m*[0m] Function [0;33mprintf[0m tear down of [0;33miwlist[0m

  4016a4:	2484b084 	addiu	a0,a0,-20348
  4016a8:	8fbf001c 	lw	ra,28(sp)
  4016ac:	03200008 	jr	t9
  4016b0:	27bd0020 	addiu	sp,sp,32
  4016b4:	8fbf001c 	lw	ra,28(sp)
  4016b8:	00000000 	nop
  4016bc:	03e00008 	jr	ra
  4016c0:	27bd0020 	addiu	sp,sp,32
	...
  4016d0:	3c1c0042 	lui	gp,0x42
  4016d4:	27bdffd0 	addiu	sp,sp,-48
  4016d8:	279c3280 	addiu	gp,gp,12928
  4016dc:	afb20024 	sw	s2,36(sp)
  4016e0:	afbf002c 	sw	ra,44(sp)
  4016e4:	afb30028 	sw	s3,40(sp)
  4016e8:	afb10020 	sw	s1,32(sp)
  4016ec:	afb0001c 	sw	s0,28(sp)
  4016f0:	afbc0010 	sw	gp,16(sp)
  4016f4:	90910001 	lbu	s1,1(a0)
  4016f8:	00000000 	nop
  4016fc:	26310002 	addiu	s1,s1,2
  401700:	00b1102a 	slt	v0,a1,s1
  401704:	10400002 	beqz	v0,401710 <main+0x51c>
  401708:	00809021 	move	s2,a0
  40170c:	00a08821 	move	s1,a1
[31m  401710:	8f99819c 	lw	t9,printf[0m
  401714:	3c040041 	lui	a0,0x41
  401718:	248493b8 	addiu	a0,a0,-27720
  40171c:	0320f809 	jalr	t9
  401720:	3c130041 	lui	s3,0x41
  401724:	00008021 	move	s0,zero
  401728:	8fbc0010 	lw	gp,16(sp)
  40172c:	081005d3 	j	40174c <main+0x558>
  401730:	267393c4 	addiu	s3,s3,-27708
[31m  401734:	8f99819c 	lw	t9,printf[0m
  401738:	90450000 	lbu	a1,0(v0)
  40173c:	02602021 	move	a0,s3
--
  40178c:	afb20358 	sw	s2,856(sp)
  401790:	afb10354 	sw	s1,852(sp)
  401794:	afbc0018 	sw	gp,24(sp)
  401798:	afbf036c 	sw	ra,876(sp)
  40179c:	afb60368 	sw	s6,872(sp)
  4017a0:	afb50364 	sw	s5,868(sp)
  4017a4:	afb40360 	sw	s4,864(sp)
  4017a8:	afb3035c 	sw	s3,860(sp)
  4017ac:	afb00350 	sw	s0,848(sp)
  4017b0:	27a60100 	addiu	a2,sp,256
  4017b4:	00809021 	move	s2,a0
  4017b8:	0411094b 	bal	403ce8 <iw_get_range_info>
  4017bc:	00a08821 	move	s1,a1
  4017c0:	8fbc0018 	lw	gp,24(sp)
  4017c4:	0441000a 	bgez	v0,4017f0 <main+0x5fc>
  4017c8:	02202821 	move	a1,s1
  4017cc:	8f828118 	lw	v0,-32488(gp)
  4017d0:	8f998160 	lw	t9,-32416(gp)
  4017d4:	3c050041 	lui	a1,0x41
  4017d8:	8c440000 	lw	a0,0(v0)
  4017dc:	24a593cc 	addiu	a1,a1,-27700
  4017e0:	0320f809 	jalr	t9
  4017e4:	02203021 	move	a2,s1
  4017e8:	081006bb 	j	401aec <main+0x8f8>
  4017ec:	00000000 	nop
[31m  4017f0:	8f99819c 	lw	t9,printf[0m
  4017f4:	3c040041 	lui	a0,0x41
  4017f8:	0320f809 	jalr	t9
  4017fc:	248493f8 	addiu	a0,a0,-27656
  401800:	93a501ee 	lbu	a1,494(sp)
  401804:	8fbc0018 	lw	gp,24(sp)
  401808:	24a2ffff 	addiu	v0,a1,-1
  40180c:	304200ff 	andi	v0,v0,0xff
  401810:	2c420007 	sltiu	v0,v0,7
  401814:	1040001c 	beqz	v0,401888 <main+0x694>
  401818:	3c040041 	lui	a0,0x41
  40181c:	97a601de 	lhu	a2,478(sp)
[31m  401820:	8f99819c 	lw	t9,printf[0m
  401824:	24849404 	addiu	a0,a0,-27644
  401828:	000630c0 	sll	a2,a2,0x3
  40182c:	0320f809 	jalr	t9
  401830:	3c140041 	lui	s4,0x41
  401834:	27b301e0 	addiu	s3,sp,480
  401838:	8fbc0018 	lw	gp,24(sp)
  40183c:	24100001 	li	s0,1
  401840:	08100619 	j	401864 <main+0x670>
  401844:	26949418 	addiu	s4,s4,-27624
  401848:	96650000 	lhu	a1,0(s3)
  40184c:	02802021 	move	a0,s4
  401850:	26100001 	addiu	s0,s0,1
  401854:	0320f809 	jalr	t9
  401858:	000528c0 	sll	a1,a1,0x3
  40185c:	8fbc0018 	lw	gp,24(sp)
  401860:	26730002 	addiu	s3,s3,2
  401864:	93a201ee 	lbu	v0,494(sp)
[31m  401868:	8f99819c 	lw	t9,printf[0m
  40186c:	0202102b 	sltu	v0,s0,v0
  401870:	1440fff5 	bnez	v0,401848 <main+0x654>
  401874:	3c040041 	lui	a0,0x41
  401878:	0320f809 	jalr	t9
  40187c:	24849420 	addiu	a0,a0,-27616
  401880:	8fbc0018 	lw	gp,24(sp)
  401884:	00000000 	nop
[31m  401888:	8f99819c 	lw	t9,printf[0m
  40188c:	93a501ef 	lbu	a1,495(sp)
  401890:	3c040041 	lui	a0,0x41
--
  401924:	8c440000 	lw	a0,0(v0)
  401928:	8f998194 	lw	t9,-32364(gp)
  40192c:	00000000 	nop
  401930:	0320f809 	jalr	t9
  401934:	00000000 	nop
  401938:	8fbc0018 	lw	gp,24(sp)
  40193c:	3c050041 	lui	a1,0x41
  401940:	02002021 	move	a0,s0
  401944:	8f998160 	lw	t9,-32416(gp)
  401948:	24a59448 	addiu	a1,a1,-27576
  40194c:	0320f809 	jalr	t9
  401950:	00403021 	move	a2,v0
  401954:	8fbc0018 	lw	gp,24(sp)
  401958:	08100689 	j	401a24 <main+0x830>
  40195c:	00000000 	nop
  401960:	97a20036 	lhu	v0,54(sp)
  401964:	00000000 	nop
  401968:	00021c00 	sll	v1,v0,0x10
  40196c:	00031c03 	sra	v1,v1,0x10
  401970:	04600005 	bltz	v1,401988 <main+0x794>
  401974:	00000000 	nop
  401978:	97a70034 	lhu	a3,52(sp)
  40197c:	00000000 	nop
  401980:	14e00008 	bnez	a3,4019a4 <main+0x7b0>
  401984:	27a40080 	addiu	a0,sp,128
[31m  401988:	8f99819c 	lw	t9,printf[0m
  40198c:	02a02021 	move	a0,s5
  401990:	0320f809 	jalr	t9
  401994:	02002821 	move	a1,s0
  401998:	8fbc0018 	lw	gp,24(sp)
  40199c:	08100684 	j	401a10 <main+0x81c>
  4019a0:	26100001 	addiu	s0,s0,1
  4019a4:	8f998030 	lw	t9,-32720(gp)
  4019a8:	afa20010 	sw	v0,16(sp)
  4019ac:	24050080 	li	a1,128
  4019b0:	041110c4 	bal	405cc4 <iw_print_key>
  4019b4:	02c03021 	move	a2,s6
  4019b8:	8fbc0018 	lw	gp,24(sp)
  4019bc:	27a60080 	addiu	a2,sp,128
  4019c0:	02802021 	move	a0,s4
[31m  4019c4:	8f99819c 	lw	t9,printf[0m
  4019c8:	00000000 	nop
  4019cc:	0320f809 	jalr	t9
  4019d0:	02002821 	move	a1,s0
  4019d4:	8fbc0018 	lw	gp,24(sp)
  4019d8:	97a50034 	lhu	a1,52(sp)
  4019dc:	26649498 	addiu	a0,s3,-27496
[31m  4019e0:	8f99819c 	lw	t9,printf[0m
  4019e4:	00000000 	nop
  4019e8:	0320f809 	jalr	t9
--
  401a10:	93a201ef 	lbu	v0,495(sp)
  401a14:	00000000 	nop
  401a18:	0050102b 	sltu	v0,v0,s0
  401a1c:	1040ffa7 	beqz	v0,4018bc <main+0x6c8>
  401a20:	24020040 	li	v0,64
  401a24:	8f998150 	lw	t9,-32432(gp)
  401a28:	27a20040 	addiu	v0,sp,64
  401a2c:	afa20030 	sw	v0,48(sp)
  401a30:	24020040 	li	v0,64
  401a34:	27a40020 	addiu	a0,sp,32
  401a38:	02202821 	move	a1,s1
  401a3c:	24060010 	li	a2,16
  401a40:	a7a20034 	sh	v0,52(sp)
  401a44:	0320f809 	jalr	t9
  401a48:	a7a00036 	sh	zero,54(sp)
  401a4c:	8fbc0018 	lw	gp,24(sp)
  401a50:	02402021 	move	a0,s2
  401a54:	34058b2b 	li	a1,0x8b2b
  401a58:	8f9981a0 	lw	t9,-32352(gp)
  401a5c:	00000000 	nop
  401a60:	0320f809 	jalr	t9
  401a64:	27a60020 	addiu	a2,sp,32
  401a68:	8fbc0018 	lw	gp,24(sp)
  401a6c:	0440001b 	bltz	v0,401adc <main+0x8e8>
  401a70:	00000000 	nop
[31m  401a74:	8f99819c 	lw	t9,printf[0m
  401a78:	93a50036 	lbu	a1,54(sp)
  401a7c:	3c040041 	lui	a0,0x41
--
  401b20:	8f99802c 	lw	t9,-32724(gp)
  401b24:	27bdfce0 	addiu	sp,sp,-800
  401b28:	afb30314 	sw	s3,788(sp)
  401b2c:	afb00308 	sw	s0,776(sp)
  401b30:	afbc0010 	sw	gp,16(sp)
  401b34:	afbf031c 	sw	ra,796(sp)
  401b38:	afb40318 	sw	s4,792(sp)
  401b3c:	afb20310 	sw	s2,784(sp)
  401b40:	afb1030c 	sw	s1,780(sp)
  401b44:	27a600b8 	addiu	a2,sp,184
  401b48:	00809821 	move	s3,a0
  401b4c:	04110866 	bal	403ce8 <iw_get_range_info>
  401b50:	00a08021 	move	s0,a1
  401b54:	8fbc0010 	lw	gp,16(sp)
  401b58:	04410009 	bgez	v0,401b80 <main+0x98c>
  401b5c:	3c050041 	lui	a1,0x41
  401b60:	8f828118 	lw	v0,-32488(gp)
  401b64:	8f998160 	lw	t9,-32416(gp)
  401b68:	8c440000 	lw	a0,0(v0)
  401b6c:	24a59510 	addiu	a1,a1,-27376
  401b70:	0320f809 	jalr	t9
  401b74:	02003021 	move	a2,s0
  401b78:	08100750 	j	401d40 <main+0xb4c>
  401b7c:	00000000 	nop
  401b80:	93a600ec 	lbu	a2,236(sp)
[31m  401b84:	8f99819c 	lw	t9,printf[0m
  401b88:	24c2ffff 	addiu	v0,a2,-1
  401b8c:	304200ff 	andi	v0,v0,0xff
  401b90:	2c420020 	sltiu	v0,v0,32
  401b94:	1040001e 	beqz	v0,401c10 <main+0xa1c>
  401b98:	3c040041 	lui	a0,0x41
  401b9c:	3c040041 	lui	a0,0x41
  401ba0:	24849534 	addiu	a0,a0,-27340
  401ba4:	02002821 	move	a1,s0
  401ba8:	0320f809 	jalr	t9
  401bac:	3c140041 	lui	s4,0x41
  401bb0:	27b200f0 	addiu	s2,sp,240
  401bb4:	8fbc0010 	lw	gp,16(sp)
  401bb8:	00008821 	move	s1,zero
  401bbc:	081006fd 	j	401bf4 <main+0xa00>
  401bc0:	26949558 	addiu	s4,s4,-27304
  401bc4:	8f998034 	lw	t9,-32716(gp)
  401bc8:	8e460000 	lw	a2,0(s2)
  401bcc:	04110d3b 	bal	4050bc <iw_print_bitrate>
  401bd0:	24050080 	li	a1,128
  401bd4:	8fbc0010 	lw	gp,16(sp)
  401bd8:	02802021 	move	a0,s4
  401bdc:	27a50038 	addiu	a1,sp,56
[31m  401be0:	8f99819c 	lw	t9,printf[0m
  401be4:	26310001 	addiu	s1,s1,1
  401be8:	0320f809 	jalr	t9
--
  401c20:	00000000 	nop
  401c24:	8f998150 	lw	t9,-32432(gp)
  401c28:	27a40018 	addiu	a0,sp,24
  401c2c:	02002821 	move	a1,s0
  401c30:	0320f809 	jalr	t9
  401c34:	24060010 	li	a2,16
  401c38:	8fbc0010 	lw	gp,16(sp)
  401c3c:	02602021 	move	a0,s3
  401c40:	34058b21 	li	a1,0x8b21
  401c44:	8f9981a0 	lw	t9,-32352(gp)
  401c48:	00000000 	nop
  401c4c:	0320f809 	jalr	t9
  401c50:	27a60018 	addiu	a2,sp,24
  401c54:	8fbc0010 	lw	gp,16(sp)
  401c58:	04400010 	bltz	v0,401c9c <main+0xaa8>
  401c5c:	24050080 	li	a1,128
  401c60:	8f998034 	lw	t9,-32716(gp)
  401c64:	8fa60028 	lw	a2,40(sp)
  401c68:	04110d14 	bal	4050bc <iw_print_bitrate>
  401c6c:	27a40038 	addiu	a0,sp,56
  401c70:	93a2002c 	lbu	v0,44(sp)
  401c74:	8fbc0010 	lw	gp,16(sp)
  401c78:	10400002 	beqz	v0,401c84 <main+0xa90>
  401c7c:	2405003a 	li	a1,58
  401c80:	2405003d 	li	a1,61
[31m  401c84:	8f99819c 	lw	t9,printf[0m
  401c88:	3c040041 	lui	a0,0x41
  401c8c:	24849588 	addiu	a0,a0,-27256
--
  401cb0:	8f998150 	lw	t9,-32432(gp)
  401cb4:	27a40018 	addiu	a0,sp,24
  401cb8:	02002821 	move	a1,s0
  401cbc:	24060010 	li	a2,16
  401cc0:	0320f809 	jalr	t9
  401cc4:	a7a2002e 	sh	v0,46(sp)
  401cc8:	8fbc0010 	lw	gp,16(sp)
  401ccc:	02602021 	move	a0,s3
  401cd0:	34058b21 	li	a1,0x8b21
  401cd4:	8f9981a0 	lw	t9,-32352(gp)
  401cd8:	00000000 	nop
  401cdc:	0320f809 	jalr	t9
  401ce0:	27a60018 	addiu	a2,sp,24
  401ce4:	8fbc0010 	lw	gp,16(sp)
  401ce8:	04400011 	bltz	v0,401d30 <main+0xb3c>
  401cec:	24050080 	li	a1,128
  401cf0:	8f998034 	lw	t9,-32716(gp)
  401cf4:	8fa60028 	lw	a2,40(sp)
  401cf8:	04110cf0 	bal	4050bc <iw_print_bitrate>
  401cfc:	27a40038 	addiu	a0,sp,56
  401d00:	93a2002c 	lbu	v0,44(sp)
  401d04:	8fbc0010 	lw	gp,16(sp)
  401d08:	10400002 	beqz	v0,401d14 <main+0xb20>
  401d0c:	2405003a 	li	a1,58
  401d10:	2405003d 	li	a1,61
[31m  401d14:	8f99819c 	lw	t9,printf[0m
  401d18:	3c040041 	lui	a0,0x41
  401d1c:	248495a8 	addiu	a0,a0,-27224
--
  401d78:	27b500c0 	addiu	s5,sp,192
  401d7c:	afb30320 	sw	s3,800(sp)
  401d80:	afb00314 	sw	s0,788(sp)
  401d84:	afbc0018 	sw	gp,24(sp)
  401d88:	afbf032c 	sw	ra,812(sp)
  401d8c:	afb40324 	sw	s4,804(sp)
  401d90:	afb2031c 	sw	s2,796(sp)
  401d94:	afb10318 	sw	s1,792(sp)
  401d98:	02a03021 	move	a2,s5
  401d9c:	00809821 	move	s3,a0
  401da0:	041107d1 	bal	403ce8 <iw_get_range_info>
  401da4:	00a08021 	move	s0,a1
  401da8:	8fbc0018 	lw	gp,24(sp)
  401dac:	04410009 	bgez	v0,401dd4 <main+0xbe0>
  401db0:	3c050041 	lui	a1,0x41
  401db4:	8f828118 	lw	v0,-32488(gp)
  401db8:	8f998160 	lw	t9,-32416(gp)
  401dbc:	8c440000 	lw	a0,0(v0)
  401dc0:	24a595cc 	addiu	a1,a1,-27188
  401dc4:	0320f809 	jalr	t9
  401dc8:	02003021 	move	a2,s0
  401dcc:	081007d1 	j	401f44 <main+0xd50>
  401dd0:	00000000 	nop
  401dd4:	93a201f2 	lbu	v0,498(sp)
  401dd8:	97a601f0 	lhu	a2,496(sp)
[31m  401ddc:	8f99819c 	lw	t9,printf[0m
  401de0:	10400027 	beqz	v0,401e80 <main+0xc8c>
  401de4:	3c040041 	lui	a0,0x41
  401de8:	3c040041 	lui	a0,0x41
  401dec:	248495f4 	addiu	a0,a0,-27148
  401df0:	02002821 	move	a1,s0
  401df4:	0320f809 	jalr	t9
  401df8:	3c140041 	lui	s4,0x41
  401dfc:	27b201fa 	addiu	s2,sp,506
  401e00:	8fbc0018 	lw	gp,24(sp)
  401e04:	00008821 	move	s1,zero
  401e08:	08100799 	j	401e64 <main+0xc70>
  401e0c:	2694962c 	addiu	s4,s4,-27092
  401e10:	8f998038 	lw	t9,-32712(gp)
  401e14:	000420c0 	sll	a0,a0,0x3
  401e18:	02a42021 	addu	a0,s5,a0
  401e1c:	04110ac0 	bal	404920 <iw_freq2float>
  401e20:	24840004 	addiu	a0,a0,4
  401e24:	8fbc0018 	lw	gp,24(sp)
  401e28:	00403021 	move	a2,v0
  401e2c:	27a40040 	addiu	a0,sp,64
  401e30:	8f99803c 	lw	t9,-32708(gp)
  401e34:	24050080 	li	a1,128
  401e38:	04110b89 	bal	404c60 <iw_print_freq_value>
  401e3c:	00603821 	move	a3,v1
  401e40:	8fbc0018 	lw	gp,24(sp)
  401e44:	92450000 	lbu	a1,0(s2)
  401e48:	02802021 	move	a0,s4
[31m  401e4c:	8f99819c 	lw	t9,printf[0m
  401e50:	27a60040 	addiu	a2,sp,64
  401e54:	0320f809 	jalr	t9
--
  401ed0:	8f998038 	lw	t9,-32712(gp)
  401ed4:	00000000 	nop
  401ed8:	04110a91 	bal	404920 <iw_freq2float>
  401edc:	27a40030 	addiu	a0,sp,48
  401ee0:	8fbc0018 	lw	gp,24(sp)
  401ee4:	00602821 	move	a1,v1
  401ee8:	00402021 	move	a0,v0
  401eec:	8f998040 	lw	t9,-32704(gp)
  401ef0:	27a600c0 	addiu	a2,sp,192
  401ef4:	00608821 	move	s1,v1
  401ef8:	04110bfb 	bal	404ee8 <iw_freq_to_channel>
  401efc:	00408021 	move	s0,v0
  401f00:	8fbc0018 	lw	gp,24(sp)
  401f04:	afa20010 	sw	v0,16(sp)
  401f08:	93a20037 	lbu	v0,55(sp)
  401f0c:	8f998044 	lw	t9,-32700(gp)
  401f10:	27a40040 	addiu	a0,sp,64
  401f14:	24050080 	li	a1,128
  401f18:	afa20014 	sw	v0,20(sp)
  401f1c:	02003021 	move	a2,s0
  401f20:	04110bab 	bal	404dd0 <iw_print_freq>
  401f24:	02203821 	move	a3,s1
  401f28:	8fbc0018 	lw	gp,24(sp)
  401f2c:	3c040041 	lui	a0,0x41
  401f30:	24849664 	addiu	a0,a0,-27036
[31m  401f34:	8f99819c 	lw	t9,printf[0m
  401f38:	00000000 	nop
  401f3c:	0320f809 	jalr	t9
  401f40:	27a50040 	addiu	a1,sp,64
  401f44:	8fbf032c 	lw	ra,812(sp)
  401f48:	00001021 	move	v0,zero
  401f4c:	8fb50328 	lw	s5,808(sp)
  401f50:	8fb40324 	lw	s4,804(sp)
  401f54:	8fb30320 	lw	s3,800(sp)
  401f58:	8fb2031c 	lw	s2,796(sp)
  401f5c:	8fb10318 	lw	s1,792(sp)
  401f60:	8fb00314 	lw	s0,788(sp)
  401f64:	03e00008 	jr	ra
  401f68:	27bd0330 	addiu	sp,sp,816
  401f6c:	3c1c0042 	lui	gp,0x42
  401f70:	279c3280 	addiu	gp,gp,12928
  401f74:	0086302b 	sltu	a2,a0,a2
[31m  401f78:	8f99819c 	lw	t9,printf[0m
  401f7c:	14c00005 	bnez	a2,401f94 <main+0xda0>
  401f80:	00801021 	move	v0,a0
--
  402418:	1e80ff97 	bgtz	s4,402278 <main+0x1084>
  40241c:	afb50028 	sw	s5,40(sp)
  402420:	8f9980f0 	lw	t9,-32528(gp)
  402424:	02002021 	move	a0,s0
  402428:	0320f809 	jalr	t9
  40242c:	afa2058c 	sw	v0,1420(sp)
  402430:	8fbc0018 	lw	gp,24(sp)
  402434:	8fa2058c 	lw	v0,1420(sp)
  402438:	8f838118 	lw	v1,-32488(gp)
  40243c:	8f998194 	lw	t9,-32364(gp)
  402440:	8c440000 	lw	a0,0(v0)
  402444:	8c700000 	lw	s0,0(v1)
  402448:	0320f809 	jalr	t9
  40244c:	00000000 	nop
  402450:	8fbc0018 	lw	gp,24(sp)
  402454:	3c050041 	lui	a1,0x41
  402458:	02002021 	move	a0,s0
  40245c:	8f998160 	lw	t9,-32416(gp)
  402460:	24a59788 	addiu	a1,a1,-26744
  402464:	02203021 	move	a2,s1
  402468:	0320f809 	jalr	t9
  40246c:	00403821 	move	a3,v0
  402470:	08100bda 	j	402f68 <main+0x1d74>
  402474:	2402fffe 	li	v0,-2
  402478:	97a20060 	lhu	v0,96(sp)
[31m  40247c:	8f99819c 	lw	t9,printf[0m
  402480:	104002ae 	beqz	v0,402f3c <main+0x1d48>
  402484:	02202821 	move	a1,s1
--
  402550:	00a2102b 	sltu	v0,a1,v0
  402554:	10400008 	beqz	v0,402578 <main+0x1384>
  402558:	34028c02 	li	v0,0x8c02
  40255c:	34028b21 	li	v0,0x8b21
  402560:	10a200c2 	beq	a1,v0,40286c <main+0x1678>
  402564:	34028b2b 	li	v0,0x8b2b
  402568:	14a20265 	bne	a1,v0,402f00 <main+0x1d0c>
  40256c:	3c040041 	lui	a0,0x41
  402570:	081009d3 	j	40274c <main+0x1558>
  402574:	00000000 	nop
  402578:	10a2024c 	beq	a1,v0,402eac <main+0x1cb8>
  40257c:	34028c05 	li	v0,0x8c05
  402580:	10a2011b 	beq	a1,v0,4029f0 <main+0x17fc>
  402584:	34028c01 	li	v0,0x8c01
  402588:	14a2025c 	bne	a1,v0,402efc <main+0x1d08>
  40258c:	24020001 	li	v0,1
  402590:	08100a71 	j	4029c4 <main+0x17d0>
  402594:	afa20010 	sw	v0,16(sp)
  402598:	8f998050 	lw	t9,-32688(gp)
  40259c:	00000000 	nop
  4025a0:	0411119a 	bal	406c0c <iw_ether_ntop>
  4025a4:	27a5006c 	addiu	a1,sp,108
  4025a8:	8fbc0018 	lw	gp,24(sp)
  4025ac:	3c040041 	lui	a0,0x41
  4025b0:	02602821 	move	a1,s3
[31m  4025b4:	8f99819c 	lw	t9,printf[0m
  4025b8:	248497d0 	addiu	a0,a0,-26672
  4025bc:	0320f809 	jalr	t9
--
  4026a0:	08100bc1 	j	402f04 <main+0x1d10>
  4026a4:	27a5003c 	addiu	a1,sp,60
  4026a8:	8f998134 	lw	t9,-32460(gp)
  4026ac:	00002821 	move	a1,zero
  4026b0:	27a400ec 	addiu	a0,sp,236
  4026b4:	0320f809 	jalr	t9
  4026b8:	24060021 	li	a2,33
  4026bc:	8fa5003c 	lw	a1,60(sp)
  4026c0:	8fbc0018 	lw	gp,24(sp)
  4026c4:	10a0000a 	beqz	a1,4026f0 <main+0x14fc>
  4026c8:	00000000 	nop
  4026cc:	97a60040 	lhu	a2,64(sp)
  4026d0:	00000000 	nop
  4026d4:	10c00006 	beqz	a2,4026f0 <main+0x14fc>
  4026d8:	00000000 	nop
  4026dc:	8f998180 	lw	t9,-32384(gp)
  4026e0:	00000000 	nop
  4026e4:	0320f809 	jalr	t9
  4026e8:	27a400ec 	addiu	a0,sp,236
  4026ec:	8fbc0018 	lw	gp,24(sp)
  4026f0:	97a60042 	lhu	a2,66(sp)
  4026f4:	00000000 	nop
  4026f8:	10c0000f 	beqz	a2,402738 <main+0x1544>
  4026fc:	30c600ff 	andi	a2,a2,0xff
  402700:	28c20002 	slti	v0,a2,2
[31m  402704:	8f99819c 	lw	t9,printf[0m
  402708:	14400008 	bnez	v0,40272c <main+0x1538>
  40270c:	3c020041 	lui	v0,0x41
--
  402724:	08100bc6 	j	402f18 <main+0x1d24>
  402728:	00000000 	nop
  40272c:	244498c0 	addiu	a0,v0,-26432
  402730:	08100bc3 	j	402f0c <main+0x1d18>
  402734:	27a500ec 	addiu	a1,sp,236
  402738:	3c030041 	lui	v1,0x41
  40273c:	246498e0 	addiu	a0,v1,-26400
  402740:	8f998178 	lw	t9,-32392(gp)
  402744:	08100a6c 	j	4029b0 <main+0x17bc>
  402748:	00000000 	nop
  40274c:	8fa5003c 	lw	a1,60(sp)
  402750:	00000000 	nop
  402754:	10a00008 	beqz	a1,402778 <main+0x1584>
  402758:	00000000 	nop
  40275c:	8f998180 	lw	t9,-32384(gp)
  402760:	97a60040 	lhu	a2,64(sp)
  402764:	0320f809 	jalr	t9
  402768:	27a400ec 	addiu	a0,sp,236
  40276c:	8fbc0018 	lw	gp,24(sp)
  402770:	081009e2 	j	402788 <main+0x1594>
  402774:	00000000 	nop
  402778:	97a20042 	lhu	v0,66(sp)
  40277c:	00000000 	nop
  402780:	34420800 	ori	v0,v0,0x800
  402784:	a7a20042 	sh	v0,66(sp)
[31m  402788:	8f99819c 	lw	t9,printf[0m
  40278c:	3c040041 	lui	a0,0x41
  402790:	0320f809 	jalr	t9
  402794:	2484990c 	addiu	a0,a0,-26356
  402798:	97a20042 	lhu	v0,66(sp)
  40279c:	8fbc0018 	lw	gp,24(sp)
  4027a0:	00021c00 	sll	v1,v0,0x10
  4027a4:	00031c03 	sra	v1,v1,0x10
  4027a8:	04610004 	bgez	v1,4027bc <main+0x15c8>
  4027ac:	24050080 	li	a1,128
  4027b0:	3c040041 	lui	a0,0x41
  4027b4:	081009d0 	j	402740 <main+0x154c>
  4027b8:	24849930 	addiu	a0,a0,-26320
  4027bc:	8f998030 	lw	t9,-32720(gp)
  4027c0:	97a70040 	lhu	a3,64(sp)
  4027c4:	afa20010 	sw	v0,16(sp)
  4027c8:	27a4006c 	addiu	a0,sp,108
  4027cc:	04110d3d 	bal	405cc4 <iw_print_key>
  4027d0:	27a600ec 	addiu	a2,sp,236
  4027d4:	8fbc0018 	lw	gp,24(sp)
  4027d8:	27a5006c 	addiu	a1,sp,108
[31m  4027dc:	8f99819c 	lw	t9,printf[0m
  4027e0:	00000000 	nop
  4027e4:	0320f809 	jalr	t9
  4027e8:	02402021 	move	a0,s2
  4027ec:	93a50042 	lbu	a1,66(sp)
  4027f0:	8fbc0018 	lw	gp,24(sp)
  4027f4:	28a20002 	slti	v0,a1,2
  4027f8:	14400006 	bnez	v0,402814 <main+0x1620>
  4027fc:	00000000 	nop
[31m  402800:	8f99819c 	lw	t9,printf[0m
  402804:	3c040041 	lui	a0,0x41
  402808:	0320f809 	jalr	t9
  40280c:	24849934 	addiu	a0,a0,-26316
  402810:	8fbc0018 	lw	gp,24(sp)
  402814:	97a20042 	lhu	v0,66(sp)
  402818:	00000000 	nop
  40281c:	30424000 	andi	v0,v0,0x4000
  402820:	10400006 	beqz	v0,40283c <main+0x1648>
  402824:	00000000 	nop
[31m  402828:	8f99819c 	lw	t9,printf[0m
  40282c:	3c040041 	lui	a0,0x41
  402830:	0320f809 	jalr	t9
  402834:	2484993c 	addiu	a0,a0,-26308
  402838:	8fbc0018 	lw	gp,24(sp)
  40283c:	97a20042 	lhu	v0,66(sp)
  402840:	00000000 	nop
  402844:	30422000 	andi	v0,v0,0x2000
  402848:	10400057 	beqz	v0,4029a8 <main+0x17b4>
  40284c:	3c040041 	lui	a0,0x41
[31m  402850:	8f99819c 	lw	t9,printf[0m
  402854:	00000000 	nop
  402858:	0320f809 	jalr	t9
  40285c:	24849958 	addiu	a0,a0,-26280
  402860:	8fbc0018 	lw	gp,24(sp)
  402864:	08100a6a 	j	4029a8 <main+0x17b4>
  402868:	00000000 	nop
[31m  40286c:	8f99819c 	lw	t9,printf[0m
  402870:	16200004 	bnez	s1,402884 <main+0x1690>
  402874:	24020005 	li	v0,5
  402878:	3c040041 	lui	a0,0x41
  40287c:	08100a2b 	j	4028ac <main+0x16b8>
  402880:	24849970 	addiu	a0,a0,-26256
  402884:	14400002 	bnez	v0,402890 <main+0x169c>
  402888:	0222001a 	div	zero,s1,v0
  40288c:	0007000d 	break	0x7
  402890:	00001010 	mfhi	v0
  402894:	14400003 	bnez	v0,4028a4 <main+0x16b0>
  402898:	3c040041 	lui	a0,0x41
  40289c:	08100a2b 	j	4028ac <main+0x16b8>
  4028a0:	24849990 	addiu	a0,a0,-26224
  4028a4:	3c040041 	lui	a0,0x41
  4028a8:	248499b0 	addiu	a0,a0,-26192
  4028ac:	0320f809 	jalr	t9
  4028b0:	26310001 	addiu	s1,s1,1
  4028b4:	8fbc0018 	lw	gp,24(sp)
  4028b8:	8fa6003c 	lw	a2,60(sp)
  4028bc:	27a4006c 	addiu	a0,sp,108
  4028c0:	8f998034 	lw	t9,-32716(gp)
  4028c4:	00000000 	nop
  4028c8:	041109fc 	bal	4050bc <iw_print_bitrate>
  4028cc:	24050080 	li	a1,128
  4028d0:	8fbc0018 	lw	gp,24(sp)
  4028d4:	02402021 	move	a0,s2
[31m  4028d8:	8f99819c 	lw	t9,printf[0m
  4028dc:	00000000 	nop
  4028e0:	0320f809 	jalr	t9
  4028e4:	27a5006c 	addiu	a1,sp,108
  4028e8:	8fa20034 	lw	v0,52(sp)
  4028ec:	8fbc0018 	lw	gp,24(sp)
  4028f0:	1440fef3 	bnez	v0,4024c0 <main+0x12cc>
  4028f4:	2404000a 	li	a0,10
  4028f8:	8f9981a8 	lw	t9,-32344(gp)
  4028fc:	00000000 	nop
  402900:	0320f809 	jalr	t9
  402904:	00008821 	move	s1,zero
  402908:	8fbc0018 	lw	gp,24(sp)
  40290c:	08100930 	j	4024c0 <main+0x12cc>
  402910:	00000000 	nop
[31m  402914:	8f99819c 	lw	t9,printf[0m
  402918:	3c040041 	lui	a0,0x41
  40291c:	8fbe003c 	lw	s8,60(sp)
  402920:	0320f809 	jalr	t9
  402924:	248499b4 	addiu	a0,a0,-26188
  402928:	8fbc0018 	lw	gp,24(sp)
  40292c:	0000a821 	move	s5,zero
  402930:	0000a021 	move	s4,zero
  402934:	8f968058 	lw	s6,-32680(gp)
  402938:	3c170041 	lui	s7,0x41
  40293c:	8ec20000 	lw	v0,0(s6)
  402940:	00000000 	nop
  402944:	005e1824 	and	v1,v0,s8
  402948:	14620013 	bne	v1,v0,402998 <main+0x17a4>
  40294c:	32a30007 	andi	v1,s5,0x7
  402950:	24020007 	li	v0,7
  402954:	26b50001 	addiu	s5,s5,1
[31m  402958:	8f99819c 	lw	t9,printf[0m
  40295c:	10620003 	beq	v1,v0,40296c <main+0x1778>
  402960:	26e499d8 	addiu	a0,s7,-26152
  402964:	3c040041 	lui	a0,0x41
  402968:	248499f4 	addiu	a0,a0,-26124
  40296c:	0320f809 	jalr	t9
  402970:	00000000 	nop
  402974:	8fbc0018 	lw	gp,24(sp)
  402978:	00141100 	sll	v0,s4,0x4
  40297c:	02402021 	move	a0,s2
  402980:	8f858058 	lw	a1,-32680(gp)
[31m  402984:	8f99819c 	lw	t9,printf[0m
  402988:	00a22821 	addu	a1,a1,v0
  40298c:	0320f809 	jalr	t9
--
  4029a0:	1682ffe6 	bne	s4,v0,40293c <main+0x1748>
  4029a4:	26d60010 	addiu	s6,s6,16
  4029a8:	8f9981a8 	lw	t9,-32344(gp)
  4029ac:	2404000a 	li	a0,10
  4029b0:	0320f809 	jalr	t9
  4029b4:	00000000 	nop
  4029b8:	8fbc0018 	lw	gp,24(sp)
  4029bc:	08100bc6 	j	402f18 <main+0x1d24>
  4029c0:	00000000 	nop
  4029c4:	8f99805c 	lw	t9,-32676(gp)
  4029c8:	27a4006c 	addiu	a0,sp,108
  4029cc:	24050080 	li	a1,128
  4029d0:	27a6003c 	addiu	a2,sp,60
  4029d4:	04110bd0 	bal	405918 <iw_print_stats>
  4029d8:	27a7032c 	addiu	a3,sp,812
  4029dc:	8fbc0018 	lw	gp,24(sp)
  4029e0:	3c040041 	lui	a0,0x41
  4029e4:	24849838 	addiu	a0,a0,-26568
  4029e8:	08100bc1 	j	402f04 <main+0x1d10>
  4029ec:	27a5006c 	addiu	a1,sp,108
  4029f0:	8fa3003c 	lw	v1,60(sp)
  4029f4:	97b60040 	lhu	s6,64(sp)
  4029f8:	0000b821 	move	s7,zero
  4029fc:	08100ba5 	j	402e94 <main+0x1ca0>
  402a00:	afa30588 	sw	v1,1416(sp)
[31m  402a04:	8f99819c 	lw	t9,printf[0m
  402a08:	00000000 	nop
  402a0c:	0320f809 	jalr	t9
--
  402ac0:	24060003 	li	a2,3
  402ac4:	8fbc0018 	lw	gp,24(sp)
  402ac8:	8fa3058c 	lw	v1,1420(sp)
  402acc:	144000e7 	bnez	v0,402e6c <main+0x1c78>
  402ad0:	02802021 	move	a0,s4
  402ad4:	92840005 	lbu	a0,5(s4)
  402ad8:	24020001 	li	v0,1
  402adc:	148200e3 	bne	a0,v0,402e6c <main+0x1c78>
  402ae0:	02802021 	move	a0,s4
  402ae4:	08100abf 	j	402afc <main+0x1908>
  402ae8:	27a500ec 	addiu	a1,sp,236
  402aec:	27a40020 	addiu	a0,sp,32
  402af0:	afa40584 	sw	a0,1412(sp)
  402af4:	08100ac1 	j	402b04 <main+0x1910>
  402af8:	241e0002 	li	s8,2
  402afc:	afa50584 	sw	a1,1412(sp)
  402b00:	241e0006 	li	s8,6
  402b04:	029e1021 	addu	v0,s4,s8
  402b08:	90460001 	lbu	a2,1(v0)
  402b0c:	90420000 	lbu	v0,0(v0)
  402b10:	00063200 	sll	a2,a2,0x8
  402b14:	00c23025 	or	a2,a2,v0
  402b18:	240200dd 	li	v0,221
  402b1c:	14620008 	bne	v1,v0,402b40 <main+0x194c>
  402b20:	00c02821 	move	a1,a2
[31m  402b24:	8f99819c 	lw	t9,printf[0m
  402b28:	3c040041 	lui	a0,0x41
  402b2c:	afa6058c 	sw	a2,1420(sp)
  402b30:	0320f809 	jalr	t9
  402b34:	24849a14 	addiu	a0,a0,-26092
  402b38:	8fbc0018 	lw	gp,24(sp)
  402b3c:	8fa6058c 	lw	a2,1420(sp)
  402b40:	92830000 	lbu	v1,0(s4)
  402b44:	24020030 	li	v0,48
  402b48:	14620008 	bne	v1,v0,402b6c <main+0x1978>
  402b4c:	27c20005 	addiu	v0,s8,5
[31m  402b50:	8f99819c 	lw	t9,printf[0m
  402b54:	3c040041 	lui	a0,0x41
  402b58:	24849a24 	addiu	a0,a0,-26076
--
  402b6c:	0055102a 	slt	v0,v0,s5
  402b70:	14400009 	bnez	v0,402b98 <main+0x19a4>
  402b74:	27c20002 	addiu	v0,s8,2
  402b78:	8f998178 	lw	t9,-32392(gp)
  402b7c:	3c040041 	lui	a0,0x41
  402b80:	0320f809 	jalr	t9
  402b84:	24849a44 	addiu	a0,a0,-26044
  402b88:	3c040041 	lui	a0,0x41
  402b8c:	8fbc0018 	lw	gp,24(sp)
  402b90:	08100b93 	j	402e4c <main+0x1c58>
  402b94:	24849a70 	addiu	a0,a0,-26000
  402b98:	8f998144 	lw	t9,-32444(gp)
  402b9c:	8fa50584 	lw	a1,1412(sp)
  402ba0:	02821021 	addu	v0,s4,v0
  402ba4:	afa20578 	sw	v0,1400(sp)
  402ba8:	00402021 	move	a0,v0
  402bac:	0320f809 	jalr	t9
  402bb0:	24060003 	li	a2,3
  402bb4:	8fbc0018 	lw	gp,24(sp)
  402bb8:	10400005 	beqz	v0,402bd0 <main+0x19dc>
  402bbc:	00000000 	nop
  402bc0:	3c040041 	lui	a0,0x41
  402bc4:	8f998178 	lw	t9,-32392(gp)
  402bc8:	08100b02 	j	402c08 <main+0x1a14>
  402bcc:	24849aa0 	addiu	a0,a0,-25952
[31m  402bd0:	8f99819c 	lw	t9,printf[0m
  402bd4:	3c040041 	lui	a0,0x41
  402bd8:	0320f809 	jalr	t9
  402bdc:	24849ad4 	addiu	a0,a0,-25900
  402be0:	8fa30578 	lw	v1,1400(sp)
  402be4:	3c050042 	lui	a1,0x42
  402be8:	24a5b250 	addiu	a1,a1,-19888
  402bec:	90640003 	lbu	a0,3(v1)
  402bf0:	0c1007db 	jal	401f6c <main+0xd78>
  402bf4:	24060006 	li	a2,6
  402bf8:	8fbc0018 	lw	gp,24(sp)
  402bfc:	2404000a 	li	a0,10
  402c00:	8f9981a8 	lw	t9,-32344(gp)
  402c04:	00000000 	nop
  402c08:	0320f809 	jalr	t9
  402c0c:	00000000 	nop
  402c10:	27c20007 	addiu	v0,s8,7
  402c14:	0055102a 	slt	v0,v0,s5
  402c18:	8fbc0018 	lw	gp,24(sp)
  402c1c:	14400004 	bnez	v0,402c30 <main+0x1a3c>
  402c20:	27c20006 	addiu	v0,s8,6
  402c24:	3c040041 	lui	a0,0x41
  402c28:	08100b93 	j	402e4c <main+0x1c58>
  402c2c:	24849afc 	addiu	a0,a0,-25860
  402c30:	02821021 	addu	v0,s4,v0
  402c34:	90440001 	lbu	a0,1(v0)
  402c38:	90420000 	lbu	v0,0(v0)
[31m  402c3c:	8f99819c 	lw	t9,printf[0m
  402c40:	00042200 	sll	a0,a0,0x8
  402c44:	27c30008 	addiu	v1,s8,8
--
  402c4c:	3c050041 	lui	a1,0x41
  402c50:	24a49b2c 	addiu	a0,a1,-25812
  402c54:	afa3058c 	sw	v1,1420(sp)
  402c58:	afa2057c 	sw	v0,1404(sp)
  402c5c:	0320f809 	jalr	t9
  402c60:	00402821 	move	a1,v0
  402c64:	8fa2057c 	lw	v0,1404(sp)
  402c68:	8fa3058c 	lw	v1,1420(sp)
  402c6c:	8fbc0018 	lw	gp,24(sp)
  402c70:	0002f080 	sll	s8,v0,0x2
  402c74:	007ef021 	addu	s8,v1,s8
  402c78:	02be102a 	slt	v0,s5,s8
  402c7c:	1440007e 	bnez	v0,402e78 <main+0x1c84>
  402c80:	02831821 	addu	v1,s4,v1
  402c84:	afa30578 	sw	v1,1400(sp)
  402c88:	08100b41 	j	402d04 <main+0x1b10>
  402c8c:	afa00580 	sw	zero,1408(sp)
  402c90:	8f998144 	lw	t9,-32444(gp)
  402c94:	8fa40578 	lw	a0,1400(sp)
  402c98:	8fa50584 	lw	a1,1412(sp)
  402c9c:	0320f809 	jalr	t9
  402ca0:	24060003 	li	a2,3
  402ca4:	8fbc0018 	lw	gp,24(sp)
  402ca8:	10400008 	beqz	v0,402ccc <main+0x1ad8>
  402cac:	3c050042 	lui	a1,0x42
[31m  402cb0:	8f99819c 	lw	t9,printf[0m
  402cb4:	3c040041 	lui	a0,0x41
  402cb8:	0320f809 	jalr	t9
--
  402ce8:	00000000 	nop
  402cec:	24630001 	addiu	v1,v1,1
  402cf0:	afa30580 	sw	v1,1408(sp)
  402cf4:	8fa30578 	lw	v1,1400(sp)
  402cf8:	00000000 	nop
  402cfc:	24630004 	addiu	v1,v1,4
  402d00:	afa30578 	sw	v1,1400(sp)
  402d04:	8fa30580 	lw	v1,1408(sp)
  402d08:	8fa4057c 	lw	a0,1404(sp)
  402d0c:	00000000 	nop
  402d10:	0064102a 	slt	v0,v1,a0
  402d14:	1440ffde 	bnez	v0,402c90 <main+0x1a9c>
  402d18:	00000000 	nop
  402d1c:	8f9981a8 	lw	t9,-32344(gp)
  402d20:	00000000 	nop
  402d24:	0320f809 	jalr	t9
  402d28:	2404000a 	li	a0,10
  402d2c:	27c20001 	addiu	v0,s8,1
  402d30:	0055102a 	slt	v0,v0,s5
  402d34:	8fbc0018 	lw	gp,24(sp)
  402d38:	1040004f 	beqz	v0,402e78 <main+0x1c84>
  402d3c:	27c30002 	addiu	v1,s8,2
  402d40:	029ef021 	addu	s8,s4,s8
  402d44:	93c40001 	lbu	a0,1(s8)
  402d48:	93c20000 	lbu	v0,0(s8)
[31m  402d4c:	8f99819c 	lw	t9,printf[0m
  402d50:	00042200 	sll	a0,a0,0x8
  402d54:	00821025 	or	v0,a0,v0
  402d58:	3c040041 	lui	a0,0x41
  402d5c:	00402821 	move	a1,v0
  402d60:	afa3058c 	sw	v1,1420(sp)
  402d64:	afa20578 	sw	v0,1400(sp)
  402d68:	0320f809 	jalr	t9
  402d6c:	24849b6c 	addiu	a0,a0,-25748
  402d70:	8fa50578 	lw	a1,1400(sp)
  402d74:	8fa3058c 	lw	v1,1420(sp)
  402d78:	8fbc0018 	lw	gp,24(sp)
  402d7c:	00051080 	sll	v0,a1,0x2
  402d80:	00621021 	addu	v0,v1,v0
  402d84:	afa2057c 	sw	v0,1404(sp)
  402d88:	02a2102a 	slt	v0,s5,v0
  402d8c:	1440003a 	bnez	v0,402e78 <main+0x1c84>
  402d90:	0283f021 	addu	s8,s4,v1
  402d94:	08100b7e 	j	402df8 <main+0x1c04>
  402d98:	afa00580 	sw	zero,1408(sp)
  402d9c:	8f998144 	lw	t9,-32444(gp)
  402da0:	8fa50584 	lw	a1,1412(sp)
  402da4:	0320f809 	jalr	t9
  402da8:	24060003 	li	a2,3
  402dac:	8fbc0018 	lw	gp,24(sp)
  402db0:	10400008 	beqz	v0,402dd4 <main+0x1be0>
  402db4:	3c050042 	lui	a1,0x42
[31m  402db8:	8f99819c 	lw	t9,printf[0m
  402dbc:	3c040041 	lui	a0,0x41
  402dc0:	0320f809 	jalr	t9
--
  402ea0:	3c050041 	lui	a1,0x41
  402ea4:	08100930 	j	4024c0 <main+0x12cc>
  402ea8:	00000000 	nop
  402eac:	8fa5003c 	lw	a1,60(sp)
  402eb0:	00000000 	nop
  402eb4:	10a0000a 	beqz	a1,402ee0 <main+0x1cec>
  402eb8:	00000000 	nop
  402ebc:	97a60040 	lhu	a2,64(sp)
  402ec0:	00000000 	nop
  402ec4:	10c00006 	beqz	a2,402ee0 <main+0x1cec>
  402ec8:	00000000 	nop
  402ecc:	8f998180 	lw	t9,-32384(gp)
  402ed0:	00000000 	nop
  402ed4:	0320f809 	jalr	t9
  402ed8:	27a400ec 	addiu	a0,sp,236
  402edc:	8fbc0018 	lw	gp,24(sp)
  402ee0:	97a20040 	lhu	v0,64(sp)
  402ee4:	3c040041 	lui	a0,0x41
  402ee8:	24849bd8 	addiu	a0,a0,-25640
  402eec:	03a21021 	addu	v0,sp,v0
  402ef0:	a04000ec 	sb	zero,236(v0)
  402ef4:	08100bc1 	j	402f04 <main+0x1d10>
  402ef8:	27a500ec 	addiu	a1,sp,236
  402efc:	3c040041 	lui	a0,0x41
  402f00:	24849bf8 	addiu	a0,a0,-25608
[31m  402f04:	8f99819c 	lw	t9,printf[0m
  402f08:	00000000 	nop
  402f0c:	0320f809 	jalr	t9
--
  402f94:	27bd05b8 	addiu	sp,sp,1464
  402f98:	27bdffc8 	addiu	sp,sp,-56
  402f9c:	afb10024 	sw	s1,36(sp)
  402fa0:	3c1c0042 	lui	gp,0x42
  402fa4:	2411fffc 	li	s1,-4
  402fa8:	279c3280 	addiu	gp,gp,12928
  402fac:	00b18824 	and	s1,a1,s1
  402fb0:	30a50001 	andi	a1,a1,0x1
  402fb4:	afb40030 	sw	s4,48(sp)
  402fb8:	afb3002c 	sw	s3,44(sp)
  402fbc:	afb20028 	sw	s2,40(sp)
  402fc0:	afb00020 	sw	s0,32(sp)
  402fc4:	afbf0034 	sw	ra,52(sp)
  402fc8:	afbc0018 	sw	gp,24(sp)
  402fcc:	00801021 	move	v0,a0
  402fd0:	00c0a021 	move	s4,a2
  402fd4:	8fb00048 	lw	s0,72(sp)
  402fd8:	8fb2004c 	lw	s2,76(sp)
  402fdc:	10a00004 	beqz	a1,402ff0 <main+0x1dfc>
  402fe0:	00e09821 	move	s3,a3
  402fe4:	3c050041 	lui	a1,0x41
  402fe8:	08100bfe 	j	402ff8 <main+0x1e04>
  402fec:	24a59c4c 	addiu	a1,a1,-25524
  402ff0:	3c050041 	lui	a1,0x41
  402ff4:	24a59c54 	addiu	a1,a1,-25516
[31m  402ff8:	8f99819c 	lw	t9,printf[0m
  402ffc:	3c040041 	lui	a0,0x41
  403000:	24849c5c 	addiu	a0,a0,-25508
  403004:	0320f809 	jalr	t9
  403008:	00403021 	move	a2,v0
  40300c:	8fbc0018 	lw	gp,24(sp)
  403010:	02803021 	move	a2,s4
  403014:	36270001 	ori	a3,s1,0x1
  403018:	8f998060 	lw	t9,-32672(gp)
  40301c:	afb20010 	sw	s2,16(sp)
  403020:	02002021 	move	a0,s0
  403024:	04110ca0 	bal	4062a8 <iw_print_pm_value>
  403028:	24050080 	li	a1,128
  40302c:	8fbc0018 	lw	gp,24(sp)
  403030:	3c040041 	lui	a0,0x41
  403034:	02002821 	move	a1,s0
[31m  403038:	8f99819c 	lw	t9,printf[0m
  40303c:	00000000 	nop
  403040:	0320f809 	jalr	t9
  403044:	24849c68 	addiu	a0,a0,-25496
  403048:	8fbc0018 	lw	gp,24(sp)
  40304c:	afb20010 	sw	s2,16(sp)
  403050:	02002021 	move	a0,s0
  403054:	8f998060 	lw	t9,-32672(gp)
  403058:	24050080 	li	a1,128
  40305c:	02603021 	move	a2,s3
  403060:	04110c91 	bal	4062a8 <iw_print_pm_value>
  403064:	36270002 	ori	a3,s1,0x2
  403068:	8fbc0018 	lw	gp,24(sp)
  40306c:	02002821 	move	a1,s0
  403070:	8fbf0034 	lw	ra,52(sp)
  403074:	8fb40030 	lw	s4,48(sp)
  403078:	8fb3002c 	lw	s3,44(sp)
  40307c:	8fb20028 	lw	s2,40(sp)
  403080:	8fb10024 	lw	s1,36(sp)
  403084:	8fb00020 	lw	s0,32(sp)
[31m  403088:	8f99819c 	lw	t9,printf[0m
  40308c:	3c040041 	lui	a0,0x41
  403090:	24849c88 	addiu	a0,a0,-25464
--
  4030d8:	24060010 	li	a2,16
  4030dc:	8fbc0018 	lw	gp,24(sp)
  4030e0:	02402021 	move	a0,s2
  4030e4:	34058b2d 	li	a1,0x8b2d
  4030e8:	8f9981a0 	lw	t9,-32352(gp)
  4030ec:	00000000 	nop
  4030f0:	0320f809 	jalr	t9
  4030f4:	02003021 	move	a2,s0
  4030f8:	8fbc0018 	lw	gp,24(sp)
  4030fc:	04400013 	bltz	v0,40314c <main+0x1f58>
  403100:	00000000 	nop
  403104:	96070016 	lhu	a3,22(s0)
  403108:	00000000 	nop
  40310c:	30e2f000 	andi	v0,a3,0xf000
  403110:	1040000e 	beqz	v0,40314c <main+0x1f58>
  403114:	02202021 	move	a0,s1
  403118:	8fa20044 	lw	v0,68(sp)
  40311c:	8f998060 	lw	t9,-32672(gp)
  403120:	8e060010 	lw	a2,16(s0)
  403124:	afa20010 	sw	v0,16(sp)
  403128:	04110c5f 	bal	4062a8 <iw_print_pm_value>
  40312c:	24050080 	li	a1,128
  403130:	8fbc0018 	lw	gp,24(sp)
  403134:	3c040041 	lui	a0,0x41
  403138:	24849c98 	addiu	a0,a0,-25448
[31m  40313c:	8f99819c 	lw	t9,printf[0m
  403140:	00000000 	nop
  403144:	0320f809 	jalr	t9
--
  40318c:	afb40320 	sw	s4,800(sp)
  403190:	afb3031c 	sw	s3,796(sp)
  403194:	afb10314 	sw	s1,788(sp)
  403198:	afb00310 	sw	s0,784(sp)
  40319c:	27a600c0 	addiu	a2,sp,192
  4031a0:	0080a821 	move	s5,a0
  4031a4:	041102d0 	bal	403ce8 <iw_get_range_info>
  4031a8:	00a09021 	move	s2,a1
  4031ac:	8fbc0018 	lw	gp,24(sp)
  4031b0:	04400006 	bltz	v0,4031cc <main+0x1fd8>
  4031b4:	00000000 	nop
  4031b8:	93a201d8 	lbu	v0,472(sp)
  4031bc:	00000000 	nop
  4031c0:	2c42000a 	sltiu	v0,v0,10
  4031c4:	1040000a 	beqz	v0,4031f0 <main+0x1ffc>
  4031c8:	00000000 	nop
  4031cc:	8f828118 	lw	v0,-32488(gp)
  4031d0:	8f998160 	lw	t9,-32416(gp)
  4031d4:	3c050041 	lui	a1,0x41
  4031d8:	8c440000 	lw	a0,0(v0)
  4031dc:	24a59cb0 	addiu	a1,a1,-25424
  4031e0:	0320f809 	jalr	t9
  4031e4:	02403021 	move	a2,s2
  4031e8:	08100d65 	j	403594 <main+0x23a0>
  4031ec:	00000000 	nop
[31m  4031f0:	8f99819c 	lw	t9,printf[0m
  4031f4:	3c040041 	lui	a0,0x41
  4031f8:	248493f8 	addiu	a0,a0,-27656
  4031fc:	0320f809 	jalr	t9
  403200:	02402821 	move	a1,s2
  403204:	97a2019c 	lhu	v0,412(sp)
  403208:	8fbc0018 	lw	gp,24(sp)
  40320c:	30420f00 	andi	v0,v0,0xf00
  403210:	10400037 	beqz	v0,4032f0 <main+0x20fc>
  403214:	3c040041 	lui	a0,0x41
[31m  403218:	8f99819c 	lw	t9,printf[0m
  40321c:	00000000 	nop
  403220:	0320f809 	jalr	t9
  403224:	24849cdc 	addiu	a0,a0,-25380
  403228:	97a2019c 	lhu	v0,412(sp)
  40322c:	8fbc0018 	lw	gp,24(sp)
  403230:	30420300 	andi	v0,v0,0x300
  403234:	10400006 	beqz	v0,403250 <main+0x205c>
  403238:	00000000 	nop
[31m  40323c:	8f99819c 	lw	t9,printf[0m
  403240:	3c040041 	lui	a0,0x41
  403244:	0320f809 	jalr	t9
  403248:	24849cfc 	addiu	a0,a0,-25348
  40324c:	8fbc0018 	lw	gp,24(sp)
  403250:	97a2019c 	lhu	v0,412(sp)
  403254:	00000000 	nop
  403258:	30420100 	andi	v0,v0,0x100
  40325c:	10400006 	beqz	v0,403278 <main+0x2084>
  403260:	00000000 	nop
[31m  403264:	8f99819c 	lw	t9,printf[0m
  403268:	3c040041 	lui	a0,0x41
  40326c:	0320f809 	jalr	t9
  403270:	24849d38 	addiu	a0,a0,-25288
  403274:	8fbc0018 	lw	gp,24(sp)
  403278:	97a2019c 	lhu	v0,412(sp)
  40327c:	00000000 	nop
  403280:	30420200 	andi	v0,v0,0x200
  403284:	10400006 	beqz	v0,4032a0 <main+0x20ac>
  403288:	00000000 	nop
[31m  40328c:	8f99819c 	lw	t9,printf[0m
  403290:	3c040041 	lui	a0,0x41
  403294:	0320f809 	jalr	t9
  403298:	24849d70 	addiu	a0,a0,-25232
  40329c:	8fbc0018 	lw	gp,24(sp)
  4032a0:	97a2019c 	lhu	v0,412(sp)
  4032a4:	00000000 	nop
  4032a8:	30420400 	andi	v0,v0,0x400
  4032ac:	10400006 	beqz	v0,4032c8 <main+0x20d4>
  4032b0:	00000000 	nop
[31m  4032b4:	8f99819c 	lw	t9,printf[0m
  4032b8:	3c040041 	lui	a0,0x41
  4032bc:	0320f809 	jalr	t9
  4032c0:	24849da8 	addiu	a0,a0,-25176
  4032c4:	8fbc0018 	lw	gp,24(sp)
  4032c8:	97a2019c 	lhu	v0,412(sp)
  4032cc:	00000000 	nop
  4032d0:	30420800 	andi	v0,v0,0x800
  4032d4:	10400006 	beqz	v0,4032f0 <main+0x20fc>
  4032d8:	3c040041 	lui	a0,0x41
[31m  4032dc:	8f99819c 	lw	t9,printf[0m
  4032e0:	00000000 	nop
  4032e4:	0320f809 	jalr	t9
--
  4033ac:	02a02021 	move	a0,s5
  4033b0:	34058b2d 	li	a1,0x8b2d
  4033b4:	8f9981a0 	lw	t9,-32352(gp)
  4033b8:	00000000 	nop
  4033bc:	0320f809 	jalr	t9
  4033c0:	27a60020 	addiu	a2,sp,32
  4033c4:	8fbc0018 	lw	gp,24(sp)
  4033c8:	0440006e 	bltz	v0,403584 <main+0x2390>
  4033cc:	00000000 	nop
  4033d0:	93a20035 	lbu	v0,53(sp)
  4033d4:	97b10036 	lhu	s1,54(sp)
  4033d8:	10400005 	beqz	v0,4033f0 <main+0x21fc>
  4033dc:	24050080 	li	a1,128
  4033e0:	3c040041 	lui	a0,0x41
  4033e4:	8f998178 	lw	t9,-32392(gp)
  4033e8:	08100d5d 	j	403574 <main+0x2380>
  4033ec:	24849e14 	addiu	a0,a0,-25068
  4033f0:	8f998064 	lw	t9,-32668(gp)
  4033f4:	27a40040 	addiu	a0,sp,64
  4033f8:	97b4019c 	lhu	s4,412(sp)
  4033fc:	04110c56 	bal	406558 <iw_print_pm_mode>
  403400:	02203021 	move	a2,s1
  403404:	8fbc0018 	lw	gp,24(sp)
  403408:	3c040041 	lui	a0,0x41
  40340c:	24849e28 	addiu	a0,a0,-25048
[31m  403410:	8f99819c 	lw	t9,printf[0m
  403414:	27a50040 	addiu	a1,sp,64
  403418:	0320f809 	jalr	t9
  40341c:	3294f000 	andi	s4,s4,0xf000
  403420:	32220f00 	andi	v0,s1,0xf00
  403424:	8fbc0018 	lw	gp,24(sp)
  403428:	14400006 	bnez	v0,403444 <main+0x2250>
  40342c:	00000000 	nop
[31m  403430:	8f99819c 	lw	t9,printf[0m
  403434:	3c040041 	lui	a0,0x41
  403438:	0320f809 	jalr	t9
  40343c:	24849e34 	addiu	a0,a0,-25036
  403440:	8fbc0018 	lw	gp,24(sp)
  403444:	97a70036 	lhu	a3,54(sp)
  403448:	00000000 	nop
  40344c:	30e2f000 	andi	v0,a3,0xf000
  403450:	10400011 	beqz	v0,403498 <main+0x22a4>
  403454:	3c160041 	lui	s6,0x41
  403458:	93a201d8 	lbu	v0,472(sp)
  40345c:	8f998060 	lw	t9,-32672(gp)
  403460:	8fa60030 	lw	a2,48(sp)
  403464:	afa20010 	sw	v0,16(sp)
  403468:	27a40040 	addiu	a0,sp,64
  40346c:	04110b8e 	bal	4062a8 <iw_print_pm_value>
  403470:	24050080 	li	a1,128
  403474:	8fbc0018 	lw	gp,24(sp)
  403478:	3c040041 	lui	a0,0x41
  40347c:	24849c98 	addiu	a0,a0,-25448
[31m  403480:	8f99819c 	lw	t9,printf[0m
  403484:	00000000 	nop
  403488:	0320f809 	jalr	t9
--
  403654:	afb20028 	sw	s2,40(sp)
  403658:	a7a2002c 	sh	v0,44(sp)
  40365c:	0320f809 	jalr	t9
  403660:	a7a0002e 	sh	zero,46(sp)
  403664:	8fbc0010 	lw	gp,16(sp)
  403668:	02202021 	move	a0,s1
  40366c:	34058b0b 	li	a1,0x8b0b
  403670:	8f9981a0 	lw	t9,-32352(gp)
  403674:	00000000 	nop
  403678:	0320f809 	jalr	t9
  40367c:	27a60018 	addiu	a2,sp,24
  403680:	8fbc0010 	lw	gp,16(sp)
  403684:	04410006 	bgez	v0,4036a0 <main+0x24ac>
  403688:	00000000 	nop
  40368c:	8f828118 	lw	v0,-32488(gp)
  403690:	8f858028 	lw	a1,-32728(gp)
  403694:	8c440000 	lw	a0,0(v0)
  403698:	10000018 	b	4036fc <main+0x2508>
  40369c:	24a59fd0 	addiu	a1,a1,-24624
  4036a0:	97a2002c 	lhu	v0,44(sp)
  4036a4:	00000000 	nop
  4036a8:	2c42012c 	sltiu	v0,v0,300
  4036ac:	1440000f 	bnez	v0,4036ec <main+0x24f8>
  4036b0:	02002821 	move	a1,s0
  4036b4:	8f848028 	lw	a0,-32728(gp)
[31m  4036b8:	8f99819c 	lw	t9,printf[0m
  4036bc:	93a60151 	lbu	a2,337(sp)
  4036c0:	0320f809 	jalr	t9
  4036c4:	2484a014 	addiu	a0,a0,-24556
  4036c8:	8fbc0010 	lw	gp,16(sp)
  4036cc:	93a50150 	lbu	a1,336(sp)
  4036d0:	8f848028 	lw	a0,-32728(gp)
[31m  4036d4:	8f99819c 	lw	t9,printf[0m
  4036d8:	00000000 	nop
  4036dc:	0320f809 	jalr	t9
--
  403bcc:	3c1c0002 	lui	gp,0x2
  403bd0:	279cf6b4 	addiu	gp,gp,-2380
  403bd4:	0399e021 	addu	gp,gp,t9
  403bd8:	8f99806c 	lw	t9,-32660(gp)
  403bdc:	27bdffd8 	addiu	sp,sp,-40
  403be0:	afbc0010 	sw	gp,16(sp)
  403be4:	afb00020 	sw	s0,32(sp)
  403be8:	afbf0024 	sw	ra,36(sp)
  403bec:	afa40018 	sw	a0,24(sp)
  403bf0:	0411fece 	bal	40372c <iw_sockets_open>
  403bf4:	00000000 	nop
  403bf8:	8fbc0010 	lw	gp,16(sp)
  403bfc:	8fa50018 	lw	a1,24(sp)
  403c00:	04410008 	bgez	v0,403c24 <iw_print_version_info+0x58>
  403c04:	00408021 	move	s0,v0
  403c08:	8f848028 	lw	a0,-32728(gp)
  403c0c:	8f99817c 	lw	t9,-32388(gp)
  403c10:	00000000 	nop
  403c14:	0320f809 	jalr	t9
  403c18:	24849f0c 	addiu	a0,a0,-24820
  403c1c:	1000002e 	b	403cd8 <iw_print_version_info+0x10c>
  403c20:	2402ffff 	li	v0,-1
  403c24:	10a00008 	beqz	a1,403c48 <iw_print_version_info+0x7c>
  403c28:	2406001d 	li	a2,29
  403c2c:	8f848028 	lw	a0,-32728(gp)
[31m  403c30:	8f99819c 	lw	t9,printf[0m
  403c34:	00000000 	nop
  403c38:	0320f809 	jalr	t9
  403c3c:	2484a164 	addiu	a0,a0,-24220
  403c40:	8fbc0010 	lw	gp,16(sp)
  403c44:	00000000 	nop
  403c48:	8f848028 	lw	a0,-32728(gp)
[31m  403c4c:	8f99819c 	lw	t9,printf[0m
  403c50:	24050016 	li	a1,22
  403c54:	0320f809 	jalr	t9
  403c58:	2484a188 	addiu	a0,a0,-24184
  403c5c:	8fbc0010 	lw	gp,16(sp)
  403c60:	00000000 	nop
  403c64:	8f998074 	lw	t9,-32652(gp)
  403c68:	00000000 	nop
  403c6c:	0411ff77 	bal	403a4c <iw_get_kernel_we_version>
  403c70:	00000000 	nop
  403c74:	28430010 	slti	v1,v0,16
  403c78:	8fbc0010 	lw	gp,16(sp)
  403c7c:	14600008 	bnez	v1,403ca0 <iw_print_version_info+0xd4>
  403c80:	00402821 	move	a1,v0
  403c84:	8f848028 	lw	a0,-32728(gp)
[31m  403c88:	8f99819c 	lw	t9,printf[0m
  403c8c:	00000000 	nop
  403c90:	0320f809 	jalr	t9
--
  40616c:	8c450000 	lw	a1,0(v0)
  406170:	2484a54c 	addiu	a0,a0,-23220
  406174:	0320f809 	jalr	t9
  406178:	2413ffff 	li	s3,-1
  40617c:	10000040 	b	406280 <iw_in_key+0x3c4>
  406180:	00000000 	nop
  406184:	8f99802c 	lw	t9,-32724(gp)
  406188:	a0400000 	sb	zero,0(v0)
  40618c:	02202821 	move	a1,s1
  406190:	0411f6d5 	bal	403ce8 <iw_get_range_info>
  406194:	27a60018 	addiu	a2,sp,24
  406198:	8fbc0010 	lw	gp,16(sp)
  40619c:	04410006 	bgez	v0,4061b8 <iw_in_key+0x2fc>
  4061a0:	27a40018 	addiu	a0,sp,24
  4061a4:	8f998134 	lw	t9,-32460(gp)
  4061a8:	00002821 	move	a1,zero
  4061ac:	0320f809 	jalr	t9
  4061b0:	2406024c 	li	a2,588
  4061b4:	8fbc0010 	lw	gp,16(sp)
  4061b8:	93a20130 	lbu	v0,304(sp)
  4061bc:	00000000 	nop
  4061c0:	2c420010 	sltiu	v0,v0,16
  4061c4:	1440002e 	bnez	v0,406280 <iw_in_key+0x3c4>
  4061c8:	00000000 	nop
  4061cc:	8f908028 	lw	s0,-32728(gp)
[31m  4061d0:	8f99819c 	lw	t9,printf[0m
  4061d4:	96850000 	lhu	a1,0(s4)
  4061d8:	93a60108 	lbu	a2,264(sp)
  4061dc:	0320f809 	jalr	t9
  4061e0:	2604a56c 	addiu	a0,s0,-23188
  4061e4:	92820000 	lbu	v0,0(s4)
  4061e8:	8fbc0010 	lw	gp,16(sp)
  4061ec:	14400018 	bnez	v0,406250 <iw_in_key+0x394>
  4061f0:	02402021 	move	a0,s2
  4061f4:	8f99802c 	lw	t9,-32724(gp)
  4061f8:	02202821 	move	a1,s1
  4061fc:	0411f6ba 	bal	403ce8 <iw_get_range_info>
  406200:	27a60018 	addiu	a2,sp,24
  406204:	8fbc0010 	lw	gp,16(sp)
  406208:	04410007 	bgez	v0,406228 <iw_in_key+0x36c>
  40620c:	27a40018 	addiu	a0,sp,24
  406210:	8f998134 	lw	t9,-32460(gp)
  406214:	00002821 	move	a1,zero
  406218:	0320f809 	jalr	t9
  40621c:	2406024c 	li	a2,588
  406220:	8fbc0010 	lw	gp,16(sp)
  406224:	00000000 	nop
[31m  406228:	8f99819c 	lw	t9,printf[0m
  40622c:	96850000 	lhu	a1,0(s4)
  406230:	93a60108 	lbu	a2,264(sp)
  406234:	0320f809 	jalr	t9
  406238:	2604a56c 	addiu	a0,s0,-23188
  40623c:	96830000 	lhu	v1,0(s4)
  406240:	93a20108 	lbu	v0,264(sp)
  406244:	8fbc0010 	lw	gp,16(sp)
  406248:	00621025 	or	v0,v1,v0
  40624c:	a6820000 	sh	v0,0(s4)
[31m  406250:	8f99819c 	lw	t9,printf[0m
  406254:	96850000 	lhu	a1,0(s4)
  406258:	93a60108 	lbu	a2,264(sp)

[0m
[[0;33m*[0m] Function [0;33mprintf[0m used [0;33m62[0m times [0;33miwlist[0m

