[[0;33m*[0m] Binary protection state of [0;33mswitch[0m

  	RELRO          CANARY            NX           PIE          RPATH        RUNPATH      SYMBOLS      
  	[31mNo RELRO[0m       [31mNo Canary found[0m   [31mNX disabled[0m  [31mNo PIE[0m       [32mNo RPATH[0m     [32mNo RUNPATH[0m   [31mSymbols[0m

[0m
[[0;33m*[0m] Function [0;33mprintf[0m tear down of [0;33mswitch[0m

  400a8c:	27bd0020 	addiu	sp,sp,32
  400a90:	03e00008 	jr	ra
  400a94:	00000000 	nop

00400a98 <usage>:
  400a98:	27bdffe0 	addiu	sp,sp,-32
  400a9c:	afbf001c 	sw	ra,28(sp)
  400aa0:	afbe0018 	sw	s8,24(sp)
  400aa4:	03a0f021 	move	s8,sp
  400aa8:	3c1c0043 	lui	gp,0x43
  400aac:	279ca080 	addiu	gp,gp,-24448
  400ab0:	afbc0010 	sw	gp,16(sp)
  400ab4:	afc40020 	sw	a0,32(s8)
  400ab8:	3c020041 	lui	v0,0x41
  400abc:	244403e8 	addiu	a0,v0,1000
  400ac0:	8f828080 	lw	v0,-32640(gp)
  400ac4:	00000000 	nop
  400ac8:	0040c821 	move	t9,v0
  400acc:	0320f809 	jalr	t9
  400ad0:	00000000 	nop
  400ad4:	8fdc0010 	lw	gp,16(s8)
  400ad8:	3c020041 	lui	v0,0x41
  400adc:	244203f0 	addiu	v0,v0,1008
  400ae0:	00402021 	move	a0,v0
  400ae4:	8fc50020 	lw	a1,32(s8)
[31m  400ae8:	8f82808c 	lw	v0,printf[0m
  400aec:	00000000 	nop
  400af0:	0040c821 	move	t9,v0
  400af4:	0320f809 	jalr	t9
  400af8:	00000000 	nop
  400afc:	8fdc0010 	lw	gp,16(s8)
  400b00:	3c020041 	lui	v0,0x41
  400b04:	24420440 	addiu	v0,v0,1088
  400b08:	00402021 	move	a0,v0
  400b0c:	8fc50020 	lw	a1,32(s8)
[31m  400b10:	8f82808c 	lw	v0,printf[0m
  400b14:	00000000 	nop
  400b18:	0040c821 	move	t9,v0
  400b1c:	0320f809 	jalr	t9
  400b20:	00000000 	nop
  400b24:	8fdc0010 	lw	gp,16(s8)
  400b28:	3c020041 	lui	v0,0x41
  400b2c:	24420488 	addiu	v0,v0,1160
  400b30:	00402021 	move	a0,v0
  400b34:	8fc50020 	lw	a1,32(s8)
[31m  400b38:	8f82808c 	lw	v0,printf[0m
  400b3c:	00000000 	nop
  400b40:	0040c821 	move	t9,v0
  400b44:	0320f809 	jalr	t9
  400b48:	00000000 	nop
  400b4c:	8fdc0010 	lw	gp,16(s8)
  400b50:	3c020041 	lui	v0,0x41
  400b54:	244204d8 	addiu	v0,v0,1240
  400b58:	00402021 	move	a0,v0
  400b5c:	8fc50020 	lw	a1,32(s8)
[31m  400b60:	8f82808c 	lw	v0,printf[0m
  400b64:	00000000 	nop
  400b68:	0040c821 	move	t9,v0
  400b6c:	0320f809 	jalr	t9
  400b70:	00000000 	nop
  400b74:	8fdc0010 	lw	gp,16(s8)
  400b78:	3c020041 	lui	v0,0x41
  400b7c:	24420528 	addiu	v0,v0,1320
  400b80:	00402021 	move	a0,v0
  400b84:	8fc50020 	lw	a1,32(s8)
[31m  400b88:	8f82808c 	lw	v0,printf[0m
  400b8c:	00000000 	nop
  400b90:	0040c821 	move	t9,v0
  400b94:	0320f809 	jalr	t9
  400b98:	00000000 	nop
  400b9c:	8fdc0010 	lw	gp,16(s8)
  400ba0:	3c020041 	lui	v0,0x41
  400ba4:	24420570 	addiu	v0,v0,1392
  400ba8:	00402021 	move	a0,v0
  400bac:	8fc50020 	lw	a1,32(s8)
[31m  400bb0:	8f82808c 	lw	v0,printf[0m
  400bb4:	00000000 	nop
  400bb8:	0040c821 	move	t9,v0
  400bbc:	0320f809 	jalr	t9
  400bc0:	00000000 	nop
  400bc4:	8fdc0010 	lw	gp,16(s8)
  400bc8:	3c020041 	lui	v0,0x41
  400bcc:	244205c4 	addiu	v0,v0,1476
  400bd0:	00402021 	move	a0,v0
  400bd4:	8fc50020 	lw	a1,32(s8)
[31m  400bd8:	8f82808c 	lw	v0,printf[0m
  400bdc:	00000000 	nop
  400be0:	0040c821 	move	t9,v0
  400be4:	0320f809 	jalr	t9
  400be8:	00000000 	nop
  400bec:	8fdc0010 	lw	gp,16(s8)
  400bf0:	3c020041 	lui	v0,0x41
  400bf4:	24420610 	addiu	v0,v0,1552
  400bf8:	00402021 	move	a0,v0
  400bfc:	8fc50020 	lw	a1,32(s8)
[31m  400c00:	8f82808c 	lw	v0,printf[0m
  400c04:	00000000 	nop
  400c08:	0040c821 	move	t9,v0
  400c0c:	0320f809 	jalr	t9
  400c10:	00000000 	nop
  400c14:	8fdc0010 	lw	gp,16(s8)
  400c18:	3c020041 	lui	v0,0x41
  400c1c:	2442065c 	addiu	v0,v0,1628
  400c20:	00402021 	move	a0,v0
  400c24:	8fc50020 	lw	a1,32(s8)
[31m  400c28:	8f82808c 	lw	v0,printf[0m
  400c2c:	00000000 	nop
  400c30:	0040c821 	move	t9,v0
  400c34:	0320f809 	jalr	t9
  400c38:	00000000 	nop
  400c3c:	8fdc0010 	lw	gp,16(s8)
  400c40:	3c020041 	lui	v0,0x41
  400c44:	244206a8 	addiu	v0,v0,1704
  400c48:	00402021 	move	a0,v0
  400c4c:	8fc50020 	lw	a1,32(s8)
[31m  400c50:	8f82808c 	lw	v0,printf[0m
  400c54:	00000000 	nop
  400c58:	0040c821 	move	t9,v0
  400c5c:	0320f809 	jalr	t9
  400c60:	00000000 	nop
  400c64:	8fdc0010 	lw	gp,16(s8)
  400c68:	3c020041 	lui	v0,0x41
  400c6c:	244206e8 	addiu	v0,v0,1768
  400c70:	00402021 	move	a0,v0
  400c74:	8fc50020 	lw	a1,32(s8)
[31m  400c78:	8f82808c 	lw	v0,printf[0m
  400c7c:	00000000 	nop
  400c80:	0040c821 	move	t9,v0
  400c84:	0320f809 	jalr	t9
  400c88:	00000000 	nop
  400c8c:	8fdc0010 	lw	gp,16(s8)
  400c90:	3c020041 	lui	v0,0x41
  400c94:	24420738 	addiu	v0,v0,1848
  400c98:	00402021 	move	a0,v0
  400c9c:	8fc50020 	lw	a1,32(s8)
[31m  400ca0:	8f82808c 	lw	v0,printf[0m
  400ca4:	00000000 	nop
  400ca8:	0040c821 	move	t9,v0
  400cac:	0320f809 	jalr	t9
  400cb0:	00000000 	nop
  400cb4:	8fdc0010 	lw	gp,16(s8)
  400cb8:	3c020041 	lui	v0,0x41
  400cbc:	2442077c 	addiu	v0,v0,1916
  400cc0:	00402021 	move	a0,v0
  400cc4:	8fc50020 	lw	a1,32(s8)
[31m  400cc8:	8f82808c 	lw	v0,printf[0m
  400ccc:	00000000 	nop
  400cd0:	0040c821 	move	t9,v0
  400cd4:	0320f809 	jalr	t9
  400cd8:	00000000 	nop
  400cdc:	8fdc0010 	lw	gp,16(s8)
  400ce0:	3c020041 	lui	v0,0x41
  400ce4:	244207cc 	addiu	v0,v0,1996
  400ce8:	00402021 	move	a0,v0
  400cec:	8fc50020 	lw	a1,32(s8)
[31m  400cf0:	8f82808c 	lw	v0,printf[0m
  400cf4:	00000000 	nop
  400cf8:	0040c821 	move	t9,v0
  400cfc:	0320f809 	jalr	t9
  400d00:	00000000 	nop
  400d04:	8fdc0010 	lw	gp,16(s8)
  400d08:	3c020041 	lui	v0,0x41
  400d0c:	2442081c 	addiu	v0,v0,2076
  400d10:	00402021 	move	a0,v0
  400d14:	8fc50020 	lw	a1,32(s8)
[31m  400d18:	8f82808c 	lw	v0,printf[0m
  400d1c:	00000000 	nop
  400d20:	0040c821 	move	t9,v0
  400d24:	0320f809 	jalr	t9
  400d28:	00000000 	nop
  400d2c:	8fdc0010 	lw	gp,16(s8)
  400d30:	3c020041 	lui	v0,0x41
  400d34:	2442086c 	addiu	v0,v0,2156
  400d38:	00402021 	move	a0,v0
  400d3c:	8fc50020 	lw	a1,32(s8)
[31m  400d40:	8f82808c 	lw	v0,printf[0m
  400d44:	00000000 	nop
  400d48:	0040c821 	move	t9,v0
  400d4c:	0320f809 	jalr	t9
  400d50:	00000000 	nop
  400d54:	8fdc0010 	lw	gp,16(s8)
  400d58:	3c020041 	lui	v0,0x41
  400d5c:	244208b8 	addiu	v0,v0,2232
  400d60:	00402021 	move	a0,v0
  400d64:	8fc50020 	lw	a1,32(s8)
[31m  400d68:	8f82808c 	lw	v0,printf[0m
  400d6c:	00000000 	nop
  400d70:	0040c821 	move	t9,v0
  400d74:	0320f809 	jalr	t9
  400d78:	00000000 	nop
  400d7c:	8fdc0010 	lw	gp,16(s8)
  400d80:	3c020041 	lui	v0,0x41
  400d84:	24420900 	addiu	v0,v0,2304
  400d88:	00402021 	move	a0,v0
  400d8c:	8fc50020 	lw	a1,32(s8)
[31m  400d90:	8f82808c 	lw	v0,printf[0m
  400d94:	00000000 	nop
  400d98:	0040c821 	move	t9,v0
  400d9c:	0320f809 	jalr	t9
  400da0:	00000000 	nop
  400da4:	8fdc0010 	lw	gp,16(s8)
  400da8:	3c020041 	lui	v0,0x41
  400dac:	24420948 	addiu	v0,v0,2376
  400db0:	00402021 	move	a0,v0
  400db4:	8fc50020 	lw	a1,32(s8)
[31m  400db8:	8f82808c 	lw	v0,printf[0m
  400dbc:	00000000 	nop
  400dc0:	0040c821 	move	t9,v0
  400dc4:	0320f809 	jalr	t9
  400dc8:	00000000 	nop
  400dcc:	8fdc0010 	lw	gp,16(s8)
  400dd0:	3c020041 	lui	v0,0x41
  400dd4:	24420968 	addiu	v0,v0,2408
  400dd8:	00402021 	move	a0,v0
  400ddc:	8fc50020 	lw	a1,32(s8)
[31m  400de0:	8f82808c 	lw	v0,printf[0m
  400de4:	00000000 	nop
  400de8:	0040c821 	move	t9,v0
  400dec:	0320f809 	jalr	t9
  400df0:	00000000 	nop
  400df4:	8fdc0010 	lw	gp,16(s8)
  400df8:	3c020041 	lui	v0,0x41
  400dfc:	244209b8 	addiu	v0,v0,2488
  400e00:	00402021 	move	a0,v0
  400e04:	8fc50020 	lw	a1,32(s8)
[31m  400e08:	8f82808c 	lw	v0,printf[0m
  400e0c:	00000000 	nop
  400e10:	0040c821 	move	t9,v0
  400e14:	0320f809 	jalr	t9
  400e18:	00000000 	nop
  400e1c:	8fdc0010 	lw	gp,16(s8)
  400e20:	3c020041 	lui	v0,0x41
  400e24:	24420a08 	addiu	v0,v0,2568
  400e28:	00402021 	move	a0,v0
  400e2c:	8fc50020 	lw	a1,32(s8)
[31m  400e30:	8f82808c 	lw	v0,printf[0m
  400e34:	00000000 	nop
  400e38:	0040c821 	move	t9,v0
  400e3c:	0320f809 	jalr	t9
  400e40:	00000000 	nop
  400e44:	8fdc0010 	lw	gp,16(s8)
  400e48:	3c020041 	lui	v0,0x41
  400e4c:	24420a58 	addiu	v0,v0,2648
  400e50:	00402021 	move	a0,v0
  400e54:	8fc50020 	lw	a1,32(s8)
[31m  400e58:	8f82808c 	lw	v0,printf[0m
  400e5c:	00000000 	nop
  400e60:	0040c821 	move	t9,v0
  400e64:	0320f809 	jalr	t9
  400e68:	00000000 	nop
  400e6c:	8fdc0010 	lw	gp,16(s8)
  400e70:	3c020041 	lui	v0,0x41
  400e74:	24420aa8 	addiu	v0,v0,2728
  400e78:	00402021 	move	a0,v0
  400e7c:	8fc50020 	lw	a1,32(s8)
[31m  400e80:	8f82808c 	lw	v0,printf[0m
  400e84:	00000000 	nop
  400e88:	0040c821 	move	t9,v0
  400e8c:	0320f809 	jalr	t9
  400e90:	00000000 	nop
  400e94:	8fdc0010 	lw	gp,16(s8)
  400e98:	3c020041 	lui	v0,0x41
  400e9c:	24420b14 	addiu	v0,v0,2836
  400ea0:	00402021 	move	a0,v0
  400ea4:	8fc50020 	lw	a1,32(s8)
[31m  400ea8:	8f82808c 	lw	v0,printf[0m
  400eac:	00000000 	nop
  400eb0:	0040c821 	move	t9,v0
  400eb4:	0320f809 	jalr	t9
  400eb8:	00000000 	nop
  400ebc:	8fdc0010 	lw	gp,16(s8)
  400ec0:	3c020041 	lui	v0,0x41
  400ec4:	24420b6c 	addiu	v0,v0,2924
  400ec8:	00402021 	move	a0,v0
  400ecc:	8fc50020 	lw	a1,32(s8)
[31m  400ed0:	8f82808c 	lw	v0,printf[0m
  400ed4:	00000000 	nop
  400ed8:	0040c821 	move	t9,v0
  400edc:	0320f809 	jalr	t9
  400ee0:	00000000 	nop
  400ee4:	8fdc0010 	lw	gp,16(s8)
  400ee8:	3c020041 	lui	v0,0x41
  400eec:	24420bc4 	addiu	v0,v0,3012
  400ef0:	00402021 	move	a0,v0
  400ef4:	8fc50020 	lw	a1,32(s8)
[31m  400ef8:	8f82808c 	lw	v0,printf[0m
  400efc:	00000000 	nop
  400f00:	0040c821 	move	t9,v0
  400f04:	0320f809 	jalr	t9
  400f08:	00000000 	nop
  400f0c:	8fdc0010 	lw	gp,16(s8)
  400f10:	3c020041 	lui	v0,0x41
  400f14:	24420c1c 	addiu	v0,v0,3100
  400f18:	00402021 	move	a0,v0
  400f1c:	8fc50020 	lw	a1,32(s8)
[31m  400f20:	8f82808c 	lw	v0,printf[0m
  400f24:	00000000 	nop
  400f28:	0040c821 	move	t9,v0
  400f2c:	0320f809 	jalr	t9
  400f30:	00000000 	nop
  400f34:	8fdc0010 	lw	gp,16(s8)
  400f38:	3c020041 	lui	v0,0x41
  400f3c:	24440c78 	addiu	a0,v0,3192
  400f40:	8f828080 	lw	v0,-32640(gp)
  400f44:	00000000 	nop
  400f48:	0040c821 	move	t9,v0
  400f4c:	0320f809 	jalr	t9
  400f50:	00000000 	nop
  400f54:	8fdc0010 	lw	gp,16(s8)
  400f58:	3c020041 	lui	v0,0x41
  400f5c:	24420cc4 	addiu	v0,v0,3268
  400f60:	00402021 	move	a0,v0
  400f64:	8fc50020 	lw	a1,32(s8)
[31m  400f68:	8f82808c 	lw	v0,printf[0m
  400f6c:	00000000 	nop
  400f70:	0040c821 	move	t9,v0
  400f74:	0320f809 	jalr	t9
  400f78:	00000000 	nop
  400f7c:	8fdc0010 	lw	gp,16(s8)
  400f80:	3c020041 	lui	v0,0x41
  400f84:	24420d20 	addiu	v0,v0,3360
  400f88:	00402021 	move	a0,v0
  400f8c:	8fc50020 	lw	a1,32(s8)
[31m  400f90:	8f82808c 	lw	v0,printf[0m
  400f94:	00000000 	nop
  400f98:	0040c821 	move	t9,v0
  400f9c:	0320f809 	jalr	t9
  400fa0:	00000000 	nop
  400fa4:	8fdc0010 	lw	gp,16(s8)
  400fa8:	3c020041 	lui	v0,0x41
  400fac:	24420d74 	addiu	v0,v0,3444
  400fb0:	00402021 	move	a0,v0
  400fb4:	8fc50020 	lw	a1,32(s8)
[31m  400fb8:	8f82808c 	lw	v0,printf[0m
  400fbc:	00000000 	nop
  400fc0:	0040c821 	move	t9,v0
  400fc4:	0320f809 	jalr	t9
  400fc8:	00000000 	nop
  400fcc:	8fdc0010 	lw	gp,16(s8)
  400fd0:	3c020041 	lui	v0,0x41
  400fd4:	24420dcc 	addiu	v0,v0,3532
  400fd8:	00402021 	move	a0,v0
  400fdc:	8fc50020 	lw	a1,32(s8)
[31m  400fe0:	8f82808c 	lw	v0,printf[0m
  400fe4:	00000000 	nop
  400fe8:	0040c821 	move	t9,v0
  400fec:	0320f809 	jalr	t9
  400ff0:	00000000 	nop
  400ff4:	8fdc0010 	lw	gp,16(s8)
  400ff8:	3c020041 	lui	v0,0x41
  400ffc:	24420e1c 	addiu	v0,v0,3612
  401000:	00402021 	move	a0,v0
  401004:	8fc50020 	lw	a1,32(s8)
[31m  401008:	8f82808c 	lw	v0,printf[0m
  40100c:	00000000 	nop
  401010:	0040c821 	move	t9,v0
  401014:	0320f809 	jalr	t9
  401018:	00000000 	nop
  40101c:	8fdc0010 	lw	gp,16(s8)
  401020:	3c020041 	lui	v0,0x41
  401024:	24420e80 	addiu	v0,v0,3712
  401028:	00402021 	move	a0,v0
  40102c:	8fc50020 	lw	a1,32(s8)
[31m  401030:	8f82808c 	lw	v0,printf[0m
  401034:	00000000 	nop
  401038:	0040c821 	move	t9,v0
  40103c:	0320f809 	jalr	t9
  401040:	00000000 	nop
  401044:	8fdc0010 	lw	gp,16(s8)
  401048:	3c020041 	lui	v0,0x41
  40104c:	24420ed8 	addiu	v0,v0,3800
  401050:	00402021 	move	a0,v0
  401054:	8fc50020 	lw	a1,32(s8)
[31m  401058:	8f82808c 	lw	v0,printf[0m
  40105c:	00000000 	nop
  401060:	0040c821 	move	t9,v0
  401064:	0320f809 	jalr	t9
  401068:	00000000 	nop
  40106c:	8fdc0010 	lw	gp,16(s8)
  401070:	3c020041 	lui	v0,0x41
  401074:	24420f00 	addiu	v0,v0,3840
  401078:	00402021 	move	a0,v0
  40107c:	8fc50020 	lw	a1,32(s8)
[31m  401080:	8f82808c 	lw	v0,printf[0m
  401084:	00000000 	nop
  401088:	0040c821 	move	t9,v0
  40108c:	0320f809 	jalr	t9
  401090:	00000000 	nop
  401094:	8fdc0010 	lw	gp,16(s8)
  401098:	3c020041 	lui	v0,0x41
  40109c:	24420f3c 	addiu	v0,v0,3900
  4010a0:	00402021 	move	a0,v0
  4010a4:	8fc50020 	lw	a1,32(s8)
[31m  4010a8:	8f82808c 	lw	v0,printf[0m
  4010ac:	00000000 	nop
  4010b0:	0040c821 	move	t9,v0
  4010b4:	0320f809 	jalr	t9
  4010b8:	00000000 	nop
  4010bc:	8fdc0010 	lw	gp,16(s8)
  4010c0:	3c020041 	lui	v0,0x41
  4010c4:	24420f80 	addiu	v0,v0,3968
  4010c8:	00402021 	move	a0,v0
  4010cc:	8fc50020 	lw	a1,32(s8)
[31m  4010d0:	8f82808c 	lw	v0,printf[0m
  4010d4:	00000000 	nop
  4010d8:	0040c821 	move	t9,v0
  4010dc:	0320f809 	jalr	t9
  4010e0:	00000000 	nop
  4010e4:	8fdc0010 	lw	gp,16(s8)
  4010e8:	3c020041 	lui	v0,0x41
  4010ec:	24420fe0 	addiu	v0,v0,4064
  4010f0:	00402021 	move	a0,v0
  4010f4:	8fc50020 	lw	a1,32(s8)
[31m  4010f8:	8f82808c 	lw	v0,printf[0m
  4010fc:	00000000 	nop
  401100:	0040c821 	move	t9,v0
  401104:	0320f809 	jalr	t9
  401108:	00000000 	nop
  40110c:	8fdc0010 	lw	gp,16(s8)
  401110:	3c020041 	lui	v0,0x41
  401114:	24421020 	addiu	v0,v0,4128
  401118:	00402021 	move	a0,v0
  40111c:	8fc50020 	lw	a1,32(s8)
[31m  401120:	8f82808c 	lw	v0,printf[0m
  401124:	00000000 	nop
  401128:	0040c821 	move	t9,v0
  40112c:	0320f809 	jalr	t9
  401130:	00000000 	nop
  401134:	8fdc0010 	lw	gp,16(s8)
  401138:	3c020041 	lui	v0,0x41
  40113c:	24421068 	addiu	v0,v0,4200
  401140:	00402021 	move	a0,v0
  401144:	8fc50020 	lw	a1,32(s8)
[31m  401148:	8f82808c 	lw	v0,printf[0m
  40114c:	00000000 	nop
  401150:	0040c821 	move	t9,v0
  401154:	0320f809 	jalr	t9
  401158:	00000000 	nop
  40115c:	8fdc0010 	lw	gp,16(s8)
  401160:	3c020041 	lui	v0,0x41
  401164:	244210b4 	addiu	v0,v0,4276
  401168:	00402021 	move	a0,v0
  40116c:	8fc50020 	lw	a1,32(s8)
[31m  401170:	8f82808c 	lw	v0,printf[0m
  401174:	00000000 	nop
  401178:	0040c821 	move	t9,v0
  40117c:	0320f809 	jalr	t9
  401180:	00000000 	nop
  401184:	8fdc0010 	lw	gp,16(s8)
  401188:	3c020041 	lui	v0,0x41
  40118c:	244210f0 	addiu	v0,v0,4336
  401190:	00402021 	move	a0,v0
  401194:	8fc50020 	lw	a1,32(s8)
[31m  401198:	8f82808c 	lw	v0,printf[0m
  40119c:	00000000 	nop
  4011a0:	0040c821 	move	t9,v0
  4011a4:	0320f809 	jalr	t9
  4011a8:	00000000 	nop
  4011ac:	8fdc0010 	lw	gp,16(s8)
  4011b0:	3c020041 	lui	v0,0x41
  4011b4:	24421140 	addiu	v0,v0,4416
  4011b8:	00402021 	move	a0,v0
  4011bc:	8fc50020 	lw	a1,32(s8)
[31m  4011c0:	8f82808c 	lw	v0,printf[0m
  4011c4:	00000000 	nop
  4011c8:	0040c821 	move	t9,v0
  4011cc:	0320f809 	jalr	t9
  4011d0:	00000000 	nop
  4011d4:	8fdc0010 	lw	gp,16(s8)
  4011d8:	3c020041 	lui	v0,0x41
  4011dc:	2442118c 	addiu	v0,v0,4492
  4011e0:	00402021 	move	a0,v0
  4011e4:	8fc50020 	lw	a1,32(s8)
[31m  4011e8:	8f82808c 	lw	v0,printf[0m
  4011ec:	00000000 	nop
  4011f0:	0040c821 	move	t9,v0
  4011f4:	0320f809 	jalr	t9
  4011f8:	00000000 	nop
  4011fc:	8fdc0010 	lw	gp,16(s8)
  401200:	3c020041 	lui	v0,0x41
  401204:	244211d4 	addiu	v0,v0,4564
  401208:	00402021 	move	a0,v0
  40120c:	8fc50020 	lw	a1,32(s8)
[31m  401210:	8f82808c 	lw	v0,printf[0m
  401214:	00000000 	nop
  401218:	0040c821 	move	t9,v0
  40121c:	0320f809 	jalr	t9
  401220:	00000000 	nop
  401224:	8fdc0010 	lw	gp,16(s8)
  401228:	3c020041 	lui	v0,0x41
  40122c:	2442121c 	addiu	v0,v0,4636
  401230:	00402021 	move	a0,v0
  401234:	8fc50020 	lw	a1,32(s8)
[31m  401238:	8f82808c 	lw	v0,printf[0m
  40123c:	00000000 	nop
  401240:	0040c821 	move	t9,v0
  401244:	0320f809 	jalr	t9
  401248:	00000000 	nop
  40124c:	8fdc0010 	lw	gp,16(s8)
  401250:	3c020041 	lui	v0,0x41
  401254:	24421274 	addiu	v0,v0,4724
  401258:	00402021 	move	a0,v0
  40125c:	8fc50020 	lw	a1,32(s8)
[31m  401260:	8f82808c 	lw	v0,printf[0m
  401264:	00000000 	nop
  401268:	0040c821 	move	t9,v0
  40126c:	0320f809 	jalr	t9
  401270:	00000000 	nop
  401274:	8fdc0010 	lw	gp,16(s8)
  401278:	3c020041 	lui	v0,0x41
  40127c:	244212d0 	addiu	v0,v0,4816
  401280:	00402021 	move	a0,v0
  401284:	8fc50020 	lw	a1,32(s8)
[31m  401288:	8f82808c 	lw	v0,printf[0m
  40128c:	00000000 	nop
  401290:	0040c821 	move	t9,v0
  401294:	0320f809 	jalr	t9
  401298:	00000000 	nop
  40129c:	8fdc0010 	lw	gp,16(s8)
  4012a0:	3c020041 	lui	v0,0x41
  4012a4:	24421310 	addiu	v0,v0,4880
  4012a8:	00402021 	move	a0,v0
  4012ac:	8fc50020 	lw	a1,32(s8)
[31m  4012b0:	8f82808c 	lw	v0,printf[0m
  4012b4:	00000000 	nop
  4012b8:	0040c821 	move	t9,v0
  4012bc:	0320f809 	jalr	t9
  4012c0:	00000000 	nop
  4012c4:	8fdc0010 	lw	gp,16(s8)
  4012c8:	3c020041 	lui	v0,0x41
  4012cc:	24421364 	addiu	v0,v0,4964
  4012d0:	00402021 	move	a0,v0
  4012d4:	8fc50020 	lw	a1,32(s8)
[31m  4012d8:	8f82808c 	lw	v0,printf[0m
  4012dc:	00000000 	nop
  4012e0:	0040c821 	move	t9,v0
  4012e4:	0320f809 	jalr	t9
  4012e8:	00000000 	nop
  4012ec:	8fdc0010 	lw	gp,16(s8)
  4012f0:	3c020041 	lui	v0,0x41
  4012f4:	244213ac 	addiu	v0,v0,5036
  4012f8:	00402021 	move	a0,v0
  4012fc:	8fc50020 	lw	a1,32(s8)
[31m  401300:	8f82808c 	lw	v0,printf[0m
  401304:	00000000 	nop
  401308:	0040c821 	move	t9,v0
  40130c:	0320f809 	jalr	t9
  401310:	00000000 	nop
  401314:	8fdc0010 	lw	gp,16(s8)
  401318:	3c020041 	lui	v0,0x41
  40131c:	244213fc 	addiu	v0,v0,5116
  401320:	00402021 	move	a0,v0
  401324:	8fc50020 	lw	a1,32(s8)
[31m  401328:	8f82808c 	lw	v0,printf[0m
  40132c:	00000000 	nop
  401330:	0040c821 	move	t9,v0
  401334:	0320f809 	jalr	t9
  401338:	00000000 	nop
  40133c:	8fdc0010 	lw	gp,16(s8)
  401340:	3c020041 	lui	v0,0x41
  401344:	24421438 	addiu	v0,v0,5176
  401348:	00402021 	move	a0,v0
  40134c:	8fc50020 	lw	a1,32(s8)
[31m  401350:	8f82808c 	lw	v0,printf[0m
  401354:	00000000 	nop
  401358:	0040c821 	move	t9,v0
  40135c:	0320f809 	jalr	t9
  401360:	00000000 	nop
  401364:	8fdc0010 	lw	gp,16(s8)
  401368:	3c020041 	lui	v0,0x41
  40136c:	2442146c 	addiu	v0,v0,5228
  401370:	00402021 	move	a0,v0
  401374:	8fc50020 	lw	a1,32(s8)
[31m  401378:	8f82808c 	lw	v0,printf[0m
  40137c:	00000000 	nop
  401380:	0040c821 	move	t9,v0
  401384:	0320f809 	jalr	t9
  401388:	00000000 	nop
  40138c:	8fdc0010 	lw	gp,16(s8)
  401390:	3c020041 	lui	v0,0x41
  401394:	244214d0 	addiu	v0,v0,5328
  401398:	00402021 	move	a0,v0
  40139c:	8fc50020 	lw	a1,32(s8)
[31m  4013a0:	8f82808c 	lw	v0,printf[0m
  4013a4:	00000000 	nop
  4013a8:	0040c821 	move	t9,v0
--
  4024d0:	27c3002c 	addiu	v1,s8,44
  4024d4:	00602021 	move	a0,v1
  4024d8:	00402821 	move	a1,v0
  4024dc:	0c100823 	jal	40208c <str_to_ip>
  4024e0:	00000000 	nop
  4024e4:	8fdc0010 	lw	gp,16(s8)
  4024e8:	8fc2002c 	lw	v0,44(s8)
  4024ec:	00000000 	nop
  4024f0:	00021402 	srl	v0,v0,0x10
  4024f4:	afc20028 	sw	v0,40(s8)
  4024f8:	8fc30028 	lw	v1,40(s8)
  4024fc:	3c02ffff 	lui	v0,0xffff
  402500:	00621025 	or	v0,v1,v0
  402504:	afc20028 	sw	v0,40(s8)
  402508:	8fc20028 	lw	v0,40(s8)
  40250c:	24040094 	li	a0,148
  402510:	00402821 	move	a1,v0
  402514:	0c10059c 	jal	401670 <reg_write>
  402518:	00000000 	nop
  40251c:	8fdc0010 	lw	gp,16(s8)
  402520:	3c020041 	lui	v0,0x41
  402524:	244315a8 	addiu	v1,v0,5544
  402528:	8fc20028 	lw	v0,40(s8)
  40252c:	00602021 	move	a0,v1
  402530:	00402821 	move	a1,v0
[31m  402534:	8f82808c 	lw	v0,printf[0m
  402538:	00000000 	nop
  40253c:	0040c821 	move	t9,v0
--
  402554:	00021200 	sll	v0,v0,0x8
  402558:	afc20028 	sw	v0,40(s8)
  40255c:	8fc30028 	lw	v1,40(s8)
  402560:	3c020008 	lui	v0,0x8
  402564:	00621025 	or	v0,v1,v0
  402568:	afc20028 	sw	v0,40(s8)
  40256c:	8fc30028 	lw	v1,40(s8)
  402570:	3c020002 	lui	v0,0x2
  402574:	00621025 	or	v0,v1,v0
  402578:	afc20028 	sw	v0,40(s8)
  40257c:	8fc20028 	lw	v0,40(s8)
  402580:	00000000 	nop
  402584:	34420010 	ori	v0,v0,0x10
  402588:	afc20028 	sw	v0,40(s8)
  40258c:	8fc20028 	lw	v0,40(s8)
  402590:	24040098 	li	a0,152
  402594:	00402821 	move	a1,v0
  402598:	0c10059c 	jal	401670 <reg_write>
  40259c:	00000000 	nop
  4025a0:	8fdc0010 	lw	gp,16(s8)
  4025a4:	3c020041 	lui	v0,0x41
  4025a8:	244315cc 	addiu	v1,v0,5580
  4025ac:	8fc20028 	lw	v0,40(s8)
  4025b0:	00602021 	move	a0,v1
  4025b4:	00402821 	move	a1,v0
[31m  4025b8:	8f82808c 	lw	v0,printf[0m
  4025bc:	00000000 	nop
  4025c0:	0040c821 	move	t9,v0
  4025c4:	0320f809 	jalr	t9
  4025c8:	00000000 	nop
  4025cc:	8fdc0010 	lw	gp,16(s8)
  4025d0:	3c028000 	lui	v0,0x8000
  4025d4:	34425000 	ori	v0,v0,0x5000
  4025d8:	afc20028 	sw	v0,40(s8)
  4025dc:	8fc20028 	lw	v0,40(s8)
  4025e0:	24040090 	li	a0,144
  4025e4:	00402821 	move	a1,v0
  4025e8:	0c10059c 	jal	401670 <reg_write>
  4025ec:	00000000 	nop
  4025f0:	8fdc0010 	lw	gp,16(s8)
  4025f4:	3c020041 	lui	v0,0x41
  4025f8:	244315f0 	addiu	v1,v0,5616
  4025fc:	8fc20028 	lw	v0,40(s8)
  402600:	00602021 	move	a0,v1
  402604:	00402821 	move	a1,v0
[31m  402608:	8f82808c 	lw	v0,printf[0m
  40260c:	00000000 	nop
  402610:	0040c821 	move	t9,v0
--
  4026b8:	8f828080 	lw	v0,-32640(gp)
  4026bc:	00000000 	nop
  4026c0:	0040c821 	move	t9,v0
  4026c4:	0320f809 	jalr	t9
  4026c8:	00000000 	nop
  4026cc:	8fdc0010 	lw	gp,16(s8)
  4026d0:	8fc2002c 	lw	v0,44(s8)
  4026d4:	00000000 	nop
  4026d8:	3042ffff 	andi	v0,v0,0xffff
  4026dc:	afc20028 	sw	v0,40(s8)
  4026e0:	8fc30028 	lw	v1,40(s8)
  4026e4:	3c02ffff 	lui	v0,0xffff
  4026e8:	00621025 	or	v0,v1,v0
  4026ec:	afc20028 	sw	v0,40(s8)
  4026f0:	8fc20028 	lw	v0,40(s8)
  4026f4:	24040094 	li	a0,148
  4026f8:	00402821 	move	a1,v0
  4026fc:	0c10059c 	jal	401670 <reg_write>
  402700:	00000000 	nop
  402704:	8fdc0010 	lw	gp,16(s8)
  402708:	3c020041 	lui	v0,0x41
  40270c:	244315a8 	addiu	v1,v0,5544
  402710:	8fc20028 	lw	v0,40(s8)
  402714:	00602021 	move	a0,v1
  402718:	00402821 	move	a1,v0
[31m  40271c:	8f82808c 	lw	v0,printf[0m
  402720:	00000000 	nop
  402724:	0040c821 	move	t9,v0
--
  40273c:	00021200 	sll	v0,v0,0x8
  402740:	afc20028 	sw	v0,40(s8)
  402744:	8fc30028 	lw	v1,40(s8)
  402748:	3c020008 	lui	v0,0x8
  40274c:	00621025 	or	v0,v1,v0
  402750:	afc20028 	sw	v0,40(s8)
  402754:	8fc30028 	lw	v1,40(s8)
  402758:	3c020002 	lui	v0,0x2
  40275c:	00621025 	or	v0,v1,v0
  402760:	afc20028 	sw	v0,40(s8)
  402764:	8fc20028 	lw	v0,40(s8)
  402768:	00000000 	nop
  40276c:	34420012 	ori	v0,v0,0x12
  402770:	afc20028 	sw	v0,40(s8)
  402774:	8fc20028 	lw	v0,40(s8)
  402778:	24040098 	li	a0,152
  40277c:	00402821 	move	a1,v0
  402780:	0c10059c 	jal	401670 <reg_write>
  402784:	00000000 	nop
  402788:	8fdc0010 	lw	gp,16(s8)
  40278c:	3c020041 	lui	v0,0x41
  402790:	244315cc 	addiu	v1,v0,5580
  402794:	8fc20028 	lw	v0,40(s8)
  402798:	00602021 	move	a0,v1
  40279c:	00402821 	move	a1,v0
[31m  4027a0:	8f82808c 	lw	v0,printf[0m
  4027a4:	00000000 	nop
  4027a8:	0040c821 	move	t9,v0
  4027ac:	0320f809 	jalr	t9
  4027b0:	00000000 	nop
  4027b4:	8fdc0010 	lw	gp,16(s8)
  4027b8:	3c028000 	lui	v0,0x8000
  4027bc:	34425001 	ori	v0,v0,0x5001
  4027c0:	afc20028 	sw	v0,40(s8)
  4027c4:	8fc20028 	lw	v0,40(s8)
  4027c8:	24040090 	li	a0,144
  4027cc:	00402821 	move	a1,v0
  4027d0:	0c10059c 	jal	401670 <reg_write>
  4027d4:	00000000 	nop
  4027d8:	8fdc0010 	lw	gp,16(s8)
  4027dc:	3c020041 	lui	v0,0x41
  4027e0:	244315f0 	addiu	v1,v0,5616
  4027e4:	8fc20028 	lw	v0,40(s8)
  4027e8:	00602021 	move	a0,v1
  4027ec:	00402821 	move	a1,v0
[31m  4027f0:	8f82808c 	lw	v0,printf[0m
  4027f4:	00000000 	nop
  4027f8:	0040c821 	move	t9,v0
--
  402888:	8fc30018 	lw	v1,24(s8)
  40288c:	24020014 	li	v0,20
  402890:	14620009 	bne	v1,v0,4028b8 <acl_dip_meter+0x5d8>
  402894:	00000000 	nop
  402898:	3c020041 	lui	v0,0x41
  40289c:	24441614 	addiu	a0,v0,5652
  4028a0:	8f828080 	lw	v0,-32640(gp)
  4028a4:	00000000 	nop
  4028a8:	0040c821 	move	t9,v0
  4028ac:	0320f809 	jalr	t9
  4028b0:	00000000 	nop
  4028b4:	8fdc0010 	lw	gp,16(s8)
  4028b8:	24020003 	li	v0,3
  4028bc:	afc20028 	sw	v0,40(s8)
  4028c0:	8fc20028 	lw	v0,40(s8)
  4028c4:	24040094 	li	a0,148
  4028c8:	00402821 	move	a1,v0
  4028cc:	0c10059c 	jal	401670 <reg_write>
  4028d0:	00000000 	nop
  4028d4:	8fdc0010 	lw	gp,16(s8)
  4028d8:	3c020041 	lui	v0,0x41
  4028dc:	244315a8 	addiu	v1,v0,5544
  4028e0:	8fc20028 	lw	v0,40(s8)
  4028e4:	00602021 	move	a0,v1
  4028e8:	00402821 	move	a1,v0
[31m  4028ec:	8f82808c 	lw	v0,printf[0m
  4028f0:	00000000 	nop
  4028f4:	0040c821 	move	t9,v0
  4028f8:	0320f809 	jalr	t9
  4028fc:	00000000 	nop
  402900:	8fdc0010 	lw	gp,16(s8)
  402904:	afc00028 	sw	zero,40(s8)
  402908:	8fc20028 	lw	v0,40(s8)
  40290c:	24040098 	li	a0,152
  402910:	00402821 	move	a1,v0
  402914:	0c10059c 	jal	401670 <reg_write>
  402918:	00000000 	nop
  40291c:	8fdc0010 	lw	gp,16(s8)
  402920:	3c020041 	lui	v0,0x41
  402924:	244315cc 	addiu	v1,v0,5580
  402928:	8fc20028 	lw	v0,40(s8)
  40292c:	00602021 	move	a0,v1
  402930:	00402821 	move	a1,v0
[31m  402934:	8f82808c 	lw	v0,printf[0m
  402938:	00000000 	nop
  40293c:	0040c821 	move	t9,v0
  402940:	0320f809 	jalr	t9
  402944:	00000000 	nop
  402948:	8fdc0010 	lw	gp,16(s8)
  40294c:	3c028000 	lui	v0,0x8000
  402950:	34429000 	ori	v0,v0,0x9000
  402954:	afc20028 	sw	v0,40(s8)
  402958:	8fc20028 	lw	v0,40(s8)
  40295c:	24040090 	li	a0,144
  402960:	00402821 	move	a1,v0
  402964:	0c10059c 	jal	401670 <reg_write>
  402968:	00000000 	nop
  40296c:	8fdc0010 	lw	gp,16(s8)
  402970:	3c020041 	lui	v0,0x41
  402974:	244315f0 	addiu	v1,v0,5616
  402978:	8fc20028 	lw	v0,40(s8)
  40297c:	00602021 	move	a0,v1
  402980:	00402821 	move	a1,v0
[31m  402984:	8f82808c 	lw	v0,printf[0m
  402988:	00000000 	nop
  40298c:	0040c821 	move	t9,v0
--
  402a70:	00000000 	nop
  402a74:	0040c821 	move	t9,v0
  402a78:	0320f809 	jalr	t9
  402a7c:	00000000 	nop
  402a80:	8fdc0010 	lw	gp,16(s8)
  402a84:	afc20024 	sw	v0,36(s8)
  402a88:	8fc20024 	lw	v0,36(s8)
  402a8c:	00000000 	nop
  402a90:	00021182 	srl	v0,v0,0x6
  402a94:	afc20028 	sw	v0,40(s8)
  402a98:	8fc20028 	lw	v0,40(s8)
  402a9c:	00000000 	nop
  402aa0:	34428000 	ori	v0,v0,0x8000
  402aa4:	afc20028 	sw	v0,40(s8)
  402aa8:	8fc20028 	lw	v0,40(s8)
  402aac:	24040094 	li	a0,148
  402ab0:	00402821 	move	a1,v0
  402ab4:	0c10059c 	jal	401670 <reg_write>
  402ab8:	00000000 	nop
  402abc:	8fdc0010 	lw	gp,16(s8)
  402ac0:	3c020041 	lui	v0,0x41
  402ac4:	244315a8 	addiu	v1,v0,5544
  402ac8:	8fc20028 	lw	v0,40(s8)
  402acc:	00602021 	move	a0,v1
  402ad0:	00402821 	move	a1,v0
[31m  402ad4:	8f82808c 	lw	v0,printf[0m
  402ad8:	00000000 	nop
  402adc:	0040c821 	move	t9,v0
  402ae0:	0320f809 	jalr	t9
  402ae4:	00000000 	nop
  402ae8:	8fdc0010 	lw	gp,16(s8)
  402aec:	afc00028 	sw	zero,40(s8)
  402af0:	8fc20028 	lw	v0,40(s8)
  402af4:	24040098 	li	a0,152
  402af8:	00402821 	move	a1,v0
  402afc:	0c10059c 	jal	401670 <reg_write>
  402b00:	00000000 	nop
  402b04:	8fdc0010 	lw	gp,16(s8)
  402b08:	3c020041 	lui	v0,0x41
  402b0c:	244315cc 	addiu	v1,v0,5580
  402b10:	8fc20028 	lw	v0,40(s8)
  402b14:	00602021 	move	a0,v1
  402b18:	00402821 	move	a1,v0
[31m  402b1c:	8f82808c 	lw	v0,printf[0m
  402b20:	00000000 	nop
  402b24:	0040c821 	move	t9,v0
  402b28:	0320f809 	jalr	t9
  402b2c:	00000000 	nop
  402b30:	8fdc0010 	lw	gp,16(s8)
  402b34:	3c028000 	lui	v0,0x8000
  402b38:	3442d000 	ori	v0,v0,0xd000
  402b3c:	afc20028 	sw	v0,40(s8)
  402b40:	8fc20028 	lw	v0,40(s8)
  402b44:	24040090 	li	a0,144
  402b48:	00402821 	move	a1,v0
  402b4c:	0c10059c 	jal	401670 <reg_write>
  402b50:	00000000 	nop
  402b54:	8fdc0010 	lw	gp,16(s8)
  402b58:	3c020041 	lui	v0,0x41
  402b5c:	244315f0 	addiu	v1,v0,5616
  402b60:	8fc20028 	lw	v0,40(s8)
  402b64:	00602021 	move	a0,v1
  402b68:	00402821 	move	a1,v0
[31m  402b6c:	8f82808c 	lw	v0,printf[0m
  402b70:	00000000 	nop
  402b74:	0040c821 	move	t9,v0
--
  402e3c:	27c30038 	addiu	v1,s8,56
  402e40:	00602021 	move	a0,v1
  402e44:	00402821 	move	a1,v0
  402e48:	0c100823 	jal	40208c <str_to_ip>
  402e4c:	00000000 	nop
  402e50:	8fdc0010 	lw	gp,16(s8)
  402e54:	8fc20038 	lw	v0,56(s8)
  402e58:	00000000 	nop
  402e5c:	00021402 	srl	v0,v0,0x10
  402e60:	afc20034 	sw	v0,52(s8)
  402e64:	8fc30034 	lw	v1,52(s8)
  402e68:	3c02ffff 	lui	v0,0xffff
  402e6c:	00621025 	or	v0,v1,v0
  402e70:	afc20034 	sw	v0,52(s8)
  402e74:	8fc20034 	lw	v0,52(s8)
  402e78:	24040094 	li	a0,148
  402e7c:	00402821 	move	a1,v0
  402e80:	0c10059c 	jal	401670 <reg_write>
  402e84:	00000000 	nop
  402e88:	8fdc0010 	lw	gp,16(s8)
  402e8c:	3c020041 	lui	v0,0x41
  402e90:	244315a8 	addiu	v1,v0,5544
  402e94:	8fc20034 	lw	v0,52(s8)
  402e98:	00602021 	move	a0,v1
  402e9c:	00402821 	move	a1,v0
[31m  402ea0:	8f82808c 	lw	v0,printf[0m
  402ea4:	00000000 	nop
  402ea8:	0040c821 	move	t9,v0
--
  402ec0:	00021200 	sll	v0,v0,0x8
  402ec4:	afc20034 	sw	v0,52(s8)
  402ec8:	8fc30034 	lw	v1,52(s8)
  402ecc:	3c020008 	lui	v0,0x8
  402ed0:	00621025 	or	v0,v1,v0
  402ed4:	afc20034 	sw	v0,52(s8)
  402ed8:	8fc30034 	lw	v1,52(s8)
  402edc:	3c020002 	lui	v0,0x2
  402ee0:	00621025 	or	v0,v1,v0
  402ee4:	afc20034 	sw	v0,52(s8)
  402ee8:	8fc20034 	lw	v0,52(s8)
  402eec:	00000000 	nop
  402ef0:	34420010 	ori	v0,v0,0x10
  402ef4:	afc20034 	sw	v0,52(s8)
  402ef8:	8fc20034 	lw	v0,52(s8)
  402efc:	24040098 	li	a0,152
  402f00:	00402821 	move	a1,v0
  402f04:	0c10059c 	jal	401670 <reg_write>
  402f08:	00000000 	nop
  402f0c:	8fdc0010 	lw	gp,16(s8)
  402f10:	3c020041 	lui	v0,0x41
  402f14:	244315cc 	addiu	v1,v0,5580
  402f18:	8fc20034 	lw	v0,52(s8)
  402f1c:	00602021 	move	a0,v1
  402f20:	00402821 	move	a1,v0
[31m  402f24:	8f82808c 	lw	v0,printf[0m
  402f28:	00000000 	nop
  402f2c:	0040c821 	move	t9,v0
  402f30:	0320f809 	jalr	t9
  402f34:	00000000 	nop
  402f38:	8fdc0010 	lw	gp,16(s8)
  402f3c:	3c028000 	lui	v0,0x8000
  402f40:	34425000 	ori	v0,v0,0x5000
  402f44:	afc20034 	sw	v0,52(s8)
  402f48:	8fc20034 	lw	v0,52(s8)
  402f4c:	24040090 	li	a0,144
  402f50:	00402821 	move	a1,v0
  402f54:	0c10059c 	jal	401670 <reg_write>
  402f58:	00000000 	nop
  402f5c:	8fdc0010 	lw	gp,16(s8)
  402f60:	3c020041 	lui	v0,0x41
  402f64:	244315f0 	addiu	v1,v0,5616
  402f68:	8fc20034 	lw	v0,52(s8)
  402f6c:	00602021 	move	a0,v1
  402f70:	00402821 	move	a1,v0
[31m  402f74:	8f82808c 	lw	v0,printf[0m
  402f78:	00000000 	nop
  402f7c:	0040c821 	move	t9,v0
--
  403024:	8f828080 	lw	v0,-32640(gp)
  403028:	00000000 	nop
  40302c:	0040c821 	move	t9,v0
  403030:	0320f809 	jalr	t9
  403034:	00000000 	nop
  403038:	8fdc0010 	lw	gp,16(s8)
  40303c:	8fc20038 	lw	v0,56(s8)
  403040:	00000000 	nop
  403044:	3042ffff 	andi	v0,v0,0xffff
  403048:	afc20034 	sw	v0,52(s8)
  40304c:	8fc30034 	lw	v1,52(s8)
  403050:	3c02ffff 	lui	v0,0xffff
  403054:	00621025 	or	v0,v1,v0
  403058:	afc20034 	sw	v0,52(s8)
  40305c:	8fc20034 	lw	v0,52(s8)
  403060:	24040094 	li	a0,148
  403064:	00402821 	move	a1,v0
  403068:	0c10059c 	jal	401670 <reg_write>
  40306c:	00000000 	nop
  403070:	8fdc0010 	lw	gp,16(s8)
  403074:	3c020041 	lui	v0,0x41
  403078:	244315a8 	addiu	v1,v0,5544
  40307c:	8fc20034 	lw	v0,52(s8)
  403080:	00602021 	move	a0,v1
  403084:	00402821 	move	a1,v0
[31m  403088:	8f82808c 	lw	v0,printf[0m
  40308c:	00000000 	nop
  403090:	0040c821 	move	t9,v0
--
  4030a8:	00021200 	sll	v0,v0,0x8
  4030ac:	afc20034 	sw	v0,52(s8)
  4030b0:	8fc30034 	lw	v1,52(s8)
  4030b4:	3c020008 	lui	v0,0x8
  4030b8:	00621025 	or	v0,v1,v0
  4030bc:	afc20034 	sw	v0,52(s8)
  4030c0:	8fc30034 	lw	v1,52(s8)
  4030c4:	3c020002 	lui	v0,0x2
  4030c8:	00621025 	or	v0,v1,v0
  4030cc:	afc20034 	sw	v0,52(s8)
  4030d0:	8fc20034 	lw	v0,52(s8)
  4030d4:	00000000 	nop
  4030d8:	34420012 	ori	v0,v0,0x12
  4030dc:	afc20034 	sw	v0,52(s8)
  4030e0:	8fc20034 	lw	v0,52(s8)
  4030e4:	24040098 	li	a0,152
  4030e8:	00402821 	move	a1,v0
  4030ec:	0c10059c 	jal	401670 <reg_write>
  4030f0:	00000000 	nop
  4030f4:	8fdc0010 	lw	gp,16(s8)
  4030f8:	3c020041 	lui	v0,0x41
  4030fc:	244315cc 	addiu	v1,v0,5580
  403100:	8fc20034 	lw	v0,52(s8)
  403104:	00602021 	move	a0,v1
  403108:	00402821 	move	a1,v0
[31m  40310c:	8f82808c 	lw	v0,printf[0m
  403110:	00000000 	nop
  403114:	0040c821 	move	t9,v0
  403118:	0320f809 	jalr	t9
  40311c:	00000000 	nop
  403120:	8fdc0010 	lw	gp,16(s8)
  403124:	3c028000 	lui	v0,0x8000
  403128:	34425001 	ori	v0,v0,0x5001
  40312c:	afc20034 	sw	v0,52(s8)
  403130:	8fc20034 	lw	v0,52(s8)
  403134:	24040090 	li	a0,144
  403138:	00402821 	move	a1,v0
  40313c:	0c10059c 	jal	401670 <reg_write>
  403140:	00000000 	nop
  403144:	8fdc0010 	lw	gp,16(s8)
  403148:	3c020041 	lui	v0,0x41
  40314c:	244315f0 	addiu	v1,v0,5616
  403150:	8fc20034 	lw	v0,52(s8)
  403154:	00602021 	move	a0,v1
  403158:	00402821 	move	a1,v0
[31m  40315c:	8f82808c 	lw	v0,printf[0m
  403160:	00000000 	nop
  403164:	0040c821 	move	t9,v0
--
  403300:	0040c821 	move	t9,v0
  403304:	0320f809 	jalr	t9
  403308:	00000000 	nop
  40330c:	8fdc0010 	lw	gp,16(s8)
  403310:	afc20030 	sw	v0,48(s8)
  403314:	8fc20028 	lw	v0,40(s8)
  403318:	00000000 	nop
  40331c:	00021400 	sll	v0,v0,0x10
  403320:	afc20034 	sw	v0,52(s8)
  403324:	8fc30034 	lw	v1,52(s8)
  403328:	8fc20030 	lw	v0,48(s8)
  40332c:	00000000 	nop
  403330:	00621025 	or	v0,v1,v0
  403334:	afc20034 	sw	v0,52(s8)
  403338:	8fc20034 	lw	v0,52(s8)
  40333c:	24040094 	li	a0,148
  403340:	00402821 	move	a1,v0
  403344:	0c10059c 	jal	401670 <reg_write>
  403348:	00000000 	nop
  40334c:	8fdc0010 	lw	gp,16(s8)
  403350:	3c020041 	lui	v0,0x41
  403354:	244315a8 	addiu	v1,v0,5544
  403358:	8fc20034 	lw	v0,52(s8)
  40335c:	00602021 	move	a0,v1
  403360:	00402821 	move	a1,v0
[31m  403364:	8f82808c 	lw	v0,printf[0m
  403368:	00000000 	nop
  40336c:	0040c821 	move	t9,v0
--
  403388:	afc20024 	sw	v0,36(s8)
  40338c:	8fc2002c 	lw	v0,44(s8)
  403390:	00000000 	nop
  403394:	00021182 	srl	v0,v0,0x6
  403398:	afc2002c 	sw	v0,44(s8)
  40339c:	8fc20024 	lw	v0,36(s8)
  4033a0:	00000000 	nop
  4033a4:	00021400 	sll	v0,v0,0x10
  4033a8:	afc20034 	sw	v0,52(s8)
  4033ac:	8fc30034 	lw	v1,52(s8)
  4033b0:	8fc2002c 	lw	v0,44(s8)
  4033b4:	00000000 	nop
  4033b8:	00621025 	or	v0,v1,v0
  4033bc:	afc20034 	sw	v0,52(s8)
  4033c0:	8fc20034 	lw	v0,52(s8)
  4033c4:	24040098 	li	a0,152
  4033c8:	00402821 	move	a1,v0
  4033cc:	0c10059c 	jal	401670 <reg_write>
  4033d0:	00000000 	nop
  4033d4:	8fdc0010 	lw	gp,16(s8)
  4033d8:	3c020041 	lui	v0,0x41
  4033dc:	244315cc 	addiu	v1,v0,5580
  4033e0:	8fc20034 	lw	v0,52(s8)
  4033e4:	00602021 	move	a0,v1
  4033e8:	00402821 	move	a1,v0
[31m  4033ec:	8f82808c 	lw	v0,printf[0m
  4033f0:	00000000 	nop
  4033f4:	0040c821 	move	t9,v0
  4033f8:	0320f809 	jalr	t9
  4033fc:	00000000 	nop
  403400:	8fdc0010 	lw	gp,16(s8)
  403404:	3c028000 	lui	v0,0x8000
  403408:	34427000 	ori	v0,v0,0x7000
  40340c:	afc20034 	sw	v0,52(s8)
  403410:	8fc20034 	lw	v0,52(s8)
  403414:	24040090 	li	a0,144
  403418:	00402821 	move	a1,v0
  40341c:	0c10059c 	jal	401670 <reg_write>
  403420:	00000000 	nop
  403424:	8fdc0010 	lw	gp,16(s8)
  403428:	3c020041 	lui	v0,0x41
  40342c:	244315f0 	addiu	v1,v0,5616
  403430:	8fc20034 	lw	v0,52(s8)
  403434:	00602021 	move	a0,v1
  403438:	00402821 	move	a1,v0
[31m  40343c:	8f82808c 	lw	v0,printf[0m
  403440:	00000000 	nop
  403444:	0040c821 	move	t9,v0
--
  4034d4:	8fc30018 	lw	v1,24(s8)
  4034d8:	24020014 	li	v0,20
  4034dc:	14620009 	bne	v1,v0,403504 <acl_dip_trtcm+0x8b8>
  4034e0:	00000000 	nop
  4034e4:	3c020041 	lui	v0,0x41
  4034e8:	24441614 	addiu	a0,v0,5652
  4034ec:	8f828080 	lw	v0,-32640(gp)
  4034f0:	00000000 	nop
  4034f4:	0040c821 	move	t9,v0
  4034f8:	0320f809 	jalr	t9
  4034fc:	00000000 	nop
  403500:	8fdc0010 	lw	gp,16(s8)
  403504:	24020003 	li	v0,3
  403508:	afc20034 	sw	v0,52(s8)
  40350c:	8fc20034 	lw	v0,52(s8)
  403510:	24040094 	li	a0,148
  403514:	00402821 	move	a1,v0
  403518:	0c10059c 	jal	401670 <reg_write>
  40351c:	00000000 	nop
  403520:	8fdc0010 	lw	gp,16(s8)
  403524:	3c020041 	lui	v0,0x41
  403528:	244315a8 	addiu	v1,v0,5544
  40352c:	8fc20034 	lw	v0,52(s8)
  403530:	00602021 	move	a0,v1
  403534:	00402821 	move	a1,v0
[31m  403538:	8f82808c 	lw	v0,printf[0m
  40353c:	00000000 	nop
  403540:	0040c821 	move	t9,v0
  403544:	0320f809 	jalr	t9
  403548:	00000000 	nop
  40354c:	8fdc0010 	lw	gp,16(s8)
  403550:	afc00034 	sw	zero,52(s8)
  403554:	8fc20034 	lw	v0,52(s8)
  403558:	24040098 	li	a0,152
  40355c:	00402821 	move	a1,v0
  403560:	0c10059c 	jal	401670 <reg_write>
  403564:	00000000 	nop
  403568:	8fdc0010 	lw	gp,16(s8)
  40356c:	3c020041 	lui	v0,0x41
  403570:	244315cc 	addiu	v1,v0,5580
  403574:	8fc20034 	lw	v0,52(s8)
  403578:	00602021 	move	a0,v1
  40357c:	00402821 	move	a1,v0
[31m  403580:	8f82808c 	lw	v0,printf[0m
  403584:	00000000 	nop
  403588:	0040c821 	move	t9,v0
  40358c:	0320f809 	jalr	t9
  403590:	00000000 	nop
  403594:	8fdc0010 	lw	gp,16(s8)
  403598:	3c028000 	lui	v0,0x8000
  40359c:	34429000 	ori	v0,v0,0x9000
  4035a0:	afc20034 	sw	v0,52(s8)
  4035a4:	8fc20034 	lw	v0,52(s8)
  4035a8:	24040090 	li	a0,144
  4035ac:	00402821 	move	a1,v0
  4035b0:	0c10059c 	jal	401670 <reg_write>
  4035b4:	00000000 	nop
  4035b8:	8fdc0010 	lw	gp,16(s8)
  4035bc:	3c020041 	lui	v0,0x41
  4035c0:	244315f0 	addiu	v1,v0,5616
  4035c4:	8fc20034 	lw	v0,52(s8)
  4035c8:	00602021 	move	a0,v1
  4035cc:	00402821 	move	a1,v0
[31m  4035d0:	8f82808c 	lw	v0,printf[0m
  4035d4:	00000000 	nop
  4035d8:	0040c821 	move	t9,v0
--
  403664:	00000000 	nop
  403668:	8fc30018 	lw	v1,24(s8)
  40366c:	24020014 	li	v0,20
  403670:	14620009 	bne	v1,v0,403698 <acl_dip_trtcm+0xa4c>
  403674:	00000000 	nop
  403678:	3c020041 	lui	v0,0x41
  40367c:	24441614 	addiu	a0,v0,5652
  403680:	8f828080 	lw	v0,-32640(gp)
  403684:	00000000 	nop
  403688:	0040c821 	move	t9,v0
  40368c:	0320f809 	jalr	t9
  403690:	00000000 	nop
  403694:	8fdc0010 	lw	gp,16(s8)
  403698:	afc00034 	sw	zero,52(s8)
  40369c:	8fc20034 	lw	v0,52(s8)
  4036a0:	24040094 	li	a0,148
  4036a4:	00402821 	move	a1,v0
  4036a8:	0c10059c 	jal	401670 <reg_write>
  4036ac:	00000000 	nop
  4036b0:	8fdc0010 	lw	gp,16(s8)
  4036b4:	3c020041 	lui	v0,0x41
  4036b8:	244315a8 	addiu	v1,v0,5544
  4036bc:	8fc20034 	lw	v0,52(s8)
  4036c0:	00602021 	move	a0,v1
  4036c4:	00402821 	move	a1,v0
[31m  4036c8:	8f82808c 	lw	v0,printf[0m
  4036cc:	00000000 	nop
  4036d0:	0040c821 	move	t9,v0
--
  4036e0:	24021000 	li	v0,4096
  4036e4:	afc20034 	sw	v0,52(s8)
  4036e8:	8fc20034 	lw	v0,52(s8)
  4036ec:	00000000 	nop
  4036f0:	34420400 	ori	v0,v0,0x400
  4036f4:	afc20034 	sw	v0,52(s8)
  4036f8:	8fc20034 	lw	v0,52(s8)
  4036fc:	00000000 	nop
  403700:	344200c0 	ori	v0,v0,0xc0
  403704:	afc20034 	sw	v0,52(s8)
  403708:	8fc20034 	lw	v0,52(s8)
  40370c:	00000000 	nop
  403710:	34420001 	ori	v0,v0,0x1
  403714:	afc20034 	sw	v0,52(s8)
  403718:	8fc20034 	lw	v0,52(s8)
  40371c:	24040098 	li	a0,152
  403720:	00402821 	move	a1,v0
  403724:	0c10059c 	jal	401670 <reg_write>
  403728:	00000000 	nop
  40372c:	8fdc0010 	lw	gp,16(s8)
  403730:	3c020041 	lui	v0,0x41
  403734:	244315cc 	addiu	v1,v0,5580
  403738:	8fc20034 	lw	v0,52(s8)
  40373c:	00602021 	move	a0,v1
  403740:	00402821 	move	a1,v0
[31m  403744:	8f82808c 	lw	v0,printf[0m
  403748:	00000000 	nop
  40374c:	0040c821 	move	t9,v0
  403750:	0320f809 	jalr	t9
  403754:	00000000 	nop
  403758:	8fdc0010 	lw	gp,16(s8)
  40375c:	3c028000 	lui	v0,0x8000
  403760:	3442b000 	ori	v0,v0,0xb000
  403764:	afc20034 	sw	v0,52(s8)
  403768:	8fc20034 	lw	v0,52(s8)
  40376c:	24040090 	li	a0,144
  403770:	00402821 	move	a1,v0
  403774:	0c10059c 	jal	401670 <reg_write>
  403778:	00000000 	nop
  40377c:	8fdc0010 	lw	gp,16(s8)
  403780:	3c020041 	lui	v0,0x41
  403784:	244315f0 	addiu	v1,v0,5616
  403788:	8fc20034 	lw	v0,52(s8)
  40378c:	00602021 	move	a0,v1
  403790:	00402821 	move	a1,v0
[31m  403794:	8f82808c 	lw	v0,printf[0m
  403798:	00000000 	nop
  40379c:	0040c821 	move	t9,v0
--
  403a74:	8f828078 	lw	v0,-32648(gp)
  403a78:	00000000 	nop
  403a7c:	0040c821 	move	t9,v0
  403a80:	0320f809 	jalr	t9
  403a84:	00000000 	nop
  403a88:	8fdc0010 	lw	gp,16(s8)
  403a8c:	afc20024 	sw	v0,36(s8)
  403a90:	8fc20024 	lw	v0,36(s8)
  403a94:	00000000 	nop
  403a98:	afc20028 	sw	v0,40(s8)
  403a9c:	8fc30028 	lw	v1,40(s8)
  403aa0:	3c02ffff 	lui	v0,0xffff
  403aa4:	00621025 	or	v0,v1,v0
  403aa8:	afc20028 	sw	v0,40(s8)
  403aac:	8fc20028 	lw	v0,40(s8)
  403ab0:	24040094 	li	a0,148
  403ab4:	00402821 	move	a1,v0
  403ab8:	0c10059c 	jal	401670 <reg_write>
  403abc:	00000000 	nop
  403ac0:	8fdc0010 	lw	gp,16(s8)
  403ac4:	3c020041 	lui	v0,0x41
  403ac8:	244315a8 	addiu	v1,v0,5544
  403acc:	8fc20028 	lw	v0,40(s8)
  403ad0:	00602021 	move	a0,v1
  403ad4:	00402821 	move	a1,v0
[31m  403ad8:	8f82808c 	lw	v0,printf[0m
  403adc:	00000000 	nop
  403ae0:	0040c821 	move	t9,v0
--
  403af4:	00000000 	nop
  403af8:	00021200 	sll	v0,v0,0x8
  403afc:	afc20028 	sw	v0,40(s8)
  403b00:	8fc30028 	lw	v1,40(s8)
  403b04:	3c020008 	lui	v0,0x8
  403b08:	00621025 	or	v0,v1,v0
  403b0c:	afc20028 	sw	v0,40(s8)
  403b10:	8fc20028 	lw	v0,40(s8)
  403b14:	00000000 	nop
  403b18:	afc20028 	sw	v0,40(s8)
  403b1c:	8fc20028 	lw	v0,40(s8)
  403b20:	00000000 	nop
  403b24:	3442000c 	ori	v0,v0,0xc
  403b28:	afc20028 	sw	v0,40(s8)
  403b2c:	8fc20028 	lw	v0,40(s8)
  403b30:	24040098 	li	a0,152
  403b34:	00402821 	move	a1,v0
  403b38:	0c10059c 	jal	401670 <reg_write>
  403b3c:	00000000 	nop
  403b40:	8fdc0010 	lw	gp,16(s8)
  403b44:	3c020041 	lui	v0,0x41
  403b48:	244315cc 	addiu	v1,v0,5580
  403b4c:	8fc20028 	lw	v0,40(s8)
  403b50:	00602021 	move	a0,v1
  403b54:	00402821 	move	a1,v0
[31m  403b58:	8f82808c 	lw	v0,printf[0m
  403b5c:	00000000 	nop
  403b60:	0040c821 	move	t9,v0
  403b64:	0320f809 	jalr	t9
  403b68:	00000000 	nop
  403b6c:	8fdc0010 	lw	gp,16(s8)
  403b70:	3c028000 	lui	v0,0x8000
  403b74:	34425000 	ori	v0,v0,0x5000
  403b78:	afc20028 	sw	v0,40(s8)
  403b7c:	8fc20028 	lw	v0,40(s8)
  403b80:	24040090 	li	a0,144
  403b84:	00402821 	move	a1,v0
  403b88:	0c10059c 	jal	401670 <reg_write>
  403b8c:	00000000 	nop
  403b90:	8fdc0010 	lw	gp,16(s8)
  403b94:	3c020041 	lui	v0,0x41
  403b98:	244315f0 	addiu	v1,v0,5616
  403b9c:	8fc20028 	lw	v0,40(s8)
  403ba0:	00602021 	move	a0,v1
  403ba4:	00402821 	move	a1,v0
[31m  403ba8:	8f82808c 	lw	v0,printf[0m
  403bac:	00000000 	nop
  403bb0:	0040c821 	move	t9,v0
--
  403c40:	8fc30018 	lw	v1,24(s8)
  403c44:	24020014 	li	v0,20
  403c48:	14620009 	bne	v1,v0,403c70 <acl_ethertype+0x3fc>
  403c4c:	00000000 	nop
  403c50:	3c020041 	lui	v0,0x41
  403c54:	24441614 	addiu	a0,v0,5652
  403c58:	8f828080 	lw	v0,-32640(gp)
  403c5c:	00000000 	nop
  403c60:	0040c821 	move	t9,v0
  403c64:	0320f809 	jalr	t9
  403c68:	00000000 	nop
  403c6c:	8fdc0010 	lw	gp,16(s8)
  403c70:	24020001 	li	v0,1
  403c74:	afc20028 	sw	v0,40(s8)
  403c78:	8fc20028 	lw	v0,40(s8)
  403c7c:	24040094 	li	a0,148
  403c80:	00402821 	move	a1,v0
  403c84:	0c10059c 	jal	401670 <reg_write>
  403c88:	00000000 	nop
  403c8c:	8fdc0010 	lw	gp,16(s8)
  403c90:	3c020041 	lui	v0,0x41
  403c94:	244315a8 	addiu	v1,v0,5544
  403c98:	8fc20028 	lw	v0,40(s8)
  403c9c:	00602021 	move	a0,v1
  403ca0:	00402821 	move	a1,v0
[31m  403ca4:	8f82808c 	lw	v0,printf[0m
  403ca8:	00000000 	nop
  403cac:	0040c821 	move	t9,v0
  403cb0:	0320f809 	jalr	t9
  403cb4:	00000000 	nop
  403cb8:	8fdc0010 	lw	gp,16(s8)
  403cbc:	afc00028 	sw	zero,40(s8)
  403cc0:	8fc20028 	lw	v0,40(s8)
  403cc4:	24040098 	li	a0,152
  403cc8:	00402821 	move	a1,v0
  403ccc:	0c10059c 	jal	401670 <reg_write>
  403cd0:	00000000 	nop
  403cd4:	8fdc0010 	lw	gp,16(s8)
  403cd8:	3c020041 	lui	v0,0x41
  403cdc:	244315cc 	addiu	v1,v0,5580
  403ce0:	8fc20028 	lw	v0,40(s8)
  403ce4:	00602021 	move	a0,v1
  403ce8:	00402821 	move	a1,v0
[31m  403cec:	8f82808c 	lw	v0,printf[0m
  403cf0:	00000000 	nop
  403cf4:	0040c821 	move	t9,v0
  403cf8:	0320f809 	jalr	t9
  403cfc:	00000000 	nop
  403d00:	8fdc0010 	lw	gp,16(s8)
  403d04:	3c028000 	lui	v0,0x8000
  403d08:	34429000 	ori	v0,v0,0x9000
  403d0c:	afc20028 	sw	v0,40(s8)
  403d10:	8fc20028 	lw	v0,40(s8)
  403d14:	24040090 	li	a0,144
  403d18:	00402821 	move	a1,v0
  403d1c:	0c10059c 	jal	401670 <reg_write>
  403d20:	00000000 	nop
  403d24:	8fdc0010 	lw	gp,16(s8)
  403d28:	3c020041 	lui	v0,0x41
  403d2c:	244315f0 	addiu	v1,v0,5616
  403d30:	8fc20028 	lw	v0,40(s8)
  403d34:	00602021 	move	a0,v1
  403d38:	00402821 	move	a1,v0
[31m  403d3c:	8f82808c 	lw	v0,printf[0m
  403d40:	00000000 	nop
  403d44:	0040c821 	move	t9,v0
--
  403e10:	00621025 	or	v0,v1,v0
  403e14:	afc20028 	sw	v0,40(s8)
  403e18:	8fc30028 	lw	v1,40(s8)
  403e1c:	3c020800 	lui	v0,0x800
  403e20:	00621025 	or	v0,v1,v0
  403e24:	afc20028 	sw	v0,40(s8)
  403e28:	8fc20028 	lw	v0,40(s8)
  403e2c:	00000000 	nop
  403e30:	34420060 	ori	v0,v0,0x60
  403e34:	afc20028 	sw	v0,40(s8)
  403e38:	8fc30028 	lw	v1,40(s8)
  403e3c:	3c020006 	lui	v0,0x6
  403e40:	00621025 	or	v0,v1,v0
  403e44:	afc20028 	sw	v0,40(s8)
  403e48:	8fc20028 	lw	v0,40(s8)
  403e4c:	24040094 	li	a0,148
  403e50:	00402821 	move	a1,v0
  403e54:	0c10059c 	jal	401670 <reg_write>
  403e58:	00000000 	nop
  403e5c:	8fdc0010 	lw	gp,16(s8)
  403e60:	3c020041 	lui	v0,0x41
  403e64:	244315a8 	addiu	v1,v0,5544
  403e68:	8fc20028 	lw	v0,40(s8)
  403e6c:	00602021 	move	a0,v1
  403e70:	00402821 	move	a1,v0
[31m  403e74:	8f82808c 	lw	v0,printf[0m
  403e78:	00000000 	nop
  403e7c:	0040c821 	move	t9,v0
  403e80:	0320f809 	jalr	t9
  403e84:	00000000 	nop
  403e88:	8fdc0010 	lw	gp,16(s8)
  403e8c:	afc00028 	sw	zero,40(s8)
  403e90:	8fc20028 	lw	v0,40(s8)
  403e94:	24040098 	li	a0,152
  403e98:	00402821 	move	a1,v0
  403e9c:	0c10059c 	jal	401670 <reg_write>
  403ea0:	00000000 	nop
  403ea4:	8fdc0010 	lw	gp,16(s8)
  403ea8:	3c020041 	lui	v0,0x41
  403eac:	244315cc 	addiu	v1,v0,5580
  403eb0:	8fc20028 	lw	v0,40(s8)
  403eb4:	00602021 	move	a0,v1
  403eb8:	00402821 	move	a1,v0
[31m  403ebc:	8f82808c 	lw	v0,printf[0m
  403ec0:	00000000 	nop
  403ec4:	0040c821 	move	t9,v0
  403ec8:	0320f809 	jalr	t9
  403ecc:	00000000 	nop
  403ed0:	8fdc0010 	lw	gp,16(s8)
  403ed4:	3c028000 	lui	v0,0x8000
  403ed8:	3442b000 	ori	v0,v0,0xb000
  403edc:	afc20028 	sw	v0,40(s8)
  403ee0:	8fc20028 	lw	v0,40(s8)
  403ee4:	24040090 	li	a0,144
  403ee8:	00402821 	move	a1,v0
  403eec:	0c10059c 	jal	401670 <reg_write>
  403ef0:	00000000 	nop
  403ef4:	8fdc0010 	lw	gp,16(s8)
  403ef8:	3c020041 	lui	v0,0x41
  403efc:	244315f0 	addiu	v1,v0,5616
  403f00:	8fc20028 	lw	v0,40(s8)
  403f04:	00602021 	move	a0,v1
  403f08:	00402821 	move	a1,v0
[31m  403f0c:	8f82808c 	lw	v0,printf[0m
  403f10:	00000000 	nop
  403f14:	0040c821 	move	t9,v0
--
  4041dc:	27c30028 	addiu	v1,s8,40
  4041e0:	00602021 	move	a0,v1
  4041e4:	00402821 	move	a1,v0
  4041e8:	0c100823 	jal	40208c <str_to_ip>
  4041ec:	00000000 	nop
  4041f0:	8fdc0010 	lw	gp,16(s8)
  4041f4:	8fc20028 	lw	v0,40(s8)
  4041f8:	00000000 	nop
  4041fc:	00021402 	srl	v0,v0,0x10
  404200:	afc20024 	sw	v0,36(s8)
  404204:	8fc30024 	lw	v1,36(s8)
  404208:	3c02ffff 	lui	v0,0xffff
  40420c:	00621025 	or	v0,v1,v0
  404210:	afc20024 	sw	v0,36(s8)
  404214:	8fc20024 	lw	v0,36(s8)
  404218:	24040094 	li	a0,148
  40421c:	00402821 	move	a1,v0
  404220:	0c10059c 	jal	401670 <reg_write>
  404224:	00000000 	nop
  404228:	8fdc0010 	lw	gp,16(s8)
  40422c:	3c020041 	lui	v0,0x41
  404230:	244315a8 	addiu	v1,v0,5544
  404234:	8fc20024 	lw	v0,36(s8)
  404238:	00602021 	move	a0,v1
  40423c:	00402821 	move	a1,v0
[31m  404240:	8f82808c 	lw	v0,printf[0m
  404244:	00000000 	nop
  404248:	0040c821 	move	t9,v0
--
  404260:	00021200 	sll	v0,v0,0x8
  404264:	afc20024 	sw	v0,36(s8)
  404268:	8fc30024 	lw	v1,36(s8)
  40426c:	3c020008 	lui	v0,0x8
  404270:	00621025 	or	v0,v1,v0
  404274:	afc20024 	sw	v0,36(s8)
  404278:	8fc30024 	lw	v1,36(s8)
  40427c:	3c020002 	lui	v0,0x2
  404280:	00621025 	or	v0,v1,v0
  404284:	afc20024 	sw	v0,36(s8)
  404288:	8fc20024 	lw	v0,36(s8)
  40428c:	00000000 	nop
  404290:	34420010 	ori	v0,v0,0x10
  404294:	afc20024 	sw	v0,36(s8)
  404298:	8fc20024 	lw	v0,36(s8)
  40429c:	24040098 	li	a0,152
  4042a0:	00402821 	move	a1,v0
  4042a4:	0c10059c 	jal	401670 <reg_write>
  4042a8:	00000000 	nop
  4042ac:	8fdc0010 	lw	gp,16(s8)
  4042b0:	3c020041 	lui	v0,0x41
  4042b4:	244315cc 	addiu	v1,v0,5580
  4042b8:	8fc20024 	lw	v0,36(s8)
  4042bc:	00602021 	move	a0,v1
  4042c0:	00402821 	move	a1,v0
[31m  4042c4:	8f82808c 	lw	v0,printf[0m
  4042c8:	00000000 	nop
  4042cc:	0040c821 	move	t9,v0
  4042d0:	0320f809 	jalr	t9
  4042d4:	00000000 	nop
  4042d8:	8fdc0010 	lw	gp,16(s8)
  4042dc:	3c028000 	lui	v0,0x8000
  4042e0:	34425000 	ori	v0,v0,0x5000
  4042e4:	afc20024 	sw	v0,36(s8)
  4042e8:	8fc20024 	lw	v0,36(s8)
  4042ec:	24040090 	li	a0,144
  4042f0:	00402821 	move	a1,v0
  4042f4:	0c10059c 	jal	401670 <reg_write>
  4042f8:	00000000 	nop
  4042fc:	8fdc0010 	lw	gp,16(s8)
  404300:	3c020041 	lui	v0,0x41
  404304:	244315f0 	addiu	v1,v0,5616
  404308:	8fc20024 	lw	v0,36(s8)
  40430c:	00602021 	move	a0,v1
  404310:	00402821 	move	a1,v0
[31m  404314:	8f82808c 	lw	v0,printf[0m
  404318:	00000000 	nop
  40431c:	0040c821 	move	t9,v0
--
  4043c4:	8f828080 	lw	v0,-32640(gp)
  4043c8:	00000000 	nop
  4043cc:	0040c821 	move	t9,v0
  4043d0:	0320f809 	jalr	t9
  4043d4:	00000000 	nop
  4043d8:	8fdc0010 	lw	gp,16(s8)
  4043dc:	8fc20028 	lw	v0,40(s8)
  4043e0:	00000000 	nop
  4043e4:	3042ffff 	andi	v0,v0,0xffff
  4043e8:	afc20024 	sw	v0,36(s8)
  4043ec:	8fc30024 	lw	v1,36(s8)
  4043f0:	3c02ffff 	lui	v0,0xffff
  4043f4:	00621025 	or	v0,v1,v0
  4043f8:	afc20024 	sw	v0,36(s8)
  4043fc:	8fc20024 	lw	v0,36(s8)
  404400:	24040094 	li	a0,148
  404404:	00402821 	move	a1,v0
  404408:	0c10059c 	jal	401670 <reg_write>
  40440c:	00000000 	nop
  404410:	8fdc0010 	lw	gp,16(s8)
  404414:	3c020041 	lui	v0,0x41
  404418:	244315a8 	addiu	v1,v0,5544
  40441c:	8fc20024 	lw	v0,36(s8)
  404420:	00602021 	move	a0,v1
  404424:	00402821 	move	a1,v0
[31m  404428:	8f82808c 	lw	v0,printf[0m
  40442c:	00000000 	nop
  404430:	0040c821 	move	t9,v0
--
  404448:	00021200 	sll	v0,v0,0x8
  40444c:	afc20024 	sw	v0,36(s8)
  404450:	8fc30024 	lw	v1,36(s8)
  404454:	3c020008 	lui	v0,0x8
  404458:	00621025 	or	v0,v1,v0
  40445c:	afc20024 	sw	v0,36(s8)
  404460:	8fc30024 	lw	v1,36(s8)
  404464:	3c020002 	lui	v0,0x2
  404468:	00621025 	or	v0,v1,v0
  40446c:	afc20024 	sw	v0,36(s8)
  404470:	8fc20024 	lw	v0,36(s8)
  404474:	00000000 	nop
  404478:	34420012 	ori	v0,v0,0x12
  40447c:	afc20024 	sw	v0,36(s8)
  404480:	8fc20024 	lw	v0,36(s8)
  404484:	24040098 	li	a0,152
  404488:	00402821 	move	a1,v0
  40448c:	0c10059c 	jal	401670 <reg_write>
  404490:	00000000 	nop
  404494:	8fdc0010 	lw	gp,16(s8)
  404498:	3c020041 	lui	v0,0x41
  40449c:	244315cc 	addiu	v1,v0,5580
  4044a0:	8fc20024 	lw	v0,36(s8)
  4044a4:	00602021 	move	a0,v1
  4044a8:	00402821 	move	a1,v0
[31m  4044ac:	8f82808c 	lw	v0,printf[0m
  4044b0:	00000000 	nop
  4044b4:	0040c821 	move	t9,v0
  4044b8:	0320f809 	jalr	t9
  4044bc:	00000000 	nop
  4044c0:	8fdc0010 	lw	gp,16(s8)
  4044c4:	3c028000 	lui	v0,0x8000
  4044c8:	34425001 	ori	v0,v0,0x5001
  4044cc:	afc20024 	sw	v0,36(s8)
  4044d0:	8fc20024 	lw	v0,36(s8)
  4044d4:	24040090 	li	a0,144
  4044d8:	00402821 	move	a1,v0
  4044dc:	0c10059c 	jal	401670 <reg_write>
  4044e0:	00000000 	nop
  4044e4:	8fdc0010 	lw	gp,16(s8)
  4044e8:	3c020041 	lui	v0,0x41
  4044ec:	244315f0 	addiu	v1,v0,5616
  4044f0:	8fc20024 	lw	v0,36(s8)
  4044f4:	00602021 	move	a0,v1
  4044f8:	00402821 	move	a1,v0
[31m  4044fc:	8f82808c 	lw	v0,printf[0m
  404500:	00000000 	nop
  404504:	0040c821 	move	t9,v0
--
  404594:	8fc30018 	lw	v1,24(s8)
  404598:	24020014 	li	v0,20
  40459c:	14620009 	bne	v1,v0,4045c4 <acl_dip_modify+0x5d8>
  4045a0:	00000000 	nop
  4045a4:	3c020041 	lui	v0,0x41
  4045a8:	24441614 	addiu	a0,v0,5652
  4045ac:	8f828080 	lw	v0,-32640(gp)
  4045b0:	00000000 	nop
  4045b4:	0040c821 	move	t9,v0
  4045b8:	0320f809 	jalr	t9
  4045bc:	00000000 	nop
  4045c0:	8fdc0010 	lw	gp,16(s8)
  4045c4:	24020003 	li	v0,3
  4045c8:	afc20024 	sw	v0,36(s8)
  4045cc:	8fc20024 	lw	v0,36(s8)
  4045d0:	24040094 	li	a0,148
  4045d4:	00402821 	move	a1,v0
  4045d8:	0c10059c 	jal	401670 <reg_write>
  4045dc:	00000000 	nop
  4045e0:	8fdc0010 	lw	gp,16(s8)
  4045e4:	3c020041 	lui	v0,0x41
  4045e8:	244315a8 	addiu	v1,v0,5544
  4045ec:	8fc20024 	lw	v0,36(s8)
  4045f0:	00602021 	move	a0,v1
  4045f4:	00402821 	move	a1,v0
[31m  4045f8:	8f82808c 	lw	v0,printf[0m
  4045fc:	00000000 	nop
  404600:	0040c821 	move	t9,v0
  404604:	0320f809 	jalr	t9
  404608:	00000000 	nop
  40460c:	8fdc0010 	lw	gp,16(s8)
  404610:	afc00024 	sw	zero,36(s8)
  404614:	8fc20024 	lw	v0,36(s8)
  404618:	24040098 	li	a0,152
  40461c:	00402821 	move	a1,v0
  404620:	0c10059c 	jal	401670 <reg_write>
  404624:	00000000 	nop
  404628:	8fdc0010 	lw	gp,16(s8)
  40462c:	3c020041 	lui	v0,0x41
  404630:	244315cc 	addiu	v1,v0,5580
  404634:	8fc20024 	lw	v0,36(s8)
  404638:	00602021 	move	a0,v1
  40463c:	00402821 	move	a1,v0
[31m  404640:	8f82808c 	lw	v0,printf[0m
  404644:	00000000 	nop
  404648:	0040c821 	move	t9,v0
  40464c:	0320f809 	jalr	t9
  404650:	00000000 	nop
  404654:	8fdc0010 	lw	gp,16(s8)
  404658:	3c028000 	lui	v0,0x8000
  40465c:	34429000 	ori	v0,v0,0x9000
  404660:	afc20024 	sw	v0,36(s8)
  404664:	8fc20024 	lw	v0,36(s8)
  404668:	24040090 	li	a0,144
  40466c:	00402821 	move	a1,v0
  404670:	0c10059c 	jal	401670 <reg_write>
  404674:	00000000 	nop
  404678:	8fdc0010 	lw	gp,16(s8)
  40467c:	3c020041 	lui	v0,0x41
  404680:	244315f0 	addiu	v1,v0,5616
  404684:	8fc20024 	lw	v0,36(s8)
  404688:	00602021 	move	a0,v1
  40468c:	00402821 	move	a1,v0
[31m  404690:	8f82808c 	lw	v0,printf[0m
  404694:	00000000 	nop
  404698:	0040c821 	move	t9,v0
--
  404764:	00621025 	or	v0,v1,v0
  404768:	afc20024 	sw	v0,36(s8)
  40476c:	8fc30024 	lw	v1,36(s8)
  404770:	3c020800 	lui	v0,0x800
  404774:	00621025 	or	v0,v1,v0
  404778:	afc20024 	sw	v0,36(s8)
  40477c:	8fc20024 	lw	v0,36(s8)
  404780:	00000000 	nop
  404784:	34420060 	ori	v0,v0,0x60
  404788:	afc20024 	sw	v0,36(s8)
  40478c:	8fc30024 	lw	v1,36(s8)
  404790:	3c020006 	lui	v0,0x6
  404794:	00621025 	or	v0,v1,v0
  404798:	afc20024 	sw	v0,36(s8)
  40479c:	8fc20024 	lw	v0,36(s8)
  4047a0:	24040094 	li	a0,148
  4047a4:	00402821 	move	a1,v0
  4047a8:	0c10059c 	jal	401670 <reg_write>
  4047ac:	00000000 	nop
  4047b0:	8fdc0010 	lw	gp,16(s8)
  4047b4:	3c020041 	lui	v0,0x41
  4047b8:	244315a8 	addiu	v1,v0,5544
  4047bc:	8fc20024 	lw	v0,36(s8)
  4047c0:	00602021 	move	a0,v1
  4047c4:	00402821 	move	a1,v0
[31m  4047c8:	8f82808c 	lw	v0,printf[0m
  4047cc:	00000000 	nop
  4047d0:	0040c821 	move	t9,v0
  4047d4:	0320f809 	jalr	t9
  4047d8:	00000000 	nop
  4047dc:	8fdc0010 	lw	gp,16(s8)
  4047e0:	afc00024 	sw	zero,36(s8)
  4047e4:	8fc20024 	lw	v0,36(s8)
  4047e8:	24040098 	li	a0,152
  4047ec:	00402821 	move	a1,v0
  4047f0:	0c10059c 	jal	401670 <reg_write>
  4047f4:	00000000 	nop
  4047f8:	8fdc0010 	lw	gp,16(s8)
  4047fc:	3c020041 	lui	v0,0x41
  404800:	244315cc 	addiu	v1,v0,5580
  404804:	8fc20024 	lw	v0,36(s8)
  404808:	00602021 	move	a0,v1
  40480c:	00402821 	move	a1,v0
[31m  404810:	8f82808c 	lw	v0,printf[0m
  404814:	00000000 	nop
  404818:	0040c821 	move	t9,v0
  40481c:	0320f809 	jalr	t9
  404820:	00000000 	nop
  404824:	8fdc0010 	lw	gp,16(s8)
  404828:	3c028000 	lui	v0,0x8000
  40482c:	3442b000 	ori	v0,v0,0xb000
  404830:	afc20024 	sw	v0,36(s8)
  404834:	8fc20024 	lw	v0,36(s8)
  404838:	24040090 	li	a0,144
  40483c:	00402821 	move	a1,v0
  404840:	0c10059c 	jal	401670 <reg_write>
  404844:	00000000 	nop
  404848:	8fdc0010 	lw	gp,16(s8)
  40484c:	3c020041 	lui	v0,0x41
  404850:	244315f0 	addiu	v1,v0,5616
  404854:	8fc20024 	lw	v0,36(s8)
  404858:	00602021 	move	a0,v1
  40485c:	00402821 	move	a1,v0
[31m  404860:	8f82808c 	lw	v0,printf[0m
  404864:	00000000 	nop
  404868:	0040c821 	move	t9,v0
--
  404b30:	27c30028 	addiu	v1,s8,40
  404b34:	00602021 	move	a0,v1
  404b38:	00402821 	move	a1,v0
  404b3c:	0c100823 	jal	40208c <str_to_ip>
  404b40:	00000000 	nop
  404b44:	8fdc0010 	lw	gp,16(s8)
  404b48:	8fc20028 	lw	v0,40(s8)
  404b4c:	00000000 	nop
  404b50:	00021402 	srl	v0,v0,0x10
  404b54:	afc20024 	sw	v0,36(s8)
  404b58:	8fc30024 	lw	v1,36(s8)
  404b5c:	3c02ffff 	lui	v0,0xffff
  404b60:	00621025 	or	v0,v1,v0
  404b64:	afc20024 	sw	v0,36(s8)
  404b68:	8fc20024 	lw	v0,36(s8)
  404b6c:	24040094 	li	a0,148
  404b70:	00402821 	move	a1,v0
  404b74:	0c10059c 	jal	401670 <reg_write>
  404b78:	00000000 	nop
  404b7c:	8fdc0010 	lw	gp,16(s8)
  404b80:	3c020041 	lui	v0,0x41
  404b84:	244315a8 	addiu	v1,v0,5544
  404b88:	8fc20024 	lw	v0,36(s8)
  404b8c:	00602021 	move	a0,v1
  404b90:	00402821 	move	a1,v0
[31m  404b94:	8f82808c 	lw	v0,printf[0m
  404b98:	00000000 	nop
  404b9c:	0040c821 	move	t9,v0
--
  404bb4:	00021200 	sll	v0,v0,0x8
  404bb8:	afc20024 	sw	v0,36(s8)
  404bbc:	8fc30024 	lw	v1,36(s8)
  404bc0:	3c020008 	lui	v0,0x8
  404bc4:	00621025 	or	v0,v1,v0
  404bc8:	afc20024 	sw	v0,36(s8)
  404bcc:	8fc30024 	lw	v1,36(s8)
  404bd0:	3c020002 	lui	v0,0x2
  404bd4:	00621025 	or	v0,v1,v0
  404bd8:	afc20024 	sw	v0,36(s8)
  404bdc:	8fc20024 	lw	v0,36(s8)
  404be0:	00000000 	nop
  404be4:	34420010 	ori	v0,v0,0x10
  404be8:	afc20024 	sw	v0,36(s8)
  404bec:	8fc20024 	lw	v0,36(s8)
  404bf0:	24040098 	li	a0,152
  404bf4:	00402821 	move	a1,v0
  404bf8:	0c10059c 	jal	401670 <reg_write>
  404bfc:	00000000 	nop
  404c00:	8fdc0010 	lw	gp,16(s8)
  404c04:	3c020041 	lui	v0,0x41
  404c08:	244315cc 	addiu	v1,v0,5580
  404c0c:	8fc20024 	lw	v0,36(s8)
  404c10:	00602021 	move	a0,v1
  404c14:	00402821 	move	a1,v0
[31m  404c18:	8f82808c 	lw	v0,printf[0m
  404c1c:	00000000 	nop
  404c20:	0040c821 	move	t9,v0
  404c24:	0320f809 	jalr	t9
  404c28:	00000000 	nop
  404c2c:	8fdc0010 	lw	gp,16(s8)
  404c30:	3c028000 	lui	v0,0x8000
  404c34:	34425000 	ori	v0,v0,0x5000
  404c38:	afc20024 	sw	v0,36(s8)
  404c3c:	8fc20024 	lw	v0,36(s8)
  404c40:	24040090 	li	a0,144
  404c44:	00402821 	move	a1,v0
  404c48:	0c10059c 	jal	401670 <reg_write>
  404c4c:	00000000 	nop
  404c50:	8fdc0010 	lw	gp,16(s8)
  404c54:	3c020041 	lui	v0,0x41
  404c58:	244315f0 	addiu	v1,v0,5616
  404c5c:	8fc20024 	lw	v0,36(s8)
  404c60:	00602021 	move	a0,v1
  404c64:	00402821 	move	a1,v0
[31m  404c68:	8f82808c 	lw	v0,printf[0m
  404c6c:	00000000 	nop
  404c70:	0040c821 	move	t9,v0
--
  404d18:	8f828080 	lw	v0,-32640(gp)
  404d1c:	00000000 	nop
  404d20:	0040c821 	move	t9,v0
  404d24:	0320f809 	jalr	t9
  404d28:	00000000 	nop
  404d2c:	8fdc0010 	lw	gp,16(s8)
  404d30:	8fc20028 	lw	v0,40(s8)
  404d34:	00000000 	nop
  404d38:	3042ffff 	andi	v0,v0,0xffff
  404d3c:	afc20024 	sw	v0,36(s8)
  404d40:	8fc30024 	lw	v1,36(s8)
  404d44:	3c02ffff 	lui	v0,0xffff
  404d48:	00621025 	or	v0,v1,v0
  404d4c:	afc20024 	sw	v0,36(s8)
  404d50:	8fc20024 	lw	v0,36(s8)
  404d54:	24040094 	li	a0,148
  404d58:	00402821 	move	a1,v0
  404d5c:	0c10059c 	jal	401670 <reg_write>
  404d60:	00000000 	nop
  404d64:	8fdc0010 	lw	gp,16(s8)
  404d68:	3c020041 	lui	v0,0x41
  404d6c:	244315a8 	addiu	v1,v0,5544
  404d70:	8fc20024 	lw	v0,36(s8)
  404d74:	00602021 	move	a0,v1
  404d78:	00402821 	move	a1,v0
[31m  404d7c:	8f82808c 	lw	v0,printf[0m
  404d80:	00000000 	nop
  404d84:	0040c821 	move	t9,v0
--
  404d9c:	00021200 	sll	v0,v0,0x8
  404da0:	afc20024 	sw	v0,36(s8)
  404da4:	8fc30024 	lw	v1,36(s8)
  404da8:	3c020008 	lui	v0,0x8
  404dac:	00621025 	or	v0,v1,v0
  404db0:	afc20024 	sw	v0,36(s8)
  404db4:	8fc30024 	lw	v1,36(s8)
  404db8:	3c020002 	lui	v0,0x2
  404dbc:	00621025 	or	v0,v1,v0
  404dc0:	afc20024 	sw	v0,36(s8)
  404dc4:	8fc20024 	lw	v0,36(s8)
  404dc8:	00000000 	nop
  404dcc:	34420012 	ori	v0,v0,0x12
  404dd0:	afc20024 	sw	v0,36(s8)
  404dd4:	8fc20024 	lw	v0,36(s8)
  404dd8:	24040098 	li	a0,152
  404ddc:	00402821 	move	a1,v0
  404de0:	0c10059c 	jal	401670 <reg_write>
  404de4:	00000000 	nop
  404de8:	8fdc0010 	lw	gp,16(s8)
  404dec:	3c020041 	lui	v0,0x41
  404df0:	244315cc 	addiu	v1,v0,5580
  404df4:	8fc20024 	lw	v0,36(s8)
  404df8:	00602021 	move	a0,v1
  404dfc:	00402821 	move	a1,v0
[31m  404e00:	8f82808c 	lw	v0,printf[0m
  404e04:	00000000 	nop
  404e08:	0040c821 	move	t9,v0
  404e0c:	0320f809 	jalr	t9
  404e10:	00000000 	nop
  404e14:	8fdc0010 	lw	gp,16(s8)
  404e18:	3c028000 	lui	v0,0x8000
  404e1c:	34425001 	ori	v0,v0,0x5001
  404e20:	afc20024 	sw	v0,36(s8)
  404e24:	8fc20024 	lw	v0,36(s8)
  404e28:	24040090 	li	a0,144
  404e2c:	00402821 	move	a1,v0
  404e30:	0c10059c 	jal	401670 <reg_write>
  404e34:	00000000 	nop
  404e38:	8fdc0010 	lw	gp,16(s8)
  404e3c:	3c020041 	lui	v0,0x41
  404e40:	244315f0 	addiu	v1,v0,5616
  404e44:	8fc20024 	lw	v0,36(s8)
  404e48:	00602021 	move	a0,v1
  404e4c:	00402821 	move	a1,v0
[31m  404e50:	8f82808c 	lw	v0,printf[0m
  404e54:	00000000 	nop
  404e58:	0040c821 	move	t9,v0
--
  404ee8:	8fc30018 	lw	v1,24(s8)
  404eec:	24020014 	li	v0,20
  404ef0:	14620009 	bne	v1,v0,404f18 <acl_dip_pppoe+0x5d8>
  404ef4:	00000000 	nop
  404ef8:	3c020041 	lui	v0,0x41
  404efc:	24441614 	addiu	a0,v0,5652
  404f00:	8f828080 	lw	v0,-32640(gp)
  404f04:	00000000 	nop
  404f08:	0040c821 	move	t9,v0
  404f0c:	0320f809 	jalr	t9
  404f10:	00000000 	nop
  404f14:	8fdc0010 	lw	gp,16(s8)
  404f18:	24020003 	li	v0,3
  404f1c:	afc20024 	sw	v0,36(s8)
  404f20:	8fc20024 	lw	v0,36(s8)
  404f24:	24040094 	li	a0,148
  404f28:	00402821 	move	a1,v0
  404f2c:	0c10059c 	jal	401670 <reg_write>
  404f30:	00000000 	nop
  404f34:	8fdc0010 	lw	gp,16(s8)
  404f38:	3c020041 	lui	v0,0x41
  404f3c:	244315a8 	addiu	v1,v0,5544
  404f40:	8fc20024 	lw	v0,36(s8)
  404f44:	00602021 	move	a0,v1
  404f48:	00402821 	move	a1,v0
[31m  404f4c:	8f82808c 	lw	v0,printf[0m
  404f50:	00000000 	nop
  404f54:	0040c821 	move	t9,v0
  404f58:	0320f809 	jalr	t9
  404f5c:	00000000 	nop
  404f60:	8fdc0010 	lw	gp,16(s8)
  404f64:	afc00024 	sw	zero,36(s8)
  404f68:	8fc20024 	lw	v0,36(s8)
  404f6c:	24040098 	li	a0,152
  404f70:	00402821 	move	a1,v0
  404f74:	0c10059c 	jal	401670 <reg_write>
  404f78:	00000000 	nop
  404f7c:	8fdc0010 	lw	gp,16(s8)
  404f80:	3c020041 	lui	v0,0x41
  404f84:	244315cc 	addiu	v1,v0,5580
  404f88:	8fc20024 	lw	v0,36(s8)
  404f8c:	00602021 	move	a0,v1
  404f90:	00402821 	move	a1,v0
[31m  404f94:	8f82808c 	lw	v0,printf[0m
  404f98:	00000000 	nop
  404f9c:	0040c821 	move	t9,v0
  404fa0:	0320f809 	jalr	t9
  404fa4:	00000000 	nop
  404fa8:	8fdc0010 	lw	gp,16(s8)
  404fac:	3c028000 	lui	v0,0x8000
  404fb0:	34429007 	ori	v0,v0,0x9007
  404fb4:	afc20024 	sw	v0,36(s8)
  404fb8:	8fc20024 	lw	v0,36(s8)
  404fbc:	24040090 	li	a0,144
  404fc0:	00402821 	move	a1,v0
  404fc4:	0c10059c 	jal	401670 <reg_write>
  404fc8:	00000000 	nop
  404fcc:	8fdc0010 	lw	gp,16(s8)
  404fd0:	3c020041 	lui	v0,0x41
  404fd4:	244315f0 	addiu	v1,v0,5616
  404fd8:	8fc20024 	lw	v0,36(s8)
  404fdc:	00602021 	move	a0,v1
  404fe0:	00402821 	move	a1,v0
[31m  404fe4:	8f82808c 	lw	v0,printf[0m
  404fe8:	00000000 	nop
  404fec:	0040c821 	move	t9,v0
--
  4050c8:	00621025 	or	v0,v1,v0
  4050cc:	afc20024 	sw	v0,36(s8)
  4050d0:	8fc30024 	lw	v1,36(s8)
  4050d4:	3c020010 	lui	v0,0x10
  4050d8:	00621025 	or	v0,v1,v0
  4050dc:	afc20024 	sw	v0,36(s8)
  4050e0:	8fc30024 	lw	v1,36(s8)
  4050e4:	3c020020 	lui	v0,0x20
  4050e8:	00621025 	or	v0,v1,v0
  4050ec:	afc20024 	sw	v0,36(s8)
  4050f0:	8fc30024 	lw	v1,36(s8)
  4050f4:	3c020040 	lui	v0,0x40
  4050f8:	00621025 	or	v0,v1,v0
  4050fc:	afc20024 	sw	v0,36(s8)
  405100:	8fc20024 	lw	v0,36(s8)
  405104:	24040094 	li	a0,148
  405108:	00402821 	move	a1,v0
  40510c:	0c10059c 	jal	401670 <reg_write>
  405110:	00000000 	nop
  405114:	8fdc0010 	lw	gp,16(s8)
  405118:	3c020041 	lui	v0,0x41
  40511c:	244315a8 	addiu	v1,v0,5544
  405120:	8fc20024 	lw	v0,36(s8)
  405124:	00602021 	move	a0,v1
  405128:	00402821 	move	a1,v0
[31m  40512c:	8f82808c 	lw	v0,printf[0m
  405130:	00000000 	nop
  405134:	0040c821 	move	t9,v0
  405138:	0320f809 	jalr	t9
  40513c:	00000000 	nop
  405140:	8fdc0010 	lw	gp,16(s8)
  405144:	afc00024 	sw	zero,36(s8)
  405148:	8fc20024 	lw	v0,36(s8)
  40514c:	24040098 	li	a0,152
  405150:	00402821 	move	a1,v0
  405154:	0c10059c 	jal	401670 <reg_write>
  405158:	00000000 	nop
  40515c:	8fdc0010 	lw	gp,16(s8)
  405160:	3c020041 	lui	v0,0x41
  405164:	244315cc 	addiu	v1,v0,5580
  405168:	8fc20024 	lw	v0,36(s8)
  40516c:	00602021 	move	a0,v1
  405170:	00402821 	move	a1,v0
[31m  405174:	8f82808c 	lw	v0,printf[0m
  405178:	00000000 	nop
  40517c:	0040c821 	move	t9,v0
  405180:	0320f809 	jalr	t9
  405184:	00000000 	nop
  405188:	8fdc0010 	lw	gp,16(s8)
  40518c:	3c028000 	lui	v0,0x8000
  405190:	3442b007 	ori	v0,v0,0xb007
  405194:	afc20024 	sw	v0,36(s8)
  405198:	8fc20024 	lw	v0,36(s8)
  40519c:	24040090 	li	a0,144
  4051a0:	00402821 	move	a1,v0
  4051a4:	0c10059c 	jal	401670 <reg_write>
  4051a8:	00000000 	nop
  4051ac:	8fdc0010 	lw	gp,16(s8)
  4051b0:	3c020041 	lui	v0,0x41
  4051b4:	244315f0 	addiu	v1,v0,5616
  4051b8:	8fc20024 	lw	v0,36(s8)
  4051bc:	00602021 	move	a0,v1
  4051c0:	00402821 	move	a1,v0
[31m  4051c4:	8f82808c 	lw	v0,printf[0m
  4051c8:	00000000 	nop
  4051cc:	0040c821 	move	t9,v0
--
  405494:	27c30028 	addiu	v1,s8,40
  405498:	00602021 	move	a0,v1
  40549c:	00402821 	move	a1,v0
  4054a0:	0c100823 	jal	40208c <str_to_ip>
  4054a4:	00000000 	nop
  4054a8:	8fdc0010 	lw	gp,16(s8)
  4054ac:	8fc20028 	lw	v0,40(s8)
  4054b0:	00000000 	nop
  4054b4:	00021402 	srl	v0,v0,0x10
  4054b8:	afc20024 	sw	v0,36(s8)
  4054bc:	8fc30024 	lw	v1,36(s8)
  4054c0:	3c02ffff 	lui	v0,0xffff
  4054c4:	00621025 	or	v0,v1,v0
  4054c8:	afc20024 	sw	v0,36(s8)
  4054cc:	8fc20024 	lw	v0,36(s8)
  4054d0:	24040094 	li	a0,148
  4054d4:	00402821 	move	a1,v0
  4054d8:	0c10059c 	jal	401670 <reg_write>
  4054dc:	00000000 	nop
  4054e0:	8fdc0010 	lw	gp,16(s8)
  4054e4:	3c020041 	lui	v0,0x41
  4054e8:	244315a8 	addiu	v1,v0,5544
  4054ec:	8fc20024 	lw	v0,36(s8)
  4054f0:	00602021 	move	a0,v1
  4054f4:	00402821 	move	a1,v0
[31m  4054f8:	8f82808c 	lw	v0,printf[0m
  4054fc:	00000000 	nop
  405500:	0040c821 	move	t9,v0
--
  405518:	00021200 	sll	v0,v0,0x8
  40551c:	afc20024 	sw	v0,36(s8)
  405520:	8fc30024 	lw	v1,36(s8)
  405524:	3c020008 	lui	v0,0x8
  405528:	00621025 	or	v0,v1,v0
  40552c:	afc20024 	sw	v0,36(s8)
  405530:	8fc30024 	lw	v1,36(s8)
  405534:	3c020002 	lui	v0,0x2
  405538:	00621025 	or	v0,v1,v0
  40553c:	afc20024 	sw	v0,36(s8)
  405540:	8fc20024 	lw	v0,36(s8)
  405544:	00000000 	nop
  405548:	34420010 	ori	v0,v0,0x10
  40554c:	afc20024 	sw	v0,36(s8)
  405550:	8fc20024 	lw	v0,36(s8)
  405554:	24040098 	li	a0,152
  405558:	00402821 	move	a1,v0
  40555c:	0c10059c 	jal	401670 <reg_write>
  405560:	00000000 	nop
  405564:	8fdc0010 	lw	gp,16(s8)
  405568:	3c020041 	lui	v0,0x41
  40556c:	244315cc 	addiu	v1,v0,5580
  405570:	8fc20024 	lw	v0,36(s8)
  405574:	00602021 	move	a0,v1
  405578:	00402821 	move	a1,v0
[31m  40557c:	8f82808c 	lw	v0,printf[0m
  405580:	00000000 	nop
  405584:	0040c821 	move	t9,v0
  405588:	0320f809 	jalr	t9
  40558c:	00000000 	nop
  405590:	8fdc0010 	lw	gp,16(s8)
  405594:	3c028000 	lui	v0,0x8000
  405598:	34425000 	ori	v0,v0,0x5000
  40559c:	afc20024 	sw	v0,36(s8)
  4055a0:	8fc20024 	lw	v0,36(s8)
  4055a4:	24040090 	li	a0,144
  4055a8:	00402821 	move	a1,v0
  4055ac:	0c10059c 	jal	401670 <reg_write>
  4055b0:	00000000 	nop
  4055b4:	8fdc0010 	lw	gp,16(s8)
  4055b8:	3c020041 	lui	v0,0x41
  4055bc:	244315f0 	addiu	v1,v0,5616
  4055c0:	8fc20024 	lw	v0,36(s8)
  4055c4:	00602021 	move	a0,v1
  4055c8:	00402821 	move	a1,v0
[31m  4055cc:	8f82808c 	lw	v0,printf[0m
  4055d0:	00000000 	nop
  4055d4:	0040c821 	move	t9,v0
--
  40567c:	8f828080 	lw	v0,-32640(gp)
  405680:	00000000 	nop
  405684:	0040c821 	move	t9,v0
  405688:	0320f809 	jalr	t9
  40568c:	00000000 	nop
  405690:	8fdc0010 	lw	gp,16(s8)
  405694:	8fc20028 	lw	v0,40(s8)
  405698:	00000000 	nop
  40569c:	3042ffff 	andi	v0,v0,0xffff
  4056a0:	afc20024 	sw	v0,36(s8)
  4056a4:	8fc30024 	lw	v1,36(s8)
  4056a8:	3c02ffff 	lui	v0,0xffff
  4056ac:	00621025 	or	v0,v1,v0
  4056b0:	afc20024 	sw	v0,36(s8)
  4056b4:	8fc20024 	lw	v0,36(s8)
  4056b8:	24040094 	li	a0,148
  4056bc:	00402821 	move	a1,v0
  4056c0:	0c10059c 	jal	401670 <reg_write>
  4056c4:	00000000 	nop
  4056c8:	8fdc0010 	lw	gp,16(s8)
  4056cc:	3c020041 	lui	v0,0x41
  4056d0:	244315a8 	addiu	v1,v0,5544
  4056d4:	8fc20024 	lw	v0,36(s8)
  4056d8:	00602021 	move	a0,v1
  4056dc:	00402821 	move	a1,v0
[31m  4056e0:	8f82808c 	lw	v0,printf[0m
  4056e4:	00000000 	nop
  4056e8:	0040c821 	move	t9,v0
--
  405700:	00021200 	sll	v0,v0,0x8
  405704:	afc20024 	sw	v0,36(s8)
  405708:	8fc30024 	lw	v1,36(s8)
  40570c:	3c020008 	lui	v0,0x8
  405710:	00621025 	or	v0,v1,v0
  405714:	afc20024 	sw	v0,36(s8)
  405718:	8fc30024 	lw	v1,36(s8)
  40571c:	3c020002 	lui	v0,0x2
  405720:	00621025 	or	v0,v1,v0
  405724:	afc20024 	sw	v0,36(s8)
  405728:	8fc20024 	lw	v0,36(s8)
  40572c:	00000000 	nop
  405730:	34420012 	ori	v0,v0,0x12
  405734:	afc20024 	sw	v0,36(s8)
  405738:	8fc20024 	lw	v0,36(s8)
  40573c:	24040098 	li	a0,152
  405740:	00402821 	move	a1,v0
  405744:	0c10059c 	jal	401670 <reg_write>
  405748:	00000000 	nop
  40574c:	8fdc0010 	lw	gp,16(s8)
  405750:	3c020041 	lui	v0,0x41
  405754:	244315cc 	addiu	v1,v0,5580
  405758:	8fc20024 	lw	v0,36(s8)
  40575c:	00602021 	move	a0,v1
  405760:	00402821 	move	a1,v0
[31m  405764:	8f82808c 	lw	v0,printf[0m
  405768:	00000000 	nop
  40576c:	0040c821 	move	t9,v0
  405770:	0320f809 	jalr	t9
  405774:	00000000 	nop
  405778:	8fdc0010 	lw	gp,16(s8)
  40577c:	3c028000 	lui	v0,0x8000
  405780:	34425001 	ori	v0,v0,0x5001
  405784:	afc20024 	sw	v0,36(s8)
  405788:	8fc20024 	lw	v0,36(s8)
  40578c:	24040090 	li	a0,144
  405790:	00402821 	move	a1,v0
  405794:	0c10059c 	jal	401670 <reg_write>
  405798:	00000000 	nop
  40579c:	8fdc0010 	lw	gp,16(s8)
  4057a0:	3c020041 	lui	v0,0x41
  4057a4:	244315f0 	addiu	v1,v0,5616
  4057a8:	8fc20024 	lw	v0,36(s8)
  4057ac:	00602021 	move	a0,v1
  4057b0:	00402821 	move	a1,v0
[31m  4057b4:	8f82808c 	lw	v0,printf[0m
  4057b8:	00000000 	nop
  4057bc:	0040c821 	move	t9,v0
--
  40584c:	8fc30018 	lw	v1,24(s8)
  405850:	24020014 	li	v0,20
  405854:	14620009 	bne	v1,v0,40587c <acl_dip_add+0x5d8>
  405858:	00000000 	nop
  40585c:	3c020041 	lui	v0,0x41
  405860:	24441614 	addiu	a0,v0,5652
  405864:	8f828080 	lw	v0,-32640(gp)
  405868:	00000000 	nop
  40586c:	0040c821 	move	t9,v0
  405870:	0320f809 	jalr	t9
  405874:	00000000 	nop
  405878:	8fdc0010 	lw	gp,16(s8)
  40587c:	24020003 	li	v0,3
  405880:	afc20024 	sw	v0,36(s8)
  405884:	8fc20024 	lw	v0,36(s8)
  405888:	24040094 	li	a0,148
  40588c:	00402821 	move	a1,v0
  405890:	0c10059c 	jal	401670 <reg_write>
  405894:	00000000 	nop
  405898:	8fdc0010 	lw	gp,16(s8)
  40589c:	3c020041 	lui	v0,0x41
  4058a0:	244315a8 	addiu	v1,v0,5544
  4058a4:	8fc20024 	lw	v0,36(s8)
  4058a8:	00602021 	move	a0,v1
  4058ac:	00402821 	move	a1,v0
[31m  4058b0:	8f82808c 	lw	v0,printf[0m
  4058b4:	00000000 	nop
  4058b8:	0040c821 	move	t9,v0
  4058bc:	0320f809 	jalr	t9
  4058c0:	00000000 	nop
  4058c4:	8fdc0010 	lw	gp,16(s8)
  4058c8:	afc00024 	sw	zero,36(s8)
  4058cc:	8fc20024 	lw	v0,36(s8)
  4058d0:	24040098 	li	a0,152
  4058d4:	00402821 	move	a1,v0
  4058d8:	0c10059c 	jal	401670 <reg_write>
  4058dc:	00000000 	nop
  4058e0:	8fdc0010 	lw	gp,16(s8)
  4058e4:	3c020041 	lui	v0,0x41
  4058e8:	244315cc 	addiu	v1,v0,5580
  4058ec:	8fc20024 	lw	v0,36(s8)
  4058f0:	00602021 	move	a0,v1
  4058f4:	00402821 	move	a1,v0
[31m  4058f8:	8f82808c 	lw	v0,printf[0m
  4058fc:	00000000 	nop
  405900:	0040c821 	move	t9,v0
  405904:	0320f809 	jalr	t9
  405908:	00000000 	nop
  40590c:	8fdc0010 	lw	gp,16(s8)
  405910:	3c028000 	lui	v0,0x8000
  405914:	34429000 	ori	v0,v0,0x9000
  405918:	afc20024 	sw	v0,36(s8)
  40591c:	8fc20024 	lw	v0,36(s8)
  405920:	24040090 	li	a0,144
  405924:	00402821 	move	a1,v0
  405928:	0c10059c 	jal	401670 <reg_write>
  40592c:	00000000 	nop
  405930:	8fdc0010 	lw	gp,16(s8)
  405934:	3c020041 	lui	v0,0x41
  405938:	244315f0 	addiu	v1,v0,5616
  40593c:	8fc20024 	lw	v0,36(s8)
  405940:	00602021 	move	a0,v1
  405944:	00402821 	move	a1,v0
[31m  405948:	8f82808c 	lw	v0,printf[0m
  40594c:	00000000 	nop
  405950:	0040c821 	move	t9,v0
--
  405a10:	24020007 	li	v0,7
  405a14:	afc20024 	sw	v0,36(s8)
  405a18:	8fc30024 	lw	v1,36(s8)
  405a1c:	3c021000 	lui	v0,0x1000
  405a20:	00621025 	or	v0,v1,v0
  405a24:	afc20024 	sw	v0,36(s8)
  405a28:	8fc30024 	lw	v1,36(s8)
  405a2c:	3c020800 	lui	v0,0x800
  405a30:	00621025 	or	v0,v1,v0
  405a34:	afc20024 	sw	v0,36(s8)
  405a38:	8fc30024 	lw	v1,36(s8)
  405a3c:	3c020200 	lui	v0,0x200
  405a40:	00621025 	or	v0,v1,v0
  405a44:	afc20024 	sw	v0,36(s8)
  405a48:	8fc20024 	lw	v0,36(s8)
  405a4c:	24040094 	li	a0,148
  405a50:	00402821 	move	a1,v0
  405a54:	0c10059c 	jal	401670 <reg_write>
  405a58:	00000000 	nop
  405a5c:	8fdc0010 	lw	gp,16(s8)
  405a60:	3c020041 	lui	v0,0x41
  405a64:	244315a8 	addiu	v1,v0,5544
  405a68:	8fc20024 	lw	v0,36(s8)
  405a6c:	00602021 	move	a0,v1
  405a70:	00402821 	move	a1,v0
[31m  405a74:	8f82808c 	lw	v0,printf[0m
  405a78:	00000000 	nop
  405a7c:	0040c821 	move	t9,v0
  405a80:	0320f809 	jalr	t9
  405a84:	00000000 	nop
  405a88:	8fdc0010 	lw	gp,16(s8)
  405a8c:	afc00024 	sw	zero,36(s8)
  405a90:	8fc20024 	lw	v0,36(s8)
  405a94:	24040098 	li	a0,152
  405a98:	00402821 	move	a1,v0
  405a9c:	0c10059c 	jal	401670 <reg_write>
  405aa0:	00000000 	nop
  405aa4:	8fdc0010 	lw	gp,16(s8)
  405aa8:	3c020041 	lui	v0,0x41
  405aac:	244315cc 	addiu	v1,v0,5580
  405ab0:	8fc20024 	lw	v0,36(s8)
  405ab4:	00602021 	move	a0,v1
  405ab8:	00402821 	move	a1,v0
[31m  405abc:	8f82808c 	lw	v0,printf[0m
  405ac0:	00000000 	nop
  405ac4:	0040c821 	move	t9,v0
  405ac8:	0320f809 	jalr	t9
  405acc:	00000000 	nop
  405ad0:	8fdc0010 	lw	gp,16(s8)
  405ad4:	3c028000 	lui	v0,0x8000
  405ad8:	3442b000 	ori	v0,v0,0xb000
  405adc:	afc20024 	sw	v0,36(s8)
  405ae0:	8fc20024 	lw	v0,36(s8)
  405ae4:	24040090 	li	a0,144
  405ae8:	00402821 	move	a1,v0
  405aec:	0c10059c 	jal	401670 <reg_write>
  405af0:	00000000 	nop
  405af4:	8fdc0010 	lw	gp,16(s8)
  405af8:	3c020041 	lui	v0,0x41
  405afc:	244315f0 	addiu	v1,v0,5616
  405b00:	8fc20024 	lw	v0,36(s8)
  405b04:	00602021 	move	a0,v1
  405b08:	00402821 	move	a1,v0
[31m  405b0c:	8f82808c 	lw	v0,printf[0m
  405b10:	00000000 	nop
  405b14:	0040c821 	move	t9,v0
--
  405de0:	00402021 	move	a0,v0
  405de4:	00002821 	move	a1,zero
  405de8:	24060010 	li	a2,16
  405dec:	8f828078 	lw	v0,-32648(gp)
  405df0:	00000000 	nop
  405df4:	0040c821 	move	t9,v0
  405df8:	0320f809 	jalr	t9
  405dfc:	00000000 	nop
  405e00:	8fdc0010 	lw	gp,16(s8)
  405e04:	afc20024 	sw	v0,36(s8)
  405e08:	8fc30024 	lw	v1,36(s8)
  405e0c:	3c02ffff 	lui	v0,0xffff
  405e10:	00621025 	or	v0,v1,v0
  405e14:	afc20024 	sw	v0,36(s8)
  405e18:	8fc20024 	lw	v0,36(s8)
  405e1c:	24040094 	li	a0,148
  405e20:	00402821 	move	a1,v0
  405e24:	0c10059c 	jal	401670 <reg_write>
  405e28:	00000000 	nop
  405e2c:	8fdc0010 	lw	gp,16(s8)
  405e30:	3c020041 	lui	v0,0x41
  405e34:	244315a8 	addiu	v1,v0,5544
  405e38:	8fc20024 	lw	v0,36(s8)
  405e3c:	00602021 	move	a0,v1
  405e40:	00402821 	move	a1,v0
[31m  405e44:	8f82808c 	lw	v0,printf[0m
  405e48:	00000000 	nop
  405e4c:	0040c821 	move	t9,v0
--
  405e60:	00000000 	nop
  405e64:	00021200 	sll	v0,v0,0x8
  405e68:	afc20024 	sw	v0,36(s8)
  405e6c:	8fc30024 	lw	v1,36(s8)
  405e70:	3c020008 	lui	v0,0x8
  405e74:	00621025 	or	v0,v1,v0
  405e78:	afc20024 	sw	v0,36(s8)
  405e7c:	8fc30024 	lw	v1,36(s8)
  405e80:	3c020005 	lui	v0,0x5
  405e84:	00621025 	or	v0,v1,v0
  405e88:	afc20024 	sw	v0,36(s8)
  405e8c:	8fc20024 	lw	v0,36(s8)
  405e90:	00000000 	nop
  405e94:	afc20024 	sw	v0,36(s8)
  405e98:	8fc20024 	lw	v0,36(s8)
  405e9c:	24040098 	li	a0,152
  405ea0:	00402821 	move	a1,v0
  405ea4:	0c10059c 	jal	401670 <reg_write>
  405ea8:	00000000 	nop
  405eac:	8fdc0010 	lw	gp,16(s8)
  405eb0:	3c020041 	lui	v0,0x41
  405eb4:	244315cc 	addiu	v1,v0,5580
  405eb8:	8fc20024 	lw	v0,36(s8)
  405ebc:	00602021 	move	a0,v1
  405ec0:	00402821 	move	a1,v0
[31m  405ec4:	8f82808c 	lw	v0,printf[0m
  405ec8:	00000000 	nop
  405ecc:	0040c821 	move	t9,v0
  405ed0:	0320f809 	jalr	t9
  405ed4:	00000000 	nop
  405ed8:	8fdc0010 	lw	gp,16(s8)
  405edc:	3c028000 	lui	v0,0x8000
  405ee0:	34425000 	ori	v0,v0,0x5000
  405ee4:	afc20024 	sw	v0,36(s8)
  405ee8:	8fc20024 	lw	v0,36(s8)
  405eec:	24040090 	li	a0,144
  405ef0:	00402821 	move	a1,v0
  405ef4:	0c10059c 	jal	401670 <reg_write>
  405ef8:	00000000 	nop
  405efc:	8fdc0010 	lw	gp,16(s8)
  405f00:	3c020041 	lui	v0,0x41
  405f04:	244315f0 	addiu	v1,v0,5616
  405f08:	8fc20024 	lw	v0,36(s8)
  405f0c:	00602021 	move	a0,v1
  405f10:	00402821 	move	a1,v0
[31m  405f14:	8f82808c 	lw	v0,printf[0m
  405f18:	00000000 	nop
  405f1c:	0040c821 	move	t9,v0
--
  405fac:	8fc30018 	lw	v1,24(s8)
  405fb0:	24020014 	li	v0,20
  405fb4:	14620009 	bne	v1,v0,405fdc <acl_l4_add+0x3f0>
  405fb8:	00000000 	nop
  405fbc:	3c020041 	lui	v0,0x41
  405fc0:	24441614 	addiu	a0,v0,5652
  405fc4:	8f828080 	lw	v0,-32640(gp)
  405fc8:	00000000 	nop
  405fcc:	0040c821 	move	t9,v0
  405fd0:	0320f809 	jalr	t9
  405fd4:	00000000 	nop
  405fd8:	8fdc0010 	lw	gp,16(s8)
  405fdc:	24020001 	li	v0,1
  405fe0:	afc20024 	sw	v0,36(s8)
  405fe4:	8fc20024 	lw	v0,36(s8)
  405fe8:	24040094 	li	a0,148
  405fec:	00402821 	move	a1,v0
  405ff0:	0c10059c 	jal	401670 <reg_write>
  405ff4:	00000000 	nop
  405ff8:	8fdc0010 	lw	gp,16(s8)
  405ffc:	3c020041 	lui	v0,0x41
  406000:	244315a8 	addiu	v1,v0,5544
  406004:	8fc20024 	lw	v0,36(s8)
  406008:	00602021 	move	a0,v1
  40600c:	00402821 	move	a1,v0
[31m  406010:	8f82808c 	lw	v0,printf[0m
  406014:	00000000 	nop
  406018:	0040c821 	move	t9,v0
  40601c:	0320f809 	jalr	t9
  406020:	00000000 	nop
  406024:	8fdc0010 	lw	gp,16(s8)
  406028:	afc00024 	sw	zero,36(s8)
  40602c:	8fc20024 	lw	v0,36(s8)
  406030:	24040098 	li	a0,152
  406034:	00402821 	move	a1,v0
  406038:	0c10059c 	jal	401670 <reg_write>
  40603c:	00000000 	nop
  406040:	8fdc0010 	lw	gp,16(s8)
  406044:	3c020041 	lui	v0,0x41
  406048:	244315cc 	addiu	v1,v0,5580
  40604c:	8fc20024 	lw	v0,36(s8)
  406050:	00602021 	move	a0,v1
  406054:	00402821 	move	a1,v0
[31m  406058:	8f82808c 	lw	v0,printf[0m
  40605c:	00000000 	nop
  406060:	0040c821 	move	t9,v0
  406064:	0320f809 	jalr	t9
  406068:	00000000 	nop
  40606c:	8fdc0010 	lw	gp,16(s8)
  406070:	3c028000 	lui	v0,0x8000
  406074:	34429000 	ori	v0,v0,0x9000
  406078:	afc20024 	sw	v0,36(s8)
  40607c:	8fc20024 	lw	v0,36(s8)
  406080:	24040090 	li	a0,144
  406084:	00402821 	move	a1,v0
  406088:	0c10059c 	jal	401670 <reg_write>
  40608c:	00000000 	nop
  406090:	8fdc0010 	lw	gp,16(s8)
  406094:	3c020041 	lui	v0,0x41
  406098:	244315f0 	addiu	v1,v0,5616
  40609c:	8fc20024 	lw	v0,36(s8)
  4060a0:	00602021 	move	a0,v1
  4060a4:	00402821 	move	a1,v0
[31m  4060a8:	8f82808c 	lw	v0,printf[0m
  4060ac:	00000000 	nop
  4060b0:	0040c821 	move	t9,v0
--
  406140:	8fc30018 	lw	v1,24(s8)
  406144:	24020014 	li	v0,20
  406148:	14620009 	bne	v1,v0,406170 <acl_l4_add+0x584>
  40614c:	00000000 	nop
  406150:	3c020041 	lui	v0,0x41
  406154:	24441614 	addiu	a0,v0,5652
  406158:	8f828080 	lw	v0,-32640(gp)
  40615c:	00000000 	nop
  406160:	0040c821 	move	t9,v0
  406164:	0320f809 	jalr	t9
  406168:	00000000 	nop
  40616c:	8fdc0010 	lw	gp,16(s8)
  406170:	24020007 	li	v0,7
  406174:	afc20024 	sw	v0,36(s8)
  406178:	8fc20024 	lw	v0,36(s8)
  40617c:	24040094 	li	a0,148
  406180:	00402821 	move	a1,v0
  406184:	0c10059c 	jal	401670 <reg_write>
  406188:	00000000 	nop
  40618c:	8fdc0010 	lw	gp,16(s8)
  406190:	3c020041 	lui	v0,0x41
  406194:	244315a8 	addiu	v1,v0,5544
  406198:	8fc20024 	lw	v0,36(s8)
  40619c:	00602021 	move	a0,v1
  4061a0:	00402821 	move	a1,v0
[31m  4061a4:	8f82808c 	lw	v0,printf[0m
  4061a8:	00000000 	nop
  4061ac:	0040c821 	move	t9,v0
  4061b0:	0320f809 	jalr	t9
  4061b4:	00000000 	nop
  4061b8:	8fdc0010 	lw	gp,16(s8)
  4061bc:	afc00024 	sw	zero,36(s8)
  4061c0:	8fc20024 	lw	v0,36(s8)
  4061c4:	24040098 	li	a0,152
  4061c8:	00402821 	move	a1,v0
  4061cc:	0c10059c 	jal	401670 <reg_write>
  4061d0:	00000000 	nop
  4061d4:	8fdc0010 	lw	gp,16(s8)
  4061d8:	3c020041 	lui	v0,0x41
  4061dc:	244315cc 	addiu	v1,v0,5580
  4061e0:	8fc20024 	lw	v0,36(s8)
  4061e4:	00602021 	move	a0,v1
  4061e8:	00402821 	move	a1,v0
[31m  4061ec:	8f82808c 	lw	v0,printf[0m
  4061f0:	00000000 	nop
  4061f4:	0040c821 	move	t9,v0
  4061f8:	0320f809 	jalr	t9
  4061fc:	00000000 	nop
  406200:	8fdc0010 	lw	gp,16(s8)
  406204:	3c028000 	lui	v0,0x8000
  406208:	3442b000 	ori	v0,v0,0xb000
  40620c:	afc20024 	sw	v0,36(s8)
  406210:	8fc20024 	lw	v0,36(s8)
  406214:	24040090 	li	a0,144
  406218:	00402821 	move	a1,v0
  40621c:	0c10059c 	jal	401670 <reg_write>
  406220:	00000000 	nop
  406224:	8fdc0010 	lw	gp,16(s8)
  406228:	3c020041 	lui	v0,0x41
  40622c:	244315f0 	addiu	v1,v0,5616
  406230:	8fc20024 	lw	v0,36(s8)
  406234:	00602021 	move	a0,v1
  406238:	00402821 	move	a1,v0
[31m  40623c:	8f82808c 	lw	v0,printf[0m
  406240:	00000000 	nop
  406244:	0040c821 	move	t9,v0
--
  406510:	00402021 	move	a0,v0
  406514:	00002821 	move	a1,zero
  406518:	00003021 	move	a2,zero
  40651c:	8f828078 	lw	v0,-32648(gp)
  406520:	00000000 	nop
  406524:	0040c821 	move	t9,v0
  406528:	0320f809 	jalr	t9
  40652c:	00000000 	nop
  406530:	8fdc0010 	lw	gp,16(s8)
  406534:	afc20024 	sw	v0,36(s8)
  406538:	8fc30024 	lw	v1,36(s8)
  40653c:	3c02ffff 	lui	v0,0xffff
  406540:	00621025 	or	v0,v1,v0
  406544:	afc20024 	sw	v0,36(s8)
  406548:	8fc20024 	lw	v0,36(s8)
  40654c:	24040094 	li	a0,148
  406550:	00402821 	move	a1,v0
  406554:	0c10059c 	jal	401670 <reg_write>
  406558:	00000000 	nop
  40655c:	8fdc0010 	lw	gp,16(s8)
  406560:	3c020041 	lui	v0,0x41
  406564:	244315a8 	addiu	v1,v0,5544
  406568:	8fc20024 	lw	v0,36(s8)
  40656c:	00602021 	move	a0,v1
  406570:	00402821 	move	a1,v0
[31m  406574:	8f82808c 	lw	v0,printf[0m
  406578:	00000000 	nop
  40657c:	0040c821 	move	t9,v0
--
  406590:	00000000 	nop
  406594:	00021200 	sll	v0,v0,0x8
  406598:	afc20024 	sw	v0,36(s8)
  40659c:	8fc30024 	lw	v1,36(s8)
  4065a0:	3c020008 	lui	v0,0x8
  4065a4:	00621025 	or	v0,v1,v0
  4065a8:	afc20024 	sw	v0,36(s8)
  4065ac:	8fc30024 	lw	v1,36(s8)
  4065b0:	3c020004 	lui	v0,0x4
  4065b4:	00621025 	or	v0,v1,v0
  4065b8:	afc20024 	sw	v0,36(s8)
  4065bc:	8fc20024 	lw	v0,36(s8)
  4065c0:	00000000 	nop
  4065c4:	afc20024 	sw	v0,36(s8)
  4065c8:	8fc20024 	lw	v0,36(s8)
  4065cc:	24040098 	li	a0,152
  4065d0:	00402821 	move	a1,v0
  4065d4:	0c10059c 	jal	401670 <reg_write>
  4065d8:	00000000 	nop
  4065dc:	8fdc0010 	lw	gp,16(s8)
  4065e0:	3c020041 	lui	v0,0x41
  4065e4:	244315cc 	addiu	v1,v0,5580
  4065e8:	8fc20024 	lw	v0,36(s8)
  4065ec:	00602021 	move	a0,v1
  4065f0:	00402821 	move	a1,v0
[31m  4065f4:	8f82808c 	lw	v0,printf[0m
  4065f8:	00000000 	nop
  4065fc:	0040c821 	move	t9,v0
  406600:	0320f809 	jalr	t9
  406604:	00000000 	nop
  406608:	8fdc0010 	lw	gp,16(s8)
  40660c:	3c028000 	lui	v0,0x8000
  406610:	34425000 	ori	v0,v0,0x5000
  406614:	afc20024 	sw	v0,36(s8)
  406618:	8fc20024 	lw	v0,36(s8)
  40661c:	24040090 	li	a0,144
  406620:	00402821 	move	a1,v0
  406624:	0c10059c 	jal	401670 <reg_write>
  406628:	00000000 	nop
  40662c:	8fdc0010 	lw	gp,16(s8)
  406630:	3c020041 	lui	v0,0x41
  406634:	244315f0 	addiu	v1,v0,5616
  406638:	8fc20024 	lw	v0,36(s8)
  40663c:	00602021 	move	a0,v1
  406640:	00402821 	move	a1,v0
[31m  406644:	8f82808c 	lw	v0,printf[0m
  406648:	00000000 	nop
  40664c:	0040c821 	move	t9,v0
--
  4066dc:	8fc30018 	lw	v1,24(s8)
  4066e0:	24020014 	li	v0,20
  4066e4:	14620009 	bne	v1,v0,40670c <acl_sp_add+0x3f0>
  4066e8:	00000000 	nop
  4066ec:	3c020041 	lui	v0,0x41
  4066f0:	24441614 	addiu	a0,v0,5652
  4066f4:	8f828080 	lw	v0,-32640(gp)
  4066f8:	00000000 	nop
  4066fc:	0040c821 	move	t9,v0
  406700:	0320f809 	jalr	t9
  406704:	00000000 	nop
  406708:	8fdc0010 	lw	gp,16(s8)
  40670c:	24020001 	li	v0,1
  406710:	afc20024 	sw	v0,36(s8)
  406714:	8fc20024 	lw	v0,36(s8)
  406718:	24040094 	li	a0,148
  40671c:	00402821 	move	a1,v0
  406720:	0c10059c 	jal	401670 <reg_write>
  406724:	00000000 	nop
  406728:	8fdc0010 	lw	gp,16(s8)
  40672c:	3c020041 	lui	v0,0x41
  406730:	244315a8 	addiu	v1,v0,5544
  406734:	8fc20024 	lw	v0,36(s8)
  406738:	00602021 	move	a0,v1
  40673c:	00402821 	move	a1,v0
[31m  406740:	8f82808c 	lw	v0,printf[0m
  406744:	00000000 	nop
  406748:	0040c821 	move	t9,v0
  40674c:	0320f809 	jalr	t9
  406750:	00000000 	nop
  406754:	8fdc0010 	lw	gp,16(s8)
  406758:	afc00024 	sw	zero,36(s8)
  40675c:	8fc20024 	lw	v0,36(s8)
  406760:	24040098 	li	a0,152
  406764:	00402821 	move	a1,v0
  406768:	0c10059c 	jal	401670 <reg_write>
  40676c:	00000000 	nop
  406770:	8fdc0010 	lw	gp,16(s8)
  406774:	3c020041 	lui	v0,0x41
  406778:	244315cc 	addiu	v1,v0,5580
  40677c:	8fc20024 	lw	v0,36(s8)
  406780:	00602021 	move	a0,v1
  406784:	00402821 	move	a1,v0
[31m  406788:	8f82808c 	lw	v0,printf[0m
  40678c:	00000000 	nop
  406790:	0040c821 	move	t9,v0
  406794:	0320f809 	jalr	t9
  406798:	00000000 	nop
  40679c:	8fdc0010 	lw	gp,16(s8)
  4067a0:	3c028000 	lui	v0,0x8000
  4067a4:	34429000 	ori	v0,v0,0x9000
  4067a8:	afc20024 	sw	v0,36(s8)
  4067ac:	8fc20024 	lw	v0,36(s8)
  4067b0:	24040090 	li	a0,144
  4067b4:	00402821 	move	a1,v0
  4067b8:	0c10059c 	jal	401670 <reg_write>
  4067bc:	00000000 	nop
  4067c0:	8fdc0010 	lw	gp,16(s8)
  4067c4:	3c020041 	lui	v0,0x41
  4067c8:	244315f0 	addiu	v1,v0,5616
  4067cc:	8fc20024 	lw	v0,36(s8)
  4067d0:	00602021 	move	a0,v1
  4067d4:	00402821 	move	a1,v0
[31m  4067d8:	8f82808c 	lw	v0,printf[0m
  4067dc:	00000000 	nop
  4067e0:	0040c821 	move	t9,v0
--
  406870:	8fc30018 	lw	v1,24(s8)
  406874:	24020014 	li	v0,20
  406878:	14620009 	bne	v1,v0,4068a0 <acl_sp_add+0x584>
  40687c:	00000000 	nop
  406880:	3c020041 	lui	v0,0x41
  406884:	24441614 	addiu	a0,v0,5652
  406888:	8f828080 	lw	v0,-32640(gp)
  40688c:	00000000 	nop
  406890:	0040c821 	move	t9,v0
  406894:	0320f809 	jalr	t9
  406898:	00000000 	nop
  40689c:	8fdc0010 	lw	gp,16(s8)
  4068a0:	24020007 	li	v0,7
  4068a4:	afc20024 	sw	v0,36(s8)
  4068a8:	8fc20024 	lw	v0,36(s8)
  4068ac:	24040094 	li	a0,148
  4068b0:	00402821 	move	a1,v0
  4068b4:	0c10059c 	jal	401670 <reg_write>
  4068b8:	00000000 	nop
  4068bc:	8fdc0010 	lw	gp,16(s8)
  4068c0:	3c020041 	lui	v0,0x41
  4068c4:	244315a8 	addiu	v1,v0,5544
  4068c8:	8fc20024 	lw	v0,36(s8)
  4068cc:	00602021 	move	a0,v1
  4068d0:	00402821 	move	a1,v0
[31m  4068d4:	8f82808c 	lw	v0,printf[0m
  4068d8:	00000000 	nop
  4068dc:	0040c821 	move	t9,v0
  4068e0:	0320f809 	jalr	t9
  4068e4:	00000000 	nop
  4068e8:	8fdc0010 	lw	gp,16(s8)
  4068ec:	afc00024 	sw	zero,36(s8)
  4068f0:	8fc20024 	lw	v0,36(s8)
  4068f4:	24040098 	li	a0,152
  4068f8:	00402821 	move	a1,v0
  4068fc:	0c10059c 	jal	401670 <reg_write>
  406900:	00000000 	nop
  406904:	8fdc0010 	lw	gp,16(s8)
  406908:	3c020041 	lui	v0,0x41
  40690c:	244315cc 	addiu	v1,v0,5580
  406910:	8fc20024 	lw	v0,36(s8)
  406914:	00602021 	move	a0,v1
  406918:	00402821 	move	a1,v0
[31m  40691c:	8f82808c 	lw	v0,printf[0m
  406920:	00000000 	nop
  406924:	0040c821 	move	t9,v0
  406928:	0320f809 	jalr	t9
  40692c:	00000000 	nop
  406930:	8fdc0010 	lw	gp,16(s8)
  406934:	3c028000 	lui	v0,0x8000
  406938:	3442b000 	ori	v0,v0,0xb000
  40693c:	afc20024 	sw	v0,36(s8)
  406940:	8fc20024 	lw	v0,36(s8)
  406944:	24040090 	li	a0,144
  406948:	00402821 	move	a1,v0
  40694c:	0c10059c 	jal	401670 <reg_write>
  406950:	00000000 	nop
  406954:	8fdc0010 	lw	gp,16(s8)
  406958:	3c020041 	lui	v0,0x41
  40695c:	244315f0 	addiu	v1,v0,5616
  406960:	8fc20024 	lw	v0,36(s8)
  406964:	00602021 	move	a0,v1
  406968:	00402821 	move	a1,v0
[31m  40696c:	8f82808c 	lw	v0,printf[0m
  406970:	00000000 	nop
  406974:	0040c821 	move	t9,v0
--
  406b5c:	27c20020 	addiu	v0,s8,32
  406b60:	24040080 	li	a0,128
  406b64:	00402821 	move	a1,v0
  406b68:	0c1004f7 	jal	4013dc <reg_read>
  406b6c:	00000000 	nop
  406b70:	8fdc0010 	lw	gp,16(s8)
  406b74:	8fc20020 	lw	v0,32(s8)
  406b78:	00000000 	nop
  406b7c:	30422000 	andi	v0,v0,0x2000
  406b80:	104000f0 	beqz	v0,406f44 <dip_dump+0x4f8>
  406b84:	00000000 	nop
  406b88:	27c2002c 	addiu	v0,s8,44
  406b8c:	2404008c 	li	a0,140
  406b90:	00402821 	move	a1,v0
  406b94:	0c1004f7 	jal	4013dc <reg_read>
  406b98:	00000000 	nop
  406b9c:	8fdc0010 	lw	gp,16(s8)
  406ba0:	3c020041 	lui	v0,0x41
  406ba4:	24431664 	addiu	v1,v0,5732
  406ba8:	8fc20020 	lw	v0,32(s8)
  406bac:	00000000 	nop
  406bb0:	00021403 	sra	v0,v0,0x10
  406bb4:	30420fff 	andi	v0,v0,0xfff
  406bb8:	00602021 	move	a0,v1
  406bbc:	00402821 	move	a1,v0
[31m  406bc0:	8f82808c 	lw	v0,printf[0m
  406bc4:	00000000 	nop
  406bc8:	0040c821 	move	t9,v0
--
  406c80:	00000000 	nop
  406c84:	24020031 	li	v0,49
  406c88:	08101b25 	j	406c94 <dip_dump+0x248>
  406c8c:	00000000 	nop
  406c90:	2402002d 	li	v0,45
  406c94:	00402021 	move	a0,v0
  406c98:	8f828098 	lw	v0,-32616(gp)
  406c9c:	00000000 	nop
  406ca0:	0040c821 	move	t9,v0
  406ca4:	0320f809 	jalr	t9
  406ca8:	00000000 	nop
  406cac:	8fdc0010 	lw	gp,16(s8)
  406cb0:	3c020041 	lui	v0,0x41
  406cb4:	24431670 	addiu	v1,v0,5744
  406cb8:	8fc2001c 	lw	v0,28(s8)
  406cbc:	00000000 	nop
  406cc0:	30420008 	andi	v0,v0,0x8
  406cc4:	10400004 	beqz	v0,406cd8 <dip_dump+0x28c>
  406cc8:	00000000 	nop
  406ccc:	24020031 	li	v0,49
  406cd0:	08101b37 	j	406cdc <dip_dump+0x290>
  406cd4:	00000000 	nop
  406cd8:	2402002d 	li	v0,45
  406cdc:	00602021 	move	a0,v1
  406ce0:	00402821 	move	a1,v0
[31m  406ce4:	8f82808c 	lw	v0,printf[0m
  406ce8:	00000000 	nop
  406cec:	0040c821 	move	t9,v0
--
  406d8c:	00000000 	nop
  406d90:	24020031 	li	v0,49
  406d94:	08101b68 	j	406da0 <dip_dump+0x354>
  406d98:	00000000 	nop
  406d9c:	2402002d 	li	v0,45
  406da0:	00402021 	move	a0,v0
  406da4:	8f828098 	lw	v0,-32616(gp)
  406da8:	00000000 	nop
  406dac:	0040c821 	move	t9,v0
  406db0:	0320f809 	jalr	t9
  406db4:	00000000 	nop
  406db8:	8fdc0010 	lw	gp,16(s8)
  406dbc:	27c20028 	addiu	v0,s8,40
  406dc0:	24040088 	li	a0,136
  406dc4:	00402821 	move	a1,v0
  406dc8:	0c1004f7 	jal	4013dc <reg_read>
  406dcc:	00000000 	nop
  406dd0:	8fdc0010 	lw	gp,16(s8)
  406dd4:	3c020041 	lui	v0,0x41
  406dd8:	24431674 	addiu	v1,v0,5748
  406ddc:	8fc20028 	lw	v0,40(s8)
  406de0:	00000000 	nop
  406de4:	3042ffff 	andi	v0,v0,0xffff
  406de8:	00602021 	move	a0,v1
  406dec:	00402821 	move	a1,v0
[31m  406df0:	8f82808c 	lw	v0,printf[0m
  406df4:	00000000 	nop
  406df8:	0040c821 	move	t9,v0
  406dfc:	0320f809 	jalr	t9
  406e00:	00000000 	nop
  406e04:	8fdc0010 	lw	gp,16(s8)
  406e08:	3c020041 	lui	v0,0x41
  406e0c:	24431680 	addiu	v1,v0,5760
  406e10:	8fc20028 	lw	v0,40(s8)
  406e14:	00000000 	nop
  406e18:	00021403 	sra	v0,v0,0x10
  406e1c:	304200ff 	andi	v0,v0,0xff
  406e20:	00602021 	move	a0,v1
  406e24:	00402821 	move	a1,v0
[31m  406e28:	8f82808c 	lw	v0,printf[0m
  406e2c:	00000000 	nop
  406e30:	0040c821 	move	t9,v0
  406e34:	0320f809 	jalr	t9
  406e38:	00000000 	nop
  406e3c:	8fdc0010 	lw	gp,16(s8)
  406e40:	3c020041 	lui	v0,0x41
  406e44:	24431688 	addiu	v1,v0,5768
  406e48:	8fc20028 	lw	v0,40(s8)
  406e4c:	00000000 	nop
  406e50:	00021602 	srl	v0,v0,0x18
  406e54:	00602021 	move	a0,v1
  406e58:	00402821 	move	a1,v0
[31m  406e5c:	8f82808c 	lw	v0,printf[0m
  406e60:	00000000 	nop
  406e64:	0040c821 	move	t9,v0
  406e68:	0320f809 	jalr	t9
  406e6c:	00000000 	nop
  406e70:	8fdc0010 	lw	gp,16(s8)
  406e74:	27c20024 	addiu	v0,s8,36
  406e78:	24040084 	li	a0,132
  406e7c:	00402821 	move	a1,v0
  406e80:	0c1004f7 	jal	4013dc <reg_read>
  406e84:	00000000 	nop
  406e88:	8fdc0010 	lw	gp,16(s8)
  406e8c:	8fc20024 	lw	v0,36(s8)
  406e90:	27c30070 	addiu	v1,s8,112
  406e94:	00602021 	move	a0,v1
  406e98:	00402821 	move	a1,v0
  406e9c:	0c10087e 	jal	4021f8 <ip_to_str>
  406ea0:	00000000 	nop
  406ea4:	8fdc0010 	lw	gp,16(s8)
  406ea8:	3c020041 	lui	v0,0x41
  406eac:	24431690 	addiu	v1,v0,5776
  406eb0:	27c20070 	addiu	v0,s8,112
  406eb4:	00602021 	move	a0,v1
  406eb8:	00402821 	move	a1,v0
[31m  406ebc:	8f82808c 	lw	v0,printf[0m
  406ec0:	00000000 	nop
  406ec4:	0040c821 	move	t9,v0
  406ec8:	0320f809 	jalr	t9
  406ecc:	00000000 	nop
  406ed0:	8fdc0010 	lw	gp,16(s8)
  406ed4:	3c020041 	lui	v0,0x41
  406ed8:	24431698 	addiu	v1,v0,5784
  406edc:	8fc2002c 	lw	v0,44(s8)
  406ee0:	00602021 	move	a0,v1
  406ee4:	00402821 	move	a1,v0
[31m  406ee8:	8f82808c 	lw	v0,printf[0m
  406eec:	00000000 	nop
  406ef0:	0040c821 	move	t9,v0
  406ef4:	0320f809 	jalr	t9
  406ef8:	00000000 	nop
  406efc:	8fdc0010 	lw	gp,16(s8)
  406f00:	8fc20020 	lw	v0,32(s8)
  406f04:	00000000 	nop
  406f08:	30424000 	andi	v0,v0,0x4000
  406f0c:	10400027 	beqz	v0,406fac <dip_dump+0x560>
  406f10:	00000000 	nop
  406f14:	3c020041 	lui	v0,0x41
  406f18:	244216a4 	addiu	v0,v0,5796
  406f1c:	00402021 	move	a0,v0
  406f20:	8fc50018 	lw	a1,24(s8)
[31m  406f24:	8f82808c 	lw	v0,printf[0m
  406f28:	00000000 	nop
  406f2c:	0040c821 	move	t9,v0
  406f30:	0320f809 	jalr	t9
  406f34:	00000000 	nop
  406f38:	8fdc0010 	lw	gp,16(s8)
  406f3c:	08101c01 	j	407004 <dip_dump+0x5b8>
  406f40:	00000000 	nop
  406f44:	8fc20020 	lw	v0,32(s8)
  406f48:	00000000 	nop
  406f4c:	30424000 	andi	v0,v0,0x4000
  406f50:	1040000d 	beqz	v0,406f88 <dip_dump+0x53c>
  406f54:	00000000 	nop
  406f58:	3c020041 	lui	v0,0x41
  406f5c:	244216b8 	addiu	v0,v0,5816
  406f60:	00402021 	move	a0,v0
  406f64:	8fc50018 	lw	a1,24(s8)
[31m  406f68:	8f82808c 	lw	v0,printf[0m
  406f6c:	00000000 	nop
  406f70:	0040c821 	move	t9,v0
--
  407030:	279ca080 	addiu	gp,gp,-24448
  407034:	afbc0010 	sw	gp,16(sp)
  407038:	afc40038 	sw	a0,56(s8)
  40703c:	afc5003c 	sw	a1,60(s8)
  407040:	8fc2003c 	lw	v0,60(s8)
  407044:	00000000 	nop
  407048:	2442000c 	addiu	v0,v0,12
  40704c:	8c420000 	lw	v0,0(v0)
  407050:	27c30020 	addiu	v1,s8,32
  407054:	00602021 	move	a0,v1
  407058:	00402821 	move	a1,v0
  40705c:	0c100823 	jal	40208c <str_to_ip>
  407060:	00000000 	nop
  407064:	8fdc0010 	lw	gp,16(s8)
  407068:	8fc20020 	lw	v0,32(s8)
  40706c:	24040074 	li	a0,116
  407070:	00402821 	move	a1,v0
  407074:	0c10059c 	jal	401670 <reg_write>
  407078:	00000000 	nop
  40707c:	8fdc0010 	lw	gp,16(s8)
  407080:	3c020041 	lui	v0,0x41
  407084:	244316e0 	addiu	v1,v0,5856
  407088:	8fc20020 	lw	v0,32(s8)
  40708c:	00602021 	move	a0,v1
  407090:	00402821 	move	a1,v0
[31m  407094:	8f82808c 	lw	v0,printf[0m
  407098:	00000000 	nop
  40709c:	0040c821 	move	t9,v0
--
  407248:	afc20020 	sw	v0,32(s8)
  40724c:	8fc20020 	lw	v0,32(s8)
  407250:	2404007c 	li	a0,124
  407254:	00402821 	move	a1,v0
  407258:	0c10059c 	jal	401670 <reg_write>
  40725c:	00000000 	nop
  407260:	8fdc0010 	lw	gp,16(s8)
  407264:	24041388 	li	a0,5000
  407268:	8f828088 	lw	v0,-32632(gp)
  40726c:	00000000 	nop
  407270:	0040c821 	move	t9,v0
  407274:	0320f809 	jalr	t9
  407278:	00000000 	nop
  40727c:	8fdc0010 	lw	gp,16(s8)
  407280:	27c20020 	addiu	v0,s8,32
  407284:	2404007c 	li	a0,124
  407288:	00402821 	move	a1,v0
  40728c:	0c1004f7 	jal	4013dc <reg_read>
  407290:	00000000 	nop
  407294:	8fdc0010 	lw	gp,16(s8)
  407298:	3c020041 	lui	v0,0x41
  40729c:	24431700 	addiu	v1,v0,5888
  4072a0:	8fc20020 	lw	v0,32(s8)
  4072a4:	00602021 	move	a0,v1
  4072a8:	00402821 	move	a1,v0
[31m  4072ac:	8f82808c 	lw	v0,printf[0m
  4072b0:	00000000 	nop
  4072b4:	0040c821 	move	t9,v0
--
  4075c8:	279ca080 	addiu	gp,gp,-24448
  4075cc:	afbc0010 	sw	gp,16(sp)
  4075d0:	24040080 	li	a0,128
  4075d4:	34058102 	li	a1,0x8102
  4075d8:	0c10059c 	jal	401670 <reg_write>
  4075dc:	00000000 	nop
  4075e0:	8fdc0010 	lw	gp,16(s8)
  4075e4:	24041388 	li	a0,5000
  4075e8:	8f828088 	lw	v0,-32632(gp)
  4075ec:	00000000 	nop
  4075f0:	0040c821 	move	t9,v0
  4075f4:	0320f809 	jalr	t9
  4075f8:	00000000 	nop
  4075fc:	8fdc0010 	lw	gp,16(s8)
  407600:	24040080 	li	a0,128
  407604:	27c20018 	addiu	v0,s8,24
  407608:	00402821 	move	a1,v0
  40760c:	0c1004f7 	jal	4013dc <reg_read>
  407610:	00000000 	nop
  407614:	8fdc0010 	lw	gp,16(s8)
  407618:	3c020041 	lui	v0,0x41
  40761c:	24431728 	addiu	v1,v0,5928
  407620:	8fc20018 	lw	v0,24(s8)
  407624:	00602021 	move	a0,v1
  407628:	00402821 	move	a1,v0
[31m  40762c:	8f82808c 	lw	v0,printf[0m
  407630:	00000000 	nop
  407634:	0040c821 	move	t9,v0
--
  40776c:	27c20020 	addiu	v0,s8,32
  407770:	24040080 	li	a0,128
  407774:	00402821 	move	a1,v0
  407778:	0c1004f7 	jal	4013dc <reg_read>
  40777c:	00000000 	nop
  407780:	8fdc0010 	lw	gp,16(s8)
  407784:	8fc20020 	lw	v0,32(s8)
  407788:	00000000 	nop
  40778c:	30422000 	andi	v0,v0,0x2000
  407790:	104000da 	beqz	v0,407afc <sip_dump+0x4a0>
  407794:	00000000 	nop
  407798:	27c2002c 	addiu	v0,s8,44
  40779c:	2404008c 	li	a0,140
  4077a0:	00402821 	move	a1,v0
  4077a4:	0c1004f7 	jal	4013dc <reg_read>
  4077a8:	00000000 	nop
  4077ac:	8fdc0010 	lw	gp,16(s8)
  4077b0:	3c020041 	lui	v0,0x41
  4077b4:	24431780 	addiu	v1,v0,6016
  4077b8:	8fc20020 	lw	v0,32(s8)
  4077bc:	00000000 	nop
  4077c0:	00021403 	sra	v0,v0,0x10
  4077c4:	30420fff 	andi	v0,v0,0xfff
  4077c8:	00602021 	move	a0,v1
  4077cc:	00402821 	move	a1,v0
[31m  4077d0:	8f82808c 	lw	v0,printf[0m
  4077d4:	00000000 	nop
  4077d8:	0040c821 	move	t9,v0
--
  4078d0:	00000000 	nop
  4078d4:	24020031 	li	v0,49
  4078d8:	08101e39 	j	4078e4 <sip_dump+0x288>
  4078dc:	00000000 	nop
  4078e0:	2402002d 	li	v0,45
  4078e4:	00402021 	move	a0,v0
  4078e8:	8f828098 	lw	v0,-32616(gp)
  4078ec:	00000000 	nop
  4078f0:	0040c821 	move	t9,v0
  4078f4:	0320f809 	jalr	t9
  4078f8:	00000000 	nop
  4078fc:	8fdc0010 	lw	gp,16(s8)
  407900:	3c020041 	lui	v0,0x41
  407904:	24431788 	addiu	v1,v0,6024
  407908:	8fc2001c 	lw	v0,28(s8)
  40790c:	00000000 	nop
  407910:	30420010 	andi	v0,v0,0x10
  407914:	10400004 	beqz	v0,407928 <sip_dump+0x2cc>
  407918:	00000000 	nop
  40791c:	24020031 	li	v0,49
  407920:	08101e4b 	j	40792c <sip_dump+0x2d0>
  407924:	00000000 	nop
  407928:	2402002d 	li	v0,45
  40792c:	00602021 	move	a0,v1
  407930:	00402821 	move	a1,v0
[31m  407934:	8f82808c 	lw	v0,printf[0m
  407938:	00000000 	nop
  40793c:	0040c821 	move	t9,v0
--
  4079b0:	00402021 	move	a0,v0
  4079b4:	8f828098 	lw	v0,-32616(gp)
  4079b8:	00000000 	nop
  4079bc:	0040c821 	move	t9,v0
  4079c0:	0320f809 	jalr	t9
  4079c4:	00000000 	nop
  4079c8:	8fdc0010 	lw	gp,16(s8)
  4079cc:	27c20028 	addiu	v0,s8,40
  4079d0:	24040088 	li	a0,136
  4079d4:	00402821 	move	a1,v0
  4079d8:	0c1004f7 	jal	4013dc <reg_read>
  4079dc:	00000000 	nop
  4079e0:	8fdc0010 	lw	gp,16(s8)
  4079e4:	8fc20028 	lw	v0,40(s8)
  4079e8:	27c30070 	addiu	v1,s8,112
  4079ec:	00602021 	move	a0,v1
  4079f0:	00402821 	move	a1,v0
  4079f4:	0c10087e 	jal	4021f8 <ip_to_str>
  4079f8:	00000000 	nop
  4079fc:	8fdc0010 	lw	gp,16(s8)
  407a00:	3c020041 	lui	v0,0x41
  407a04:	2443178c 	addiu	v1,v0,6028
  407a08:	27c20070 	addiu	v0,s8,112
  407a0c:	00602021 	move	a0,v1
  407a10:	00402821 	move	a1,v0
[31m  407a14:	8f82808c 	lw	v0,printf[0m
  407a18:	00000000 	nop
  407a1c:	0040c821 	move	t9,v0
  407a20:	0320f809 	jalr	t9
  407a24:	00000000 	nop
  407a28:	8fdc0010 	lw	gp,16(s8)
  407a2c:	27c20024 	addiu	v0,s8,36
  407a30:	24040084 	li	a0,132
  407a34:	00402821 	move	a1,v0
  407a38:	0c1004f7 	jal	4013dc <reg_read>
  407a3c:	00000000 	nop
  407a40:	8fdc0010 	lw	gp,16(s8)
  407a44:	8fc20024 	lw	v0,36(s8)
  407a48:	27c30070 	addiu	v1,s8,112
  407a4c:	00602021 	move	a0,v1
  407a50:	00402821 	move	a1,v0
  407a54:	0c10087e 	jal	4021f8 <ip_to_str>
  407a58:	00000000 	nop
  407a5c:	8fdc0010 	lw	gp,16(s8)
  407a60:	3c020041 	lui	v0,0x41
  407a64:	24431794 	addiu	v1,v0,6036
  407a68:	27c20070 	addiu	v0,s8,112
  407a6c:	00602021 	move	a0,v1
  407a70:	00402821 	move	a1,v0
[31m  407a74:	8f82808c 	lw	v0,printf[0m
  407a78:	00000000 	nop
  407a7c:	0040c821 	move	t9,v0
  407a80:	0320f809 	jalr	t9
  407a84:	00000000 	nop
  407a88:	8fdc0010 	lw	gp,16(s8)
  407a8c:	3c020041 	lui	v0,0x41
  407a90:	2443179c 	addiu	v1,v0,6044
  407a94:	8fc2002c 	lw	v0,44(s8)
  407a98:	00602021 	move	a0,v1
  407a9c:	00402821 	move	a1,v0
[31m  407aa0:	8f82808c 	lw	v0,printf[0m
  407aa4:	00000000 	nop
  407aa8:	0040c821 	move	t9,v0
  407aac:	0320f809 	jalr	t9
  407ab0:	00000000 	nop
  407ab4:	8fdc0010 	lw	gp,16(s8)
  407ab8:	8fc20020 	lw	v0,32(s8)
  407abc:	00000000 	nop
  407ac0:	30424000 	andi	v0,v0,0x4000
  407ac4:	10400027 	beqz	v0,407b64 <sip_dump+0x508>
  407ac8:	00000000 	nop
  407acc:	3c020041 	lui	v0,0x41
  407ad0:	244216a4 	addiu	v0,v0,5796
  407ad4:	00402021 	move	a0,v0
  407ad8:	8fc50018 	lw	a1,24(s8)
[31m  407adc:	8f82808c 	lw	v0,printf[0m
  407ae0:	00000000 	nop
  407ae4:	0040c821 	move	t9,v0
  407ae8:	0320f809 	jalr	t9
  407aec:	00000000 	nop
  407af0:	8fdc0010 	lw	gp,16(s8)
  407af4:	08101eef 	j	407bbc <sip_dump+0x560>
  407af8:	00000000 	nop
  407afc:	8fc20020 	lw	v0,32(s8)
  407b00:	00000000 	nop
  407b04:	30424000 	andi	v0,v0,0x4000
  407b08:	1040000d 	beqz	v0,407b40 <sip_dump+0x4e4>
  407b0c:	00000000 	nop
  407b10:	3c020041 	lui	v0,0x41
  407b14:	244216b8 	addiu	v0,v0,5816
  407b18:	00402021 	move	a0,v0
  407b1c:	8fc50018 	lw	a1,24(s8)
[31m  407b20:	8f82808c 	lw	v0,printf[0m
  407b24:	00000000 	nop
  407b28:	0040c821 	move	t9,v0
--
  407be8:	279ca080 	addiu	gp,gp,-24448
  407bec:	afbc0010 	sw	gp,16(sp)
  407bf0:	afc40038 	sw	a0,56(s8)
  407bf4:	afc5003c 	sw	a1,60(s8)
  407bf8:	8fc2003c 	lw	v0,60(s8)
  407bfc:	00000000 	nop
  407c00:	2442000c 	addiu	v0,v0,12
  407c04:	8c420000 	lw	v0,0(v0)
  407c08:	27c30020 	addiu	v1,s8,32
  407c0c:	00602021 	move	a0,v1
  407c10:	00402821 	move	a1,v0
  407c14:	0c100823 	jal	40208c <str_to_ip>
  407c18:	00000000 	nop
  407c1c:	8fdc0010 	lw	gp,16(s8)
  407c20:	8fc20020 	lw	v0,32(s8)
  407c24:	24040078 	li	a0,120
  407c28:	00402821 	move	a1,v0
  407c2c:	0c10059c 	jal	401670 <reg_write>
  407c30:	00000000 	nop
  407c34:	8fdc0010 	lw	gp,16(s8)
  407c38:	3c020041 	lui	v0,0x41
  407c3c:	244317a8 	addiu	v1,v0,6056
  407c40:	8fc20020 	lw	v0,32(s8)
  407c44:	00602021 	move	a0,v1
  407c48:	00402821 	move	a1,v0
[31m  407c4c:	8f82808c 	lw	v0,printf[0m
  407c50:	00000000 	nop
  407c54:	0040c821 	move	t9,v0
  407c58:	0320f809 	jalr	t9
  407c5c:	00000000 	nop
  407c60:	8fdc0010 	lw	gp,16(s8)
  407c64:	afc00020 	sw	zero,32(s8)
  407c68:	8fc2003c 	lw	v0,60(s8)
  407c6c:	00000000 	nop
  407c70:	24420010 	addiu	v0,v0,16
  407c74:	8c420000 	lw	v0,0(v0)
  407c78:	27c30020 	addiu	v1,s8,32
  407c7c:	00602021 	move	a0,v1
  407c80:	00402821 	move	a1,v0
  407c84:	0c100823 	jal	40208c <str_to_ip>
  407c88:	00000000 	nop
  407c8c:	8fdc0010 	lw	gp,16(s8)
  407c90:	8fc20020 	lw	v0,32(s8)
  407c94:	24040074 	li	a0,116
  407c98:	00402821 	move	a1,v0
  407c9c:	0c10059c 	jal	401670 <reg_write>
  407ca0:	00000000 	nop
  407ca4:	8fdc0010 	lw	gp,16(s8)
  407ca8:	3c020041 	lui	v0,0x41
  407cac:	244316e0 	addiu	v1,v0,5856
  407cb0:	8fc20020 	lw	v0,32(s8)
  407cb4:	00602021 	move	a0,v1
  407cb8:	00402821 	move	a1,v0
[31m  407cbc:	8f82808c 	lw	v0,printf[0m
  407cc0:	00000000 	nop
  407cc4:	0040c821 	move	t9,v0
--
  407e6c:	afc20020 	sw	v0,32(s8)
  407e70:	8fc20020 	lw	v0,32(s8)
  407e74:	2404007c 	li	a0,124
  407e78:	00402821 	move	a1,v0
  407e7c:	0c10059c 	jal	401670 <reg_write>
  407e80:	00000000 	nop
  407e84:	8fdc0010 	lw	gp,16(s8)
  407e88:	24041388 	li	a0,5000
  407e8c:	8f828088 	lw	v0,-32632(gp)
  407e90:	00000000 	nop
  407e94:	0040c821 	move	t9,v0
  407e98:	0320f809 	jalr	t9
  407e9c:	00000000 	nop
  407ea0:	8fdc0010 	lw	gp,16(s8)
  407ea4:	27c20020 	addiu	v0,s8,32
  407ea8:	2404007c 	li	a0,124
  407eac:	00402821 	move	a1,v0
  407eb0:	0c1004f7 	jal	4013dc <reg_read>
  407eb4:	00000000 	nop
  407eb8:	8fdc0010 	lw	gp,16(s8)
  407ebc:	3c020041 	lui	v0,0x41
  407ec0:	24431700 	addiu	v1,v0,5888
  407ec4:	8fc20020 	lw	v0,32(s8)
  407ec8:	00602021 	move	a0,v1
  407ecc:	00402821 	move	a1,v0
[31m  407ed0:	8f82808c 	lw	v0,printf[0m
  407ed4:	00000000 	nop
  407ed8:	0040c821 	move	t9,v0
--
  408210:	279ca080 	addiu	gp,gp,-24448
  408214:	afbc0010 	sw	gp,16(sp)
  408218:	24040080 	li	a0,128
  40821c:	34058202 	li	a1,0x8202
  408220:	0c10059c 	jal	401670 <reg_write>
  408224:	00000000 	nop
  408228:	8fdc0010 	lw	gp,16(s8)
  40822c:	24041388 	li	a0,5000
  408230:	8f828088 	lw	v0,-32632(gp)
  408234:	00000000 	nop
  408238:	0040c821 	move	t9,v0
  40823c:	0320f809 	jalr	t9
  408240:	00000000 	nop
  408244:	8fdc0010 	lw	gp,16(s8)
  408248:	24040080 	li	a0,128
  40824c:	27c20018 	addiu	v0,s8,24
  408250:	00402821 	move	a1,v0
  408254:	0c1004f7 	jal	4013dc <reg_read>
  408258:	00000000 	nop
  40825c:	8fdc0010 	lw	gp,16(s8)
  408260:	3c020041 	lui	v0,0x41
  408264:	24431728 	addiu	v1,v0,5928
  408268:	8fc20018 	lw	v0,24(s8)
  40826c:	00602021 	move	a0,v1
  408270:	00402821 	move	a1,v0
[31m  408274:	8f82808c 	lw	v0,printf[0m
  408278:	00000000 	nop
  40827c:	0040c821 	move	t9,v0
--
  4083b0:	00000000 	nop
  4083b4:	27c20020 	addiu	v0,s8,32
  4083b8:	24040080 	li	a0,128
  4083bc:	00402821 	move	a1,v0
  4083c0:	0c1004f7 	jal	4013dc <reg_read>
  4083c4:	00000000 	nop
  4083c8:	8fdc0010 	lw	gp,16(s8)
  4083cc:	8fc20020 	lw	v0,32(s8)
  4083d0:	00000000 	nop
  4083d4:	30422000 	andi	v0,v0,0x2000
  4083d8:	1040012f 	beqz	v0,408898 <table_dump+0x5f4>
  4083dc:	00000000 	nop
  4083e0:	8fc20020 	lw	v0,32(s8)
  4083e4:	00000000 	nop
  4083e8:	30428000 	andi	v0,v0,0x8000
  4083ec:	1440012a 	bnez	v0,408898 <table_dump+0x5f4>
  4083f0:	00000000 	nop
  4083f4:	3c020041 	lui	v0,0x41
  4083f8:	24431664 	addiu	v1,v0,5732
  4083fc:	8fc20020 	lw	v0,32(s8)
  408400:	00000000 	nop
  408404:	00021403 	sra	v0,v0,0x10
  408408:	30420fff 	andi	v0,v0,0xfff
  40840c:	00602021 	move	a0,v1
  408410:	00402821 	move	a1,v0
[31m  408414:	8f82808c 	lw	v0,printf[0m
  408418:	00000000 	nop
  40841c:	0040c821 	move	t9,v0
--
  4084ec:	00000000 	nop
  4084f0:	24020031 	li	v0,49
  4084f4:	08102140 	j	408500 <table_dump+0x25c>
  4084f8:	00000000 	nop
  4084fc:	2402002d 	li	v0,45
  408500:	00402021 	move	a0,v0
  408504:	8f828098 	lw	v0,-32616(gp)
  408508:	00000000 	nop
  40850c:	0040c821 	move	t9,v0
  408510:	0320f809 	jalr	t9
  408514:	00000000 	nop
  408518:	8fdc0010 	lw	gp,16(s8)
  40851c:	3c020041 	lui	v0,0x41
  408520:	24431670 	addiu	v1,v0,5744
  408524:	8fc2001c 	lw	v0,28(s8)
  408528:	00000000 	nop
  40852c:	30420008 	andi	v0,v0,0x8
  408530:	10400004 	beqz	v0,408544 <table_dump+0x2a0>
  408534:	00000000 	nop
  408538:	24020031 	li	v0,49
  40853c:	08102152 	j	408548 <table_dump+0x2a4>
  408540:	00000000 	nop
  408544:	2402002d 	li	v0,45
  408548:	00602021 	move	a0,v1
  40854c:	00402821 	move	a1,v0
[31m  408550:	8f82808c 	lw	v0,printf[0m
  408554:	00000000 	nop
  408558:	0040c821 	move	t9,v0
--
  40863c:	24020031 	li	v0,49
  408640:	08102193 	j	40864c <table_dump+0x3a8>
  408644:	00000000 	nop
  408648:	2402002d 	li	v0,45
  40864c:	00402021 	move	a0,v0
  408650:	8f828098 	lw	v0,-32616(gp)
  408654:	00000000 	nop
  408658:	0040c821 	move	t9,v0
  40865c:	0320f809 	jalr	t9
  408660:	00000000 	nop
  408664:	8fdc0010 	lw	gp,16(s8)
  408668:	27c20028 	addiu	v0,s8,40
  40866c:	24040088 	li	a0,136
  408670:	00402821 	move	a1,v0
  408674:	0c1004f7 	jal	4013dc <reg_read>
  408678:	00000000 	nop
  40867c:	8fdc0010 	lw	gp,16(s8)
  408680:	3c020041 	lui	v0,0x41
  408684:	2443180c 	addiu	v1,v0,6156
  408688:	8fc20028 	lw	v0,40(s8)
  40868c:	00000000 	nop
  408690:	00021303 	sra	v0,v0,0xc
  408694:	30420007 	andi	v0,v0,0x7
  408698:	00602021 	move	a0,v1
  40869c:	00402821 	move	a1,v0
[31m  4086a0:	8f82808c 	lw	v0,printf[0m
  4086a4:	00000000 	nop
  4086a8:	0040c821 	move	t9,v0
  4086ac:	0320f809 	jalr	t9
  4086b0:	00000000 	nop
  4086b4:	8fdc0010 	lw	gp,16(s8)
  4086b8:	3c020041 	lui	v0,0x41
  4086bc:	24431814 	addiu	v1,v0,6164
  4086c0:	8fc20028 	lw	v0,40(s8)
  4086c4:	00000000 	nop
  4086c8:	30420fff 	andi	v0,v0,0xfff
  4086cc:	00602021 	move	a0,v1
  4086d0:	00402821 	move	a1,v0
[31m  4086d4:	8f82808c 	lw	v0,printf[0m
  4086d8:	00000000 	nop
  4086dc:	0040c821 	move	t9,v0
  4086e0:	0320f809 	jalr	t9
  4086e4:	00000000 	nop
  4086e8:	8fdc0010 	lw	gp,16(s8)
  4086ec:	3c020041 	lui	v0,0x41
  4086f0:	2443181c 	addiu	v1,v0,6172
  4086f4:	8fc2002c 	lw	v0,44(s8)
  4086f8:	00000000 	nop
  4086fc:	00021602 	srl	v0,v0,0x18
  408700:	00602021 	move	a0,v1
  408704:	00402821 	move	a1,v0
[31m  408708:	8f82808c 	lw	v0,printf[0m
  40870c:	00000000 	nop
  408710:	0040c821 	move	t9,v0
  408714:	0320f809 	jalr	t9
  408718:	00000000 	nop
  40871c:	8fdc0010 	lw	gp,16(s8)
  408720:	27c20024 	addiu	v0,s8,36
  408724:	24040084 	li	a0,132
  408728:	00402821 	move	a1,v0
  40872c:	0c1004f7 	jal	4013dc <reg_read>
  408730:	00000000 	nop
  408734:	8fdc0010 	lw	gp,16(s8)
  408738:	3c020041 	lui	v0,0x41
  40873c:	24431824 	addiu	v1,v0,6180
  408740:	8fc20024 	lw	v0,36(s8)
  408744:	00602021 	move	a0,v1
  408748:	00402821 	move	a1,v0
[31m  40874c:	8f82808c 	lw	v0,printf[0m
  408750:	00000000 	nop
  408754:	0040c821 	move	t9,v0
  408758:	0320f809 	jalr	t9
  40875c:	00000000 	nop
  408760:	8fdc0010 	lw	gp,16(s8)
  408764:	3c020041 	lui	v0,0x41
  408768:	2443182c 	addiu	v1,v0,6188
  40876c:	8fc20028 	lw	v0,40(s8)
  408770:	00000000 	nop
  408774:	00021402 	srl	v0,v0,0x10
  408778:	00602021 	move	a0,v1
  40877c:	00402821 	move	a1,v0
[31m  408780:	8f82808c 	lw	v0,printf[0m
  408784:	00000000 	nop
  408788:	0040c821 	move	t9,v0
  40878c:	0320f809 	jalr	t9
  408790:	00000000 	nop
  408794:	8fdc0010 	lw	gp,16(s8)
  408798:	3c020041 	lui	v0,0x41
  40879c:	24431834 	addiu	v1,v0,6196
  4087a0:	8fc2002c 	lw	v0,44(s8)
  4087a4:	00000000 	nop
  4087a8:	00021503 	sra	v0,v0,0x14
  4087ac:	30440003 	andi	a0,v0,0x3
  4087b0:	24020003 	li	v0,3
  4087b4:	14820004 	bne	a0,v0,4087c8 <table_dump+0x524>
  4087b8:	00000000 	nop
  4087bc:	24020079 	li	v0,121
  4087c0:	081021f3 	j	4087cc <table_dump+0x528>
  4087c4:	00000000 	nop
  4087c8:	2402002d 	li	v0,45
  4087cc:	00602021 	move	a0,v1
  4087d0:	00402821 	move	a1,v0
[31m  4087d4:	8f82808c 	lw	v0,printf[0m
  4087d8:	00000000 	nop
  4087dc:	0040c821 	move	t9,v0
  4087e0:	0320f809 	jalr	t9
  4087e4:	00000000 	nop
  4087e8:	8fdc0010 	lw	gp,16(s8)
  4087ec:	3c020041 	lui	v0,0x41
  4087f0:	2443183c 	addiu	v1,v0,6204
  4087f4:	8fc4002c 	lw	a0,44(s8)
  4087f8:	3c020080 	lui	v0,0x80
  4087fc:	00821024 	and	v0,a0,v0
  408800:	10400004 	beqz	v0,408814 <table_dump+0x570>
  408804:	00000000 	nop
  408808:	24020079 	li	v0,121
  40880c:	08102206 	j	408818 <table_dump+0x574>
  408810:	00000000 	nop
  408814:	2402002d 	li	v0,45
  408818:	00602021 	move	a0,v1
  40881c:	00402821 	move	a1,v0
[31m  408820:	8f82808c 	lw	v0,printf[0m
  408824:	00000000 	nop
  408828:	0040c821 	move	t9,v0
  40882c:	0320f809 	jalr	t9
  408830:	00000000 	nop
  408834:	8fdc0010 	lw	gp,16(s8)
  408838:	8fc20020 	lw	v0,32(s8)
  40883c:	00000000 	nop
  408840:	30424000 	andi	v0,v0,0x4000
  408844:	1040003a 	beqz	v0,408930 <table_dump+0x68c>
  408848:	00000000 	nop
  40884c:	8fc20020 	lw	v0,32(s8)
  408850:	00000000 	nop
  408854:	00021403 	sra	v0,v0,0x10
  408858:	30430fff 	andi	v1,v0,0xfff
  40885c:	240207ff 	li	v0,2047
  408860:	14620033 	bne	v1,v0,408930 <table_dump+0x68c>
  408864:	00000000 	nop
  408868:	3c020041 	lui	v0,0x41
  40886c:	244216a4 	addiu	v0,v0,5796
  408870:	00402021 	move	a0,v0
  408874:	8fc50018 	lw	a1,24(s8)
[31m  408878:	8f82808c 	lw	v0,printf[0m
  40887c:	00000000 	nop
  408880:	0040c821 	move	t9,v0
--
  408888:	00000000 	nop
  40888c:	8fdc0010 	lw	gp,16(s8)
  408890:	08102262 	j	408988 <table_dump+0x6e4>
  408894:	00000000 	nop
  408898:	8fc20020 	lw	v0,32(s8)
  40889c:	00000000 	nop
  4088a0:	30424000 	andi	v0,v0,0x4000
  4088a4:	10400019 	beqz	v0,40890c <table_dump+0x668>
  4088a8:	00000000 	nop
  4088ac:	8fc20020 	lw	v0,32(s8)
  4088b0:	00000000 	nop
  4088b4:	30428000 	andi	v0,v0,0x8000
  4088b8:	14400014 	bnez	v0,40890c <table_dump+0x668>
  4088bc:	00000000 	nop
  4088c0:	8fc20020 	lw	v0,32(s8)
  4088c4:	00000000 	nop
  4088c8:	00021403 	sra	v0,v0,0x10
  4088cc:	30430fff 	andi	v1,v0,0xfff
  4088d0:	240207ff 	li	v0,2047
  4088d4:	1462000d 	bne	v1,v0,40890c <table_dump+0x668>
  4088d8:	00000000 	nop
  4088dc:	3c020041 	lui	v0,0x41
  4088e0:	244216b8 	addiu	v0,v0,5816
  4088e4:	00402021 	move	a0,v0
  4088e8:	8fc50018 	lw	a1,24(s8)
[31m  4088ec:	8f82808c 	lw	v0,printf[0m
  4088f0:	00000000 	nop
  4088f4:	0040c821 	move	t9,v0
--
  408ac8:	00000000 	nop
  408acc:	8fdc0010 	lw	gp,16(s8)
  408ad0:	a3c00034 	sb	zero,52(s8)
  408ad4:	27c2002c 	addiu	v0,s8,44
  408ad8:	00402021 	move	a0,v0
  408adc:	00002821 	move	a1,zero
  408ae0:	24060010 	li	a2,16
  408ae4:	8f828078 	lw	v0,-32648(gp)
  408ae8:	00000000 	nop
  408aec:	0040c821 	move	t9,v0
  408af0:	0320f809 	jalr	t9
  408af4:	00000000 	nop
  408af8:	8fdc0010 	lw	gp,16(s8)
  408afc:	afc20028 	sw	v0,40(s8)
  408b00:	8fc20028 	lw	v0,40(s8)
  408b04:	24040074 	li	a0,116
  408b08:	00402821 	move	a1,v0
  408b0c:	0c10059c 	jal	401670 <reg_write>
  408b10:	00000000 	nop
  408b14:	8fdc0010 	lw	gp,16(s8)
  408b18:	3c020041 	lui	v0,0x41
  408b1c:	244316e0 	addiu	v1,v0,5856
  408b20:	8fc20028 	lw	v0,40(s8)
  408b24:	00602021 	move	a0,v1
  408b28:	00402821 	move	a1,v0
[31m  408b2c:	8f82808c 	lw	v0,printf[0m
  408b30:	00000000 	nop
  408b34:	0040c821 	move	t9,v0
--
  408c3c:	2444187c 	addiu	a0,v0,6268
  408c40:	8f828080 	lw	v0,-32640(gp)
  408c44:	00000000 	nop
  408c48:	0040c821 	move	t9,v0
  408c4c:	0320f809 	jalr	t9
  408c50:	00000000 	nop
  408c54:	8fdc0010 	lw	gp,16(s8)
  408c58:	08102474 	j	4091d0 <table_add+0x830>
  408c5c:	00000000 	nop
  408c60:	8fc30028 	lw	v1,40(s8)
  408c64:	8fc2001c 	lw	v0,28(s8)
  408c68:	00000000 	nop
  408c6c:	00621025 	or	v0,v1,v0
  408c70:	afc20028 	sw	v0,40(s8)
  408c74:	8fc20028 	lw	v0,40(s8)
  408c78:	24040078 	li	a0,120
  408c7c:	00402821 	move	a1,v0
  408c80:	0c10059c 	jal	401670 <reg_write>
  408c84:	00000000 	nop
  408c88:	8fdc0010 	lw	gp,16(s8)
  408c8c:	3c020041 	lui	v0,0x41
  408c90:	244317a8 	addiu	v1,v0,6056
  408c94:	8fc20028 	lw	v0,40(s8)
  408c98:	00602021 	move	a0,v1
  408c9c:	00402821 	move	a1,v0
[31m  408ca0:	8f82808c 	lw	v0,printf[0m
  408ca4:	00000000 	nop
  408ca8:	0040c821 	move	t9,v0
--
  409048:	afc20028 	sw	v0,40(s8)
  40904c:	8fc20028 	lw	v0,40(s8)
  409050:	2404007c 	li	a0,124
  409054:	00402821 	move	a1,v0
  409058:	0c10059c 	jal	401670 <reg_write>
  40905c:	00000000 	nop
  409060:	8fdc0010 	lw	gp,16(s8)
  409064:	24041388 	li	a0,5000
  409068:	8f828088 	lw	v0,-32632(gp)
  40906c:	00000000 	nop
  409070:	0040c821 	move	t9,v0
  409074:	0320f809 	jalr	t9
  409078:	00000000 	nop
  40907c:	8fdc0010 	lw	gp,16(s8)
  409080:	27c20028 	addiu	v0,s8,40
  409084:	2404007c 	li	a0,124
  409088:	00402821 	move	a1,v0
  40908c:	0c1004f7 	jal	4013dc <reg_read>
  409090:	00000000 	nop
  409094:	8fdc0010 	lw	gp,16(s8)
  409098:	3c020041 	lui	v0,0x41
  40909c:	24431700 	addiu	v1,v0,5888
  4090a0:	8fc20028 	lw	v0,40(s8)
  4090a4:	00602021 	move	a0,v1
  4090a8:	00402821 	move	a1,v0
[31m  4090ac:	8f82808c 	lw	v0,printf[0m
  4090b0:	00000000 	nop
  4090b4:	0040c821 	move	t9,v0
--
  409574:	00000000 	nop
  409578:	3c020041 	lui	v0,0x41
  40957c:	24441928 	addiu	a0,v0,6440
  409580:	8f828080 	lw	v0,-32640(gp)
  409584:	00000000 	nop
  409588:	0040c821 	move	t9,v0
  40958c:	0320f809 	jalr	t9
  409590:	00000000 	nop
  409594:	8fdc0010 	lw	gp,16(s8)
  409598:	3c020041 	lui	v0,0x41
  40959c:	244417c8 	addiu	a0,v0,6088
  4095a0:	8f828080 	lw	v0,-32640(gp)
  4095a4:	00000000 	nop
  4095a8:	0040c821 	move	t9,v0
  4095ac:	0320f809 	jalr	t9
  4095b0:	00000000 	nop
  4095b4:	8fdc0010 	lw	gp,16(s8)
  4095b8:	3c020041 	lui	v0,0x41
  4095bc:	24431664 	addiu	v1,v0,5732
  4095c0:	8fc20020 	lw	v0,32(s8)
  4095c4:	00000000 	nop
  4095c8:	00021402 	srl	v0,v0,0x10
  4095cc:	30420fff 	andi	v0,v0,0xfff
  4095d0:	00602021 	move	a0,v1
  4095d4:	00402821 	move	a1,v0
[31m  4095d8:	8f82808c 	lw	v0,printf[0m
  4095dc:	00000000 	nop
  4095e0:	0040c821 	move	t9,v0
--
  4096b0:	00000000 	nop
  4096b4:	24020031 	li	v0,49
  4096b8:	081025b1 	j	4096c4 <table_search_mac_vid+0x4dc>
  4096bc:	00000000 	nop
  4096c0:	2402002d 	li	v0,45
  4096c4:	00402021 	move	a0,v0
  4096c8:	8f828098 	lw	v0,-32616(gp)
  4096cc:	00000000 	nop
  4096d0:	0040c821 	move	t9,v0
  4096d4:	0320f809 	jalr	t9
  4096d8:	00000000 	nop
  4096dc:	8fdc0010 	lw	gp,16(s8)
  4096e0:	3c020041 	lui	v0,0x41
  4096e4:	24431670 	addiu	v1,v0,5744
  4096e8:	8fc2001c 	lw	v0,28(s8)
  4096ec:	00000000 	nop
  4096f0:	30420008 	andi	v0,v0,0x8
  4096f4:	10400004 	beqz	v0,409708 <table_search_mac_vid+0x520>
  4096f8:	00000000 	nop
  4096fc:	24020031 	li	v0,49
  409700:	081025c3 	j	40970c <table_search_mac_vid+0x524>
  409704:	00000000 	nop
  409708:	2402002d 	li	v0,45
  40970c:	00602021 	move	a0,v1
  409710:	00402821 	move	a1,v0
[31m  409714:	8f82808c 	lw	v0,printf[0m
  409718:	00000000 	nop
  40971c:	0040c821 	move	t9,v0
--
  409800:	24020031 	li	v0,49
  409804:	08102604 	j	409810 <table_search_mac_vid+0x628>
  409808:	00000000 	nop
  40980c:	2402002d 	li	v0,45
  409810:	00402021 	move	a0,v0
  409814:	8f828098 	lw	v0,-32616(gp)
  409818:	00000000 	nop
  40981c:	0040c821 	move	t9,v0
  409820:	0320f809 	jalr	t9
  409824:	00000000 	nop
  409828:	8fdc0010 	lw	gp,16(s8)
  40982c:	27c20028 	addiu	v0,s8,40
  409830:	24040088 	li	a0,136
  409834:	00402821 	move	a1,v0
  409838:	0c1004f7 	jal	4013dc <reg_read>
  40983c:	00000000 	nop
  409840:	8fdc0010 	lw	gp,16(s8)
  409844:	3c020041 	lui	v0,0x41
  409848:	2443180c 	addiu	v1,v0,6156
  40984c:	8fc20028 	lw	v0,40(s8)
  409850:	00000000 	nop
  409854:	00021302 	srl	v0,v0,0xc
  409858:	30420007 	andi	v0,v0,0x7
  40985c:	00602021 	move	a0,v1
  409860:	00402821 	move	a1,v0
[31m  409864:	8f82808c 	lw	v0,printf[0m
  409868:	00000000 	nop
  40986c:	0040c821 	move	t9,v0
  409870:	0320f809 	jalr	t9
  409874:	00000000 	nop
  409878:	8fdc0010 	lw	gp,16(s8)
  40987c:	3c020041 	lui	v0,0x41
  409880:	24431814 	addiu	v1,v0,6164
  409884:	8fc20028 	lw	v0,40(s8)
  409888:	00000000 	nop
  40988c:	30420fff 	andi	v0,v0,0xfff
  409890:	00602021 	move	a0,v1
  409894:	00402821 	move	a1,v0
[31m  409898:	8f82808c 	lw	v0,printf[0m
  40989c:	00000000 	nop
  4098a0:	0040c821 	move	t9,v0
  4098a4:	0320f809 	jalr	t9
  4098a8:	00000000 	nop
  4098ac:	8fdc0010 	lw	gp,16(s8)
  4098b0:	3c020041 	lui	v0,0x41
  4098b4:	2443181c 	addiu	v1,v0,6172
  4098b8:	8fc2002c 	lw	v0,44(s8)
  4098bc:	00000000 	nop
  4098c0:	00021602 	srl	v0,v0,0x18
  4098c4:	00602021 	move	a0,v1
  4098c8:	00402821 	move	a1,v0
[31m  4098cc:	8f82808c 	lw	v0,printf[0m
  4098d0:	00000000 	nop
  4098d4:	0040c821 	move	t9,v0
  4098d8:	0320f809 	jalr	t9
  4098dc:	00000000 	nop
  4098e0:	8fdc0010 	lw	gp,16(s8)
  4098e4:	27c20024 	addiu	v0,s8,36
  4098e8:	24040084 	li	a0,132
  4098ec:	00402821 	move	a1,v0
  4098f0:	0c1004f7 	jal	4013dc <reg_read>
  4098f4:	00000000 	nop
  4098f8:	8fdc0010 	lw	gp,16(s8)
  4098fc:	3c020041 	lui	v0,0x41
  409900:	24431824 	addiu	v1,v0,6180
  409904:	8fc20024 	lw	v0,36(s8)
  409908:	00602021 	move	a0,v1
  40990c:	00402821 	move	a1,v0
[31m  409910:	8f82808c 	lw	v0,printf[0m
  409914:	00000000 	nop
  409918:	0040c821 	move	t9,v0
  40991c:	0320f809 	jalr	t9
  409920:	00000000 	nop
  409924:	8fdc0010 	lw	gp,16(s8)
  409928:	3c020041 	lui	v0,0x41
  40992c:	2443182c 	addiu	v1,v0,6188
  409930:	8fc20028 	lw	v0,40(s8)
  409934:	00000000 	nop
  409938:	00021402 	srl	v0,v0,0x10
  40993c:	00602021 	move	a0,v1
  409940:	00402821 	move	a1,v0
[31m  409944:	8f82808c 	lw	v0,printf[0m
  409948:	00000000 	nop
  40994c:	0040c821 	move	t9,v0
  409950:	0320f809 	jalr	t9
  409954:	00000000 	nop
  409958:	8fdc0010 	lw	gp,16(s8)
  40995c:	3c020041 	lui	v0,0x41
  409960:	24431834 	addiu	v1,v0,6196
  409964:	8fc2002c 	lw	v0,44(s8)
  409968:	00000000 	nop
  40996c:	00021502 	srl	v0,v0,0x14
  409970:	30440003 	andi	a0,v0,0x3
  409974:	24020003 	li	v0,3
  409978:	14820004 	bne	a0,v0,40998c <table_search_mac_vid+0x7a4>
  40997c:	00000000 	nop
  409980:	24020079 	li	v0,121
  409984:	08102664 	j	409990 <table_search_mac_vid+0x7a8>
  409988:	00000000 	nop
  40998c:	2402002d 	li	v0,45
  409990:	00602021 	move	a0,v1
  409994:	00402821 	move	a1,v0
[31m  409998:	8f82808c 	lw	v0,printf[0m
  40999c:	00000000 	nop
  4099a0:	0040c821 	move	t9,v0
  4099a4:	0320f809 	jalr	t9
  4099a8:	00000000 	nop
  4099ac:	8fdc0010 	lw	gp,16(s8)
  4099b0:	3c020041 	lui	v0,0x41
  4099b4:	2443183c 	addiu	v1,v0,6204
  4099b8:	8fc4002c 	lw	a0,44(s8)
  4099bc:	3c020080 	lui	v0,0x80
  4099c0:	00821024 	and	v0,a0,v0
  4099c4:	10400004 	beqz	v0,4099d8 <table_search_mac_vid+0x7f0>
  4099c8:	00000000 	nop
  4099cc:	24020079 	li	v0,121
  4099d0:	08102677 	j	4099dc <table_search_mac_vid+0x7f4>
  4099d4:	00000000 	nop
  4099d8:	2402002d 	li	v0,45
  4099dc:	00602021 	move	a0,v1
  4099e0:	00402821 	move	a1,v0
[31m  4099e4:	8f82808c 	lw	v0,printf[0m
  4099e8:	00000000 	nop
  4099ec:	0040c821 	move	t9,v0
--
  409dac:	00000000 	nop
  409db0:	3c020041 	lui	v0,0x41
  409db4:	24441928 	addiu	a0,v0,6440
  409db8:	8f828080 	lw	v0,-32640(gp)
  409dbc:	00000000 	nop
  409dc0:	0040c821 	move	t9,v0
  409dc4:	0320f809 	jalr	t9
  409dc8:	00000000 	nop
  409dcc:	8fdc0010 	lw	gp,16(s8)
  409dd0:	3c020041 	lui	v0,0x41
  409dd4:	244417c8 	addiu	a0,v0,6088
  409dd8:	8f828080 	lw	v0,-32640(gp)
  409ddc:	00000000 	nop
  409de0:	0040c821 	move	t9,v0
  409de4:	0320f809 	jalr	t9
  409de8:	00000000 	nop
  409dec:	8fdc0010 	lw	gp,16(s8)
  409df0:	3c020041 	lui	v0,0x41
  409df4:	24431664 	addiu	v1,v0,5732
  409df8:	8fc20020 	lw	v0,32(s8)
  409dfc:	00000000 	nop
  409e00:	00021402 	srl	v0,v0,0x10
  409e04:	30420fff 	andi	v0,v0,0xfff
  409e08:	00602021 	move	a0,v1
  409e0c:	00402821 	move	a1,v0
[31m  409e10:	8f82808c 	lw	v0,printf[0m
  409e14:	00000000 	nop
  409e18:	0040c821 	move	t9,v0
--
  409ee8:	00000000 	nop
  409eec:	24020031 	li	v0,49
  409ef0:	081027bf 	j	409efc <table_search_mac_fid+0x4e8>
  409ef4:	00000000 	nop
  409ef8:	2402002d 	li	v0,45
  409efc:	00402021 	move	a0,v0
  409f00:	8f828098 	lw	v0,-32616(gp)
  409f04:	00000000 	nop
  409f08:	0040c821 	move	t9,v0
  409f0c:	0320f809 	jalr	t9
  409f10:	00000000 	nop
  409f14:	8fdc0010 	lw	gp,16(s8)
  409f18:	3c020041 	lui	v0,0x41
  409f1c:	24431670 	addiu	v1,v0,5744
  409f20:	8fc2001c 	lw	v0,28(s8)
  409f24:	00000000 	nop
  409f28:	30420008 	andi	v0,v0,0x8
  409f2c:	10400004 	beqz	v0,409f40 <table_search_mac_fid+0x52c>
  409f30:	00000000 	nop
  409f34:	24020031 	li	v0,49
  409f38:	081027d1 	j	409f44 <table_search_mac_fid+0x530>
  409f3c:	00000000 	nop
  409f40:	2402002d 	li	v0,45
  409f44:	00602021 	move	a0,v1
  409f48:	00402821 	move	a1,v0
[31m  409f4c:	8f82808c 	lw	v0,printf[0m
  409f50:	00000000 	nop
  409f54:	0040c821 	move	t9,v0
--
  40a038:	24020031 	li	v0,49
  40a03c:	08102812 	j	40a048 <table_search_mac_fid+0x634>
  40a040:	00000000 	nop
  40a044:	2402002d 	li	v0,45
  40a048:	00402021 	move	a0,v0
  40a04c:	8f828098 	lw	v0,-32616(gp)
  40a050:	00000000 	nop
  40a054:	0040c821 	move	t9,v0
  40a058:	0320f809 	jalr	t9
  40a05c:	00000000 	nop
  40a060:	8fdc0010 	lw	gp,16(s8)
  40a064:	27c20028 	addiu	v0,s8,40
  40a068:	24040088 	li	a0,136
  40a06c:	00402821 	move	a1,v0
  40a070:	0c1004f7 	jal	4013dc <reg_read>
  40a074:	00000000 	nop
  40a078:	8fdc0010 	lw	gp,16(s8)
  40a07c:	3c020041 	lui	v0,0x41
  40a080:	2443180c 	addiu	v1,v0,6156
  40a084:	8fc20028 	lw	v0,40(s8)
  40a088:	00000000 	nop
  40a08c:	00021302 	srl	v0,v0,0xc
  40a090:	30420007 	andi	v0,v0,0x7
  40a094:	00602021 	move	a0,v1
  40a098:	00402821 	move	a1,v0
[31m  40a09c:	8f82808c 	lw	v0,printf[0m
  40a0a0:	00000000 	nop
  40a0a4:	0040c821 	move	t9,v0
  40a0a8:	0320f809 	jalr	t9
  40a0ac:	00000000 	nop
  40a0b0:	8fdc0010 	lw	gp,16(s8)
  40a0b4:	3c020041 	lui	v0,0x41
  40a0b8:	24431814 	addiu	v1,v0,6164
  40a0bc:	8fc20028 	lw	v0,40(s8)
  40a0c0:	00000000 	nop
  40a0c4:	30420fff 	andi	v0,v0,0xfff
  40a0c8:	00602021 	move	a0,v1
  40a0cc:	00402821 	move	a1,v0
[31m  40a0d0:	8f82808c 	lw	v0,printf[0m
  40a0d4:	00000000 	nop
  40a0d8:	0040c821 	move	t9,v0
  40a0dc:	0320f809 	jalr	t9
  40a0e0:	00000000 	nop
  40a0e4:	8fdc0010 	lw	gp,16(s8)
  40a0e8:	3c020041 	lui	v0,0x41
  40a0ec:	2443181c 	addiu	v1,v0,6172
  40a0f0:	8fc2002c 	lw	v0,44(s8)
  40a0f4:	00000000 	nop
  40a0f8:	00021602 	srl	v0,v0,0x18
  40a0fc:	00602021 	move	a0,v1
  40a100:	00402821 	move	a1,v0
[31m  40a104:	8f82808c 	lw	v0,printf[0m
  40a108:	00000000 	nop
  40a10c:	0040c821 	move	t9,v0
  40a110:	0320f809 	jalr	t9
  40a114:	00000000 	nop
  40a118:	8fdc0010 	lw	gp,16(s8)
  40a11c:	27c20024 	addiu	v0,s8,36
  40a120:	24040084 	li	a0,132
  40a124:	00402821 	move	a1,v0
  40a128:	0c1004f7 	jal	4013dc <reg_read>
  40a12c:	00000000 	nop
  40a130:	8fdc0010 	lw	gp,16(s8)
  40a134:	3c020041 	lui	v0,0x41
  40a138:	24431824 	addiu	v1,v0,6180
  40a13c:	8fc20024 	lw	v0,36(s8)
  40a140:	00602021 	move	a0,v1
  40a144:	00402821 	move	a1,v0
[31m  40a148:	8f82808c 	lw	v0,printf[0m
  40a14c:	00000000 	nop
  40a150:	0040c821 	move	t9,v0
  40a154:	0320f809 	jalr	t9
  40a158:	00000000 	nop
  40a15c:	8fdc0010 	lw	gp,16(s8)
  40a160:	3c020041 	lui	v0,0x41
  40a164:	2443182c 	addiu	v1,v0,6188
  40a168:	8fc20028 	lw	v0,40(s8)
  40a16c:	00000000 	nop
  40a170:	00021402 	srl	v0,v0,0x10
  40a174:	00602021 	move	a0,v1
  40a178:	00402821 	move	a1,v0
[31m  40a17c:	8f82808c 	lw	v0,printf[0m
  40a180:	00000000 	nop
  40a184:	0040c821 	move	t9,v0
  40a188:	0320f809 	jalr	t9
  40a18c:	00000000 	nop
  40a190:	8fdc0010 	lw	gp,16(s8)
  40a194:	3c020041 	lui	v0,0x41
  40a198:	24431834 	addiu	v1,v0,6196
  40a19c:	8fc2002c 	lw	v0,44(s8)
  40a1a0:	00000000 	nop
  40a1a4:	00021502 	srl	v0,v0,0x14
  40a1a8:	30440003 	andi	a0,v0,0x3
  40a1ac:	24020003 	li	v0,3
  40a1b0:	14820004 	bne	a0,v0,40a1c4 <table_search_mac_fid+0x7b0>
  40a1b4:	00000000 	nop
  40a1b8:	24020079 	li	v0,121
  40a1bc:	08102872 	j	40a1c8 <table_search_mac_fid+0x7b4>
  40a1c0:	00000000 	nop
  40a1c4:	2402002d 	li	v0,45
  40a1c8:	00602021 	move	a0,v1
  40a1cc:	00402821 	move	a1,v0
[31m  40a1d0:	8f82808c 	lw	v0,printf[0m
  40a1d4:	00000000 	nop
  40a1d8:	0040c821 	move	t9,v0
  40a1dc:	0320f809 	jalr	t9
  40a1e0:	00000000 	nop
  40a1e4:	8fdc0010 	lw	gp,16(s8)
  40a1e8:	3c020041 	lui	v0,0x41
  40a1ec:	2443183c 	addiu	v1,v0,6204
  40a1f0:	8fc4002c 	lw	a0,44(s8)
  40a1f4:	3c020080 	lui	v0,0x80
  40a1f8:	00821024 	and	v0,a0,v0
  40a1fc:	10400004 	beqz	v0,40a210 <table_search_mac_fid+0x7fc>
  40a200:	00000000 	nop
  40a204:	24020079 	li	v0,121
  40a208:	08102885 	j	40a214 <table_search_mac_fid+0x800>
  40a20c:	00000000 	nop
  40a210:	2402002d 	li	v0,45
  40a214:	00602021 	move	a0,v1
  40a218:	00402821 	move	a1,v0
[31m  40a21c:	8f82808c 	lw	v0,printf[0m
  40a220:	00000000 	nop
  40a224:	0040c821 	move	t9,v0
--
  40a9dc:	279ca080 	addiu	gp,gp,-24448
  40a9e0:	afbc0010 	sw	gp,16(sp)
  40a9e4:	24040080 	li	a0,128
  40a9e8:	34058002 	li	a1,0x8002
  40a9ec:	0c10059c 	jal	401670 <reg_write>
  40a9f0:	00000000 	nop
  40a9f4:	8fdc0010 	lw	gp,16(s8)
  40a9f8:	24041388 	li	a0,5000
  40a9fc:	8f828088 	lw	v0,-32632(gp)
  40aa00:	00000000 	nop
  40aa04:	0040c821 	move	t9,v0
  40aa08:	0320f809 	jalr	t9
  40aa0c:	00000000 	nop
  40aa10:	8fdc0010 	lw	gp,16(s8)
  40aa14:	24040080 	li	a0,128
  40aa18:	27c20018 	addiu	v0,s8,24
  40aa1c:	00402821 	move	a1,v0
  40aa20:	0c1004f7 	jal	4013dc <reg_read>
  40aa24:	00000000 	nop
  40aa28:	8fdc0010 	lw	gp,16(s8)
  40aa2c:	3c020041 	lui	v0,0x41
  40aa30:	24431728 	addiu	v1,v0,5928
  40aa34:	8fc20018 	lw	v0,24(s8)
  40aa38:	00602021 	move	a0,v1
  40aa3c:	00402821 	move	a1,v0
[31m  40aa40:	8f82808c 	lw	v0,printf[0m
  40aa44:	00000000 	nop
  40aa48:	0040c821 	move	t9,v0
--
  40aaa0:	8c420000 	lw	v0,0(v0)
  40aaa4:	00000000 	nop
  40aaa8:	00402021 	move	a0,v0
  40aaac:	00002821 	move	a1,zero
  40aab0:	00003021 	move	a2,zero
  40aab4:	8f828078 	lw	v0,-32648(gp)
  40aab8:	00000000 	nop
  40aabc:	0040c821 	move	t9,v0
  40aac0:	0320f809 	jalr	t9
  40aac4:	00000000 	nop
  40aac8:	8fdc0010 	lw	gp,16(s8)
  40aacc:	afc20018 	sw	v0,24(s8)
  40aad0:	8fc20018 	lw	v0,24(s8)
  40aad4:	00000000 	nop
  40aad8:	04400006 	bltz	v0,40aaf4 <set_mirror_to+0x84>
  40aadc:	00000000 	nop
  40aae0:	8fc20018 	lw	v0,24(s8)
  40aae4:	00000000 	nop
  40aae8:	28420007 	slti	v0,v0,7
  40aaec:	1440000d 	bnez	v0,40ab24 <set_mirror_to+0xb4>
  40aaf0:	00000000 	nop
  40aaf4:	3c020041 	lui	v0,0x41
  40aaf8:	2442198c 	addiu	v0,v0,6540
  40aafc:	00402021 	move	a0,v0
  40ab00:	24050006 	li	a1,6
[31m  40ab04:	8f82808c 	lw	v0,printf[0m
  40ab08:	00000000 	nop
  40ab0c:	0040c821 	move	t9,v0
--
  40ac0c:	8c420000 	lw	v0,0(v0)
  40ac10:	00000000 	nop
  40ac14:	00402021 	move	a0,v0
  40ac18:	00002821 	move	a1,zero
  40ac1c:	00003021 	move	a2,zero
  40ac20:	8f828078 	lw	v0,-32648(gp)
  40ac24:	00000000 	nop
  40ac28:	0040c821 	move	t9,v0
  40ac2c:	0320f809 	jalr	t9
  40ac30:	00000000 	nop
  40ac34:	8fdc0010 	lw	gp,16(s8)
  40ac38:	afc2001c 	sw	v0,28(s8)
  40ac3c:	8fc20018 	lw	v0,24(s8)
  40ac40:	00000000 	nop
  40ac44:	04400006 	bltz	v0,40ac60 <set_mirror_from+0xc0>
  40ac48:	00000000 	nop
  40ac4c:	8fc20018 	lw	v0,24(s8)
  40ac50:	00000000 	nop
  40ac54:	28420007 	slti	v0,v0,7
  40ac58:	1440000d 	bnez	v0,40ac90 <set_mirror_from+0xf0>
  40ac5c:	00000000 	nop
  40ac60:	3c020041 	lui	v0,0x41
  40ac64:	2442198c 	addiu	v0,v0,6540
  40ac68:	00402021 	move	a0,v0
  40ac6c:	24050006 	li	a1,6
[31m  40ac70:	8f82808c 	lw	v0,printf[0m
  40ac74:	00000000 	nop
  40ac78:	0040c821 	move	t9,v0
--
  40ae88:	0320f809 	jalr	t9
  40ae8c:	00000000 	nop
  40ae90:	8fdc0010 	lw	gp,16(s8)
  40ae94:	27c20020 	addiu	v0,s8,32
  40ae98:	24040094 	li	a0,148
  40ae9c:	00402821 	move	a1,v0
  40aea0:	0c1004f7 	jal	4013dc <reg_read>
  40aea4:	00000000 	nop
  40aea8:	8fdc0010 	lw	gp,16(s8)
  40aeac:	27c20024 	addiu	v0,s8,36
  40aeb0:	24040098 	li	a0,152
  40aeb4:	00402821 	move	a1,v0
  40aeb8:	0c1004f7 	jal	4013dc <reg_read>
  40aebc:	00000000 	nop
  40aec0:	8fdc0010 	lw	gp,16(s8)
  40aec4:	8fc20020 	lw	v0,32(s8)
  40aec8:	00000000 	nop
  40aecc:	30420001 	andi	v0,v0,0x1
  40aed0:	304200ff 	andi	v0,v0,0xff
  40aed4:	104000ac 	beqz	v0,40b188 <vlan_dump+0x418>
  40aed8:	00000000 	nop
  40aedc:	3c020041 	lui	v0,0x41
  40aee0:	24421a04 	addiu	v0,v0,6660
  40aee4:	00402021 	move	a0,v0
  40aee8:	8fc50018 	lw	a1,24(s8)
[31m  40aeec:	8f82808c 	lw	v0,printf[0m
  40aef0:	00000000 	nop
  40aef4:	0040c821 	move	t9,v0
  40aef8:	0320f809 	jalr	t9
  40aefc:	00000000 	nop
  40af00:	8fdc0010 	lw	gp,16(s8)
  40af04:	3c020041 	lui	v0,0x41
  40af08:	24431a0c 	addiu	v1,v0,6668
  40af0c:	8fc20020 	lw	v0,32(s8)
  40af10:	00000000 	nop
  40af14:	3042000e 	andi	v0,v0,0xe
  40af18:	00021043 	sra	v0,v0,0x1
  40af1c:	00602021 	move	a0,v1
  40af20:	00402821 	move	a1,v0
[31m  40af24:	8f82808c 	lw	v0,printf[0m
  40af28:	00000000 	nop
  40af2c:	0040c821 	move	t9,v0
  40af30:	0320f809 	jalr	t9
  40af34:	00000000 	nop
  40af38:	8fdc0010 	lw	gp,16(s8)
  40af3c:	3c020041 	lui	v0,0x41
  40af40:	24431788 	addiu	v1,v0,6024
  40af44:	8fc40020 	lw	a0,32(s8)
  40af48:	3c020001 	lui	v0,0x1
  40af4c:	00821024 	and	v0,a0,v0
  40af50:	10400004 	beqz	v0,40af64 <vlan_dump+0x1f4>
  40af54:	00000000 	nop
  40af58:	24020031 	li	v0,49
  40af5c:	08102bda 	j	40af68 <vlan_dump+0x1f8>
  40af60:	00000000 	nop
  40af64:	2402002d 	li	v0,45
  40af68:	00602021 	move	a0,v1
  40af6c:	00402821 	move	a1,v0
[31m  40af70:	8f82808c 	lw	v0,printf[0m
  40af74:	00000000 	nop
  40af78:	0040c821 	move	t9,v0
--
  40b104:	8fdc0010 	lw	gp,16(s8)
  40b108:	8fc30020 	lw	v1,32(s8)
  40b10c:	3c020080 	lui	v0,0x80
  40b110:	00621024 	and	v0,v1,v0
  40b114:	10400004 	beqz	v0,40b128 <vlan_dump+0x3b8>
  40b118:	00000000 	nop
  40b11c:	24020031 	li	v0,49
  40b120:	08102c4b 	j	40b12c <vlan_dump+0x3bc>
  40b124:	00000000 	nop
  40b128:	2402002d 	li	v0,45
  40b12c:	00402021 	move	a0,v0
  40b130:	8f828098 	lw	v0,-32616(gp)
  40b134:	00000000 	nop
  40b138:	0040c821 	move	t9,v0
  40b13c:	0320f809 	jalr	t9
  40b140:	00000000 	nop
  40b144:	8fdc0010 	lw	gp,16(s8)
  40b148:	3c020041 	lui	v0,0x41
  40b14c:	24431a14 	addiu	v1,v0,6676
  40b150:	8fc20020 	lw	v0,32(s8)
  40b154:	00000000 	nop
  40b158:	3042fff0 	andi	v0,v0,0xfff0
  40b15c:	00021103 	sra	v0,v0,0x4
  40b160:	00602021 	move	a0,v1
  40b164:	00402821 	move	a1,v0
[31m  40b168:	8f82808c 	lw	v0,printf[0m
  40b16c:	00000000 	nop
  40b170:	0040c821 	move	t9,v0
  40b174:	0320f809 	jalr	t9
  40b178:	00000000 	nop
  40b17c:	8fdc0010 	lw	gp,16(s8)
  40b180:	08102c87 	j	40b21c <vlan_dump+0x4ac>
  40b184:	00000000 	nop
  40b188:	8fc20018 	lw	v0,24(s8)
  40b18c:	00000000 	nop
  40b190:	28420011 	slti	v0,v0,17
  40b194:	10400021 	beqz	v0,40b21c <vlan_dump+0x4ac>
  40b198:	00000000 	nop
  40b19c:	3c020041 	lui	v0,0x41
  40b1a0:	24421a04 	addiu	v0,v0,6660
  40b1a4:	00402021 	move	a0,v0
  40b1a8:	8fc50018 	lw	a1,24(s8)
[31m  40b1ac:	8f82808c 	lw	v0,printf[0m
  40b1b0:	00000000 	nop
  40b1b4:	0040c821 	move	t9,v0
  40b1b8:	0320f809 	jalr	t9
  40b1bc:	00000000 	nop
  40b1c0:	8fdc0010 	lw	gp,16(s8)
  40b1c4:	3c020041 	lui	v0,0x41
  40b1c8:	24431a0c 	addiu	v1,v0,6668
  40b1cc:	8fc20020 	lw	v0,32(s8)
  40b1d0:	00000000 	nop
  40b1d4:	3042000e 	andi	v0,v0,0xe
  40b1d8:	00021043 	sra	v0,v0,0x1
  40b1dc:	00602021 	move	a0,v1
  40b1e0:	00402821 	move	a1,v0
[31m  40b1e4:	8f82808c 	lw	v0,printf[0m
  40b1e8:	00000000 	nop
  40b1ec:	0040c821 	move	t9,v0
--
  40b60c:	00000000 	nop
  40b610:	8fc20040 	lw	v0,64(s8)
  40b614:	00000000 	nop
  40b618:	28420007 	slti	v0,v0,7
  40b61c:	1440001a 	bnez	v0,40b688 <vlan_set+0x2cc>
  40b620:	00000000 	nop
  40b624:	8fc20044 	lw	v0,68(s8)
  40b628:	00000000 	nop
  40b62c:	24420018 	addiu	v0,v0,24
  40b630:	8c420000 	lw	v0,0(v0)
  40b634:	00000000 	nop
  40b638:	00402021 	move	a0,v0
  40b63c:	00002821 	move	a1,zero
  40b640:	24060010 	li	a2,16
  40b644:	8f828078 	lw	v0,-32648(gp)
  40b648:	00000000 	nop
  40b64c:	0040c821 	move	t9,v0
  40b650:	0320f809 	jalr	t9
  40b654:	00000000 	nop
  40b658:	8fdc0010 	lw	gp,16(s8)
  40b65c:	afc20020 	sw	v0,32(s8)
  40b660:	3c020041 	lui	v0,0x41
  40b664:	24421a74 	addiu	v0,v0,6772
  40b668:	00402021 	move	a0,v0
  40b66c:	8fc50020 	lw	a1,32(s8)
[31m  40b670:	8f82808c 	lw	v0,printf[0m
  40b674:	00000000 	nop
  40b678:	0040c821 	move	t9,v0
--
  40c974:	00000000 	nop
  40c978:	0040c821 	move	t9,v0
  40c97c:	0320f809 	jalr	t9
  40c980:	00000000 	nop
  40c984:	8fdc0010 	lw	gp,16(s8)
  40c988:	3c020041 	lui	v0,0x41
  40c98c:	2442150c 	addiu	v0,v0,5388
  40c990:	27c30050 	addiu	v1,s8,80
  40c994:	88440003 	lwl	a0,3(v0)
  40c998:	00000000 	nop
  40c99c:	98440000 	lwr	a0,0(v0)
  40c9a0:	00000000 	nop
  40c9a4:	ac640000 	sw	a0,0(v1)
  40c9a8:	90420004 	lbu	v0,4(v0)
  40c9ac:	00000000 	nop
  40c9b0:	a0620004 	sb	v0,4(v1)
  40c9b4:	27c20070 	addiu	v0,s8,112
  40c9b8:	afc20060 	sw	v0,96(s8)
  40c9bc:	afc00018 	sw	zero,24(s8)
  40c9c0:	081032a3 	j	40ca8c <dump_gphy+0x1bc>
  40c9c4:	00000000 	nop
  40c9c8:	3c020041 	lui	v0,0x41
  40c9cc:	24421b20 	addiu	v0,v0,6944
  40c9d0:	00402021 	move	a0,v0
  40c9d4:	8fc50018 	lw	a1,24(s8)
[31m  40c9d8:	8f82808c 	lw	v0,printf[0m
  40c9dc:	00000000 	nop
  40c9e0:	0040c821 	move	t9,v0
  40c9e4:	0320f809 	jalr	t9
  40c9e8:	00000000 	nop
  40c9ec:	8fdc0010 	lw	gp,16(s8)
  40c9f0:	8fc20024 	lw	v0,36(s8)
  40c9f4:	00000000 	nop
  40c9f8:	afc2001c 	sw	v0,28(s8)
  40c9fc:	08103297 	j	40ca5c <dump_gphy+0x18c>
  40ca00:	00000000 	nop
  40ca04:	8fc40018 	lw	a0,24(s8)
  40ca08:	2405001e 	li	a1,30
  40ca0c:	8fc6001c 	lw	a2,28(s8)
  40ca10:	0c103100 	jal	40c400 <mii_mgr_cl45_read>
  40ca14:	00000000 	nop
  40ca18:	8fdc0010 	lw	gp,16(s8)
  40ca1c:	afc20030 	sw	v0,48(s8)
  40ca20:	3c020041 	lui	v0,0x41
  40ca24:	24421b30 	addiu	v0,v0,6960
  40ca28:	00402021 	move	a0,v0
  40ca2c:	8fc5001c 	lw	a1,28(s8)
  40ca30:	8fc60030 	lw	a2,48(s8)
[31m  40ca34:	8f82808c 	lw	v0,printf[0m
  40ca38:	00000000 	nop
  40ca3c:	0040c821 	move	t9,v0
--
  40caf0:	00000000 	nop
  40caf4:	afc20074 	sw	v0,116(s8)
  40caf8:	8fc30034 	lw	v1,52(s8)
  40cafc:	27c20050 	addiu	v0,s8,80
  40cb00:	8fc4002c 	lw	a0,44(s8)
  40cb04:	00602821 	move	a1,v1
  40cb08:	00403021 	move	a2,v0
  40cb0c:	8f828090 	lw	v0,-32624(gp)
  40cb10:	00000000 	nop
  40cb14:	0040c821 	move	t9,v0
  40cb18:	0320f809 	jalr	t9
  40cb1c:	00000000 	nop
  40cb20:	8fdc0010 	lw	gp,16(s8)
  40cb24:	afc20030 	sw	v0,48(s8)
  40cb28:	3c020041 	lui	v0,0x41
  40cb2c:	24441b58 	addiu	a0,v0,7000
  40cb30:	8fc20018 	lw	v0,24(s8)
  40cb34:	00000000 	nop
  40cb38:	00021080 	sll	v0,v0,0x2
  40cb3c:	27c30018 	addiu	v1,s8,24
  40cb40:	00621021 	addu	v0,v1,v0
  40cb44:	8c430020 	lw	v1,32(v0)
  40cb48:	8fc2007c 	lw	v0,124(s8)
  40cb4c:	00602821 	move	a1,v1
  40cb50:	00403021 	move	a2,v0
[31m  40cb54:	8f82808c 	lw	v0,printf[0m
  40cb58:	00000000 	nop
  40cb5c:	0040c821 	move	t9,v0
--
  40cc38:	8fc20024 	lw	v0,36(s8)
  40cc3c:	00000000 	nop
  40cc40:	28420005 	slti	v0,v0,5
  40cc44:	1440000b 	bnez	v0,40cc74 <phy_crossover+0xac>
  40cc48:	00000000 	nop
  40cc4c:	8fc20034 	lw	v0,52(s8)
  40cc50:	00000000 	nop
  40cc54:	8c420000 	lw	v0,0(v0)
  40cc58:	00000000 	nop
  40cc5c:	00402021 	move	a0,v0
  40cc60:	0c1002a6 	jal	400a98 <usage>
  40cc64:	00000000 	nop
  40cc68:	8fdc0018 	lw	gp,24(s8)
  40cc6c:	081033a5 	j	40ce94 <phy_crossover+0x2cc>
  40cc70:	00000000 	nop
  40cc74:	8fc40024 	lw	a0,36(s8)
  40cc78:	2405001e 	li	a1,30
  40cc7c:	24060145 	li	a2,325
  40cc80:	0c103100 	jal	40c400 <mii_mgr_cl45_read>
  40cc84:	00000000 	nop
  40cc88:	8fdc0018 	lw	gp,24(s8)
  40cc8c:	afc20020 	sw	v0,32(s8)
  40cc90:	3c020041 	lui	v0,0x41
  40cc94:	24421b68 	addiu	v0,v0,7016
  40cc98:	00402021 	move	a0,v0
[31m  40cc9c:	8f82808c 	lw	v0,printf[0m
  40cca0:	00000000 	nop
  40cca4:	0040c821 	move	t9,v0
  40cca8:	0320f809 	jalr	t9
  40ccac:	00000000 	nop
  40ccb0:	8fdc0018 	lw	gp,24(s8)
  40ccb4:	3c020041 	lui	v0,0x41
  40ccb8:	24421b78 	addiu	v0,v0,7032
  40ccbc:	8fc30020 	lw	v1,32(s8)
  40ccc0:	00000000 	nop
  40ccc4:	afa30010 	sw	v1,16(sp)
  40ccc8:	00402021 	move	a0,v0
  40cccc:	8fc50024 	lw	a1,36(s8)
  40ccd0:	2406001e 	li	a2,30
  40ccd4:	24070145 	li	a3,325
[31m  40ccd8:	8f82808c 	lw	v0,printf[0m
  40ccdc:	00000000 	nop
  40cce0:	0040c821 	move	t9,v0
--
  40cdfc:	8fc20020 	lw	v0,32(s8)
  40ce00:	00000000 	nop
  40ce04:	34420018 	ori	v0,v0,0x18
  40ce08:	afc20020 	sw	v0,32(s8)
  40ce0c:	0810338f 	j	40ce3c <phy_crossover+0x274>
  40ce10:	00000000 	nop
  40ce14:	8fc20034 	lw	v0,52(s8)
  40ce18:	00000000 	nop
  40ce1c:	8c420000 	lw	v0,0(v0)
  40ce20:	00000000 	nop
  40ce24:	00402021 	move	a0,v0
  40ce28:	0c1002a6 	jal	400a98 <usage>
  40ce2c:	00000000 	nop
  40ce30:	8fdc0018 	lw	gp,24(s8)
  40ce34:	081033a5 	j	40ce94 <phy_crossover+0x2cc>
  40ce38:	00000000 	nop
  40ce3c:	3c020041 	lui	v0,0x41
  40ce40:	24421bc0 	addiu	v0,v0,7104
  40ce44:	8fc30020 	lw	v1,32(s8)
  40ce48:	00000000 	nop
  40ce4c:	afa30010 	sw	v1,16(sp)
  40ce50:	00402021 	move	a0,v0
  40ce54:	8fc50024 	lw	a1,36(s8)
  40ce58:	2406001e 	li	a2,30
  40ce5c:	24070145 	li	a3,325
[31m  40ce60:	8f82808c 	lw	v0,printf[0m
  40ce64:	00000000 	nop
  40ce68:	0040c821 	move	t9,v0
--
  40d080:	8fc30030 	lw	v1,48(s8)
  40d084:	8fc20078 	lw	v0,120(s8)
  40d088:	00602821 	move	a1,v1
  40d08c:	00403021 	move	a2,v0
  40d090:	0c100697 	jal	401a5c <mii_write>
  40d094:	00000000 	nop
  40d098:	8fdc0010 	lw	gp,16(s8)
  40d09c:	08104065 	j	410194 <main+0x32e8>
  40d0a0:	00000000 	nop
  40d0a4:	afc00078 	sw	zero,120(s8)
  40d0a8:	8fc4002c 	lw	a0,44(s8)
  40d0ac:	8fc30030 	lw	v1,48(s8)
  40d0b0:	27c20078 	addiu	v0,s8,120
  40d0b4:	00602821 	move	a1,v1
  40d0b8:	00403021 	move	a2,v0
  40d0bc:	0c10063b 	jal	4018ec <mii_read>
  40d0c0:	00000000 	nop
  40d0c4:	8fdc0010 	lw	gp,16(s8)
  40d0c8:	3c020041 	lui	v0,0x41
  40d0cc:	24431c24 	addiu	v1,v0,7204
  40d0d0:	8fc20078 	lw	v0,120(s8)
  40d0d4:	00602021 	move	a0,v1
  40d0d8:	8fc5002c 	lw	a1,44(s8)
  40d0dc:	8fc60030 	lw	a2,48(s8)
  40d0e0:	00403821 	move	a3,v0
[31m  40d0e4:	8f82808c 	lw	v0,printf[0m
  40d0e8:	00000000 	nop
  40d0ec:	0040c821 	move	t9,v0
--
  40d900:	00000000 	nop
  40d904:	3c020041 	lui	v0,0x41
  40d908:	24421d38 	addiu	v0,v0,7480
  40d90c:	08103647 	j	40d91c <main+0xa70>
  40d910:	00000000 	nop
  40d914:	3c020041 	lui	v0,0x41
  40d918:	24421d40 	addiu	v0,v0,7488
  40d91c:	00401821 	move	v1,v0
  40d920:	0810364c 	j	40d930 <main+0xa84>
  40d924:	00000000 	nop
  40d928:	3c020041 	lui	v0,0x41
  40d92c:	24431d44 	addiu	v1,v0,7492
  40d930:	8fc20080 	lw	v0,128(s8)
  40d934:	00000000 	nop
  40d938:	30420100 	andi	v0,v0,0x100
  40d93c:	10400005 	beqz	v0,40d954 <main+0xaa8>
  40d940:	00000000 	nop
  40d944:	3c020041 	lui	v0,0x41
  40d948:	24421d4c 	addiu	v0,v0,7500
  40d94c:	08103657 	j	40d95c <main+0xab0>
  40d950:	00000000 	nop
  40d954:	3c020041 	lui	v0,0x41
  40d958:	24421d50 	addiu	v0,v0,7504
  40d95c:	00602821 	move	a1,v1
  40d960:	00403021 	move	a2,v0
[31m  40d964:	8f82808c 	lw	v0,printf[0m
  40d968:	00000000 	nop
  40d96c:	0040c821 	move	t9,v0
--
  40da2c:	00000000 	nop
  40da30:	8fc20020 	lw	v0,32(s8)
  40da34:	24030001 	li	v1,1
  40da38:	00431004 	sllv	v0,v1,v0
  40da3c:	00401821 	move	v1,v0
  40da40:	8fc20024 	lw	v0,36(s8)
  40da44:	00000000 	nop
  40da48:	00621024 	and	v0,v1,v0
  40da4c:	10400054 	beqz	v0,40dba0 <main+0xcf4>
  40da50:	00000000 	nop
  40da54:	8fc20020 	lw	v0,32(s8)
  40da58:	00000000 	nop
  40da5c:	00021200 	sll	v0,v0,0x8
  40da60:	24423008 	addiu	v0,v0,12296
  40da64:	00401821 	move	v1,v0
  40da68:	27c20084 	addiu	v0,s8,132
  40da6c:	00602021 	move	a0,v1
  40da70:	00402821 	move	a1,v0
  40da74:	0c1004f7 	jal	4013dc <reg_read>
  40da78:	00000000 	nop
  40da7c:	8fdc0010 	lw	gp,16(s8)
  40da80:	3c020041 	lui	v0,0x41
  40da84:	24421d64 	addiu	v0,v0,7524
  40da88:	00402021 	move	a0,v0
  40da8c:	8fc50020 	lw	a1,32(s8)
[31m  40da90:	8f82808c 	lw	v0,printf[0m
  40da94:	00000000 	nop
  40da98:	0040c821 	move	t9,v0
--
  40daf4:	00000000 	nop
  40daf8:	3c020041 	lui	v0,0x41
  40dafc:	24421d38 	addiu	v0,v0,7480
  40db00:	081036c4 	j	40db10 <main+0xc64>
  40db04:	00000000 	nop
  40db08:	3c020041 	lui	v0,0x41
  40db0c:	24421d40 	addiu	v0,v0,7488
  40db10:	00401821 	move	v1,v0
  40db14:	081036c9 	j	40db24 <main+0xc78>
  40db18:	00000000 	nop
  40db1c:	3c020041 	lui	v0,0x41
  40db20:	24431d44 	addiu	v1,v0,7492
  40db24:	8fc20084 	lw	v0,132(s8)
  40db28:	00000000 	nop
  40db2c:	30420002 	andi	v0,v0,0x2
  40db30:	10400005 	beqz	v0,40db48 <main+0xc9c>
  40db34:	00000000 	nop
  40db38:	3c020041 	lui	v0,0x41
  40db3c:	24421d4c 	addiu	v0,v0,7500
  40db40:	081036d4 	j	40db50 <main+0xca4>
  40db44:	00000000 	nop
  40db48:	3c020041 	lui	v0,0x41
  40db4c:	24421d50 	addiu	v0,v0,7504
  40db50:	00602821 	move	a1,v1
  40db54:	00403021 	move	a2,v0
[31m  40db58:	8f82808c 	lw	v0,printf[0m
  40db5c:	00000000 	nop
  40db60:	0040c821 	move	t9,v0
--
  40eee4:	2442000c 	addiu	v0,v0,12
  40eee8:	8c420000 	lw	v0,0(v0)
  40eeec:	00000000 	nop
  40eef0:	00402021 	move	a0,v0
  40eef4:	00002821 	move	a1,zero
  40eef8:	24060010 	li	a2,16
  40eefc:	8f828078 	lw	v0,-32648(gp)
  40ef00:	00000000 	nop
  40ef04:	0040c821 	move	t9,v0
  40ef08:	0320f809 	jalr	t9
  40ef0c:	00000000 	nop
  40ef10:	8fdc0010 	lw	gp,16(s8)
  40ef14:	afc20040 	sw	v0,64(s8)
  40ef18:	27c20088 	addiu	v0,s8,136
  40ef1c:	8fc40040 	lw	a0,64(s8)
  40ef20:	00402821 	move	a1,v0
  40ef24:	0c1004f7 	jal	4013dc <reg_read>
  40ef28:	00000000 	nop
  40ef2c:	8fdc0010 	lw	gp,16(s8)
  40ef30:	3c020041 	lui	v0,0x41
  40ef34:	24431e38 	addiu	v1,v0,7736
  40ef38:	8fc20088 	lw	v0,136(s8)
  40ef3c:	00602021 	move	a0,v1
  40ef40:	8fc50040 	lw	a1,64(s8)
  40ef44:	00403021 	move	a2,v0
[31m  40ef48:	8f82808c 	lw	v0,printf[0m
  40ef4c:	00000000 	nop
  40ef50:	0040c821 	move	t9,v0
--
  40efe8:	0320f809 	jalr	t9
  40efec:	00000000 	nop
  40eff0:	8fdc0010 	lw	gp,16(s8)
  40eff4:	afc20040 	sw	v0,64(s8)
  40eff8:	8fc200ac 	lw	v0,172(s8)
  40effc:	00000000 	nop
  40f000:	24420010 	addiu	v0,v0,16
  40f004:	8c420000 	lw	v0,0(v0)
  40f008:	00000000 	nop
  40f00c:	00402021 	move	a0,v0
  40f010:	00002821 	move	a1,zero
  40f014:	24060010 	li	a2,16
  40f018:	8f828078 	lw	v0,-32648(gp)
  40f01c:	00000000 	nop
  40f020:	0040c821 	move	t9,v0
  40f024:	0320f809 	jalr	t9
  40f028:	00000000 	nop
  40f02c:	8fdc0010 	lw	gp,16(s8)
  40f030:	afc20088 	sw	v0,136(s8)
  40f034:	3c020041 	lui	v0,0x41
  40f038:	24431e60 	addiu	v1,v0,7776
  40f03c:	8fc20088 	lw	v0,136(s8)
  40f040:	00602021 	move	a0,v1
  40f044:	8fc50040 	lw	a1,64(s8)
  40f048:	00403021 	move	a2,v0
[31m  40f04c:	8f82808c 	lw	v0,printf[0m
  40f050:	00000000 	nop
  40f054:	0040c821 	move	t9,v0
--
  40f0b4:	8c420000 	lw	v0,0(v0)
  40f0b8:	00000000 	nop
  40f0bc:	00402021 	move	a0,v0
  40f0c0:	00002821 	move	a1,zero
  40f0c4:	24060010 	li	a2,16
  40f0c8:	8f828078 	lw	v0,-32648(gp)
  40f0cc:	00000000 	nop
  40f0d0:	0040c821 	move	t9,v0
  40f0d4:	0320f809 	jalr	t9
  40f0d8:	00000000 	nop
  40f0dc:	8fdc0010 	lw	gp,16(s8)
  40f0e0:	afc20040 	sw	v0,64(s8)
  40f0e4:	afc00018 	sw	zero,24(s8)
  40f0e8:	08103c7e 	j	40f1f8 <main+0x234c>
  40f0ec:	00000000 	nop
  40f0f0:	3c020041 	lui	v0,0x41
  40f0f4:	24431e88 	addiu	v1,v0,7816
  40f0f8:	8fc20018 	lw	v0,24(s8)
  40f0fc:	00000000 	nop
  40f100:	00022100 	sll	a0,v0,0x4
  40f104:	8fc20040 	lw	v0,64(s8)
  40f108:	00000000 	nop
  40f10c:	00821021 	addu	v0,a0,v0
  40f110:	00602021 	move	a0,v1
  40f114:	00402821 	move	a1,v0
[31m  40f118:	8f82808c 	lw	v0,printf[0m
  40f11c:	00000000 	nop
  40f120:	0040c821 	move	t9,v0
--
  40f12c:	8fdc0010 	lw	gp,16(s8)
  40f130:	afc0001c 	sw	zero,28(s8)
  40f134:	08103c6e 	j	40f1b8 <main+0x230c>
  40f138:	00000000 	nop
  40f13c:	8fc20018 	lw	v0,24(s8)
  40f140:	00000000 	nop
  40f144:	00021880 	sll	v1,v0,0x2
  40f148:	8fc2001c 	lw	v0,28(s8)
  40f14c:	00000000 	nop
  40f150:	00621021 	addu	v0,v1,v0
  40f154:	00021880 	sll	v1,v0,0x2
  40f158:	8fc20040 	lw	v0,64(s8)
  40f15c:	00000000 	nop
  40f160:	00621821 	addu	v1,v1,v0
  40f164:	27c20088 	addiu	v0,s8,136
  40f168:	00602021 	move	a0,v1
  40f16c:	00402821 	move	a1,v0
  40f170:	0c1004f7 	jal	4013dc <reg_read>
  40f174:	00000000 	nop
  40f178:	8fdc0010 	lw	gp,16(s8)
  40f17c:	3c020041 	lui	v0,0x41
  40f180:	24431e94 	addiu	v1,v0,7828
  40f184:	8fc20088 	lw	v0,136(s8)
  40f188:	00602021 	move	a0,v1
  40f18c:	00402821 	move	a1,v0
[31m  40f190:	8f82808c 	lw	v0,printf[0m
  40f194:	00000000 	nop
  40f198:	0040c821 	move	t9,v0
--
  40f35c:	0320f809 	jalr	t9
  40f360:	00000000 	nop
  40f364:	8fdc0010 	lw	gp,16(s8)
  40f368:	afc20048 	sw	v0,72(s8)
  40f36c:	8fc200ac 	lw	v0,172(s8)
  40f370:	00000000 	nop
  40f374:	24420014 	addiu	v0,v0,20
  40f378:	8c420000 	lw	v0,0(v0)
  40f37c:	00000000 	nop
  40f380:	00402021 	move	a0,v0
  40f384:	00002821 	move	a1,zero
  40f388:	24060010 	li	a2,16
  40f38c:	8f828078 	lw	v0,-32648(gp)
  40f390:	00000000 	nop
  40f394:	0040c821 	move	t9,v0
  40f398:	0320f809 	jalr	t9
  40f39c:	00000000 	nop
  40f3a0:	8fdc0010 	lw	gp,16(s8)
  40f3a4:	afc2004c 	sw	v0,76(s8)
  40f3a8:	3c020041 	lui	v0,0x41
  40f3ac:	24421ea4 	addiu	v0,v0,7844
  40f3b0:	00402021 	move	a0,v0
  40f3b4:	8fc50044 	lw	a1,68(s8)
  40f3b8:	8fc60048 	lw	a2,72(s8)
  40f3bc:	8fc7004c 	lw	a3,76(s8)
[31m  40f3c0:	8f82808c 	lw	v0,printf[0m
  40f3c4:	00000000 	nop
  40f3c8:	0040c821 	move	t9,v0
--
  40f408:	afc20050 	sw	v0,80(s8)
  40f40c:	24040010 	li	a0,16
  40f410:	8fc50050 	lw	a1,80(s8)
  40f414:	0c1005ec 	jal	4017b0 <reg_write_tr>
  40f418:	00000000 	nop
  40f41c:	8fdc0010 	lw	gp,16(s8)
  40f420:	27c2008c 	addiu	v0,s8,140
  40f424:	24040011 	li	a0,17
  40f428:	00402821 	move	a1,v0
  40f42c:	0c10054a 	jal	401528 <reg_read_tr>
  40f430:	00000000 	nop
  40f434:	8fdc0010 	lw	gp,16(s8)
  40f438:	27c20090 	addiu	v0,s8,144
  40f43c:	24040012 	li	a0,18
  40f440:	00402821 	move	a1,v0
  40f444:	0c10054a 	jal	401528 <reg_read_tr>
  40f448:	00000000 	nop
  40f44c:	8fdc0010 	lw	gp,16(s8)
  40f450:	3c020041 	lui	v0,0x41
  40f454:	24441ed0 	addiu	a0,v0,7888
  40f458:	8fc30090 	lw	v1,144(s8)
  40f45c:	8fc2008c 	lw	v0,140(s8)
  40f460:	8fc50050 	lw	a1,80(s8)
  40f464:	00603021 	move	a2,v1
  40f468:	00403821 	move	a3,v0
[31m  40f46c:	8f82808c 	lw	v0,printf[0m
  40f470:	00000000 	nop
  40f474:	0040c821 	move	t9,v0
--
  40f5a4:	0320f809 	jalr	t9
  40f5a8:	00000000 	nop
  40f5ac:	8fdc0010 	lw	gp,16(s8)
  40f5b0:	afc20090 	sw	v0,144(s8)
  40f5b4:	8fc200ac 	lw	v0,172(s8)
  40f5b8:	00000000 	nop
  40f5bc:	2442001c 	addiu	v0,v0,28
  40f5c0:	8c420000 	lw	v0,0(v0)
  40f5c4:	00000000 	nop
  40f5c8:	00402021 	move	a0,v0
  40f5cc:	00002821 	move	a1,zero
  40f5d0:	24060010 	li	a2,16
  40f5d4:	8f828078 	lw	v0,-32648(gp)
  40f5d8:	00000000 	nop
  40f5dc:	0040c821 	move	t9,v0
  40f5e0:	0320f809 	jalr	t9
  40f5e4:	00000000 	nop
  40f5e8:	8fdc0010 	lw	gp,16(s8)
  40f5ec:	afc2008c 	sw	v0,140(s8)
  40f5f0:	3c020041 	lui	v0,0x41
  40f5f4:	24421ea4 	addiu	v0,v0,7844
  40f5f8:	00402021 	move	a0,v0
  40f5fc:	8fc50044 	lw	a1,68(s8)
  40f600:	8fc60048 	lw	a2,72(s8)
  40f604:	8fc7004c 	lw	a3,76(s8)
[31m  40f608:	8f82808c 	lw	v0,printf[0m
  40f60c:	00000000 	nop
  40f610:	0040c821 	move	t9,v0
--
  40f650:	afc20050 	sw	v0,80(s8)
  40f654:	8fc2008c 	lw	v0,140(s8)
  40f658:	24040011 	li	a0,17
  40f65c:	00402821 	move	a1,v0
  40f660:	0c1005ec 	jal	4017b0 <reg_write_tr>
  40f664:	00000000 	nop
  40f668:	8fdc0010 	lw	gp,16(s8)
  40f66c:	8fc20090 	lw	v0,144(s8)
  40f670:	24040012 	li	a0,18
  40f674:	00402821 	move	a1,v0
  40f678:	0c1005ec 	jal	4017b0 <reg_write_tr>
  40f67c:	00000000 	nop
  40f680:	8fdc0010 	lw	gp,16(s8)
  40f684:	24040010 	li	a0,16
  40f688:	8fc50050 	lw	a1,80(s8)
  40f68c:	0c1005ec 	jal	4017b0 <reg_write_tr>
  40f690:	00000000 	nop
  40f694:	8fdc0010 	lw	gp,16(s8)
  40f698:	3c020041 	lui	v0,0x41
  40f69c:	24441f10 	addiu	a0,v0,7952
  40f6a0:	8fc30090 	lw	v1,144(s8)
  40f6a4:	8fc2008c 	lw	v0,140(s8)
  40f6a8:	8fc50050 	lw	a1,80(s8)
  40f6ac:	00603021 	move	a2,v1
  40f6b0:	00403821 	move	a3,v0
[31m  40f6b4:	8f82808c 	lw	v0,printf[0m
  40f6b8:	00000000 	nop
  40f6bc:	0040c821 	move	t9,v0
--
  40f7b0:	00000000 	nop
  40f7b4:	24420010 	addiu	v0,v0,16
  40f7b8:	8c420000 	lw	v0,0(v0)
  40f7bc:	00000000 	nop
  40f7c0:	00402021 	move	a0,v0
  40f7c4:	00002821 	move	a1,zero
  40f7c8:	00003021 	move	a2,zero
  40f7cc:	8f828078 	lw	v0,-32648(gp)
  40f7d0:	00000000 	nop
  40f7d4:	0040c821 	move	t9,v0
  40f7d8:	0320f809 	jalr	t9
  40f7dc:	00000000 	nop
  40f7e0:	8fdc0010 	lw	gp,16(s8)
  40f7e4:	afc20058 	sw	v0,88(s8)
  40f7e8:	24040001 	li	a0,1
  40f7ec:	8fc50054 	lw	a1,84(s8)
  40f7f0:	8fc60058 	lw	a2,88(s8)
  40f7f4:	0c100733 	jal	401ccc <ingress_rate_set>
  40f7f8:	00000000 	nop
  40f7fc:	8fdc0010 	lw	gp,16(s8)
  40f800:	3c020041 	lui	v0,0x41
  40f804:	24421f60 	addiu	v0,v0,8032
  40f808:	00402021 	move	a0,v0
  40f80c:	8fc50054 	lw	a1,84(s8)
  40f810:	8fc60058 	lw	a2,88(s8)
[31m  40f814:	8f82808c 	lw	v0,printf[0m
  40f818:	00000000 	nop
  40f81c:	0040c821 	move	t9,v0
--
  40f88c:	8fc200ac 	lw	v0,172(s8)
  40f890:	00000000 	nop
  40f894:	2442000c 	addiu	v0,v0,12
  40f898:	8c420000 	lw	v0,0(v0)
  40f89c:	00000000 	nop
  40f8a0:	00402021 	move	a0,v0
  40f8a4:	00002821 	move	a1,zero
  40f8a8:	00003021 	move	a2,zero
  40f8ac:	8f828078 	lw	v0,-32648(gp)
  40f8b0:	00000000 	nop
  40f8b4:	0040c821 	move	t9,v0
  40f8b8:	0320f809 	jalr	t9
  40f8bc:	00000000 	nop
  40f8c0:	8fdc0010 	lw	gp,16(s8)
  40f8c4:	afc20054 	sw	v0,84(s8)
  40f8c8:	00002021 	move	a0,zero
  40f8cc:	8fc50054 	lw	a1,84(s8)
  40f8d0:	8fc60058 	lw	a2,88(s8)
  40f8d4:	0c100733 	jal	401ccc <ingress_rate_set>
  40f8d8:	00000000 	nop
  40f8dc:	8fdc0010 	lw	gp,16(s8)
  40f8e0:	3c020041 	lui	v0,0x41
  40f8e4:	24421f78 	addiu	v0,v0,8056
  40f8e8:	00402021 	move	a0,v0
  40f8ec:	8fc50054 	lw	a1,84(s8)
[31m  40f8f0:	8f82808c 	lw	v0,printf[0m
  40f8f4:	00000000 	nop
  40f8f8:	0040c821 	move	t9,v0
--
  40f9ec:	00000000 	nop
  40f9f0:	24420010 	addiu	v0,v0,16
  40f9f4:	8c420000 	lw	v0,0(v0)
  40f9f8:	00000000 	nop
  40f9fc:	00402021 	move	a0,v0
  40fa00:	00002821 	move	a1,zero
  40fa04:	00003021 	move	a2,zero
  40fa08:	8f828078 	lw	v0,-32648(gp)
  40fa0c:	00000000 	nop
  40fa10:	0040c821 	move	t9,v0
  40fa14:	0320f809 	jalr	t9
  40fa18:	00000000 	nop
  40fa1c:	8fdc0010 	lw	gp,16(s8)
  40fa20:	afc20060 	sw	v0,96(s8)
  40fa24:	24040001 	li	a0,1
  40fa28:	8fc5005c 	lw	a1,92(s8)
  40fa2c:	8fc60060 	lw	a2,96(s8)
  40fa30:	0c100785 	jal	401e14 <egress_rate_set>
  40fa34:	00000000 	nop
  40fa38:	8fdc0010 	lw	gp,16(s8)
  40fa3c:	3c020041 	lui	v0,0x41
  40fa40:	24421f60 	addiu	v0,v0,8032
  40fa44:	00402021 	move	a0,v0
  40fa48:	8fc5005c 	lw	a1,92(s8)
  40fa4c:	8fc60060 	lw	a2,96(s8)
[31m  40fa50:	8f82808c 	lw	v0,printf[0m
  40fa54:	00000000 	nop
  40fa58:	0040c821 	move	t9,v0
--
  40fac8:	8fc200ac 	lw	v0,172(s8)
  40facc:	00000000 	nop
  40fad0:	2442000c 	addiu	v0,v0,12
  40fad4:	8c420000 	lw	v0,0(v0)
  40fad8:	00000000 	nop
  40fadc:	00402021 	move	a0,v0
  40fae0:	00002821 	move	a1,zero
  40fae4:	00003021 	move	a2,zero
  40fae8:	8f828078 	lw	v0,-32648(gp)
  40faec:	00000000 	nop
  40faf0:	0040c821 	move	t9,v0
  40faf4:	0320f809 	jalr	t9
  40faf8:	00000000 	nop
  40fafc:	8fdc0010 	lw	gp,16(s8)
  40fb00:	afc2005c 	sw	v0,92(s8)
  40fb04:	00002021 	move	a0,zero
  40fb08:	8fc5005c 	lw	a1,92(s8)
  40fb0c:	8fc60060 	lw	a2,96(s8)
  40fb10:	0c100785 	jal	401e14 <egress_rate_set>
  40fb14:	00000000 	nop
  40fb18:	8fdc0010 	lw	gp,16(s8)
  40fb1c:	3c020041 	lui	v0,0x41
  40fb20:	24421fac 	addiu	v0,v0,8108
  40fb24:	00402021 	move	a0,v0
  40fb28:	8fc5005c 	lw	a1,92(s8)
[31m  40fb2c:	8f82808c 	lw	v0,printf[0m
  40fb30:	00000000 	nop
  40fb34:	0040c821 	move	t9,v0
--
  40fc28:	8fdc0010 	lw	gp,16(s8)
  40fc2c:	8fc200ac 	lw	v0,172(s8)
  40fc30:	00000000 	nop
  40fc34:	24420008 	addiu	v0,v0,8
  40fc38:	8c420000 	lw	v0,0(v0)
  40fc3c:	00000000 	nop
  40fc40:	24420001 	addiu	v0,v0,1
  40fc44:	80430000 	lb	v1,0(v0)
  40fc48:	2402006e 	li	v0,110
  40fc4c:	14620017 	bne	v1,v0,40fcac <main+0x2e00>
  40fc50:	00000000 	nop
  40fc54:	8fc30094 	lw	v1,148(s8)
  40fc58:	3c022000 	lui	v0,0x2000
  40fc5c:	00621025 	or	v0,v1,v0
  40fc60:	afc20094 	sw	v0,148(s8)
  40fc64:	8fc20094 	lw	v0,148(s8)
  40fc68:	8fc40064 	lw	a0,100(s8)
  40fc6c:	00402821 	move	a1,v0
  40fc70:	0c10059c 	jal	401670 <reg_write>
  40fc74:	00000000 	nop
  40fc78:	8fdc0010 	lw	gp,16(s8)
  40fc7c:	3c020041 	lui	v0,0x41
  40fc80:	24421fd8 	addiu	v0,v0,8152
  40fc84:	00402021 	move	a0,v0
  40fc88:	8fc50068 	lw	a1,104(s8)
[31m  40fc8c:	8f82808c 	lw	v0,printf[0m
  40fc90:	00000000 	nop
  40fc94:	0040c821 	move	t9,v0
--
  40fcac:	8fc200ac 	lw	v0,172(s8)
  40fcb0:	00000000 	nop
  40fcb4:	24420008 	addiu	v0,v0,8
  40fcb8:	8c420000 	lw	v0,0(v0)
  40fcbc:	00000000 	nop
  40fcc0:	24420001 	addiu	v0,v0,1
  40fcc4:	80430000 	lb	v1,0(v0)
  40fcc8:	24020066 	li	v0,102
  40fccc:	14620018 	bne	v1,v0,40fd30 <main+0x2e84>
  40fcd0:	00000000 	nop
  40fcd4:	8fc30094 	lw	v1,148(s8)
  40fcd8:	3c02c0ff 	lui	v0,0xc0ff
  40fcdc:	3442ffff 	ori	v0,v0,0xffff
  40fce0:	00621024 	and	v0,v1,v0
  40fce4:	afc20094 	sw	v0,148(s8)
  40fce8:	8fc20094 	lw	v0,148(s8)
  40fcec:	8fc40064 	lw	a0,100(s8)
  40fcf0:	00402821 	move	a1,v0
  40fcf4:	0c10059c 	jal	401670 <reg_write>
  40fcf8:	00000000 	nop
  40fcfc:	8fdc0010 	lw	gp,16(s8)
  40fd00:	3c020041 	lui	v0,0x41
  40fd04:	24421fec 	addiu	v0,v0,8172
  40fd08:	00402021 	move	a0,v0
  40fd0c:	8fc50068 	lw	a1,104(s8)
[31m  40fd10:	8f82808c 	lw	v0,printf[0m
  40fd14:	00000000 	nop
  40fd18:	0040c821 	move	t9,v0
--
  40fe3c:	8fc4006c 	lw	a0,108(s8)
  40fe40:	00402821 	move	a1,v0
  40fe44:	0c1004f7 	jal	4013dc <reg_read>
  40fe48:	00000000 	nop
  40fe4c:	8fdc0010 	lw	gp,16(s8)
  40fe50:	8fc30098 	lw	v1,152(s8)
  40fe54:	2402f000 	li	v0,-4096
  40fe58:	00621024 	and	v0,v1,v0
  40fe5c:	afc20098 	sw	v0,152(s8)
  40fe60:	8fc30098 	lw	v1,152(s8)
  40fe64:	8fc20074 	lw	v0,116(s8)
  40fe68:	00000000 	nop
  40fe6c:	00621025 	or	v0,v1,v0
  40fe70:	afc20098 	sw	v0,152(s8)
  40fe74:	8fc20098 	lw	v0,152(s8)
  40fe78:	8fc4006c 	lw	a0,108(s8)
  40fe7c:	00402821 	move	a1,v0
  40fe80:	0c10059c 	jal	401670 <reg_write>
  40fe84:	00000000 	nop
  40fe88:	8fdc0010 	lw	gp,16(s8)
  40fe8c:	3c020041 	lui	v0,0x41
  40fe90:	2442200c 	addiu	v0,v0,8204
  40fe94:	00402021 	move	a0,v0
  40fe98:	8fc50070 	lw	a1,112(s8)
  40fe9c:	8fc60074 	lw	a2,116(s8)
[31m  40fea0:	8f82808c 	lw	v0,printf[0m
  40fea4:	00000000 	nop
  40fea8:	0040c821 	move	t9,v0

[0m
[[0;33m*[0m] Function [0;33mprintf[0m used [0;33m236[0m times [0;33mswitch[0m

