[0m
[[0;33m*[0m] Function [0;33msprintf[0m tear down of [0;33mcamsvr[0m

  405404:	0320f809 	jalr	t9
  405408:	00000000 	nop
  40540c:	8fdc0010 	lw	gp,16(s8)
  405410:	afc00024 	sw	zero,36(s8)
  405414:	10000241 	b	405d1c <ConfigProfile@@Base+0x94c>
  405418:	00000000 	nop
  40541c:	8fc20050 	lw	v0,80(s8)
  405420:	2443002c 	addiu	v1,v0,44
  405424:	8fc20024 	lw	v0,36(s8)
  405428:	000210c0 	sll	v0,v0,0x3
  40542c:	00022080 	sll	a0,v0,0x2
  405430:	00441021 	addu	v0,v0,a0
  405434:	00621021 	addu	v0,v1,v0
  405438:	afc2001c 	sw	v0,28(s8)
  40543c:	3c020044 	lui	v0,0x44
  405440:	24439e40 	addiu	v1,v0,-25024
  405444:	8fc40024 	lw	a0,36(s8)
  405448:	3c020046 	lui	v0,0x46
  40544c:	00042080 	sll	a0,a0,0x2
  405450:	24421030 	addiu	v0,v0,4144
  405454:	00821021 	addu	v0,a0,v0
  405458:	8c420000 	lw	v0,0(v0)
  40545c:	27c40028 	addiu	a0,s8,40
  405460:	00602821 	move	a1,v1
  405464:	00403021 	move	a2,v0
[31m  405468:	8f8281e0 	lw	v0,sprintf[0m
  40546c:	0040c821 	move	t9,v0
  405470:	0320f809 	jalr	t9
--
  406ab8:	279ce3d0 	addiu	gp,gp,-7216
  406abc:	afbc0018 	sw	gp,24(sp)
  406ac0:	afc40058 	sw	a0,88(s8)
  406ac4:	2402ffff 	li	v0,-1
  406ac8:	afc20024 	sw	v0,36(s8)
  406acc:	8fc20058 	lw	v0,88(s8)
  406ad0:	244200ac 	addiu	v0,v0,172
  406ad4:	afc20020 	sw	v0,32(s8)
  406ad8:	8fc20058 	lw	v0,88(s8)
  406adc:	24420008 	addiu	v0,v0,8
  406ae0:	00402021 	move	a0,v0
  406ae4:	8f8284a4 	lw	v0,-31580(gp)
  406ae8:	0040c821 	move	t9,v0
  406aec:	0320f809 	jalr	t9
  406af0:	00000000 	nop
  406af4:	8fdc0018 	lw	gp,24(s8)
  406af8:	afc00028 	sw	zero,40(s8)
  406afc:	10000087 	b	406d1c <ConfigPMask@@Base+0x278>
  406b00:	00000000 	nop
  406b04:	3c020044 	lui	v0,0x44
  406b08:	2442a274 	addiu	v0,v0,-23948
  406b0c:	27c3002c 	addiu	v1,s8,44
  406b10:	00602021 	move	a0,v1
  406b14:	00402821 	move	a1,v0
  406b18:	8fc60028 	lw	a2,40(s8)
[31m  406b1c:	8f8281e0 	lw	v0,sprintf[0m
  406b20:	0040c821 	move	t9,v0
  406b24:	0320f809 	jalr	t9
--
  407d38:	00401821 	move	v1,v0
  407d3c:	00031080 	sll	v0,v1,0x2
  407d40:	00401821 	move	v1,v0
  407d44:	000310c0 	sll	v0,v1,0x3
  407d48:	00431023 	subu	v0,v0,v1
  407d4c:	00021900 	sll	v1,v0,0x4
  407d50:	00621023 	subu	v0,v1,v0
  407d54:	00821021 	addu	v0,a0,v0
  407d58:	afc20024 	sw	v0,36(s8)
  407d5c:	8fc20024 	lw	v0,36(s8)
  407d60:	8fc3002c 	lw	v1,44(s8)
  407d64:	ac43005c 	sw	v1,92(v0)
  407d68:	8fc2002c 	lw	v0,44(s8)
  407d6c:	24430258 	addiu	v1,v0,600
  407d70:	8fc20024 	lw	v0,36(s8)
  407d74:	ac430060 	sw	v1,96(v0)
  407d78:	8fc20024 	lw	v0,36(s8)
  407d7c:	8fc30058 	lw	v1,88(s8)
  407d80:	ac430014 	sw	v1,20(v0)
  407d84:	3c020044 	lui	v0,0x44
  407d88:	2442a4e8 	addiu	v0,v0,-23320
  407d8c:	27c30034 	addiu	v1,s8,52
  407d90:	00602021 	move	a0,v1
  407d94:	00402821 	move	a1,v0
  407d98:	8fc6002c 	lw	a2,44(s8)
[31m  407d9c:	8f8281e0 	lw	v0,sprintf[0m
  407da0:	0040c821 	move	t9,v0
  407da4:	0320f809 	jalr	t9
--
  40925c:	1040003d 	beqz	v0,409354 <VideoGetBrate@@Base+0xef4>
  409260:	00000000 	nop
  409264:	3c020044 	lui	v0,0x44
  409268:	2445a6b0 	addiu	a1,v0,-22864
  40926c:	8fc20030 	lw	v0,48(s8)
  409270:	8c420014 	lw	v0,20(v0)
  409274:	2443076c 	addiu	v1,v0,1900
  409278:	8fc20030 	lw	v0,48(s8)
  40927c:	8c420010 	lw	v0,16(v0)
  409280:	24420001 	addiu	v0,v0,1
  409284:	8fc40030 	lw	a0,48(s8)
  409288:	8c89000c 	lw	t1,12(a0)
  40928c:	8fc40030 	lw	a0,48(s8)
  409290:	8c880008 	lw	t0,8(a0)
  409294:	8fc40030 	lw	a0,48(s8)
  409298:	8c870004 	lw	a3,4(a0)
  40929c:	8fc40030 	lw	a0,48(s8)
  4092a0:	8c860000 	lw	a2,0(a0)
  4092a4:	27c40040 	addiu	a0,s8,64
  4092a8:	afa90010 	sw	t1,16(sp)
  4092ac:	afa80014 	sw	t0,20(sp)
  4092b0:	afa70018 	sw	a3,24(sp)
  4092b4:	afa6001c 	sw	a2,28(sp)
  4092b8:	00603021 	move	a2,v1
  4092bc:	00403821 	move	a3,v0
[31m  4092c0:	8f8281e0 	lw	v0,sprintf[0m
  4092c4:	0040c821 	move	t9,v0
  4092c8:	0320f809 	jalr	t9
--
  40e870:	00000000 	nop
  40e874:	8fc20020 	lw	v0,32(s8)
  40e878:	24031e44 	li	v1,7748
  40e87c:	ac4300a0 	sw	v1,160(v0)
  40e880:	8fc20020 	lw	v0,32(s8)
  40e884:	240307c4 	li	v1,1988
  40e888:	ac430104 	sw	v1,260(v0)
  40e88c:	8fc20020 	lw	v0,32(s8)
  40e890:	24033c44 	li	v1,15428
  40e894:	ac430168 	sw	v1,360(v0)
  40e898:	8fc20020 	lw	v0,32(s8)
  40e89c:	24031e44 	li	v1,7748
  40e8a0:	ac4301cc 	sw	v1,460(v0)
  40e8a4:	8fc20020 	lw	v0,32(s8)
  40e8a8:	24031e44 	li	v1,7748
  40e8ac:	ac430230 	sw	v1,560(v0)
  40e8b0:	afc00024 	sw	zero,36(s8)
  40e8b4:	100001f0 	b	40f078 <AudioInitial@@Base+0x9a8>
  40e8b8:	00000000 	nop
  40e8bc:	3c020044 	lui	v0,0x44
  40e8c0:	2442b154 	addiu	v0,v0,-20140
  40e8c4:	27c30028 	addiu	v1,s8,40
  40e8c8:	00602021 	move	a0,v1
  40e8cc:	00402821 	move	a1,v0
  40e8d0:	8fc60024 	lw	a2,36(s8)
[31m  40e8d4:	8f8281e0 	lw	v0,sprintf[0m
  40e8d8:	0040c821 	move	t9,v0
  40e8dc:	0320f809 	jalr	t9

[0m
[[0;33m*[0m] Function [0;33msprintf[0m used [0;33m5[0m times [0;33mcamsvr[0m

