[0m
[[0;33m*[0m] Function [0;33msystem[0m tear down of [0;33mdatetime.cgi[0m

  402208:	26042a9c 	addiu	a0,s0,10908
  40220c:	3c050040 	lui	a1,0x40
  402210:	24a52ac0 	addiu	a1,a1,10944
  402214:	8f998040 	lw	t9,-32704(gp)
  402218:	0320f809 	jalr	t9
  40221c:	27a60234 	addiu	a2,sp,564
  402220:	8fbc0020 	lw	gp,32(sp)
  402224:	26042a9c 	addiu	a0,s0,10908
  402228:	3c050040 	lui	a1,0x40
  40222c:	24a52acc 	addiu	a1,a1,10956
  402230:	8f998040 	lw	t9,-32704(gp)
  402234:	0320f809 	jalr	t9
  402238:	27a60230 	addiu	a2,sp,560
  40223c:	8fbc0020 	lw	gp,32(sp)
  402240:	93a20230 	lbu	v0,560(sp)
  402244:	1440000f 	bnez	v0,402284 <_ftext@@Base+0x1754>
  402248:	3c050040 	lui	a1,0x40
  40224c:	00002021 	move	a0,zero
  402250:	8fa50234 	lw	a1,564(sp)
  402254:	00003021 	move	a2,zero
  402258:	8f9980b4 	lw	t9,-32588(gp)
  40225c:	0320f809 	jalr	t9
  402260:	00003821 	move	a3,zero
  402264:	8fbc0020 	lw	gp,32(sp)
  402268:	3c040040 	lui	a0,0x40
[31m  40226c:	8f9980a0 	lw	t9,system[0m
  402270:	0320f809 	jalr	t9
  402274:	24842c84 	addiu	a0,a0,11396
  402278:	8fbc0020 	lw	gp,32(sp)
  40227c:	1000009e 	b	4024f8 <_ftext@@Base+0x19c8>
  402280:	00000000 	nop
  402284:	a3a0022c 	sb	zero,556(sp)
  402288:	3c040040 	lui	a0,0x40
  40228c:	24842a9c 	addiu	a0,a0,10908
  402290:	24a52adc 	addiu	a1,a1,10972
  402294:	8f998040 	lw	t9,-32704(gp)
  402298:	0320f809 	jalr	t9
  40229c:	27a6022c 	addiu	a2,sp,556
  4022a0:	8fbc0020 	lw	gp,32(sp)
  4022a4:	93a2022c 	lbu	v0,556(sp)
  4022a8:	1040000f 	beqz	v0,4022e8 <_ftext@@Base+0x17b8>
  4022ac:	3c100040 	lui	s0,0x40
  4022b0:	00002021 	move	a0,zero
  4022b4:	8fa50234 	lw	a1,564(sp)
  4022b8:	24060001 	li	a2,1
  4022bc:	8f9980b4 	lw	t9,-32588(gp)
  4022c0:	0320f809 	jalr	t9
  4022c4:	00003821 	move	a3,zero
  4022c8:	8fbc0020 	lw	gp,32(sp)
  4022cc:	3c040040 	lui	a0,0x40
[31m  4022d0:	8f9980a0 	lw	t9,system[0m
  4022d4:	0320f809 	jalr	t9
  4022d8:	24842c84 	addiu	a0,a0,11396
--
  402484:	27a202b4 	addiu	v0,sp,692
  402488:	afa20010 	sw	v0,16(sp)
  40248c:	27a202b8 	addiu	v0,sp,696
  402490:	afa20014 	sw	v0,20(sp)
  402494:	27a202bc 	addiu	v0,sp,700
  402498:	afa20018 	sw	v0,24(sp)
  40249c:	27a20240 	addiu	v0,sp,576
  4024a0:	afa2001c 	sw	v0,28(sp)
  4024a4:	27a40274 	addiu	a0,sp,628
  4024a8:	02002821 	move	a1,s0
  4024ac:	27a602ac 	addiu	a2,sp,684
  4024b0:	8f998078 	lw	t9,-32648(gp)
  4024b4:	0320f809 	jalr	t9
  4024b8:	27a702b0 	addiu	a3,sp,688
  4024bc:	8fbc0020 	lw	gp,32(sp)
  4024c0:	24030006 	li	v1,6
  4024c4:	14430082 	bne	v0,v1,4026d0 <_ftext@@Base+0x1ba0>
  4024c8:	24060002 	li	a2,2
  4024cc:	00002021 	move	a0,zero
  4024d0:	8fa50234 	lw	a1,564(sp)
  4024d4:	8f9980b4 	lw	t9,-32588(gp)
  4024d8:	0320f809 	jalr	t9
  4024dc:	27a70294 	addiu	a3,sp,660
  4024e0:	8fbc0020 	lw	gp,32(sp)
  4024e4:	3c040040 	lui	a0,0x40
[31m  4024e8:	8f9980a0 	lw	t9,system[0m
  4024ec:	0320f809 	jalr	t9
  4024f0:	24842c84 	addiu	a0,a0,11396
  4024f4:	8fbc0020 	lw	gp,32(sp)
  4024f8:	12a00062 	beqz	s5,402684 <_ftext@@Base+0x1b54>
  4024fc:	3c050040 	lui	a1,0x40
  402500:	afa00028 	sw	zero,40(sp)
  402504:	3c040040 	lui	a0,0x40
  402508:	24842a9c 	addiu	a0,a0,10908
  40250c:	24a52aa8 	addiu	a1,a1,10920
  402510:	8f998040 	lw	t9,-32704(gp)
  402514:	0320f809 	jalr	t9
  402518:	27a60028 	addiu	a2,sp,40
  40251c:	8fbc0020 	lw	gp,32(sp)
  402520:	24020001 	li	v0,1
  402524:	8fa30028 	lw	v1,40(sp)
  402528:	14620016 	bne	v1,v0,402584 <_ftext@@Base+0x1a54>
  40252c:	3c020040 	lui	v0,0x40
  402530:	3c040040 	lui	a0,0x40
[31m  402534:	8f9980a0 	lw	t9,system[0m
  402538:	0320f809 	jalr	t9
  40253c:	24842cdc 	addiu	a0,a0,11484
  402540:	8fbc0020 	lw	gp,32(sp)
  402544:	3c040040 	lui	a0,0x40
[31m  402548:	8f9980a0 	lw	t9,system[0m
  40254c:	0320f809 	jalr	t9
  402550:	24842d10 	addiu	a0,a0,11536
  402554:	8fbc0020 	lw	gp,32(sp)
  402558:	3c040040 	lui	a0,0x40
[31m  40255c:	8f9980a0 	lw	t9,system[0m
  402560:	0320f809 	jalr	t9
  402564:	24842d50 	addiu	a0,a0,11600
  402568:	8fbc0020 	lw	gp,32(sp)
  40256c:	8f99809c 	lw	t9,-32612(gp)
  402570:	0320f809 	jalr	t9
  402574:	24040008 	li	a0,8
  402578:	8fbc0020 	lw	gp,32(sp)
  40257c:	1000002f 	b	40263c <_ftext@@Base+0x1b0c>
  402580:	3c040040 	lui	a0,0x40
  402584:	90422d90 	lbu	v0,11664(v0)
  402588:	a3a20294 	sb	v0,660(sp)
  40258c:	27a40295 	addiu	a0,sp,661
  402590:	00002821 	move	a1,zero
  402594:	8f998068 	lw	t9,-32664(gp)
  402598:	0320f809 	jalr	t9
  40259c:	240600ff 	li	a2,255
  4025a0:	8fbc0020 	lw	gp,32(sp)
  4025a4:	3c040040 	lui	a0,0x40
[31m  4025a8:	8f9980a0 	lw	t9,system[0m
  4025ac:	0320f809 	jalr	t9
  4025b0:	24842cdc 	addiu	a0,a0,11484
--
  4025c4:	8f99804c 	lw	t9,-32692(gp)
  4025c8:	0320f809 	jalr	t9
  4025cc:	27a4002c 	addiu	a0,sp,44
  4025d0:	8fbc0020 	lw	gp,32(sp)
  4025d4:	93a2012c 	lbu	v0,300(sp)
  4025d8:	14400006 	bnez	v0,4025f4 <_ftext@@Base+0x1ac4>
  4025dc:	27b00294 	addiu	s0,sp,660
  4025e0:	8f99803c 	lw	t9,-32708(gp)
  4025e4:	0320f809 	jalr	t9
  4025e8:	27a4012c 	addiu	a0,sp,300
  4025ec:	8fbc0020 	lw	gp,32(sp)
  4025f0:	27b00294 	addiu	s0,sp,660
  4025f4:	02002021 	move	a0,s0
  4025f8:	3c050040 	lui	a1,0x40
  4025fc:	24a52d84 	addiu	a1,a1,11652
  402600:	27a6002c 	addiu	a2,sp,44
  402604:	8f998054 	lw	t9,-32684(gp)
  402608:	0320f809 	jalr	t9
  40260c:	27a7012c 	addiu	a3,sp,300
  402610:	8fbc0020 	lw	gp,32(sp)
  402614:	8f9980a4 	lw	t9,-32604(gp)
  402618:	0320f809 	jalr	t9
  40261c:	02002021 	move	a0,s0
  402620:	8fbc0020 	lw	gp,32(sp)
  402624:	3c040040 	lui	a0,0x40
[31m  402628:	8f9980a0 	lw	t9,system[0m
  40262c:	0320f809 	jalr	t9
  402630:	24842c84 	addiu	a0,a0,11396

[0m
[[0;33m*[0m] Function [0;33msystem[0m used [0;33m8[0m times [0;33mdatetime.cgi[0m

