[0m
[[0;33m*[0m] Function [0;33msprintf[0m tear down of [0;33mdatetime.cgi[0m

  4014d0:	00a08021 	move	s0,a1
  4014d4:	8fbc0010 	lw	gp,16(sp)
  4014d8:	8f998060 	lw	t9,-32672(gp)
  4014dc:	0320f809 	jalr	t9
  4014e0:	27a40018 	addiu	a0,sp,24
  4014e4:	8fbc0010 	lw	gp,16(sp)
  4014e8:	24020001 	li	v0,1
  4014ec:	16220007 	bne	s1,v0,40150c <_ftext@@Base+0x9dc>
  4014f0:	00000000 	nop
  4014f4:	8f998044 	lw	t9,-32700(gp)
  4014f8:	0320f809 	jalr	t9
  4014fc:	27a40018 	addiu	a0,sp,24
  401500:	8fbc0010 	lw	gp,16(sp)
  401504:	10000006 	b	401520 <_ftext@@Base+0x9f0>
  401508:	00409821 	move	s3,v0
  40150c:	8f99806c 	lw	t9,-32660(gp)
  401510:	0320f809 	jalr	t9
  401514:	27a40018 	addiu	a0,sp,24
  401518:	8fbc0010 	lw	gp,16(sp)
  40151c:	00409821 	move	s3,v0
  401520:	3c110040 	lui	s1,0x40
  401524:	26312a8c 	addiu	s1,s1,10892
  401528:	27b2001c 	addiu	s2,sp,28
  40152c:	02402021 	move	a0,s2
  401530:	8e660008 	lw	a2,8(s3)
[31m  401534:	8f998054 	lw	t9,sprintf[0m
  401538:	0320f809 	jalr	t9
  40153c:	02202821 	move	a1,s1
  401540:	8fbc0010 	lw	gp,16(sp)
  401544:	02002021 	move	a0,s0
  401548:	02402821 	move	a1,s2
  40154c:	8f998080 	lw	t9,-32640(gp)
  401550:	0320f809 	jalr	t9
  401554:	24060002 	li	a2,2
  401558:	8fbc0010 	lw	gp,16(sp)
  40155c:	2415003a 	li	s5,58
  401560:	a2150002 	sb	s5,2(s0)
  401564:	26140003 	addiu	s4,s0,3
  401568:	02402021 	move	a0,s2
  40156c:	8e660004 	lw	a2,4(s3)
[31m  401570:	8f998054 	lw	t9,sprintf[0m
  401574:	0320f809 	jalr	t9
  401578:	02202821 	move	a1,s1
  40157c:	8fbc0010 	lw	gp,16(sp)
  401580:	02802021 	move	a0,s4
  401584:	02402821 	move	a1,s2
  401588:	8f998080 	lw	t9,-32640(gp)
  40158c:	0320f809 	jalr	t9
  401590:	24060002 	li	a2,2
  401594:	8fbc0010 	lw	gp,16(sp)
  401598:	a2150005 	sb	s5,5(s0)
  40159c:	26100006 	addiu	s0,s0,6
  4015a0:	02402021 	move	a0,s2
  4015a4:	8e660000 	lw	a2,0(s3)
[31m  4015a8:	8f998054 	lw	t9,sprintf[0m
  4015ac:	0320f809 	jalr	t9
  4015b0:	02202821 	move	a1,s1
--
  401630:	00a08021 	move	s0,a1
  401634:	8fbc0010 	lw	gp,16(sp)
  401638:	8f998060 	lw	t9,-32672(gp)
  40163c:	0320f809 	jalr	t9
  401640:	27a40018 	addiu	a0,sp,24
  401644:	8fbc0010 	lw	gp,16(sp)
  401648:	24020001 	li	v0,1
  40164c:	16220007 	bne	s1,v0,40166c <_ftext@@Base+0xb3c>
  401650:	00000000 	nop
  401654:	8f998044 	lw	t9,-32700(gp)
  401658:	0320f809 	jalr	t9
  40165c:	27a40018 	addiu	a0,sp,24
  401660:	8fbc0010 	lw	gp,16(sp)
  401664:	10000006 	b	401680 <_ftext@@Base+0xb50>
  401668:	00409021 	move	s2,v0
  40166c:	8f99806c 	lw	t9,-32660(gp)
  401670:	0320f809 	jalr	t9
  401674:	27a40018 	addiu	a0,sp,24
  401678:	8fbc0010 	lw	gp,16(sp)
  40167c:	00409021 	move	s2,v0
  401680:	27b1001c 	addiu	s1,sp,28
  401684:	8e460014 	lw	a2,20(s2)
  401688:	02202021 	move	a0,s1
  40168c:	3c050040 	lui	a1,0x40
  401690:	24a52a94 	addiu	a1,a1,10900
[31m  401694:	8f998054 	lw	t9,sprintf[0m
  401698:	0320f809 	jalr	t9
  40169c:	24c6076c 	addiu	a2,a2,1900
  4016a0:	8fbc0010 	lw	gp,16(sp)
  4016a4:	02002021 	move	a0,s0
  4016a8:	02202821 	move	a1,s1
  4016ac:	8f998080 	lw	t9,-32640(gp)
  4016b0:	0320f809 	jalr	t9
  4016b4:	24060004 	li	a2,4
  4016b8:	8fbc0010 	lw	gp,16(sp)
  4016bc:	2415002d 	li	s5,45
  4016c0:	a2150004 	sb	s5,4(s0)
  4016c4:	26140005 	addiu	s4,s0,5
  4016c8:	3c130040 	lui	s3,0x40
  4016cc:	26732a8c 	addiu	s3,s3,10892
  4016d0:	8e460010 	lw	a2,16(s2)
  4016d4:	02202021 	move	a0,s1
  4016d8:	02602821 	move	a1,s3
[31m  4016dc:	8f998054 	lw	t9,sprintf[0m
  4016e0:	0320f809 	jalr	t9
  4016e4:	24c60001 	addiu	a2,a2,1
  4016e8:	8fbc0010 	lw	gp,16(sp)
  4016ec:	02802021 	move	a0,s4
  4016f0:	02202821 	move	a1,s1
  4016f4:	8f998080 	lw	t9,-32640(gp)
  4016f8:	0320f809 	jalr	t9
  4016fc:	24060002 	li	a2,2
  401700:	8fbc0010 	lw	gp,16(sp)
  401704:	a2150007 	sb	s5,7(s0)
  401708:	26100008 	addiu	s0,s0,8
  40170c:	02202021 	move	a0,s1
  401710:	8e46000c 	lw	a2,12(s2)
[31m  401714:	8f998054 	lw	t9,sprintf[0m
  401718:	0320f809 	jalr	t9
  40171c:	02602821 	move	a1,s3
--
  401dac:	8fbc0020 	lw	gp,32(sp)
  401db0:	1440001d 	bnez	v0,401e28 <_ftext@@Base+0x12f8>
  401db4:	26020080 	addiu	v0,s0,128
  401db8:	afa0022c 	sw	zero,556(sp)
  401dbc:	afa00230 	sw	zero,560(sp)
  401dc0:	afa00234 	sw	zero,564(sp)
  401dc4:	8e630058 	lw	v1,88(s3)
  401dc8:	00021080 	sll	v0,v0,0x2
  401dcc:	00621021 	addu	v0,v1,v0
  401dd0:	8c440004 	lw	a0,4(v0)
  401dd4:	27a20234 	addiu	v0,sp,564
  401dd8:	afa20010 	sw	v0,16(sp)
  401ddc:	3c050040 	lui	a1,0x40
  401de0:	24a52a24 	addiu	a1,a1,10788
  401de4:	27a6022c 	addiu	a2,sp,556
  401de8:	8f998078 	lw	t9,-32648(gp)
  401dec:	0320f809 	jalr	t9
  401df0:	27a70230 	addiu	a3,sp,560
  401df4:	8fbc0020 	lw	gp,32(sp)
  401df8:	8fa20234 	lw	v0,564(sp)
  401dfc:	afa20010 	sw	v0,16(sp)
  401e00:	27a4002c 	addiu	a0,sp,44
  401e04:	3c050040 	lui	a1,0x40
  401e08:	8fa6022c 	lw	a2,556(sp)
  401e0c:	8fa70230 	lw	a3,560(sp)
[31m  401e10:	8f998054 	lw	t9,sprintf[0m
  401e14:	0320f809 	jalr	t9
  401e18:	24a52c48 	addiu	a1,a1,11336
--
  401e38:	8fbc0020 	lw	gp,32(sp)
  401e3c:	1440001d 	bnez	v0,401eb4 <_ftext@@Base+0x1384>
  401e40:	26020080 	addiu	v0,s0,128
  401e44:	afa00234 	sw	zero,564(sp)
  401e48:	afa00230 	sw	zero,560(sp)
  401e4c:	afa0022c 	sw	zero,556(sp)
  401e50:	8e630058 	lw	v1,88(s3)
  401e54:	00021080 	sll	v0,v0,0x2
  401e58:	00621021 	addu	v0,v1,v0
  401e5c:	8c440004 	lw	a0,4(v0)
  401e60:	27a2022c 	addiu	v0,sp,556
  401e64:	afa20010 	sw	v0,16(sp)
  401e68:	3c050040 	lui	a1,0x40
  401e6c:	24a52a30 	addiu	a1,a1,10800
  401e70:	27a60234 	addiu	a2,sp,564
  401e74:	8f998078 	lw	t9,-32648(gp)
  401e78:	0320f809 	jalr	t9
  401e7c:	27a70230 	addiu	a3,sp,560
  401e80:	8fbc0020 	lw	gp,32(sp)
  401e84:	8fa2022c 	lw	v0,556(sp)
  401e88:	afa20010 	sw	v0,16(sp)
  401e8c:	27a4012c 	addiu	a0,sp,300
  401e90:	3c050040 	lui	a1,0x40
  401e94:	8fa60234 	lw	a2,564(sp)
  401e98:	8fa70230 	lw	a3,560(sp)
[31m  401e9c:	8f998054 	lw	t9,sprintf[0m
  401ea0:	0320f809 	jalr	t9
  401ea4:	24a52c58 	addiu	a1,a1,11352
--
  401ff0:	00621021 	addu	v0,v1,v0
  401ff4:	8c440004 	lw	a0,4(v0)
  401ff8:	3c050040 	lui	a1,0x40
  401ffc:	24a52a78 	addiu	a1,a1,10872
  402000:	27a6022c 	addiu	a2,sp,556
  402004:	8f998078 	lw	t9,-32648(gp)
  402008:	0320f809 	jalr	t9
  40200c:	27a70230 	addiu	a3,sp,560
  402010:	8fbc0020 	lw	gp,32(sp)
  402014:	24030002 	li	v1,2
  402018:	14430072 	bne	v0,v1,4021e4 <_ftext@@Base+0x16b4>
  40201c:	3c020040 	lui	v0,0x40
  402020:	90422d90 	lbu	v0,11664(v0)
  402024:	a3a20294 	sb	v0,660(sp)
  402028:	27a40295 	addiu	a0,sp,661
  40202c:	00002821 	move	a1,zero
  402030:	8f998068 	lw	t9,-32664(gp)
  402034:	0320f809 	jalr	t9
  402038:	240600ff 	li	a2,255
  40203c:	8fbc0020 	lw	gp,32(sp)
  402040:	8fa6022c 	lw	a2,556(sp)
  402044:	04c00009 	bltz	a2,40206c <_ftext@@Base+0x153c>
  402048:	27a40294 	addiu	a0,sp,660
  40204c:	3c050040 	lui	a1,0x40
  402050:	8fa70230 	lw	a3,560(sp)
[31m  402054:	8f998054 	lw	t9,sprintf[0m
  402058:	0320f809 	jalr	t9
  40205c:	24a52c68 	addiu	a1,a1,11368
  402060:	8fbc0020 	lw	gp,32(sp)
  402064:	10000009 	b	40208c <_ftext@@Base+0x155c>
  402068:	3c040040 	lui	a0,0x40
  40206c:	3c050040 	lui	a1,0x40
  402070:	24a52c74 	addiu	a1,a1,11380
  402074:	8fa70230 	lw	a3,560(sp)
[31m  402078:	8f998054 	lw	t9,sprintf[0m
  40207c:	0320f809 	jalr	t9
  402080:	7c06300f 	0x7c06300f
--
  4020ac:	24150001 	li	s5,1
  4020b0:	1000004c 	b	4021e4 <_ftext@@Base+0x16b4>
  4020b4:	24160001 	li	s6,1
  4020b8:	8fa503ac 	lw	a1,940(sp)
  4020bc:	8f99805c 	lw	t9,-32676(gp)
  4020c0:	0320f809 	jalr	t9
  4020c4:	02402021 	move	a0,s2
  4020c8:	8fbc0020 	lw	gp,32(sp)
  4020cc:	14400020 	bnez	v0,402150 <_ftext@@Base+0x1620>
  4020d0:	3c020040 	lui	v0,0x40
  4020d4:	90422d90 	lbu	v0,11664(v0)
  4020d8:	a3a20294 	sb	v0,660(sp)
  4020dc:	27a40295 	addiu	a0,sp,661
  4020e0:	00002821 	move	a1,zero
  4020e4:	8f998068 	lw	t9,-32664(gp)
  4020e8:	0320f809 	jalr	t9
  4020ec:	240600ff 	li	a2,255
  4020f0:	8fbc0020 	lw	gp,32(sp)
  4020f4:	27b10294 	addiu	s1,sp,660
  4020f8:	8e630058 	lw	v1,88(s3)
  4020fc:	26020080 	addiu	v0,s0,128
  402100:	00021080 	sll	v0,v0,0x2
  402104:	00621021 	addu	v0,v1,v0
  402108:	8fa503b4 	lw	a1,948(sp)
  40210c:	8c460004 	lw	a2,4(v0)
[31m  402110:	8f998054 	lw	t9,sprintf[0m
  402114:	0320f809 	jalr	t9
  402118:	02202021 	move	a0,s1
--
  402144:	24150001 	li	s5,1
  402148:	10000026 	b	4021e4 <_ftext@@Base+0x16b4>
  40214c:	24160001 	li	s6,1
  402150:	8fa503b0 	lw	a1,944(sp)
  402154:	8f99805c 	lw	t9,-32676(gp)
  402158:	0320f809 	jalr	t9
  40215c:	02402021 	move	a0,s2
  402160:	8fbc0020 	lw	gp,32(sp)
  402164:	1440001f 	bnez	v0,4021e4 <_ftext@@Base+0x16b4>
  402168:	3c020040 	lui	v0,0x40
  40216c:	90422d90 	lbu	v0,11664(v0)
  402170:	a3a20294 	sb	v0,660(sp)
  402174:	27a40295 	addiu	a0,sp,661
  402178:	00002821 	move	a1,zero
  40217c:	8f998068 	lw	t9,-32664(gp)
  402180:	0320f809 	jalr	t9
  402184:	240600ff 	li	a2,255
  402188:	8fbc0020 	lw	gp,32(sp)
  40218c:	27b10294 	addiu	s1,sp,660
  402190:	8e630058 	lw	v1,88(s3)
  402194:	26020080 	addiu	v0,s0,128
  402198:	00021080 	sll	v0,v0,0x2
  40219c:	00621021 	addu	v0,v1,v0
  4021a0:	8fa503b4 	lw	a1,948(sp)
  4021a4:	8c460004 	lw	a2,4(v0)
[31m  4021a8:	8f998054 	lw	t9,sprintf[0m
  4021ac:	0320f809 	jalr	t9
  4021b0:	02202021 	move	a0,s1
--
  4025a0:	8fbc0020 	lw	gp,32(sp)
  4025a4:	3c040040 	lui	a0,0x40
  4025a8:	8f9980a0 	lw	t9,-32608(gp)
  4025ac:	0320f809 	jalr	t9
  4025b0:	24842cdc 	addiu	a0,a0,11484
  4025b4:	8fbc0020 	lw	gp,32(sp)
  4025b8:	93a2002c 	lbu	v0,44(sp)
  4025bc:	14400005 	bnez	v0,4025d4 <_ftext@@Base+0x1aa4>
  4025c0:	00000000 	nop
  4025c4:	8f99804c 	lw	t9,-32692(gp)
  4025c8:	0320f809 	jalr	t9
  4025cc:	27a4002c 	addiu	a0,sp,44
  4025d0:	8fbc0020 	lw	gp,32(sp)
  4025d4:	93a2012c 	lbu	v0,300(sp)
  4025d8:	14400006 	bnez	v0,4025f4 <_ftext@@Base+0x1ac4>
  4025dc:	27b00294 	addiu	s0,sp,660
  4025e0:	8f99803c 	lw	t9,-32708(gp)
  4025e4:	0320f809 	jalr	t9
  4025e8:	27a4012c 	addiu	a0,sp,300
  4025ec:	8fbc0020 	lw	gp,32(sp)
  4025f0:	27b00294 	addiu	s0,sp,660
  4025f4:	02002021 	move	a0,s0
  4025f8:	3c050040 	lui	a1,0x40
  4025fc:	24a52d84 	addiu	a1,a1,11652
  402600:	27a6002c 	addiu	a2,sp,44
[31m  402604:	8f998054 	lw	t9,sprintf[0m
  402608:	0320f809 	jalr	t9
  40260c:	27a7012c 	addiu	a3,sp,300

[0m
[[0;33m*[0m] Function [0;33msprintf[0m used [0;33m13[0m times [0;33mdatetime.cgi[0m

