[[0;33m*[0m] Binary protection state of [0;33mubimkvol[0m

  	RELRO          CANARY            NX           PIE          RPATH        RUNPATH      SYMBOLS      
  	[31mNo RELRO[0m       [31mNo Canary found[0m   [31mNX disabled[0m  [31mNo PIE[0m       [32mNo RPATH[0m     [32mNo RUNPATH[0m   [31mSymbols[0m

[0m
[[0;33m*[0m] Function [0;33mprintf[0m tear down of [0;33mubimkvol[0m

  400e3c:	26826888 	addiu	v0,s4,26760
  400e40:	24030001 	li	v1,1
  400e44:	08100324 	j	400c90 <main+0x60>
  400e48:	ac430020 	sw	v1,32(v0)
  400e4c:	8f9680fc 	lw	s6,-32516(gp)
  400e50:	00000000 	nop
  400e54:	8ec40000 	lw	a0,0(s6)
  400e58:	0c100628 	jal	4018a0 <simple_strtoul>
  400e5c:	27a50024 	addiu	a1,sp,36
  400e60:	26836888 	addiu	v1,s4,26760
  400e64:	8fbc0018 	lw	gp,24(sp)
  400e68:	ac620014 	sw	v0,20(v1)
  400e6c:	8fa30024 	lw	v1,36(sp)
  400e70:	00000000 	nop
  400e74:	14600003 	bnez	v1,400e84 <main+0x254>
  400e78:	00000000 	nop
  400e7c:	1c40ff84 	bgtz	v0,400c90 <main+0x60>
  400e80:	00000000 	nop
  400e84:	8f8280ac 	lw	v0,-32596(gp)
  400e88:	3c050040 	lui	a1,0x40
  400e8c:	8f9980f0 	lw	t9,-32528(gp)
  400e90:	8ec70000 	lw	a3,0(s6)
  400e94:	8c440000 	lw	a0,0(v0)
  400e98:	08100378 	j	400de0 <main+0x1b0>
  400e9c:	24a55554 	addiu	a1,a1,21844
[31m  400ea0:	8f998120 	lw	t9,printf[0m
  400ea4:	3c040040 	lui	a0,0x40
  400ea8:	3c050040 	lui	a1,0x40
--
  400f4c:	26e75524 	addiu	a3,s7,21796
  400f50:	8fbc0018 	lw	gp,24(sp)
  400f54:	8fa30150 	lw	v1,336(sp)
  400f58:	24020001 	li	v0,1
  400f5c:	afa20024 	sw	v0,36(sp)
  400f60:	26826888 	addiu	v0,s4,26760
  400f64:	ac430010 	sw	v1,16(v0)
  400f68:	8fa20024 	lw	v0,36(sp)
  400f6c:	00000000 	nop
  400f70:	14400003 	bnez	v0,400f80 <main+0x350>
  400f74:	00000000 	nop
  400f78:	1c60ff45 	bgtz	v1,400c90 <main+0x60>
  400f7c:	00000000 	nop
  400f80:	8f8280ac 	lw	v0,-32596(gp)
  400f84:	3c050040 	lui	a1,0x40
  400f88:	8f9980f0 	lw	t9,-32528(gp)
  400f8c:	8ec70000 	lw	a3,0(s6)
  400f90:	8c440000 	lw	a0,0(v0)
  400f94:	08100378 	j	400de0 <main+0x1b0>
  400f98:	24a55530 	addiu	a1,a1,21808
  400f9c:	8f8380fc 	lw	v1,-32516(gp)
  400fa0:	26826888 	addiu	v0,s4,26760
  400fa4:	8c630000 	lw	v1,0(v1)
  400fa8:	08100324 	j	400c90 <main+0x60>
  400fac:	ac430018 	sw	v1,24(v0)
[31m  400fb0:	8f998120 	lw	t9,printf[0m
  400fb4:	3c100040 	lui	s0,0x40
  400fb8:	3c050040 	lui	a1,0x40
  400fbc:	260455a0 	addiu	a0,s0,21920
  400fc0:	0320f809 	jalr	t9
  400fc4:	24a55aec 	addiu	a1,a1,23276
  400fc8:	8fbc0018 	lw	gp,24(sp)
  400fcc:	3c050040 	lui	a1,0x40
  400fd0:	260455a0 	addiu	a0,s0,21920
[31m  400fd4:	8f998120 	lw	t9,printf[0m
  400fd8:	00000000 	nop
  400fdc:	0320f809 	jalr	t9
--
  4011f0:	8e020018 	lw	v0,24(s0)
  4011f4:	8f998038 	lw	t9,-32712(gp)
  4011f8:	8e05001c 	lw	a1,28(s0)
  4011fc:	afa4002c 	sw	a0,44(sp)
  401200:	afa60030 	sw	a2,48(sp)
  401204:	afa80028 	sw	t0,40(sp)
  401208:	afa70034 	sw	a3,52(sp)
  40120c:	afa30038 	sw	v1,56(sp)
  401210:	afa2003c 	sw	v0,60(sp)
  401214:	02202021 	move	a0,s1
  401218:	04110857 	bal	403378 <ubi_mkvol>
  40121c:	27a60028 	addiu	a2,sp,40
  401220:	8fbc0018 	lw	gp,24(sp)
  401224:	044000f5 	bltz	v0,4015fc <main+0x9cc>
  401228:	3c020041 	lui	v0,0x41
  40122c:	8fa60028 	lw	a2,40(sp)
  401230:	8f99803c 	lw	t9,-32708(gp)
  401234:	8fa50040 	lw	a1,64(sp)
  401238:	ac466888 	sw	a2,26760(v0)
  40123c:	02202021 	move	a0,s1
  401240:	04110ab0 	bal	403d04 <ubi_get_vol_info1>
  401244:	27a70098 	addiu	a3,sp,152
  401248:	8fbc0018 	lw	gp,24(sp)
  40124c:	14400082 	bnez	v0,401458 <main+0x828>
  401250:	00408021 	move	s0,v0
[31m  401254:	8f998120 	lw	t9,printf[0m
  401258:	8fa5009c 	lw	a1,156(sp)
  40125c:	8fa600c0 	lw	a2,192(sp)
  401260:	3c040040 	lui	a0,0x40
  401264:	0320f809 	jalr	t9
  401268:	24845960 	addiu	a0,a0,22880
  40126c:	8fbc0018 	lw	gp,24(sp)
  401270:	8fa500bc 	lw	a1,188(sp)
  401274:	8fa400b8 	lw	a0,184(sp)
  401278:	8f998040 	lw	t9,-32704(gp)
  40127c:	00000000 	nop
  401280:	04110b95 	bal	4040d8 <ubiutils_print_bytes>
  401284:	00003021 	move	a2,zero
  401288:	8fbc0018 	lw	gp,24(sp)
  40128c:	3c040040 	lui	a0,0x40
[31m  401290:	8f998120 	lw	t9,printf[0m
  401294:	00000000 	nop
  401298:	0320f809 	jalr	t9
  40129c:	24845980 	addiu	a0,a0,22912
  4012a0:	8fbc0018 	lw	gp,24(sp)
  4012a4:	8fa400c4 	lw	a0,196(sp)
  4012a8:	24060001 	li	a2,1
  4012ac:	8f998040 	lw	t9,-32704(gp)
  4012b0:	00000000 	nop
  4012b4:	04110b88 	bal	4040d8 <ubiutils_print_bytes>
  4012b8:	00042fc3 	sra	a1,a0,0x1f
  4012bc:	8fa30038 	lw	v1,56(sp)
  4012c0:	24020003 	li	v0,3
  4012c4:	8fbc0018 	lw	gp,24(sp)
  4012c8:	10620047 	beq	v1,v0,4013e8 <main+0x7b8>
  4012cc:	3c050040 	lui	a1,0x40
  4012d0:	3c050040 	lui	a1,0x40
  4012d4:	24a554c0 	addiu	a1,a1,21696
[31m  4012d8:	8f998120 	lw	t9,printf[0m
  4012dc:	8fa700ac 	lw	a3,172(sp)
  4012e0:	3c040040 	lui	a0,0x40
--
  4012f8:	8f998044 	lw	t9,-32700(gp)
  4012fc:	00000000 	nop
  401300:	041104f0 	bal	4026c4 <libubi_close>
  401304:	02202021 	move	a0,s1
  401308:	0810033d 	j	400cf4 <main+0xc4>
  40130c:	00000000 	nop
  401310:	8f8280ac 	lw	v0,-32596(gp)
  401314:	3c050040 	lui	a1,0x40
  401318:	8f9980f0 	lw	t9,-32528(gp)
  40131c:	8c440000 	lw	a0,0(v0)
  401320:	0810040a 	j	401028 <main+0x3f8>
  401324:	24a55634 	addiu	a1,a1,22068
  401328:	8f9980a4 	lw	t9,-32604(gp)
  40132c:	00000000 	nop
  401330:	0320f809 	jalr	t9
  401334:	00000000 	nop
  401338:	8c500000 	lw	s0,0(v0)
  40133c:	8fbc0018 	lw	gp,24(sp)
  401340:	1600000e 	bnez	s0,40137c <main+0x74c>
  401344:	3c050040 	lui	a1,0x40
  401348:	8f8280ac 	lw	v0,-32596(gp)
  40134c:	8f9980f0 	lw	t9,-32528(gp)
  401350:	8c440000 	lw	a0,0(v0)
  401354:	0810040a 	j	401028 <main+0x3f8>
  401358:	24a55764 	addiu	a1,a1,22372
[31m  40135c:	8f998120 	lw	t9,printf[0m
  401360:	ae060008 	sw	a2,8(s0)
  401364:	ae07000c 	sw	a3,12(s0)
--
  4040b0:	8f8280ac 	lw	v0,-32596(gp)
  4040b4:	8f9980f0 	lw	t9,-32528(gp)
  4040b8:	3c050040 	lui	a1,0x40
  4040bc:	8c440000 	lw	a0,0(v0)
  4040c0:	24a565d4 	addiu	a1,a1,26068
  4040c4:	0320f809 	jalr	t9
  4040c8:	02403021 	move	a2,s2
  4040cc:	2410ffff 	li	s0,-1
  4040d0:	08101006 	j	404018 <ubiutils_get_bytes+0xdc>
  4040d4:	2411ffff 	li	s1,-1

004040d8 <ubiutils_print_bytes>:
  4040d8:	3c1c0042 	lui	gp,0x42
  4040dc:	27bdffd0 	addiu	sp,sp,-48
  4040e0:	279ce8b0 	addiu	gp,gp,-5968
  4040e4:	afb20028 	sw	s2,40(sp)
  4040e8:	afb00020 	sw	s0,32(sp)
  4040ec:	afbf002c 	sw	ra,44(sp)
  4040f0:	afb10024 	sw	s1,36(sp)
  4040f4:	afbc0010 	sw	gp,16(sp)
  4040f8:	00c08021 	move	s0,a2
  4040fc:	10c0001e 	beqz	a2,404178 <ubiutils_print_bytes+0xa0>
  404100:	00809021 	move	s2,a0
  404104:	3c110040 	lui	s1,0x40
  404108:	26316640 	addiu	s1,s1,26176
[31m  40410c:	8f998120 	lw	t9,printf[0m
  404110:	3c040040 	lui	a0,0x40
  404114:	00a03821 	move	a3,a1
--
  40416c:	8fb00020 	lw	s0,32(sp)
  404170:	03e00008 	jr	ra
  404174:	27bd0030 	addiu	sp,sp,48
  404178:	3c110040 	lui	s1,0x40
  40417c:	08101043 	j	40410c <ubiutils_print_bytes+0x34>
  404180:	26316644 	addiu	s1,s1,26180
  404184:	24420001 	addiu	v0,v0,1
  404188:	0242102b 	sltu	v0,s2,v0
  40418c:	14400031 	bnez	v0,404254 <ubiutils_print_bytes+0x17c>
  404190:	3c020010 	lui	v0,0x10
  404194:	8f998048 	lw	t9,-32696(gp)
  404198:	00000000 	nop
  40419c:	04110048 	bal	4042c0 <__floatdidf>
  4041a0:	02402021 	move	a0,s2
  4041a4:	8fbc0010 	lw	gp,16(sp)
  4041a8:	3c040040 	lui	a0,0x40
  4041ac:	8c866680 	lw	a2,26240(a0)
  4041b0:	8f99804c 	lw	t9,-32692(gp)
  4041b4:	8c876684 	lw	a3,26244(a0)
  4041b8:	00602821 	move	a1,v1
  4041bc:	041101a4 	bal	404850 <__muldf3>
  4041c0:	00402021 	move	a0,v0
  4041c4:	8fbc0010 	lw	gp,16(sp)
  4041c8:	3c040040 	lui	a0,0x40
  4041cc:	24846654 	addiu	a0,a0,26196
[31m  4041d0:	8f998120 	lw	t9,printf[0m
  4041d4:	02202821 	move	a1,s1
  4041d8:	00403021 	move	a2,v0
--
  4041e4:	8fbc0010 	lw	gp,16(sp)
  4041e8:	1200ffdd 	beqz	s0,404160 <ubiutils_print_bytes+0x88>
  4041ec:	24040029 	li	a0,41
  4041f0:	8fbf002c 	lw	ra,44(sp)
  4041f4:	8fb20028 	lw	s2,40(sp)
  4041f8:	8fb10024 	lw	s1,36(sp)
  4041fc:	8fb00020 	lw	s0,32(sp)
  404200:	8f998128 	lw	t9,-32472(gp)
  404204:	00000000 	nop
  404208:	03200008 	jr	t9
  40420c:	27bd0030 	addiu	sp,sp,48
  404210:	8f998048 	lw	t9,-32696(gp)
  404214:	00000000 	nop
  404218:	04110029 	bal	4042c0 <__floatdidf>
  40421c:	02402021 	move	a0,s2
  404220:	8fbc0010 	lw	gp,16(sp)
  404224:	3c040040 	lui	a0,0x40
  404228:	8c866688 	lw	a2,26248(a0)
  40422c:	8f99804c 	lw	t9,-32692(gp)
  404230:	8c87668c 	lw	a3,26252(a0)
  404234:	00602821 	move	a1,v1
  404238:	04110185 	bal	404850 <__muldf3>
  40423c:	00402021 	move	a0,v0
  404240:	8fbc0010 	lw	gp,16(sp)
  404244:	3c040040 	lui	a0,0x40
[31m  404248:	8f998120 	lw	t9,printf[0m
  40424c:	08101075 	j	4041d4 <ubiutils_print_bytes+0xfc>
  404250:	24846660 	addiu	a0,a0,26208
  404254:	24420001 	addiu	v0,v0,1
  404258:	0242102b 	sltu	v0,s2,v0
  40425c:	1040ffec 	beqz	v0,404210 <ubiutils_print_bytes+0x138>
  404260:	00000000 	nop
  404264:	2e420401 	sltiu	v0,s2,1025
  404268:	1440ffbd 	bnez	v0,404160 <ubiutils_print_bytes+0x88>
  40426c:	00000000 	nop
  404270:	8f998048 	lw	t9,-32696(gp)
  404274:	00000000 	nop
  404278:	04110011 	bal	4042c0 <__floatdidf>
  40427c:	02402021 	move	a0,s2
  404280:	8fbc0010 	lw	gp,16(sp)
  404284:	3c040040 	lui	a0,0x40
  404288:	8c866690 	lw	a2,26256(a0)
  40428c:	8f99804c 	lw	t9,-32692(gp)
  404290:	8c876694 	lw	a3,26260(a0)
  404294:	00602821 	move	a1,v1
  404298:	0411016d 	bal	404850 <__muldf3>
  40429c:	00402021 	move	a0,v0
  4042a0:	8fbc0010 	lw	gp,16(sp)
  4042a4:	3c040040 	lui	a0,0x40
[31m  4042a8:	8f998120 	lw	t9,printf[0m
  4042ac:	08101075 	j	4041d4 <ubiutils_print_bytes+0xfc>
  4042b0:	2484666c 	addiu	a0,a0,26220

[0m
[[0;33m*[0m] Function [0;33mprintf[0m used [0;33m11[0m times [0;33mubimkvol[0m

