[0m
[[0;33m*[0m] Function [0;33mfprintf[0m tear down of [0;33mvideo.cgi[0m

  400ba0:	8fbc0010 	lw	gp,16(sp)
  400ba4:	afa0021c 	sw	zero,540(sp)
  400ba8:	24020001 	li	v0,1
  400bac:	1642006f 	bne	s2,v0,400d6c <_ftext@@Base+0x3dc>
  400bb0:	afa00220 	sw	zero,544(sp)
  400bb4:	27b10118 	addiu	s1,sp,280
  400bb8:	3c020040 	lui	v0,0x40
  400bbc:	8c452010 	lw	a1,8208(v0)
  400bc0:	24422010 	addiu	v0,v0,8208
  400bc4:	8c440004 	lw	a0,4(v0)
  400bc8:	8c430008 	lw	v1,8(v0)
  400bcc:	ae250000 	sw	a1,0(s1)
  400bd0:	ae240004 	sw	a0,4(s1)
  400bd4:	ae230008 	sw	v1,8(s1)
  400bd8:	9443000c 	lhu	v1,12(v0)
  400bdc:	a623000c 	sh	v1,12(s1)
  400be0:	9042000e 	lbu	v0,14(v0)
  400be4:	a222000e 	sb	v0,14(s1)
  400be8:	3c120040 	lui	s2,0x40
  400bec:	26522020 	addiu	s2,s2,8224
  400bf0:	02002021 	move	a0,s0
  400bf4:	02402821 	move	a1,s2
  400bf8:	3c060040 	lui	a2,0x40
  400bfc:	24c62028 	addiu	a2,a2,8232
  400c00:	3c070040 	lui	a3,0x40
[31m  400c04:	8f998068 	lw	t9,fprintf[0m
  400c08:	0320f809 	jalr	t9
  400c0c:	24e72038 	addiu	a3,a3,8248
  400c10:	8fbc0010 	lw	gp,16(sp)
  400c14:	3c140040 	lui	s4,0x40
  400c18:	26942040 	addiu	s4,s4,8256
  400c1c:	02002021 	move	a0,s0
  400c20:	02802821 	move	a1,s4
  400c24:	3c060040 	lui	a2,0x40
  400c28:	24c62048 	addiu	a2,a2,8264
[31m  400c2c:	8f998068 	lw	t9,fprintf[0m
  400c30:	0320f809 	jalr	t9
  400c34:	24070001 	li	a3,1
--
  400c5c:	3c050040 	lui	a1,0x40
  400c60:	24a52054 	addiu	a1,a1,8276
  400c64:	8f99803c 	lw	t9,-32708(gp)
  400c68:	0320f809 	jalr	t9
  400c6c:	27a6021c 	addiu	a2,sp,540
  400c70:	8fbc0010 	lw	gp,16(sp)
  400c74:	02202021 	move	a0,s1
  400c78:	3c050040 	lui	a1,0x40
  400c7c:	24a5205c 	addiu	a1,a1,8284
  400c80:	8f99803c 	lw	t9,-32708(gp)
  400c84:	0320f809 	jalr	t9
  400c88:	27a60220 	addiu	a2,sp,544
  400c8c:	8fbc0010 	lw	gp,16(sp)
  400c90:	02602021 	move	a0,s3
  400c94:	3c050040 	lui	a1,0x40
  400c98:	8fa6021c 	lw	a2,540(sp)
  400c9c:	8fa70220 	lw	a3,544(sp)
  400ca0:	8f998048 	lw	t9,-32696(gp)
  400ca4:	0320f809 	jalr	t9
  400ca8:	24a52064 	addiu	a1,a1,8292
  400cac:	8fbc0010 	lw	gp,16(sp)
  400cb0:	02002021 	move	a0,s0
  400cb4:	02402821 	move	a1,s2
  400cb8:	3c060040 	lui	a2,0x40
  400cbc:	24c6206c 	addiu	a2,a2,8300
[31m  400cc0:	8f998068 	lw	t9,fprintf[0m
  400cc4:	0320f809 	jalr	t9
  400cc8:	02603821 	move	a3,s3
  400ccc:	8fbc0010 	lw	gp,16(sp)
  400cd0:	02202021 	move	a0,s1
  400cd4:	3c050040 	lui	a1,0x40
  400cd8:	24a52078 	addiu	a1,a1,8312
  400cdc:	8f99803c 	lw	t9,-32708(gp)
  400ce0:	0320f809 	jalr	t9
  400ce4:	27a60218 	addiu	a2,sp,536
  400ce8:	8fbc0010 	lw	gp,16(sp)
  400cec:	8fa70218 	lw	a3,536(sp)
  400cf0:	24e203ff 	addiu	v0,a3,1023
  400cf4:	28e30000 	slti	v1,a3,0
  400cf8:	0043380b 	0x43380b
  400cfc:	02002021 	move	a0,s0
  400d00:	02802821 	move	a1,s4
  400d04:	3c060040 	lui	a2,0x40
  400d08:	24c62080 	addiu	a2,a2,8320
[31m  400d0c:	8f998068 	lw	t9,fprintf[0m
  400d10:	0320f809 	jalr	t9
  400d14:	00073a83 	sra	a3,a3,0xa
  400d18:	8fbc0010 	lw	gp,16(sp)
  400d1c:	02002021 	move	a0,s0
  400d20:	02402821 	move	a1,s2
  400d24:	3c060040 	lui	a2,0x40
  400d28:	24c62088 	addiu	a2,a2,8328
  400d2c:	3c070040 	lui	a3,0x40
[31m  400d30:	8f998068 	lw	t9,fprintf[0m
  400d34:	0320f809 	jalr	t9
  400d38:	24e72090 	addiu	a3,a3,8336
  400d3c:	8fbc0010 	lw	gp,16(sp)
  400d40:	02002021 	move	a0,s0
  400d44:	02402821 	move	a1,s2
  400d48:	3c060040 	lui	a2,0x40
  400d4c:	24c62098 	addiu	a2,a2,8344
  400d50:	3c070040 	lui	a3,0x40
[31m  400d54:	8f998068 	lw	t9,fprintf[0m
  400d58:	0320f809 	jalr	t9
  400d5c:	24e720a4 	addiu	a3,a3,8356
--
  400d64:	1000007d 	b	400f5c <_ftext@@Base+0x5cc>
  400d68:	27a40118 	addiu	a0,sp,280
  400d6c:	24020002 	li	v0,2
  400d70:	16420089 	bne	s2,v0,400f98 <_ftext@@Base+0x608>
  400d74:	3c110040 	lui	s1,0x40
  400d78:	27b10118 	addiu	s1,sp,280
  400d7c:	3c020040 	lui	v0,0x40
  400d80:	8c4520a8 	lw	a1,8360(v0)
  400d84:	244220a8 	addiu	v0,v0,8360
  400d88:	8c440004 	lw	a0,4(v0)
  400d8c:	8c430008 	lw	v1,8(v0)
  400d90:	ae250000 	sw	a1,0(s1)
  400d94:	ae240004 	sw	a0,4(s1)
  400d98:	ae230008 	sw	v1,8(s1)
  400d9c:	9443000c 	lhu	v1,12(v0)
  400da0:	a623000c 	sh	v1,12(s1)
  400da4:	9042000e 	lbu	v0,14(v0)
  400da8:	a222000e 	sb	v0,14(s1)
  400dac:	3c130040 	lui	s3,0x40
  400db0:	26732020 	addiu	s3,s3,8224
  400db4:	02002021 	move	a0,s0
  400db8:	02602821 	move	a1,s3
  400dbc:	3c060040 	lui	a2,0x40
  400dc0:	24c62028 	addiu	a2,a2,8232
  400dc4:	3c070040 	lui	a3,0x40
[31m  400dc8:	8f998068 	lw	t9,fprintf[0m
  400dcc:	0320f809 	jalr	t9
  400dd0:	24e72038 	addiu	a3,a3,8248
  400dd4:	8fbc0010 	lw	gp,16(sp)
  400dd8:	3c140040 	lui	s4,0x40
  400ddc:	26942040 	addiu	s4,s4,8256
  400de0:	02002021 	move	a0,s0
  400de4:	02802821 	move	a1,s4
  400de8:	3c060040 	lui	a2,0x40
  400dec:	24c62048 	addiu	a2,a2,8264
[31m  400df0:	8f998068 	lw	t9,fprintf[0m
  400df4:	0320f809 	jalr	t9
  400df8:	02403821 	move	a3,s2
--
  400e20:	3c050040 	lui	a1,0x40
  400e24:	24a52054 	addiu	a1,a1,8276
  400e28:	8f99803c 	lw	t9,-32708(gp)
  400e2c:	0320f809 	jalr	t9
  400e30:	27a6021c 	addiu	a2,sp,540
  400e34:	8fbc0010 	lw	gp,16(sp)
  400e38:	02202021 	move	a0,s1
  400e3c:	3c050040 	lui	a1,0x40
  400e40:	24a5205c 	addiu	a1,a1,8284
  400e44:	8f99803c 	lw	t9,-32708(gp)
  400e48:	0320f809 	jalr	t9
  400e4c:	27a60220 	addiu	a2,sp,544
  400e50:	8fbc0010 	lw	gp,16(sp)
  400e54:	02402021 	move	a0,s2
  400e58:	3c050040 	lui	a1,0x40
  400e5c:	8fa6021c 	lw	a2,540(sp)
  400e60:	8fa70220 	lw	a3,544(sp)
  400e64:	8f998048 	lw	t9,-32696(gp)
  400e68:	0320f809 	jalr	t9
  400e6c:	24a52064 	addiu	a1,a1,8292
  400e70:	8fbc0010 	lw	gp,16(sp)
  400e74:	02002021 	move	a0,s0
  400e78:	02602821 	move	a1,s3
  400e7c:	3c060040 	lui	a2,0x40
  400e80:	24c6206c 	addiu	a2,a2,8300
[31m  400e84:	8f998068 	lw	t9,fprintf[0m
  400e88:	0320f809 	jalr	t9
  400e8c:	02403821 	move	a3,s2
  400e90:	8fbc0010 	lw	gp,16(sp)
  400e94:	02002021 	move	a0,s0
  400e98:	02602821 	move	a1,s3
  400e9c:	3c060040 	lui	a2,0x40
  400ea0:	24c62088 	addiu	a2,a2,8328
  400ea4:	3c070040 	lui	a3,0x40
[31m  400ea8:	8f998068 	lw	t9,fprintf[0m
  400eac:	0320f809 	jalr	t9
  400eb0:	24e720b8 	addiu	a3,a3,8376
  400eb4:	8fbc0010 	lw	gp,16(sp)
  400eb8:	02002021 	move	a0,s0
  400ebc:	02602821 	move	a1,s3
  400ec0:	3c060040 	lui	a2,0x40
  400ec4:	24c62098 	addiu	a2,a2,8344
  400ec8:	3c070040 	lui	a3,0x40
[31m  400ecc:	8f998068 	lw	t9,fprintf[0m
  400ed0:	0320f809 	jalr	t9
  400ed4:	24e720c0 	addiu	a3,a3,8384
  400ed8:	8fbc0010 	lw	gp,16(sp)
  400edc:	27b20218 	addiu	s2,sp,536
  400ee0:	02202021 	move	a0,s1
  400ee4:	3c050040 	lui	a1,0x40
  400ee8:	24a520cc 	addiu	a1,a1,8396
  400eec:	8f99803c 	lw	t9,-32708(gp)
  400ef0:	0320f809 	jalr	t9
  400ef4:	02403021 	move	a2,s2
  400ef8:	8fbc0010 	lw	gp,16(sp)
  400efc:	02002021 	move	a0,s0
  400f00:	02802821 	move	a1,s4
  400f04:	3c060040 	lui	a2,0x40
  400f08:	8fa70218 	lw	a3,536(sp)
[31m  400f0c:	8f998068 	lw	t9,fprintf[0m
  400f10:	0320f809 	jalr	t9
  400f14:	24c620d8 	addiu	a2,a2,8408
  400f18:	8fbc0010 	lw	gp,16(sp)
  400f1c:	02202021 	move	a0,s1
  400f20:	3c050040 	lui	a1,0x40
  400f24:	24a520e4 	addiu	a1,a1,8420
  400f28:	8f99803c 	lw	t9,-32708(gp)
  400f2c:	0320f809 	jalr	t9
  400f30:	02403021 	move	a2,s2
  400f34:	8fbc0010 	lw	gp,16(sp)
  400f38:	02002021 	move	a0,s0
  400f3c:	02802821 	move	a1,s4
  400f40:	3c060040 	lui	a2,0x40
  400f44:	8fa70218 	lw	a3,536(sp)
[31m  400f48:	8f998068 	lw	t9,fprintf[0m
  400f4c:	0320f809 	jalr	t9
  400f50:	24c620ec 	addiu	a2,a2,8428
  400f54:	1000004c 	b	401088 <_ftext@@Base+0x6f8>
  400f58:	00000000 	nop
  400f5c:	3c050040 	lui	a1,0x40
  400f60:	24a520cc 	addiu	a1,a1,8396
  400f64:	8f99803c 	lw	t9,-32708(gp)
  400f68:	0320f809 	jalr	t9
  400f6c:	27a60218 	addiu	a2,sp,536
  400f70:	8fbc0010 	lw	gp,16(sp)
  400f74:	02002021 	move	a0,s0
  400f78:	02802821 	move	a1,s4
  400f7c:	3c060040 	lui	a2,0x40
  400f80:	8fa70218 	lw	a3,536(sp)
[31m  400f84:	8f998068 	lw	t9,fprintf[0m
  400f88:	0320f809 	jalr	t9
  400f8c:	24c620d8 	addiu	a2,a2,8408
  400f90:	1000003d 	b	401088 <_ftext@@Base+0x6f8>
  400f94:	00000000 	nop
  400f98:	26312020 	addiu	s1,s1,8224
  400f9c:	02002021 	move	a0,s0
  400fa0:	02202821 	move	a1,s1
  400fa4:	3c060040 	lui	a2,0x40
  400fa8:	24c62028 	addiu	a2,a2,8232
  400fac:	3c070040 	lui	a3,0x40
[31m  400fb0:	8f998068 	lw	t9,fprintf[0m
  400fb4:	0320f809 	jalr	t9
  400fb8:	24e72038 	addiu	a3,a3,8248
  400fbc:	8fbc0010 	lw	gp,16(sp)
  400fc0:	3c140040 	lui	s4,0x40
  400fc4:	26942040 	addiu	s4,s4,8256
  400fc8:	02002021 	move	a0,s0
  400fcc:	02802821 	move	a1,s4
  400fd0:	3c060040 	lui	a2,0x40
  400fd4:	24c62048 	addiu	a2,a2,8264
[31m  400fd8:	8f998068 	lw	t9,fprintf[0m
  400fdc:	0320f809 	jalr	t9
  400fe0:	02403821 	move	a3,s2
--
  40100c:	3c050040 	lui	a1,0x40
  401010:	24a52054 	addiu	a1,a1,8276
  401014:	8f99803c 	lw	t9,-32708(gp)
  401018:	0320f809 	jalr	t9
  40101c:	27a6021c 	addiu	a2,sp,540
  401020:	8fbc0010 	lw	gp,16(sp)
  401024:	02402021 	move	a0,s2
  401028:	3c050040 	lui	a1,0x40
  40102c:	24a5205c 	addiu	a1,a1,8284
  401030:	8f99803c 	lw	t9,-32708(gp)
  401034:	0320f809 	jalr	t9
  401038:	27a60220 	addiu	a2,sp,544
  40103c:	8fbc0010 	lw	gp,16(sp)
  401040:	02602021 	move	a0,s3
  401044:	3c050040 	lui	a1,0x40
  401048:	8fa6021c 	lw	a2,540(sp)
  40104c:	8fa70220 	lw	a3,544(sp)
  401050:	8f998048 	lw	t9,-32696(gp)
  401054:	0320f809 	jalr	t9
  401058:	24a52064 	addiu	a1,a1,8292
  40105c:	8fbc0010 	lw	gp,16(sp)
  401060:	02002021 	move	a0,s0
  401064:	02202821 	move	a1,s1
  401068:	3c060040 	lui	a2,0x40
  40106c:	24c6206c 	addiu	a2,a2,8300
[31m  401070:	8f998068 	lw	t9,fprintf[0m
  401074:	0320f809 	jalr	t9
  401078:	02603821 	move	a3,s3

[0m
[[0;33m*[0m] Function [0;33mfprintf[0m used [0;33m17[0m times [0;33mvideo.cgi[0m

