[0m
[[0;33m*[0m] Function [0;33mprintf[0m tear down of [0;33msetconf.cgi[0m

  400f08:	02002021 	move	a0,s0
  400f0c:	3c050040 	lui	a1,0x40
  400f10:	8f9980f0 	lw	t9,-32528(gp)
  400f14:	0320f809 	jalr	t9
  400f18:	24a5376c 	addiu	a1,a1,14188
  400f1c:	8fbc0018 	lw	gp,24(sp)
  400f20:	14400003 	bnez	v0,400f30 <_ftext@@Base+0x290>
  400f24:	00409021 	move	s2,v0
  400f28:	10000023 	b	400fb8 <_ftext@@Base+0x318>
  400f2c:	2411ffff 	li	s1,-1
  400f30:	00009821 	move	s3,zero
  400f34:	2411ffff 	li	s1,-1
  400f38:	27b00020 	addiu	s0,sp,32
  400f3c:	3c140040 	lui	s4,0x40
  400f40:	26943770 	addiu	s4,s4,14192
  400f44:	3c150040 	lui	s5,0x40
  400f48:	26b53788 	addiu	s5,s5,14216
  400f4c:	1000000c 	b	400f80 <_ftext@@Base+0x2e0>
  400f50:	24160001 	li	s6,1
  400f54:	8f998094 	lw	t9,-32620(gp)
  400f58:	0320f809 	jalr	t9
  400f5c:	02802821 	move	a1,s4
  400f60:	8fbc0018 	lw	gp,24(sp)
  400f64:	0002880b 	0x2880b
  400f68:	02a02021 	move	a0,s5
[31m  400f6c:	8f9980ec 	lw	t9,printf[0m
  400f70:	0320f809 	jalr	t9
  400f74:	02002821 	move	a1,s0
--
  400fc4:	2484378c 	addiu	a0,a0,14220
  400fc8:	8fbc0018 	lw	gp,24(sp)
  400fcc:	3c040040 	lui	a0,0x40
  400fd0:	8f9980c4 	lw	t9,-32572(gp)
  400fd4:	0320f809 	jalr	t9
  400fd8:	248437ac 	addiu	a0,a0,14252
  400fdc:	8fbc0018 	lw	gp,24(sp)
  400fe0:	3c040040 	lui	a0,0x40
  400fe4:	8f9980c4 	lw	t9,-32572(gp)
  400fe8:	0320f809 	jalr	t9
  400fec:	248437cc 	addiu	a0,a0,14284
  400ff0:	8fbc0018 	lw	gp,24(sp)
  400ff4:	3c040040 	lui	a0,0x40
  400ff8:	8f9980c4 	lw	t9,-32572(gp)
  400ffc:	0320f809 	jalr	t9
  401000:	248437f8 	addiu	a0,a0,14328
  401004:	8fbc0018 	lw	gp,24(sp)
  401008:	8f9980f8 	lw	t9,-32520(gp)
  40100c:	0320f809 	jalr	t9
  401010:	2404007b 	li	a0,123
  401014:	8fbc0018 	lw	gp,24(sp)
  401018:	3c100040 	lui	s0,0x40
  40101c:	26103788 	addiu	s0,s0,14216
  401020:	02002021 	move	a0,s0
  401024:	3c050040 	lui	a1,0x40
[31m  401028:	8f9980ec 	lw	t9,printf[0m
  40102c:	0320f809 	jalr	t9
  401030:	24a537fc 	addiu	a1,a1,14332
  401034:	8fbc0018 	lw	gp,24(sp)
  401038:	02002021 	move	a0,s0
  40103c:	3c050040 	lui	a1,0x40
[31m  401040:	8f9980ec 	lw	t9,printf[0m
  401044:	0320f809 	jalr	t9
  401048:	24a53810 	addiu	a1,a1,14352
--
  4027f0:	0320f809 	jalr	t9
  4027f4:	2484378c 	addiu	a0,a0,14220
  4027f8:	8fbc0028 	lw	gp,40(sp)
  4027fc:	3c040040 	lui	a0,0x40
  402800:	8f9980c4 	lw	t9,-32572(gp)
  402804:	0320f809 	jalr	t9
  402808:	248437ac 	addiu	a0,a0,14252
  40280c:	8fbc0028 	lw	gp,40(sp)
  402810:	3c040040 	lui	a0,0x40
  402814:	8f9980c4 	lw	t9,-32572(gp)
  402818:	0320f809 	jalr	t9
  40281c:	248437cc 	addiu	a0,a0,14284
  402820:	8fbc0028 	lw	gp,40(sp)
  402824:	3c040040 	lui	a0,0x40
  402828:	8f9980c4 	lw	t9,-32572(gp)
  40282c:	0320f809 	jalr	t9
  402830:	248437f8 	addiu	a0,a0,14328
  402834:	8fbc0028 	lw	gp,40(sp)
  402838:	8f9980f8 	lw	t9,-32520(gp)
  40283c:	0320f809 	jalr	t9
  402840:	2404007b 	li	a0,123
  402844:	8fbc0028 	lw	gp,40(sp)
  402848:	3c040040 	lui	a0,0x40
  40284c:	24843788 	addiu	a0,a0,14216
  402850:	3c050040 	lui	a1,0x40
[31m  402854:	8f9980ec 	lw	t9,printf[0m
  402858:	0320f809 	jalr	t9
  40285c:	24a537fc 	addiu	a1,a1,14332
  402860:	8fbc0028 	lw	gp,40(sp)
  402864:	3c040040 	lui	a0,0x40
  402868:	24843e14 	addiu	a0,a0,15892
[31m  40286c:	8f9980ec 	lw	t9,printf[0m
  402870:	0320f809 	jalr	t9
  402874:	240501f4 	li	a1,500
--
  40315c:	0320f809 	jalr	t9
  403160:	2484378c 	addiu	a0,a0,14220
  403164:	8fbc0028 	lw	gp,40(sp)
  403168:	3c040040 	lui	a0,0x40
  40316c:	8f9980c4 	lw	t9,-32572(gp)
  403170:	0320f809 	jalr	t9
  403174:	248437ac 	addiu	a0,a0,14252
  403178:	8fbc0028 	lw	gp,40(sp)
  40317c:	3c040040 	lui	a0,0x40
  403180:	8f9980c4 	lw	t9,-32572(gp)
  403184:	0320f809 	jalr	t9
  403188:	248437cc 	addiu	a0,a0,14284
  40318c:	8fbc0028 	lw	gp,40(sp)
  403190:	3c040040 	lui	a0,0x40
  403194:	8f9980c4 	lw	t9,-32572(gp)
  403198:	0320f809 	jalr	t9
  40319c:	248437f8 	addiu	a0,a0,14328
  4031a0:	8fbc0028 	lw	gp,40(sp)
  4031a4:	8f9980f8 	lw	t9,-32520(gp)
  4031a8:	0320f809 	jalr	t9
  4031ac:	2404007b 	li	a0,123
  4031b0:	8fbc0028 	lw	gp,40(sp)
  4031b4:	3c040040 	lui	a0,0x40
  4031b8:	24843788 	addiu	a0,a0,14216
  4031bc:	3c050040 	lui	a1,0x40
[31m  4031c0:	8f9980ec 	lw	t9,printf[0m
  4031c4:	0320f809 	jalr	t9
  4031c8:	24a53770 	addiu	a1,a1,14192
--
  4031ec:	0320f809 	jalr	t9
  4031f0:	2484378c 	addiu	a0,a0,14220
  4031f4:	8fbc0028 	lw	gp,40(sp)
  4031f8:	3c040040 	lui	a0,0x40
  4031fc:	8f9980c4 	lw	t9,-32572(gp)
  403200:	0320f809 	jalr	t9
  403204:	248437ac 	addiu	a0,a0,14252
  403208:	8fbc0028 	lw	gp,40(sp)
  40320c:	3c040040 	lui	a0,0x40
  403210:	8f9980c4 	lw	t9,-32572(gp)
  403214:	0320f809 	jalr	t9
  403218:	248437cc 	addiu	a0,a0,14284
  40321c:	8fbc0028 	lw	gp,40(sp)
  403220:	3c040040 	lui	a0,0x40
  403224:	8f9980c4 	lw	t9,-32572(gp)
  403228:	0320f809 	jalr	t9
  40322c:	248437f8 	addiu	a0,a0,14328
  403230:	8fbc0028 	lw	gp,40(sp)
  403234:	8f9980f8 	lw	t9,-32520(gp)
  403238:	0320f809 	jalr	t9
  40323c:	2404007b 	li	a0,123
  403240:	8fbc0028 	lw	gp,40(sp)
  403244:	3c040040 	lui	a0,0x40
  403248:	24843788 	addiu	a0,a0,14216
  40324c:	3c050040 	lui	a1,0x40
[31m  403250:	8f9980ec 	lw	t9,printf[0m
  403254:	0320f809 	jalr	t9
  403258:	24a537fc 	addiu	a1,a1,14332
  40325c:	8fbc0028 	lw	gp,40(sp)
  403260:	3c040040 	lui	a0,0x40
  403264:	24843e14 	addiu	a0,a0,15892
[31m  403268:	8f9980ec 	lw	t9,printf[0m
  40326c:	0320f809 	jalr	t9
  403270:	02002821 	move	a1,s0
--
  403290:	0320f809 	jalr	t9
  403294:	2484378c 	addiu	a0,a0,14220
  403298:	8fbc0028 	lw	gp,40(sp)
  40329c:	3c040040 	lui	a0,0x40
  4032a0:	8f9980c4 	lw	t9,-32572(gp)
  4032a4:	0320f809 	jalr	t9
  4032a8:	248437ac 	addiu	a0,a0,14252
  4032ac:	8fbc0028 	lw	gp,40(sp)
  4032b0:	3c040040 	lui	a0,0x40
  4032b4:	8f9980c4 	lw	t9,-32572(gp)
  4032b8:	0320f809 	jalr	t9
  4032bc:	248437cc 	addiu	a0,a0,14284
  4032c0:	8fbc0028 	lw	gp,40(sp)
  4032c4:	3c040040 	lui	a0,0x40
  4032c8:	8f9980c4 	lw	t9,-32572(gp)
  4032cc:	0320f809 	jalr	t9
  4032d0:	248437f8 	addiu	a0,a0,14328
  4032d4:	8fbc0028 	lw	gp,40(sp)
  4032d8:	8f9980f8 	lw	t9,-32520(gp)
  4032dc:	0320f809 	jalr	t9
  4032e0:	2404007b 	li	a0,123
  4032e4:	8fbc0028 	lw	gp,40(sp)
  4032e8:	3c040040 	lui	a0,0x40
  4032ec:	24843788 	addiu	a0,a0,14216
  4032f0:	3c050040 	lui	a1,0x40
[31m  4032f4:	8f9980ec 	lw	t9,printf[0m
  4032f8:	0320f809 	jalr	t9
  4032fc:	24a537fc 	addiu	a1,a1,14332
  403300:	8fbc0028 	lw	gp,40(sp)
  403304:	3c040040 	lui	a0,0x40
  403308:	24843e14 	addiu	a0,a0,15892
[31m  40330c:	8f9980ec 	lw	t9,printf[0m
  403310:	0320f809 	jalr	t9
  403314:	240501f4 	li	a1,500

[0m
[[0;33m*[0m] Function [0;33mprintf[0m used [0;33m10[0m times [0;33msetconf.cgi[0m

