[0m
[[0;33m*[0m] Function [0;33msystem[0m tear down of [0;33mhnap_push_service[0m

  404aec:	007d1821 	addu	v1,v1,sp
  404af0:	8c630000 	lw	v1,0(v1)
  404af4:	24640001 	addiu	a0,v1,1
  404af8:	3c030005 	lui	v1,0x5
  404afc:	34635858 	ori	v1,v1,0x5858
  404b00:	007d1821 	addu	v1,v1,sp
  404b04:	ac640000 	sw	a0,0(v1)
  404b08:	3c030005 	lui	v1,0x5
  404b0c:	34635860 	ori	v1,v1,0x5860
  404b10:	007d1821 	addu	v1,v1,sp
  404b14:	8c640000 	lw	a0,0(v1)
  404b18:	3c030005 	lui	v1,0x5
  404b1c:	34635858 	ori	v1,v1,0x5858
  404b20:	007d1821 	addu	v1,v1,sp
  404b24:	8c630000 	lw	v1,0(v1)
  404b28:	0064102a 	slt	v0,v1,a0
  404b2c:	1440fdb4 	bnez	v0,404200 <ReviewPolicyFromFile@@Base+0x1258>
  404b30:	26942ab0 	addiu	s4,s4,10928
  404b34:	3c040005 	lui	a0,0x5
  404b38:	34845868 	ori	a0,a0,0x5868
  404b3c:	009d2021 	addu	a0,a0,sp
  404b40:	8c840000 	lw	a0,0(a0)
  404b44:	10800008 	beqz	a0,404b68 <ReviewPolicyFromFile@@Base+0x1bc0>
  404b48:	3c020005 	lui	v0,0x5
  404b4c:	3c040041 	lui	a0,0x41
[31m  404b50:	8f9981b8 	lw	t9,system[0m
  404b54:	0320f809 	jalr	t9
  404b58:	24844f20 	addiu	a0,a0,20256
  404b5c:	8fbc0010 	lw	gp,16(sp)
  404b60:	1000000c 	b	404b94 <ReviewPolicyFromFile@@Base+0x1bec>
  404b64:	3c030005 	lui	v1,0x5
  404b68:	34425868 	ori	v0,v0,0x5868
  404b6c:	005d1021 	addu	v0,v0,sp
  404b70:	8c420000 	lw	v0,0(v0)
  404b74:	14400007 	bnez	v0,404b94 <ReviewPolicyFromFile@@Base+0x1bec>
  404b78:	3c030005 	lui	v1,0x5
  404b7c:	3c040041 	lui	a0,0x41
[31m  404b80:	8f9981b8 	lw	t9,system[0m
  404b84:	0320f809 	jalr	t9
  404b88:	24844f68 	addiu	a0,a0,20328
  404b8c:	8fbc0010 	lw	gp,16(sp)
  404b90:	3c030005 	lui	v1,0x5
  404b94:	3463586c 	ori	v1,v1,0x586c
  404b98:	007d1821 	addu	v1,v1,sp
  404b9c:	8c630000 	lw	v1,0(v1)
  404ba0:	10600007 	beqz	v1,404bc0 <ReviewPolicyFromFile@@Base+0x1c18>
  404ba4:	3c040041 	lui	a0,0x41
[31m  404ba8:	8f9981b8 	lw	t9,system[0m
  404bac:	0320f809 	jalr	t9
  404bb0:	24844fb0 	addiu	a0,a0,20400
  404bb4:	8fbc0010 	lw	gp,16(sp)
  404bb8:	1000000d 	b	404bf0 <ReviewPolicyFromFile@@Base+0x1c48>
  404bbc:	3c020005 	lui	v0,0x5
  404bc0:	3c040005 	lui	a0,0x5
  404bc4:	3484586c 	ori	a0,a0,0x586c
  404bc8:	009d2021 	addu	a0,a0,sp
  404bcc:	8c840000 	lw	a0,0(a0)
  404bd0:	14800007 	bnez	a0,404bf0 <ReviewPolicyFromFile@@Base+0x1c48>
  404bd4:	3c020005 	lui	v0,0x5
  404bd8:	3c040041 	lui	a0,0x41
[31m  404bdc:	8f9981b8 	lw	t9,system[0m
  404be0:	0320f809 	jalr	t9
  404be4:	24844ffc 	addiu	a0,a0,20476
  404be8:	8fbc0010 	lw	gp,16(sp)
  404bec:	3c020005 	lui	v0,0x5
  404bf0:	34425870 	ori	v0,v0,0x5870
  404bf4:	005d1021 	addu	v0,v0,sp
  404bf8:	8c420000 	lw	v0,0(v0)
  404bfc:	10400007 	beqz	v0,404c1c <ReviewPolicyFromFile@@Base+0x1c74>
  404c00:	3c030005 	lui	v1,0x5
  404c04:	3c040041 	lui	a0,0x41
[31m  404c08:	8f9981b8 	lw	t9,system[0m
  404c0c:	0320f809 	jalr	t9
  404c10:	24845048 	addiu	a0,a0,20552
  404c14:	1000000b 	b	404c44 <ReviewPolicyFromFile@@Base+0x1c9c>
  404c18:	00001021 	move	v0,zero
  404c1c:	34635870 	ori	v1,v1,0x5870
  404c20:	007d1821 	addu	v1,v1,sp
  404c24:	8c630000 	lw	v1,0(v1)
  404c28:	14600006 	bnez	v1,404c44 <ReviewPolicyFromFile@@Base+0x1c9c>
  404c2c:	00001021 	move	v0,zero
  404c30:	3c040041 	lui	a0,0x41
[31m  404c34:	8f9981b8 	lw	t9,system[0m
  404c38:	0320f809 	jalr	t9
  404c3c:	24845094 	addiu	a0,a0,20628
--
  407008:	8fa2058c 	lw	v0,1420(sp)
  40700c:	afa20010 	sw	v0,16(sp)
  407010:	8fa30584 	lw	v1,1412(sp)
  407014:	afa30014 	sw	v1,20(sp)
  407018:	8fa2057c 	lw	v0,1404(sp)
  40701c:	afa20018 	sw	v0,24(sp)
  407020:	8fa305ac 	lw	v1,1452(sp)
  407024:	afa3001c 	sw	v1,28(sp)
  407028:	8fa40574 	lw	a0,1396(sp)
  40702c:	240501ff 	li	a1,511
  407030:	3c060041 	lui	a2,0x41
  407034:	8fa70588 	lw	a3,1416(sp)
  407038:	8f9981ec 	lw	t9,-32276(gp)
  40703c:	0320f809 	jalr	t9
  407040:	24c65454 	addiu	a2,a2,21588
  407044:	8fbc0020 	lw	gp,32(sp)
  407048:	8f82809c 	lw	v0,-32612(gp)
  40704c:	8c440000 	lw	a0,0(v0)
  407050:	3c050041 	lui	a1,0x41
  407054:	8fa60574 	lw	a2,1396(sp)
  407058:	8f998154 	lw	t9,-32428(gp)
  40705c:	0320f809 	jalr	t9
  407060:	24a554ec 	addiu	a1,a1,21740
  407064:	8fbc0020 	lw	gp,32(sp)
  407068:	8fa40574 	lw	a0,1396(sp)
[31m  40706c:	8f9981b8 	lw	t9,system[0m
  407070:	0320f809 	jalr	t9
  407074:	00000000 	nop
--
  40886c:	afa20010 	sw	v0,16(sp)
  408870:	afa00014 	sw	zero,20(sp)
  408874:	3c060005 	lui	a2,0x5
  408878:	34c65fb4 	ori	a2,a2,0x5fb4
  40887c:	00dd3021 	addu	a2,a2,sp
  408880:	8cc60000 	lw	a2,0(a2)
  408884:	afa60018 	sw	a2,24(sp)
  408888:	3c070005 	lui	a3,0x5
  40888c:	34e75f8c 	ori	a3,a3,0x5f8c
  408890:	00fd3821 	addu	a3,a3,sp
  408894:	8ce40000 	lw	a0,0(a3)
  408898:	3c050041 	lui	a1,0x41
  40889c:	24a55538 	addiu	a1,a1,21816
  4088a0:	3c080005 	lui	t0,0x5
  4088a4:	35085fb0 	ori	t0,t0,0x5fb0
  4088a8:	011d4021 	addu	t0,t0,sp
  4088ac:	8d070000 	lw	a3,0(t0)
  4088b0:	8f9980a0 	lw	t9,-32608(gp)
  4088b4:	0320f809 	jalr	t9
  4088b8:	00003021 	move	a2,zero
  4088bc:	8fbc0028 	lw	gp,40(sp)
  4088c0:	3c090005 	lui	t1,0x5
  4088c4:	35295f8c 	ori	t1,t1,0x5f8c
  4088c8:	013d4821 	addu	t1,t1,sp
  4088cc:	8d240000 	lw	a0,0(t1)
[31m  4088d0:	8f9981b8 	lw	t9,system[0m
  4088d4:	0320f809 	jalr	t9
  4088d8:	00000000 	nop
--
  408a58:	afa20010 	sw	v0,16(sp)
  408a5c:	afa00014 	sw	zero,20(sp)
  408a60:	3c060005 	lui	a2,0x5
  408a64:	34c65fb4 	ori	a2,a2,0x5fb4
  408a68:	00dd3021 	addu	a2,a2,sp
  408a6c:	8cc60000 	lw	a2,0(a2)
  408a70:	afa60018 	sw	a2,24(sp)
  408a74:	3c070005 	lui	a3,0x5
  408a78:	34e75f8c 	ori	a3,a3,0x5f8c
  408a7c:	00fd3821 	addu	a3,a3,sp
  408a80:	8ce40000 	lw	a0,0(a3)
  408a84:	3c050041 	lui	a1,0x41
  408a88:	24a55538 	addiu	a1,a1,21816
  408a8c:	3c080005 	lui	t0,0x5
  408a90:	35085fb0 	ori	t0,t0,0x5fb0
  408a94:	011d4021 	addu	t0,t0,sp
  408a98:	8d070000 	lw	a3,0(t0)
  408a9c:	8f9980a0 	lw	t9,-32608(gp)
  408aa0:	0320f809 	jalr	t9
  408aa4:	24060001 	li	a2,1
  408aa8:	8fbc0028 	lw	gp,40(sp)
  408aac:	3c090005 	lui	t1,0x5
  408ab0:	35295f8c 	ori	t1,t1,0x5f8c
  408ab4:	013d4821 	addu	t1,t1,sp
  408ab8:	8d240000 	lw	a0,0(t1)
[31m  408abc:	8f9981b8 	lw	t9,system[0m
  408ac0:	0320f809 	jalr	t9
  408ac4:	00000000 	nop
--
  408c44:	afa20010 	sw	v0,16(sp)
  408c48:	afa00014 	sw	zero,20(sp)
  408c4c:	3c060005 	lui	a2,0x5
  408c50:	34c65fb4 	ori	a2,a2,0x5fb4
  408c54:	00dd3021 	addu	a2,a2,sp
  408c58:	8cc60000 	lw	a2,0(a2)
  408c5c:	afa60018 	sw	a2,24(sp)
  408c60:	3c070005 	lui	a3,0x5
  408c64:	34e75f8c 	ori	a3,a3,0x5f8c
  408c68:	00fd3821 	addu	a3,a3,sp
  408c6c:	8ce40000 	lw	a0,0(a3)
  408c70:	3c050041 	lui	a1,0x41
  408c74:	24a55610 	addiu	a1,a1,22032
  408c78:	3c080005 	lui	t0,0x5
  408c7c:	35085fb0 	ori	t0,t0,0x5fb0
  408c80:	011d4021 	addu	t0,t0,sp
  408c84:	8d070000 	lw	a3,0(t0)
  408c88:	8f9980a0 	lw	t9,-32608(gp)
  408c8c:	0320f809 	jalr	t9
  408c90:	00003021 	move	a2,zero
  408c94:	8fbc0028 	lw	gp,40(sp)
  408c98:	3c090005 	lui	t1,0x5
  408c9c:	35295f8c 	ori	t1,t1,0x5f8c
  408ca0:	013d4821 	addu	t1,t1,sp
  408ca4:	8d240000 	lw	a0,0(t1)
[31m  408ca8:	8f9981b8 	lw	t9,system[0m
  408cac:	0320f809 	jalr	t9
  408cb0:	00000000 	nop
--
  408e30:	afa20010 	sw	v0,16(sp)
  408e34:	afa00014 	sw	zero,20(sp)
  408e38:	3c060005 	lui	a2,0x5
  408e3c:	34c65fb4 	ori	a2,a2,0x5fb4
  408e40:	00dd3021 	addu	a2,a2,sp
  408e44:	8cc60000 	lw	a2,0(a2)
  408e48:	afa60018 	sw	a2,24(sp)
  408e4c:	3c070005 	lui	a3,0x5
  408e50:	34e75f8c 	ori	a3,a3,0x5f8c
  408e54:	00fd3821 	addu	a3,a3,sp
  408e58:	8ce40000 	lw	a0,0(a3)
  408e5c:	3c050041 	lui	a1,0x41
  408e60:	24a55610 	addiu	a1,a1,22032
  408e64:	3c080005 	lui	t0,0x5
  408e68:	35085fb0 	ori	t0,t0,0x5fb0
  408e6c:	011d4021 	addu	t0,t0,sp
  408e70:	8d070000 	lw	a3,0(t0)
  408e74:	8f9980a0 	lw	t9,-32608(gp)
  408e78:	0320f809 	jalr	t9
  408e7c:	24060001 	li	a2,1
  408e80:	8fbc0028 	lw	gp,40(sp)
  408e84:	3c090005 	lui	t1,0x5
  408e88:	35295f8c 	ori	t1,t1,0x5f8c
  408e8c:	013d4821 	addu	t1,t1,sp
  408e90:	8d240000 	lw	a0,0(t1)
[31m  408e94:	8f9981b8 	lw	t9,system[0m
  408e98:	0320f809 	jalr	t9
  408e9c:	00000000 	nop
--
  409018:	afa20010 	sw	v0,16(sp)
  40901c:	afa00014 	sw	zero,20(sp)
  409020:	3c060005 	lui	a2,0x5
  409024:	34c65fb4 	ori	a2,a2,0x5fb4
  409028:	00dd3021 	addu	a2,a2,sp
  40902c:	8cc60000 	lw	a2,0(a2)
  409030:	afa60018 	sw	a2,24(sp)
  409034:	3c070005 	lui	a3,0x5
  409038:	34e75f8c 	ori	a3,a3,0x5f8c
  40903c:	00fd3821 	addu	a3,a3,sp
  409040:	8ce40000 	lw	a0,0(a3)
  409044:	3c050041 	lui	a1,0x41
  409048:	24a55538 	addiu	a1,a1,21816
  40904c:	3c080005 	lui	t0,0x5
  409050:	35085fb0 	ori	t0,t0,0x5fb0
  409054:	011d4021 	addu	t0,t0,sp
  409058:	8d070000 	lw	a3,0(t0)
  40905c:	8f9980a0 	lw	t9,-32608(gp)
  409060:	0320f809 	jalr	t9
  409064:	24060004 	li	a2,4
  409068:	8fbc0028 	lw	gp,40(sp)
  40906c:	3c090005 	lui	t1,0x5
  409070:	35295f8c 	ori	t1,t1,0x5f8c
  409074:	013d4821 	addu	t1,t1,sp
  409078:	8d240000 	lw	a0,0(t1)
[31m  40907c:	8f9981b8 	lw	t9,system[0m
  409080:	0320f809 	jalr	t9
  409084:	00000000 	nop
--
  4091f4:	afa20010 	sw	v0,16(sp)
  4091f8:	afa00014 	sw	zero,20(sp)
  4091fc:	3c060005 	lui	a2,0x5
  409200:	34c65fb4 	ori	a2,a2,0x5fb4
  409204:	00dd3021 	addu	a2,a2,sp
  409208:	8cc60000 	lw	a2,0(a2)
  40920c:	afa60018 	sw	a2,24(sp)
  409210:	3c070005 	lui	a3,0x5
  409214:	34e75f8c 	ori	a3,a3,0x5f8c
  409218:	00fd3821 	addu	a3,a3,sp
  40921c:	8ce40000 	lw	a0,0(a3)
  409220:	3c050041 	lui	a1,0x41
  409224:	24a55610 	addiu	a1,a1,22032
  409228:	3c080005 	lui	t0,0x5
  40922c:	35085fb0 	ori	t0,t0,0x5fb0
  409230:	011d4021 	addu	t0,t0,sp
  409234:	8d070000 	lw	a3,0(t0)
  409238:	8f9980a0 	lw	t9,-32608(gp)
  40923c:	0320f809 	jalr	t9
  409240:	24060004 	li	a2,4
  409244:	8fbc0028 	lw	gp,40(sp)
  409248:	3c090005 	lui	t1,0x5
  40924c:	35295f8c 	ori	t1,t1,0x5f8c
  409250:	013d4821 	addu	t1,t1,sp
  409254:	8d240000 	lw	a0,0(t1)
[31m  409258:	8f9981b8 	lw	t9,system[0m
  40925c:	0320f809 	jalr	t9
  409260:	00000000 	nop
--
  4093ec:	8c470000 	lw	a3,0(v0)
  4093f0:	8c460004 	lw	a2,4(v0)
  4093f4:	8c450008 	lw	a1,8(v0)
  4093f8:	8c44000c 	lw	a0,12(v0)
  4093fc:	ac670000 	sw	a3,0(v1)
  409400:	ac660004 	sw	a2,4(v1)
  409404:	ac650008 	sw	a1,8(v1)
  409408:	ac64000c 	sw	a0,12(v1)
  40940c:	24420010 	addiu	v0,v0,16
  409410:	3c060005 	lui	a2,0x5
  409414:	34c65fe8 	ori	a2,a2,0x5fe8
  409418:	00dd3021 	addu	a2,a2,sp
  40941c:	8cc60000 	lw	a2,0(a2)
  409420:	1446fff2 	bne	v0,a2,4093ec <PushDCHEventNotifyCheck@@Base+0x21dc>
  409424:	24630010 	addiu	v1,v1,16
  409428:	8c450000 	lw	a1,0(v0)
  40942c:	8c440004 	lw	a0,4(v0)
  409430:	ac650000 	sw	a1,0(v1)
  409434:	ac640004 	sw	a0,4(v1)
  409438:	94420008 	lhu	v0,8(v0)
  40943c:	a4620008 	sh	v0,8(v1)
  409440:	3c070005 	lui	a3,0x5
  409444:	34e75f8c 	ori	a3,a3,0x5f8c
  409448:	00fd3821 	addu	a3,a3,sp
  40944c:	8ce40000 	lw	a0,0(a3)
[31m  409450:	8f9981b8 	lw	t9,system[0m
  409454:	0320f809 	jalr	t9
  409458:	00000000 	nop
--
  4095d4:	3c050005 	lui	a1,0x5
  4095d8:	34a55f8c 	ori	a1,a1,0x5f8c
  4095dc:	00bd2821 	addu	a1,a1,sp
  4095e0:	8ca30000 	lw	v1,0(a1)
  4095e4:	8c470000 	lw	a3,0(v0)
  4095e8:	8c460004 	lw	a2,4(v0)
  4095ec:	8c450008 	lw	a1,8(v0)
  4095f0:	8c44000c 	lw	a0,12(v0)
  4095f4:	ac670000 	sw	a3,0(v1)
  4095f8:	ac660004 	sw	a2,4(v1)
  4095fc:	ac650008 	sw	a1,8(v1)
  409600:	ac64000c 	sw	a0,12(v1)
  409604:	24420010 	addiu	v0,v0,16
  409608:	3c060005 	lui	a2,0x5
  40960c:	34c65fec 	ori	a2,a2,0x5fec
  409610:	00dd3021 	addu	a2,a2,sp
  409614:	8cc60000 	lw	a2,0(a2)
  409618:	1446fff2 	bne	v0,a2,4095e4 <PushDCHEventNotifyCheck@@Base+0x23d4>
  40961c:	24630010 	addiu	v1,v1,16
  409620:	90420000 	lbu	v0,0(v0)
  409624:	a0620000 	sb	v0,0(v1)
  409628:	3c070005 	lui	a3,0x5
  40962c:	34e75f8c 	ori	a3,a3,0x5f8c
  409630:	00fd3821 	addu	a3,a3,sp
  409634:	8ce40000 	lw	a0,0(a3)
[31m  409638:	8f9981b8 	lw	t9,system[0m
  40963c:	0320f809 	jalr	t9
  409640:	00000000 	nop
--
  409830:	16020015 	bne	s0,v0,409888 <PushDCHEventNotifyCheck@@Base+0x2678>
  409834:	3c030005 	lui	v1,0x5
  409838:	3c080005 	lui	t0,0x5
  40983c:	35085fb4 	ori	t0,t0,0x5fb4
  409840:	011d4021 	addu	t0,t0,sp
  409844:	8d080000 	lw	t0,0(t0)
  409848:	afa80010 	sw	t0,16(sp)
  40984c:	3c090005 	lui	t1,0x5
  409850:	35295f8c 	ori	t1,t1,0x5f8c
  409854:	013d4821 	addu	t1,t1,sp
  409858:	8d240000 	lw	a0,0(t1)
  40985c:	3c050041 	lui	a1,0x41
  409860:	24a55904 	addiu	a1,a1,22788
  409864:	3c020005 	lui	v0,0x5
  409868:	34426028 	ori	v0,v0,0x6028
  40986c:	005d1021 	addu	v0,v0,sp
  409870:	8c460000 	lw	a2,0(v0)
  409874:	8f9980a0 	lw	t9,-32608(gp)
  409878:	0320f809 	jalr	t9
  40987c:	00003821 	move	a3,zero
  409880:	8fbc0028 	lw	gp,40(sp)
  409884:	3c030005 	lui	v1,0x5
  409888:	34635f8c 	ori	v1,v1,0x5f8c
  40988c:	007d1821 	addu	v1,v1,sp
  409890:	8c640000 	lw	a0,0(v1)
[31m  409894:	8f9981b8 	lw	t9,system[0m
  409898:	0320f809 	jalr	t9
  40989c:	00000000 	nop
--
  409b38:	16020015 	bne	s0,v0,409b90 <PushDCHEventNotifyCheck@@Base+0x2980>
  409b3c:	3c030005 	lui	v1,0x5
  409b40:	3c080005 	lui	t0,0x5
  409b44:	35085fb4 	ori	t0,t0,0x5fb4
  409b48:	011d4021 	addu	t0,t0,sp
  409b4c:	8d080000 	lw	t0,0(t0)
  409b50:	afa80010 	sw	t0,16(sp)
  409b54:	3c090005 	lui	t1,0x5
  409b58:	35295f8c 	ori	t1,t1,0x5f8c
  409b5c:	013d4821 	addu	t1,t1,sp
  409b60:	8d240000 	lw	a0,0(t1)
  409b64:	3c050041 	lui	a1,0x41
  409b68:	24a55904 	addiu	a1,a1,22788
  409b6c:	3c020005 	lui	v0,0x5
  409b70:	34426028 	ori	v0,v0,0x6028
  409b74:	005d1021 	addu	v0,v0,sp
  409b78:	8c460000 	lw	a2,0(v0)
  409b7c:	8f9980a0 	lw	t9,-32608(gp)
  409b80:	0320f809 	jalr	t9
  409b84:	00003821 	move	a3,zero
  409b88:	8fbc0028 	lw	gp,40(sp)
  409b8c:	3c030005 	lui	v1,0x5
  409b90:	34635f8c 	ori	v1,v1,0x5f8c
  409b94:	007d1821 	addu	v1,v1,sp
  409b98:	8c640000 	lw	a0,0(v1)
[31m  409b9c:	8f9981b8 	lw	t9,system[0m
  409ba0:	0320f809 	jalr	t9
  409ba4:	00000000 	nop
--
  409f24:	8fc2ffb8 	lw	v0,-72(s8)
  409f28:	afa20010 	sw	v0,16(sp)
  409f2c:	afa00014 	sw	zero,20(sp)
  409f30:	afb00018 	sw	s0,24(sp)
  409f34:	afb3001c 	sw	s3,28(sp)
  409f38:	8fc20000 	lw	v0,0(s8)
  409f3c:	afa20020 	sw	v0,32(sp)
  409f40:	3c060005 	lui	a2,0x5
  409f44:	34c65f8c 	ori	a2,a2,0x5f8c
  409f48:	00dd3021 	addu	a2,a2,sp
  409f4c:	8cc40000 	lw	a0,0(a2)
  409f50:	3c050041 	lui	a1,0x41
  409f54:	24a559cc 	addiu	a1,a1,22988
  409f58:	3c080005 	lui	t0,0x5
  409f5c:	35085fb0 	ori	t0,t0,0x5fb0
  409f60:	011d4021 	addu	t0,t0,sp
  409f64:	8d070000 	lw	a3,0(t0)
  409f68:	8f9980a0 	lw	t9,-32608(gp)
  409f6c:	0320f809 	jalr	t9
  409f70:	24060002 	li	a2,2
  409f74:	8fbc0028 	lw	gp,40(sp)
  409f78:	3c090005 	lui	t1,0x5
  409f7c:	35295f8c 	ori	t1,t1,0x5f8c
  409f80:	013d4821 	addu	t1,t1,sp
  409f84:	8d240000 	lw	a0,0(t1)
[31m  409f88:	8f9981b8 	lw	t9,system[0m
  409f8c:	0320f809 	jalr	t9
  409f90:	00000000 	nop
--
  40a088:	8fc2ffb8 	lw	v0,-72(s8)
  40a08c:	afa20010 	sw	v0,16(sp)
  40a090:	afa00014 	sw	zero,20(sp)
  40a094:	afb00018 	sw	s0,24(sp)
  40a098:	afb3001c 	sw	s3,28(sp)
  40a09c:	8fc20000 	lw	v0,0(s8)
  40a0a0:	afa20020 	sw	v0,32(sp)
  40a0a4:	3c090005 	lui	t1,0x5
  40a0a8:	35295f8c 	ori	t1,t1,0x5f8c
  40a0ac:	013d4821 	addu	t1,t1,sp
  40a0b0:	8d240000 	lw	a0,0(t1)
  40a0b4:	3c050041 	lui	a1,0x41
  40a0b8:	24a55a2c 	addiu	a1,a1,23084
  40a0bc:	3c020005 	lui	v0,0x5
  40a0c0:	34425fb0 	ori	v0,v0,0x5fb0
  40a0c4:	005d1021 	addu	v0,v0,sp
  40a0c8:	8c470000 	lw	a3,0(v0)
  40a0cc:	8f9980a0 	lw	t9,-32608(gp)
  40a0d0:	0320f809 	jalr	t9
  40a0d4:	24060002 	li	a2,2
  40a0d8:	8fbc0028 	lw	gp,40(sp)
  40a0dc:	3c030005 	lui	v1,0x5
  40a0e0:	34635f8c 	ori	v1,v1,0x5f8c
  40a0e4:	007d1821 	addu	v1,v1,sp
  40a0e8:	8c640000 	lw	a0,0(v1)
[31m  40a0ec:	8f9981b8 	lw	t9,system[0m
  40a0f0:	0320f809 	jalr	t9
  40a0f4:	00000000 	nop
--
  40a404:	8fc2ffb8 	lw	v0,-72(s8)
  40a408:	afa20010 	sw	v0,16(sp)
  40a40c:	afa00014 	sw	zero,20(sp)
  40a410:	afb00018 	sw	s0,24(sp)
  40a414:	afb3001c 	sw	s3,28(sp)
  40a418:	8fc20000 	lw	v0,0(s8)
  40a41c:	afa20020 	sw	v0,32(sp)
  40a420:	3c090005 	lui	t1,0x5
  40a424:	35295f8c 	ori	t1,t1,0x5f8c
  40a428:	013d4821 	addu	t1,t1,sp
  40a42c:	8d240000 	lw	a0,0(t1)
  40a430:	3c050041 	lui	a1,0x41
  40a434:	24a559cc 	addiu	a1,a1,22988
  40a438:	3c020005 	lui	v0,0x5
  40a43c:	34425fb0 	ori	v0,v0,0x5fb0
  40a440:	005d1021 	addu	v0,v0,sp
  40a444:	8c470000 	lw	a3,0(v0)
  40a448:	8f9980a0 	lw	t9,-32608(gp)
  40a44c:	0320f809 	jalr	t9
  40a450:	24060002 	li	a2,2
  40a454:	8fbc0028 	lw	gp,40(sp)
  40a458:	3c030005 	lui	v1,0x5
  40a45c:	34635f8c 	ori	v1,v1,0x5f8c
  40a460:	007d1821 	addu	v1,v1,sp
  40a464:	8c640000 	lw	a0,0(v1)
[31m  40a468:	8f9981b8 	lw	t9,system[0m
  40a46c:	0320f809 	jalr	t9
  40a470:	00000000 	nop
--
  40a56c:	8fc2ffb8 	lw	v0,-72(s8)
  40a570:	afa20010 	sw	v0,16(sp)
  40a574:	afa00014 	sw	zero,20(sp)
  40a578:	afb00018 	sw	s0,24(sp)
  40a57c:	afb3001c 	sw	s3,28(sp)
  40a580:	8fc20000 	lw	v0,0(s8)
  40a584:	afa20020 	sw	v0,32(sp)
  40a588:	3c090005 	lui	t1,0x5
  40a58c:	35295f8c 	ori	t1,t1,0x5f8c
  40a590:	013d4821 	addu	t1,t1,sp
  40a594:	8d240000 	lw	a0,0(t1)
  40a598:	3c050041 	lui	a1,0x41
  40a59c:	24a55a2c 	addiu	a1,a1,23084
  40a5a0:	3c020005 	lui	v0,0x5
  40a5a4:	34425fb0 	ori	v0,v0,0x5fb0
  40a5a8:	005d1021 	addu	v0,v0,sp
  40a5ac:	8c470000 	lw	a3,0(v0)
  40a5b0:	8f9980a0 	lw	t9,-32608(gp)
  40a5b4:	0320f809 	jalr	t9
  40a5b8:	24060002 	li	a2,2
  40a5bc:	8fbc0028 	lw	gp,40(sp)
  40a5c0:	3c030005 	lui	v1,0x5
  40a5c4:	34635f8c 	ori	v1,v1,0x5f8c
  40a5c8:	007d1821 	addu	v1,v1,sp
  40a5cc:	8c640000 	lw	a0,0(v1)
[31m  40a5d0:	8f9981b8 	lw	t9,system[0m
  40a5d4:	0320f809 	jalr	t9
  40a5d8:	00000000 	nop
--
  40a8e8:	8fc2ffb8 	lw	v0,-72(s8)
  40a8ec:	afa20010 	sw	v0,16(sp)
  40a8f0:	afa00014 	sw	zero,20(sp)
  40a8f4:	afb00018 	sw	s0,24(sp)
  40a8f8:	afb3001c 	sw	s3,28(sp)
  40a8fc:	8fc20000 	lw	v0,0(s8)
  40a900:	afa20020 	sw	v0,32(sp)
  40a904:	3c090005 	lui	t1,0x5
  40a908:	35295f8c 	ori	t1,t1,0x5f8c
  40a90c:	013d4821 	addu	t1,t1,sp
  40a910:	8d240000 	lw	a0,0(t1)
  40a914:	3c050041 	lui	a1,0x41
  40a918:	24a559cc 	addiu	a1,a1,22988
  40a91c:	3c020005 	lui	v0,0x5
  40a920:	34425fb0 	ori	v0,v0,0x5fb0
  40a924:	005d1021 	addu	v0,v0,sp
  40a928:	8c470000 	lw	a3,0(v0)
  40a92c:	8f9980a0 	lw	t9,-32608(gp)
  40a930:	0320f809 	jalr	t9
  40a934:	24060002 	li	a2,2
  40a938:	8fbc0028 	lw	gp,40(sp)
  40a93c:	3c030005 	lui	v1,0x5
  40a940:	34635f8c 	ori	v1,v1,0x5f8c
  40a944:	007d1821 	addu	v1,v1,sp
  40a948:	8c640000 	lw	a0,0(v1)
[31m  40a94c:	8f9981b8 	lw	t9,system[0m
  40a950:	0320f809 	jalr	t9
  40a954:	00000000 	nop
--
  40aa50:	8fc2ffb8 	lw	v0,-72(s8)
  40aa54:	afa20010 	sw	v0,16(sp)
  40aa58:	afa00014 	sw	zero,20(sp)
  40aa5c:	afb00018 	sw	s0,24(sp)
  40aa60:	afb3001c 	sw	s3,28(sp)
  40aa64:	8fc20000 	lw	v0,0(s8)
  40aa68:	afa20020 	sw	v0,32(sp)
  40aa6c:	3c090005 	lui	t1,0x5
  40aa70:	35295f8c 	ori	t1,t1,0x5f8c
  40aa74:	013d4821 	addu	t1,t1,sp
  40aa78:	8d240000 	lw	a0,0(t1)
  40aa7c:	3c050041 	lui	a1,0x41
  40aa80:	24a55a2c 	addiu	a1,a1,23084
  40aa84:	3c020005 	lui	v0,0x5
  40aa88:	34425fb0 	ori	v0,v0,0x5fb0
  40aa8c:	005d1021 	addu	v0,v0,sp
  40aa90:	8c470000 	lw	a3,0(v0)
  40aa94:	8f9980a0 	lw	t9,-32608(gp)
  40aa98:	0320f809 	jalr	t9
  40aa9c:	24060002 	li	a2,2
  40aaa0:	8fbc0028 	lw	gp,40(sp)
  40aaa4:	3c030005 	lui	v1,0x5
  40aaa8:	34635f8c 	ori	v1,v1,0x5f8c
  40aaac:	007d1821 	addu	v1,v1,sp
  40aab0:	8c640000 	lw	a0,0(v1)
[31m  40aab4:	8f9981b8 	lw	t9,system[0m
  40aab8:	0320f809 	jalr	t9
  40aabc:	00000000 	nop
--
  40adcc:	8fc2ffb8 	lw	v0,-72(s8)
  40add0:	afa20010 	sw	v0,16(sp)
  40add4:	afa00014 	sw	zero,20(sp)
  40add8:	afb00018 	sw	s0,24(sp)
  40addc:	afb3001c 	sw	s3,28(sp)
  40ade0:	8fc20000 	lw	v0,0(s8)
  40ade4:	afa20020 	sw	v0,32(sp)
  40ade8:	3c090005 	lui	t1,0x5
  40adec:	35295f8c 	ori	t1,t1,0x5f8c
  40adf0:	013d4821 	addu	t1,t1,sp
  40adf4:	8d240000 	lw	a0,0(t1)
  40adf8:	3c050041 	lui	a1,0x41
  40adfc:	24a559cc 	addiu	a1,a1,22988
  40ae00:	3c020005 	lui	v0,0x5
  40ae04:	34425fb0 	ori	v0,v0,0x5fb0
  40ae08:	005d1021 	addu	v0,v0,sp
  40ae0c:	8c470000 	lw	a3,0(v0)
  40ae10:	8f9980a0 	lw	t9,-32608(gp)
  40ae14:	0320f809 	jalr	t9
  40ae18:	24060002 	li	a2,2
  40ae1c:	8fbc0028 	lw	gp,40(sp)
  40ae20:	3c030005 	lui	v1,0x5
  40ae24:	34635f8c 	ori	v1,v1,0x5f8c
  40ae28:	007d1821 	addu	v1,v1,sp
  40ae2c:	8c640000 	lw	a0,0(v1)
[31m  40ae30:	8f9981b8 	lw	t9,system[0m
  40ae34:	0320f809 	jalr	t9
  40ae38:	00000000 	nop
--
  40af34:	8fc2ffb8 	lw	v0,-72(s8)
  40af38:	afa20010 	sw	v0,16(sp)
  40af3c:	afa00014 	sw	zero,20(sp)
  40af40:	afb00018 	sw	s0,24(sp)
  40af44:	afb3001c 	sw	s3,28(sp)
  40af48:	8fc20000 	lw	v0,0(s8)
  40af4c:	afa20020 	sw	v0,32(sp)
  40af50:	3c090005 	lui	t1,0x5
  40af54:	35295f8c 	ori	t1,t1,0x5f8c
  40af58:	013d4821 	addu	t1,t1,sp
  40af5c:	8d240000 	lw	a0,0(t1)
  40af60:	3c050041 	lui	a1,0x41
  40af64:	24a55a2c 	addiu	a1,a1,23084
  40af68:	3c020005 	lui	v0,0x5
  40af6c:	34425fb0 	ori	v0,v0,0x5fb0
  40af70:	005d1021 	addu	v0,v0,sp
  40af74:	8c470000 	lw	a3,0(v0)
  40af78:	8f9980a0 	lw	t9,-32608(gp)
  40af7c:	0320f809 	jalr	t9
  40af80:	24060002 	li	a2,2
  40af84:	8fbc0028 	lw	gp,40(sp)
  40af88:	3c030005 	lui	v1,0x5
  40af8c:	34635f8c 	ori	v1,v1,0x5f8c
  40af90:	007d1821 	addu	v1,v1,sp
  40af94:	8c640000 	lw	a0,0(v1)
[31m  40af98:	8f9981b8 	lw	t9,system[0m
  40af9c:	0320f809 	jalr	t9
  40afa0:	00000000 	nop
--
  40d350:	009d2021 	addu	a0,a0,sp
  40d354:	8c840000 	lw	a0,0(a0)
  40d358:	00929021 	addu	s2,a0,s2
  40d35c:	3c050005 	lui	a1,0x5
  40d360:	34a587fc 	ori	a1,a1,0x87fc
  40d364:	00bd2821 	addu	a1,a1,sp
  40d368:	8ca50000 	lw	a1,0(a1)
  40d36c:	8ca2ffb8 	lw	v0,-72(a1)
  40d370:	afa20010 	sw	v0,16(sp)
  40d374:	afa00014 	sw	zero,20(sp)
  40d378:	3c020005 	lui	v0,0x5
  40d37c:	3442881c 	ori	v0,v0,0x881c
  40d380:	005d1021 	addu	v0,v0,sp
  40d384:	8c420000 	lw	v0,0(v0)
  40d388:	afa20018 	sw	v0,24(sp)
  40d38c:	02402021 	move	a0,s2
  40d390:	3c050041 	lui	a1,0x41
  40d394:	24a55538 	addiu	a1,a1,21816
  40d398:	3463880c 	ori	v1,v1,0x880c
  40d39c:	007d1821 	addu	v1,v1,sp
  40d3a0:	8c670000 	lw	a3,0(v1)
  40d3a4:	8f9980a0 	lw	t9,-32608(gp)
  40d3a8:	0320f809 	jalr	t9
  40d3ac:	00003021 	move	a2,zero
  40d3b0:	8fbc0028 	lw	gp,40(sp)
[31m  40d3b4:	8f9981b8 	lw	t9,system[0m
  40d3b8:	0320f809 	jalr	t9
  40d3bc:	02402021 	move	a0,s2
--
  40d568:	00bd2821 	addu	a1,a1,sp
  40d56c:	8ca50000 	lw	a1,0(a1)
  40d570:	00b29021 	addu	s2,a1,s2
  40d574:	3c030005 	lui	v1,0x5
  40d578:	346387fc 	ori	v1,v1,0x87fc
  40d57c:	007d1821 	addu	v1,v1,sp
  40d580:	8c630000 	lw	v1,0(v1)
  40d584:	8c62ffb8 	lw	v0,-72(v1)
  40d588:	afa20010 	sw	v0,16(sp)
  40d58c:	afa00014 	sw	zero,20(sp)
  40d590:	3484881c 	ori	a0,a0,0x881c
  40d594:	009d2021 	addu	a0,a0,sp
  40d598:	8c840000 	lw	a0,0(a0)
  40d59c:	afa40018 	sw	a0,24(sp)
  40d5a0:	02402021 	move	a0,s2
  40d5a4:	3c050041 	lui	a1,0x41
  40d5a8:	24a55538 	addiu	a1,a1,21816
  40d5ac:	3c020005 	lui	v0,0x5
  40d5b0:	3442880c 	ori	v0,v0,0x880c
  40d5b4:	005d1021 	addu	v0,v0,sp
  40d5b8:	8c470000 	lw	a3,0(v0)
  40d5bc:	8f9980a0 	lw	t9,-32608(gp)
  40d5c0:	0320f809 	jalr	t9
  40d5c4:	24060001 	li	a2,1
  40d5c8:	8fbc0028 	lw	gp,40(sp)
[31m  40d5cc:	8f9981b8 	lw	t9,system[0m
  40d5d0:	0320f809 	jalr	t9
  40d5d4:	02402021 	move	a0,s2
--
  40d780:	00bd2821 	addu	a1,a1,sp
  40d784:	8ca50000 	lw	a1,0(a1)
  40d788:	00b29021 	addu	s2,a1,s2
  40d78c:	3c030005 	lui	v1,0x5
  40d790:	346387fc 	ori	v1,v1,0x87fc
  40d794:	007d1821 	addu	v1,v1,sp
  40d798:	8c630000 	lw	v1,0(v1)
  40d79c:	8c62ffb8 	lw	v0,-72(v1)
  40d7a0:	afa20010 	sw	v0,16(sp)
  40d7a4:	afa00014 	sw	zero,20(sp)
  40d7a8:	3484881c 	ori	a0,a0,0x881c
  40d7ac:	009d2021 	addu	a0,a0,sp
  40d7b0:	8c840000 	lw	a0,0(a0)
  40d7b4:	afa40018 	sw	a0,24(sp)
  40d7b8:	02402021 	move	a0,s2
  40d7bc:	3c050041 	lui	a1,0x41
  40d7c0:	24a55610 	addiu	a1,a1,22032
  40d7c4:	3c020005 	lui	v0,0x5
  40d7c8:	3442880c 	ori	v0,v0,0x880c
  40d7cc:	005d1021 	addu	v0,v0,sp
  40d7d0:	8c470000 	lw	a3,0(v0)
  40d7d4:	8f9980a0 	lw	t9,-32608(gp)
  40d7d8:	0320f809 	jalr	t9
  40d7dc:	00003021 	move	a2,zero
  40d7e0:	8fbc0028 	lw	gp,40(sp)
[31m  40d7e4:	8f9981b8 	lw	t9,system[0m
  40d7e8:	0320f809 	jalr	t9
  40d7ec:	02402021 	move	a0,s2
--
  40d998:	00bd2821 	addu	a1,a1,sp
  40d99c:	8ca50000 	lw	a1,0(a1)
  40d9a0:	00b29021 	addu	s2,a1,s2
  40d9a4:	3c030005 	lui	v1,0x5
  40d9a8:	346387fc 	ori	v1,v1,0x87fc
  40d9ac:	007d1821 	addu	v1,v1,sp
  40d9b0:	8c630000 	lw	v1,0(v1)
  40d9b4:	8c62ffb8 	lw	v0,-72(v1)
  40d9b8:	afa20010 	sw	v0,16(sp)
  40d9bc:	afa00014 	sw	zero,20(sp)
  40d9c0:	3484881c 	ori	a0,a0,0x881c
  40d9c4:	009d2021 	addu	a0,a0,sp
  40d9c8:	8c840000 	lw	a0,0(a0)
  40d9cc:	afa40018 	sw	a0,24(sp)
  40d9d0:	02402021 	move	a0,s2
  40d9d4:	3c050041 	lui	a1,0x41
  40d9d8:	24a55610 	addiu	a1,a1,22032
  40d9dc:	3c020005 	lui	v0,0x5
  40d9e0:	3442880c 	ori	v0,v0,0x880c
  40d9e4:	005d1021 	addu	v0,v0,sp
  40d9e8:	8c470000 	lw	a3,0(v0)
  40d9ec:	8f9980a0 	lw	t9,-32608(gp)
  40d9f0:	0320f809 	jalr	t9
  40d9f4:	24060001 	li	a2,1
  40d9f8:	8fbc0028 	lw	gp,40(sp)
[31m  40d9fc:	8f9981b8 	lw	t9,system[0m
  40da00:	0320f809 	jalr	t9
  40da04:	02402021 	move	a0,s2
--
  40dbb0:	00bd2821 	addu	a1,a1,sp
  40dbb4:	8ca50000 	lw	a1,0(a1)
  40dbb8:	00b29021 	addu	s2,a1,s2
  40dbbc:	3c030005 	lui	v1,0x5
  40dbc0:	346387fc 	ori	v1,v1,0x87fc
  40dbc4:	007d1821 	addu	v1,v1,sp
  40dbc8:	8c630000 	lw	v1,0(v1)
  40dbcc:	8c62ffb8 	lw	v0,-72(v1)
  40dbd0:	afa20010 	sw	v0,16(sp)
  40dbd4:	afa00014 	sw	zero,20(sp)
  40dbd8:	3484881c 	ori	a0,a0,0x881c
  40dbdc:	009d2021 	addu	a0,a0,sp
  40dbe0:	8c840000 	lw	a0,0(a0)
  40dbe4:	afa40018 	sw	a0,24(sp)
  40dbe8:	02402021 	move	a0,s2
  40dbec:	3c050041 	lui	a1,0x41
  40dbf0:	24a55538 	addiu	a1,a1,21816
  40dbf4:	3c020005 	lui	v0,0x5
  40dbf8:	3442880c 	ori	v0,v0,0x880c
  40dbfc:	005d1021 	addu	v0,v0,sp
  40dc00:	8c470000 	lw	a3,0(v0)
  40dc04:	8f9980a0 	lw	t9,-32608(gp)
  40dc08:	0320f809 	jalr	t9
  40dc0c:	24060004 	li	a2,4
  40dc10:	8fbc0028 	lw	gp,40(sp)
[31m  40dc14:	8f9981b8 	lw	t9,system[0m
  40dc18:	0320f809 	jalr	t9
  40dc1c:	02402021 	move	a0,s2
--
  40ddb8:	00bd2821 	addu	a1,a1,sp
  40ddbc:	8ca50000 	lw	a1,0(a1)
  40ddc0:	00b29021 	addu	s2,a1,s2
  40ddc4:	3c030005 	lui	v1,0x5
  40ddc8:	346387fc 	ori	v1,v1,0x87fc
  40ddcc:	007d1821 	addu	v1,v1,sp
  40ddd0:	8c630000 	lw	v1,0(v1)
  40ddd4:	8c62ffb8 	lw	v0,-72(v1)
  40ddd8:	afa20010 	sw	v0,16(sp)
  40dddc:	afa00014 	sw	zero,20(sp)
  40dde0:	3484881c 	ori	a0,a0,0x881c
  40dde4:	009d2021 	addu	a0,a0,sp
  40dde8:	8c840000 	lw	a0,0(a0)
  40ddec:	afa40018 	sw	a0,24(sp)
  40ddf0:	02402021 	move	a0,s2
  40ddf4:	3c050041 	lui	a1,0x41
  40ddf8:	24a55610 	addiu	a1,a1,22032
  40ddfc:	3c020005 	lui	v0,0x5
  40de00:	3442880c 	ori	v0,v0,0x880c
  40de04:	005d1021 	addu	v0,v0,sp
  40de08:	8c470000 	lw	a3,0(v0)
  40de0c:	8f9980a0 	lw	t9,-32608(gp)
  40de10:	0320f809 	jalr	t9
  40de14:	24060004 	li	a2,4
  40de18:	8fbc0028 	lw	gp,40(sp)
[31m  40de1c:	8f9981b8 	lw	t9,system[0m
  40de20:	0320f809 	jalr	t9
  40de24:	02402021 	move	a0,s2
--
  40dfe4:	8c450008 	lw	a1,8(v0)
  40dfe8:	8c44000c 	lw	a0,12(v0)
  40dfec:	ac670000 	sw	a3,0(v1)
  40dff0:	ac660004 	sw	a2,4(v1)
  40dff4:	ac650008 	sw	a1,8(v1)
  40dff8:	ac64000c 	sw	a0,12(v1)
  40dffc:	24420010 	addiu	v0,v0,16
  40e000:	3c050005 	lui	a1,0x5
  40e004:	34a58858 	ori	a1,a1,0x8858
  40e008:	00bd2821 	addu	a1,a1,sp
  40e00c:	8ca50000 	lw	a1,0(a1)
  40e010:	1445fff2 	bne	v0,a1,40dfdc <PushDCHEventNotifyCheck@@Base+0x6dcc>
  40e014:	24630010 	addiu	v1,v1,16
  40e018:	8c450000 	lw	a1,0(v0)
  40e01c:	8c440004 	lw	a0,4(v0)
  40e020:	ac650000 	sw	a1,0(v1)
  40e024:	ac640004 	sw	a0,4(v1)
  40e028:	94420008 	lhu	v0,8(v0)
  40e02c:	a4620008 	sh	v0,8(v1)
  40e030:	3c020005 	lui	v0,0x5
  40e034:	344480ac 	ori	a0,v0,0x80ac
  40e038:	3c030005 	lui	v1,0x5
  40e03c:	346387f0 	ori	v1,v1,0x87f0
  40e040:	007d1821 	addu	v1,v1,sp
  40e044:	8c630000 	lw	v1,0(v1)
[31m  40e048:	8f9981b8 	lw	t9,system[0m
  40e04c:	0320f809 	jalr	t9
  40e050:	00642021 	addu	a0,v1,a0
--
  40e1fc:	8c840000 	lw	a0,0(a0)
  40e200:	00831821 	addu	v1,a0,v1
  40e204:	8c470000 	lw	a3,0(v0)
  40e208:	8c460004 	lw	a2,4(v0)
  40e20c:	8c450008 	lw	a1,8(v0)
  40e210:	8c44000c 	lw	a0,12(v0)
  40e214:	ac670000 	sw	a3,0(v1)
  40e218:	ac660004 	sw	a2,4(v1)
  40e21c:	ac650008 	sw	a1,8(v1)
  40e220:	ac64000c 	sw	a0,12(v1)
  40e224:	24420010 	addiu	v0,v0,16
  40e228:	3c050005 	lui	a1,0x5
  40e22c:	34a58854 	ori	a1,a1,0x8854
  40e230:	00bd2821 	addu	a1,a1,sp
  40e234:	8ca50000 	lw	a1,0(a1)
  40e238:	1445fff2 	bne	v0,a1,40e204 <PushDCHEventNotifyCheck@@Base+0x6ff4>
  40e23c:	24630010 	addiu	v1,v1,16
  40e240:	90420000 	lbu	v0,0(v0)
  40e244:	a0620000 	sb	v0,0(v1)
  40e248:	3c020005 	lui	v0,0x5
  40e24c:	344480ac 	ori	a0,v0,0x80ac
  40e250:	3c030005 	lui	v1,0x5
  40e254:	346387f0 	ori	v1,v1,0x87f0
  40e258:	007d1821 	addu	v1,v1,sp
  40e25c:	8c630000 	lw	v1,0(v1)
[31m  40e260:	8f9981b8 	lw	t9,system[0m
  40e264:	0320f809 	jalr	t9
  40e268:	00642021 	addu	a0,v1,a0
--
  40e55c:	007d1821 	addu	v1,v1,sp
  40e560:	8c630000 	lw	v1,0(v1)
  40e564:	00729021 	addu	s2,v1,s2
  40e568:	3c040005 	lui	a0,0x5
  40e56c:	348487fc 	ori	a0,a0,0x87fc
  40e570:	009d2021 	addu	a0,a0,sp
  40e574:	8c840000 	lw	a0,0(a0)
  40e578:	8c82ffb8 	lw	v0,-72(a0)
  40e57c:	afa20010 	sw	v0,16(sp)
  40e580:	afa00014 	sw	zero,20(sp)
  40e584:	afb50018 	sw	s5,24(sp)
  40e588:	afb6001c 	sw	s6,28(sp)
  40e58c:	8c820000 	lw	v0,0(a0)
  40e590:	afa20020 	sw	v0,32(sp)
  40e594:	02402021 	move	a0,s2
  40e598:	3c050041 	lui	a1,0x41
  40e59c:	24a559cc 	addiu	a1,a1,22988
  40e5a0:	3c020005 	lui	v0,0x5
  40e5a4:	3442880c 	ori	v0,v0,0x880c
  40e5a8:	005d1021 	addu	v0,v0,sp
  40e5ac:	8c470000 	lw	a3,0(v0)
  40e5b0:	8f9980a0 	lw	t9,-32608(gp)
  40e5b4:	0320f809 	jalr	t9
  40e5b8:	24060002 	li	a2,2
  40e5bc:	8fbc0028 	lw	gp,40(sp)
[31m  40e5c0:	8f9981b8 	lw	t9,system[0m
  40e5c4:	0320f809 	jalr	t9
  40e5c8:	02402021 	move	a0,s2
--
  40e6f4:	007d1821 	addu	v1,v1,sp
  40e6f8:	8c630000 	lw	v1,0(v1)
  40e6fc:	00729021 	addu	s2,v1,s2
  40e700:	3c040005 	lui	a0,0x5
  40e704:	348487fc 	ori	a0,a0,0x87fc
  40e708:	009d2021 	addu	a0,a0,sp
  40e70c:	8c840000 	lw	a0,0(a0)
  40e710:	8c82ffb8 	lw	v0,-72(a0)
  40e714:	afa20010 	sw	v0,16(sp)
  40e718:	afa00014 	sw	zero,20(sp)
  40e71c:	afb50018 	sw	s5,24(sp)
  40e720:	afb6001c 	sw	s6,28(sp)
  40e724:	8c820000 	lw	v0,0(a0)
  40e728:	afa20020 	sw	v0,32(sp)
  40e72c:	02402021 	move	a0,s2
  40e730:	3c050041 	lui	a1,0x41
  40e734:	24a55a2c 	addiu	a1,a1,23084
  40e738:	3c020005 	lui	v0,0x5
  40e73c:	3442880c 	ori	v0,v0,0x880c
  40e740:	005d1021 	addu	v0,v0,sp
  40e744:	8c470000 	lw	a3,0(v0)
  40e748:	8f9980a0 	lw	t9,-32608(gp)
  40e74c:	0320f809 	jalr	t9
  40e750:	24060002 	li	a2,2
  40e754:	8fbc0028 	lw	gp,40(sp)
[31m  40e758:	8f9981b8 	lw	t9,system[0m
  40e75c:	0320f809 	jalr	t9
  40e760:	02402021 	move	a0,s2
--
  40ea90:	007d1821 	addu	v1,v1,sp
  40ea94:	8c630000 	lw	v1,0(v1)
  40ea98:	00729021 	addu	s2,v1,s2
  40ea9c:	3c040005 	lui	a0,0x5
  40eaa0:	348487fc 	ori	a0,a0,0x87fc
  40eaa4:	009d2021 	addu	a0,a0,sp
  40eaa8:	8c840000 	lw	a0,0(a0)
  40eaac:	8c82ffb8 	lw	v0,-72(a0)
  40eab0:	afa20010 	sw	v0,16(sp)
  40eab4:	afa00014 	sw	zero,20(sp)
  40eab8:	afb50018 	sw	s5,24(sp)
  40eabc:	afb6001c 	sw	s6,28(sp)
  40eac0:	8c820000 	lw	v0,0(a0)
  40eac4:	afa20020 	sw	v0,32(sp)
  40eac8:	02402021 	move	a0,s2
  40eacc:	3c050041 	lui	a1,0x41
  40ead0:	24a559cc 	addiu	a1,a1,22988
  40ead4:	3c020005 	lui	v0,0x5
  40ead8:	3442880c 	ori	v0,v0,0x880c
  40eadc:	005d1021 	addu	v0,v0,sp
  40eae0:	8c470000 	lw	a3,0(v0)
  40eae4:	8f9980a0 	lw	t9,-32608(gp)
  40eae8:	0320f809 	jalr	t9
  40eaec:	24060002 	li	a2,2
  40eaf0:	8fbc0028 	lw	gp,40(sp)
[31m  40eaf4:	8f9981b8 	lw	t9,system[0m
  40eaf8:	0320f809 	jalr	t9
  40eafc:	02402021 	move	a0,s2
--
  40ec28:	007d1821 	addu	v1,v1,sp
  40ec2c:	8c630000 	lw	v1,0(v1)
  40ec30:	00729021 	addu	s2,v1,s2
  40ec34:	3c040005 	lui	a0,0x5
  40ec38:	348487fc 	ori	a0,a0,0x87fc
  40ec3c:	009d2021 	addu	a0,a0,sp
  40ec40:	8c840000 	lw	a0,0(a0)
  40ec44:	8c82ffb8 	lw	v0,-72(a0)
  40ec48:	afa20010 	sw	v0,16(sp)
  40ec4c:	afa00014 	sw	zero,20(sp)
  40ec50:	afb50018 	sw	s5,24(sp)
  40ec54:	afb6001c 	sw	s6,28(sp)
  40ec58:	8c820000 	lw	v0,0(a0)
  40ec5c:	afa20020 	sw	v0,32(sp)
  40ec60:	02402021 	move	a0,s2
  40ec64:	3c050041 	lui	a1,0x41
  40ec68:	24a55a2c 	addiu	a1,a1,23084
  40ec6c:	3c020005 	lui	v0,0x5
  40ec70:	3442880c 	ori	v0,v0,0x880c
  40ec74:	005d1021 	addu	v0,v0,sp
  40ec78:	8c470000 	lw	a3,0(v0)
  40ec7c:	8f9980a0 	lw	t9,-32608(gp)
  40ec80:	0320f809 	jalr	t9
  40ec84:	24060002 	li	a2,2
  40ec88:	8fbc0028 	lw	gp,40(sp)
[31m  40ec8c:	8f9981b8 	lw	t9,system[0m
  40ec90:	0320f809 	jalr	t9
  40ec94:	02402021 	move	a0,s2
--
  40efc4:	007d1821 	addu	v1,v1,sp
  40efc8:	8c630000 	lw	v1,0(v1)
  40efcc:	00729021 	addu	s2,v1,s2
  40efd0:	3c040005 	lui	a0,0x5
  40efd4:	348487fc 	ori	a0,a0,0x87fc
  40efd8:	009d2021 	addu	a0,a0,sp
  40efdc:	8c840000 	lw	a0,0(a0)
  40efe0:	8c82ffb8 	lw	v0,-72(a0)
  40efe4:	afa20010 	sw	v0,16(sp)
  40efe8:	afa00014 	sw	zero,20(sp)
  40efec:	afb50018 	sw	s5,24(sp)
  40eff0:	afb6001c 	sw	s6,28(sp)
  40eff4:	8c820000 	lw	v0,0(a0)
  40eff8:	afa20020 	sw	v0,32(sp)
  40effc:	02402021 	move	a0,s2
  40f000:	3c050041 	lui	a1,0x41
  40f004:	24a559cc 	addiu	a1,a1,22988
  40f008:	3c020005 	lui	v0,0x5
  40f00c:	3442880c 	ori	v0,v0,0x880c
  40f010:	005d1021 	addu	v0,v0,sp
  40f014:	8c470000 	lw	a3,0(v0)
  40f018:	8f9980a0 	lw	t9,-32608(gp)
  40f01c:	0320f809 	jalr	t9
  40f020:	24060002 	li	a2,2
  40f024:	8fbc0028 	lw	gp,40(sp)
[31m  40f028:	8f9981b8 	lw	t9,system[0m
  40f02c:	0320f809 	jalr	t9
  40f030:	02402021 	move	a0,s2
--
  40f15c:	007d1821 	addu	v1,v1,sp
  40f160:	8c630000 	lw	v1,0(v1)
  40f164:	00729021 	addu	s2,v1,s2
  40f168:	3c040005 	lui	a0,0x5
  40f16c:	348487fc 	ori	a0,a0,0x87fc
  40f170:	009d2021 	addu	a0,a0,sp
  40f174:	8c840000 	lw	a0,0(a0)
  40f178:	8c82ffb8 	lw	v0,-72(a0)
  40f17c:	afa20010 	sw	v0,16(sp)
  40f180:	afa00014 	sw	zero,20(sp)
  40f184:	afb50018 	sw	s5,24(sp)
  40f188:	afb6001c 	sw	s6,28(sp)
  40f18c:	8c820000 	lw	v0,0(a0)
  40f190:	afa20020 	sw	v0,32(sp)
  40f194:	02402021 	move	a0,s2
  40f198:	3c050041 	lui	a1,0x41
  40f19c:	24a55a2c 	addiu	a1,a1,23084
  40f1a0:	3c020005 	lui	v0,0x5
  40f1a4:	3442880c 	ori	v0,v0,0x880c
  40f1a8:	005d1021 	addu	v0,v0,sp
  40f1ac:	8c470000 	lw	a3,0(v0)
  40f1b0:	8f9980a0 	lw	t9,-32608(gp)
  40f1b4:	0320f809 	jalr	t9
  40f1b8:	24060002 	li	a2,2
  40f1bc:	8fbc0028 	lw	gp,40(sp)
[31m  40f1c0:	8f9981b8 	lw	t9,system[0m
  40f1c4:	0320f809 	jalr	t9
  40f1c8:	02402021 	move	a0,s2
--
  40f4f4:	007d1821 	addu	v1,v1,sp
  40f4f8:	8c630000 	lw	v1,0(v1)
  40f4fc:	00729021 	addu	s2,v1,s2
  40f500:	3c040005 	lui	a0,0x5
  40f504:	348487fc 	ori	a0,a0,0x87fc
  40f508:	009d2021 	addu	a0,a0,sp
  40f50c:	8c840000 	lw	a0,0(a0)
  40f510:	8c82ffb8 	lw	v0,-72(a0)
  40f514:	afa20010 	sw	v0,16(sp)
  40f518:	afa00014 	sw	zero,20(sp)
  40f51c:	afb50018 	sw	s5,24(sp)
  40f520:	afb6001c 	sw	s6,28(sp)
  40f524:	8c820000 	lw	v0,0(a0)
  40f528:	afa20020 	sw	v0,32(sp)
  40f52c:	02402021 	move	a0,s2
  40f530:	3c050041 	lui	a1,0x41
  40f534:	24a559cc 	addiu	a1,a1,22988
  40f538:	3c020005 	lui	v0,0x5
  40f53c:	3442880c 	ori	v0,v0,0x880c
  40f540:	005d1021 	addu	v0,v0,sp
  40f544:	8c470000 	lw	a3,0(v0)
  40f548:	8f9980a0 	lw	t9,-32608(gp)
  40f54c:	0320f809 	jalr	t9
  40f550:	24060002 	li	a2,2
  40f554:	8fbc0028 	lw	gp,40(sp)
[31m  40f558:	8f9981b8 	lw	t9,system[0m
  40f55c:	0320f809 	jalr	t9
  40f560:	02402021 	move	a0,s2
--
  40f68c:	007d1821 	addu	v1,v1,sp
  40f690:	8c630000 	lw	v1,0(v1)
  40f694:	00729021 	addu	s2,v1,s2
  40f698:	3c040005 	lui	a0,0x5
  40f69c:	348487fc 	ori	a0,a0,0x87fc
  40f6a0:	009d2021 	addu	a0,a0,sp
  40f6a4:	8c840000 	lw	a0,0(a0)
  40f6a8:	8c82ffb8 	lw	v0,-72(a0)
  40f6ac:	afa20010 	sw	v0,16(sp)
  40f6b0:	afa00014 	sw	zero,20(sp)
  40f6b4:	afb50018 	sw	s5,24(sp)
  40f6b8:	afb6001c 	sw	s6,28(sp)
  40f6bc:	8c820000 	lw	v0,0(a0)
  40f6c0:	afa20020 	sw	v0,32(sp)
  40f6c4:	02402021 	move	a0,s2
  40f6c8:	3c050041 	lui	a1,0x41
  40f6cc:	24a55a2c 	addiu	a1,a1,23084
  40f6d0:	3c020005 	lui	v0,0x5
  40f6d4:	3442880c 	ori	v0,v0,0x880c
  40f6d8:	005d1021 	addu	v0,v0,sp
  40f6dc:	8c470000 	lw	a3,0(v0)
  40f6e0:	8f9980a0 	lw	t9,-32608(gp)
  40f6e4:	0320f809 	jalr	t9
  40f6e8:	24060002 	li	a2,2
  40f6ec:	8fbc0028 	lw	gp,40(sp)
[31m  40f6f0:	8f9981b8 	lw	t9,system[0m
  40f6f4:	0320f809 	jalr	t9
  40f6f8:	02402021 	move	a0,s2
--
  41043c:	8fbc0018 	lw	gp,24(sp)
  410440:	1602001d 	bne	s0,v0,4104b8 <PushDCHEventNotifyCheck@@Base+0x92a8>
  410444:	00000000 	nop
  410448:	8fa40148 	lw	a0,328(sp)
  41044c:	8f99806c 	lw	t9,-32660(gp)
  410450:	0320f809 	jalr	t9
  410454:	00000000 	nop
  410458:	8fbc0018 	lw	gp,24(sp)
  41045c:	8fa3002c 	lw	v1,44(sp)
  410460:	14620015 	bne	v1,v0,4104b8 <PushDCHEventNotifyCheck@@Base+0x92a8>
  410464:	27a40031 	addiu	a0,sp,49
  410468:	92425eb0 	lbu	v0,24240(s2)
  41046c:	a3a20030 	sb	v0,48(sp)
  410470:	00002821 	move	a1,zero
  410474:	8f9980d4 	lw	t9,-32556(gp)
  410478:	0320f809 	jalr	t9
  41047c:	240600ff 	li	a2,255
  410480:	8fbc0018 	lw	gp,24(sp)
  410484:	27b00030 	addiu	s0,sp,48
  410488:	02002021 	move	a0,s0
  41048c:	8fa5015c 	lw	a1,348(sp)
  410490:	8f9980a0 	lw	t9,-32608(gp)
  410494:	0320f809 	jalr	t9
  410498:	24060002 	li	a2,2
  41049c:	8fbc0018 	lw	gp,24(sp)
[31m  4104a0:	8f9981b8 	lw	t9,system[0m
  4104a4:	0320f809 	jalr	t9
  4104a8:	02002021 	move	a0,s0
--
  4104c8:	8fbc0018 	lw	gp,24(sp)
  4104cc:	1602001b 	bne	s0,v0,41053c <PushDCHEventNotifyCheck@@Base+0x932c>
  4104d0:	00000000 	nop
  4104d4:	8fa40148 	lw	a0,328(sp)
  4104d8:	8f99806c 	lw	t9,-32660(gp)
  4104dc:	0320f809 	jalr	t9
  4104e0:	00000000 	nop
  4104e4:	8fbc0018 	lw	gp,24(sp)
  4104e8:	8fa3002c 	lw	v1,44(sp)
  4104ec:	14620013 	bne	v1,v0,41053c <PushDCHEventNotifyCheck@@Base+0x932c>
  4104f0:	27a40031 	addiu	a0,sp,49
  4104f4:	92425eb0 	lbu	v0,24240(s2)
  4104f8:	a3a20030 	sb	v0,48(sp)
  4104fc:	00002821 	move	a1,zero
  410500:	8f9980d4 	lw	t9,-32556(gp)
  410504:	0320f809 	jalr	t9
  410508:	240600ff 	li	a2,255
  41050c:	8fbc0018 	lw	gp,24(sp)
  410510:	27b00030 	addiu	s0,sp,48
  410514:	02002021 	move	a0,s0
  410518:	8fa50158 	lw	a1,344(sp)
  41051c:	8f9980a0 	lw	t9,-32608(gp)
  410520:	0320f809 	jalr	t9
  410524:	24060002 	li	a2,2
  410528:	8fbc0018 	lw	gp,24(sp)
[31m  41052c:	8f9981b8 	lw	t9,system[0m
  410530:	0320f809 	jalr	t9
  410534:	02002021 	move	a0,s0
--
  412698:	8f82809c 	lw	v0,-32612(gp)
  41269c:	8c440000 	lw	a0,0(v0)
  4126a0:	3c050041 	lui	a1,0x41
  4126a4:	24a56710 	addiu	a1,a1,26384
  4126a8:	3c060041 	lui	a2,0x41
  4126ac:	8f998154 	lw	t9,-32428(gp)
  4126b0:	0320f809 	jalr	t9
  4126b4:	24c668a8 	addiu	a2,a2,26792
  4126b8:	10000003 	b	4126c8 <getTargetIPAndPort@@Base+0x588>
  4126bc:	a2000005 	sb	zero,5(s0)
  4126c0:	a202004a 	sb	v0,74(s0)
  4126c4:	a2000005 	sb	zero,5(s0)
  4126c8:	00001021 	move	v0,zero
  4126cc:	8fbf002c 	lw	ra,44(sp)
  4126d0:	8fb20028 	lw	s2,40(sp)
  4126d4:	8fb10024 	lw	s1,36(sp)
  4126d8:	8fb00020 	lw	s0,32(sp)
  4126dc:	03e00008 	jr	ra
  4126e0:	27bd0030 	addiu	sp,sp,48
  4126e4:	27bdffe0 	addiu	sp,sp,-32
  4126e8:	afbf001c 	sw	ra,28(sp)
  4126ec:	3c1c0043 	lui	gp,0x43
  4126f0:	279cf1a0 	addiu	gp,gp,-3680
  4126f4:	afbc0010 	sw	gp,16(sp)
  4126f8:	3c040041 	lui	a0,0x41
[31m  4126fc:	8f9981b8 	lw	t9,system[0m
  412700:	0320f809 	jalr	t9
  412704:	24846740 	addiu	a0,a0,26432
  412708:	8fbc0010 	lw	gp,16(sp)
  41270c:	3c040041 	lui	a0,0x41
[31m  412710:	8f9981b8 	lw	t9,system[0m
  412714:	0320f809 	jalr	t9
  412718:	248467b0 	addiu	a0,a0,26544

[0m
[[0;33m*[0m] Function [0;33msystem[0m used [0;33m45[0m times [0;33mhnap_push_service[0m

