[0m
[[0;33m*[0m] Function [0;33mstrcpy[0m tear down of [0;33mhnap_service[0m

  4022c0:	0320f809 	jalr	t9
  4022c4:	00c08821 	move	s1,a2
  4022c8:	8fbc0010 	lw	gp,16(sp)
  4022cc:	0040a821 	move	s5,v0
  4022d0:	00402021 	move	a0,v0
  4022d4:	3c050042 	lui	a1,0x42
  4022d8:	8f998050 	lw	t9,-32688(gp)
  4022dc:	0320f809 	jalr	t9
  4022e0:	24a5cbe4 	addiu	a1,a1,-13340
  4022e4:	8fbc0010 	lw	gp,16(sp)
  4022e8:	8f998258 	lw	t9,-32168(gp)
  4022ec:	0320f809 	jalr	t9
  4022f0:	00402021 	move	a0,v0
  4022f4:	8fbc0010 	lw	gp,16(sp)
  4022f8:	00402021 	move	a0,v0
  4022fc:	8f998144 	lw	t9,-32444(gp)
  402300:	0320f809 	jalr	t9
  402304:	24050001 	li	a1,1
  402308:	8fbc0010 	lw	gp,16(sp)
  40230c:	0040b021 	move	s6,v0
  402310:	8f99807c 	lw	t9,-32644(gp)
  402314:	0320f809 	jalr	t9
  402318:	00402021 	move	a0,v0
  40231c:	8fbc0010 	lw	gp,16(sp)
  402320:	02002021 	move	a0,s0
[31m  402324:	8f99826c 	lw	t9,strcpy[0m
  402328:	0320f809 	jalr	t9
  40232c:	00402821 	move	a1,v0
--
  4028c8:	8fbc0010 	lw	gp,16(sp)
  4028cc:	10400002 	beqz	v0,4028d8 <_ftext@@Base+0xc98>
  4028d0:	27a40018 	addiu	a0,sp,24
  4028d4:	a0400000 	sb	zero,0(v0)
  4028d8:	2405000b 	li	a1,11
  4028dc:	8f99824c 	lw	t9,-32180(gp)
  4028e0:	0320f809 	jalr	t9
  4028e4:	02403021 	move	a2,s2
  4028e8:	8fbc0010 	lw	gp,16(sp)
  4028ec:	10000008 	b	402910 <_ftext@@Base+0xcd0>
  4028f0:	27b20064 	addiu	s2,sp,100
  4028f4:	27a40018 	addiu	a0,sp,24
  4028f8:	2405000b 	li	a1,11
  4028fc:	8f99824c 	lw	t9,-32180(gp)
  402900:	0320f809 	jalr	t9
  402904:	27a60064 	addiu	a2,sp,100
  402908:	8fbc0010 	lw	gp,16(sp)
  40290c:	27b20064 	addiu	s2,sp,100
  402910:	02402021 	move	a0,s2
  402914:	00002821 	move	a1,zero
  402918:	8f9980fc 	lw	t9,-32516(gp)
  40291c:	0320f809 	jalr	t9
  402920:	24060080 	li	a2,128
  402924:	8fbc0010 	lw	gp,16(sp)
  402928:	02402021 	move	a0,s2
[31m  40292c:	8f99826c 	lw	t9,strcpy[0m
  402930:	0320f809 	jalr	t9
  402934:	02802821 	move	a1,s4
  402938:	8fbc0010 	lw	gp,16(sp)
  40293c:	3c140042 	lui	s4,0x42
  402940:	2694ccd8 	addiu	s4,s4,-13096
  402944:	02402021 	move	a0,s2
  402948:	8f998124 	lw	t9,-32476(gp)
  40294c:	0320f809 	jalr	t9
  402950:	02802821 	move	a1,s4
  402954:	8fbc0010 	lw	gp,16(sp)
  402958:	27b70024 	addiu	s7,sp,36
  40295c:	02e02021 	move	a0,s7
[31m  402960:	8f99826c 	lw	t9,strcpy[0m
  402964:	0320f809 	jalr	t9
  402968:	00402821 	move	a1,v0
  40296c:	8fbc0010 	lw	gp,16(sp)
  402970:	00002021 	move	a0,zero
  402974:	8f998124 	lw	t9,-32476(gp)
  402978:	0320f809 	jalr	t9
  40297c:	02802821 	move	a1,s4
  402980:	8fbc0010 	lw	gp,16(sp)
  402984:	27b40264 	addiu	s4,sp,612
  402988:	02802021 	move	a0,s4
[31m  40298c:	8f99826c 	lw	t9,strcpy[0m
  402990:	0320f809 	jalr	t9
  402994:	00402821 	move	a1,v0
--
  4040f0:	0320f809 	jalr	t9
  4040f4:	24c6d458 	addiu	a2,a2,-11176
  4040f8:	8fbc0018 	lw	gp,24(sp)
  4040fc:	0200b021 	move	s6,s0
  404100:	02002021 	move	a0,s0
  404104:	8f9981a8 	lw	t9,-32344(gp)
  404108:	0320f809 	jalr	t9
  40410c:	02402821 	move	a1,s2
  404110:	8fbc0018 	lw	gp,24(sp)
  404114:	02202021 	move	a0,s1
  404118:	3c050042 	lui	a1,0x42
  40411c:	8f998050 	lw	t9,-32688(gp)
  404120:	0320f809 	jalr	t9
  404124:	24a5cbbc 	addiu	a1,a1,-13380
  404128:	8fbc0018 	lw	gp,24(sp)
  40412c:	10400284 	beqz	v0,404b40 <Login@@Base+0xb70>
  404130:	00409821 	move	s3,v0
  404134:	00402021 	move	a0,v0
  404138:	3c050042 	lui	a1,0x42
  40413c:	8f998138 	lw	t9,-32456(gp)
  404140:	0320f809 	jalr	t9
  404144:	24a5d4b0 	addiu	a1,a1,-11088
  404148:	8fbc0018 	lw	gp,24(sp)
  40414c:	10400005 	beqz	v0,404164 <Login@@Base+0x194>
  404150:	27a40074 	addiu	a0,sp,116
[31m  404154:	8f99826c 	lw	t9,strcpy[0m
  404158:	0320f809 	jalr	t9
  40415c:	00402821 	move	a1,v0
--
  40433c:	8f9980e0 	lw	t9,-32544(gp)
  404340:	0320f809 	jalr	t9
  404344:	24e7d4a8 	addiu	a3,a3,-11096
  404348:	8fbc0018 	lw	gp,24(sp)
  40434c:	10000206 	b	404b68 <Login@@Base+0xb98>
  404350:	02c02021 	move	a0,s6
  404354:	93a201dc 	lbu	v0,476(sp)
  404358:	1040018a 	beqz	v0,404984 <Login@@Base+0x9b4>
  40435c:	3c050042 	lui	a1,0x42
  404360:	02602021 	move	a0,s3
  404364:	8f998138 	lw	t9,-32456(gp)
  404368:	0320f809 	jalr	t9
  40436c:	24a5d4d4 	addiu	a1,a1,-11052
  404370:	8fbc0018 	lw	gp,24(sp)
  404374:	0040a021 	move	s4,v0
  404378:	02602021 	move	a0,s3
  40437c:	3c050042 	lui	a1,0x42
  404380:	8f998138 	lw	t9,-32456(gp)
  404384:	0320f809 	jalr	t9
  404388:	24a5d4e0 	addiu	a1,a1,-11040
  40438c:	8fbc0018 	lw	gp,24(sp)
  404390:	12800017 	beqz	s4,4043f0 <Login@@Base+0x420>
  404394:	00408821 	move	s1,v0
  404398:	27b30020 	addiu	s3,sp,32
  40439c:	02602021 	move	a0,s3
[31m  4043a0:	8f99826c 	lw	t9,strcpy[0m
  4043a4:	0320f809 	jalr	t9
  4043a8:	02802821 	move	a1,s4
  4043ac:	8fbc0018 	lw	gp,24(sp)
  4043b0:	02602021 	move	a0,s3
  4043b4:	3c050042 	lui	a1,0x42
  4043b8:	8f9980d0 	lw	t9,-32560(gp)
  4043bc:	0320f809 	jalr	t9
  4043c0:	24a5cbfc 	addiu	a1,a1,-13316
  4043c4:	8fbc0018 	lw	gp,24(sp)
  4043c8:	14400009 	bnez	v0,4043f0 <Login@@Base+0x420>
  4043cc:	27a40020 	addiu	a0,sp,32
  4043d0:	24050020 	li	a1,32
  4043d4:	3c060042 	lui	a2,0x42
  4043d8:	24c6cc04 	addiu	a2,a2,-13308
  4043dc:	3c070042 	lui	a3,0x42
  4043e0:	8f99824c 	lw	t9,-32180(gp)
  4043e4:	0320f809 	jalr	t9
  4043e8:	24e7cc08 	addiu	a3,a3,-13304
  4043ec:	8fbc0018 	lw	gp,24(sp)
  4043f0:	12200006 	beqz	s1,40440c <Login@@Base+0x43c>
  4043f4:	00000000 	nop
  4043f8:	27a40044 	addiu	a0,sp,68
[31m  4043fc:	8f99826c 	lw	t9,strcpy[0m
  404400:	0320f809 	jalr	t9
  404404:	02202821 	move	a1,s1
--
  404e98:	02e03021 	move	a2,s7
  404e9c:	8fbc0018 	lw	gp,24(sp)
  404ea0:	3c030001 	lui	v1,0x1
  404ea4:	34634900 	ori	v1,v1,0x4900
  404ea8:	007d1821 	addu	v1,v1,sp
  404eac:	8c650000 	lw	a1,0(v1)
  404eb0:	8f9980d0 	lw	t9,-32560(gp)
  404eb4:	0320f809 	jalr	t9
  404eb8:	02e02021 	move	a0,s7
  404ebc:	8fbc0018 	lw	gp,24(sp)
  404ec0:	1440001e 	bnez	v0,404f3c <checkHashCode@@Base+0x33c>
  404ec4:	26100001 	addiu	s0,s0,1
  404ec8:	2610ffff 	addiu	s0,s0,-1
  404ecc:	001010c0 	sll	v0,s0,0x3
  404ed0:	00108180 	sll	s0,s0,0x6
  404ed4:	00508021 	addu	s0,v0,s0
  404ed8:	27a20020 	addiu	v0,sp,32
  404edc:	00501021 	addu	v0,v0,s0
  404ee0:	ac562f94 	sw	s6,12180(v0)
  404ee4:	0016b7c3 	sra	s6,s6,0x1f
  404ee8:	ac562f90 	sw	s6,12176(v0)
  404eec:	3c020001 	lui	v0,0x1
  404ef0:	34424904 	ori	v0,v0,0x4904
  404ef4:	005d1021 	addu	v0,v0,sp
  404ef8:	8c440000 	lw	a0,0(v0)
[31m  404efc:	8f99826c 	lw	t9,strcpy[0m
  404f00:	0320f809 	jalr	t9
  404f04:	03c02821 	move	a1,s8
--
  40c2e4:	8f9980e0 	lw	t9,-32544(gp)
  40c2e8:	0320f809 	jalr	t9
  40c2ec:	24e7eac0 	addiu	a3,a3,-5440
  40c2f0:	8fbc0020 	lw	gp,32(sp)
  40c2f4:	1000011b 	b	40c764 <GetmydlinkRegInfo@@Base+0x8a4>
  40c2f8:	00000000 	nop
  40c2fc:	8f9981f4 	lw	t9,-32268(gp)
  40c300:	0320f809 	jalr	t9
  40c304:	24040001 	li	a0,1
  40c308:	8fbc0020 	lw	gp,32(sp)
  40c30c:	1000ff78 	b	40c0f0 <GetmydlinkRegInfo@@Base+0x230>
  40c310:	02002021 	move	a0,s0
  40c314:	8f998108 	lw	t9,-32504(gp)
  40c318:	0320f809 	jalr	t9
  40c31c:	2484e8e4 	addiu	a0,a0,-5916
  40c320:	8fbc0020 	lw	gp,32(sp)
  40c324:	10400010 	beqz	v0,40c368 <GetmydlinkRegInfo@@Base+0x4a8>
  40c328:	00408021 	move	s0,v0
  40c32c:	00402021 	move	a0,v0
  40c330:	3c050042 	lui	a1,0x42
  40c334:	8f998138 	lw	t9,-32456(gp)
  40c338:	0320f809 	jalr	t9
  40c33c:	24a5e8b8 	addiu	a1,a1,-5960
  40c340:	8fbc0020 	lw	gp,32(sp)
  40c344:	27a40274 	addiu	a0,sp,628
[31m  40c348:	8f99826c 	lw	t9,strcpy[0m
  40c34c:	0320f809 	jalr	t9
  40c350:	00402821 	move	a1,v0
--
  40cdc8:	24060200 	li	a2,512
  40cdcc:	8fbc0010 	lw	gp,16(sp)
  40cdd0:	3c030005 	lui	v1,0x5
  40cdd4:	3463585c 	ori	v1,v1,0x585c
  40cdd8:	007d1821 	addu	v1,v1,sp
  40cddc:	8c640000 	lw	a0,0(v1)
  40cde0:	3c050042 	lui	a1,0x42
  40cde4:	24a5ed88 	addiu	a1,a1,-4728
  40cde8:	02003021 	move	a2,s0
  40cdec:	8f998148 	lw	t9,-32440(gp)
  40cdf0:	0320f809 	jalr	t9
  40cdf4:	24070200 	li	a3,512
  40cdf8:	8fbc0010 	lw	gp,16(sp)
  40cdfc:	14400011 	bnez	v0,40ce44 <GetmydlinkRegInfo@@Base+0xf84>
  40ce00:	24020556 	li	v0,1366
  40ce04:	24040556 	li	a0,1366
  40ce08:	3c020005 	lui	v0,0x5
  40ce0c:	34425860 	ori	v0,v0,0x5860
  40ce10:	005d1021 	addu	v0,v0,sp
  40ce14:	8c420000 	lw	v0,0(v0)
  40ce18:	00440018 	mult	v0,a0
  40ce1c:	00002012 	mflo	a0
  40ce20:	24840001 	addiu	a0,a0,1
  40ce24:	000420c0 	sll	a0,a0,0x3
  40ce28:	02442021 	addu	a0,s2,a0
[31m  40ce2c:	8f99826c 	lw	t9,strcpy[0m
  40ce30:	0320f809 	jalr	t9
  40ce34:	02002821 	move	a1,s0
--
  40ce80:	0320f809 	jalr	t9
  40ce84:	24060200 	li	a2,512
  40ce88:	8fbc0010 	lw	gp,16(sp)
  40ce8c:	3c020005 	lui	v0,0x5
  40ce90:	3442585c 	ori	v0,v0,0x585c
  40ce94:	005d1021 	addu	v0,v0,sp
  40ce98:	8c440000 	lw	a0,0(v0)
  40ce9c:	3c050042 	lui	a1,0x42
  40cea0:	24a5ed94 	addiu	a1,a1,-4716
  40cea4:	02003021 	move	a2,s0
  40cea8:	8f998148 	lw	t9,-32440(gp)
  40ceac:	0320f809 	jalr	t9
  40ceb0:	24070200 	li	a3,512
  40ceb4:	8fbc0010 	lw	gp,16(sp)
  40ceb8:	14400010 	bnez	v0,40cefc <GetmydlinkRegInfo@@Base+0x103c>
  40cebc:	24022ab0 	li	v0,10928
  40cec0:	24042ab0 	li	a0,10928
  40cec4:	3c020005 	lui	v0,0x5
  40cec8:	34425860 	ori	v0,v0,0x5860
  40cecc:	005d1021 	addu	v0,v0,sp
  40ced0:	8c420000 	lw	v0,0(v0)
  40ced4:	00440018 	mult	v0,a0
  40ced8:	00002012 	mflo	a0
  40cedc:	02442021 	addu	a0,s2,a0
  40cee0:	24840029 	addiu	a0,a0,41
[31m  40cee4:	8f99826c 	lw	t9,strcpy[0m
  40cee8:	0320f809 	jalr	t9
  40ceec:	02002821 	move	a1,s0
--
  40d0dc:	8fbc0010 	lw	gp,16(sp)
  40d0e0:	00409021 	move	s2,v0
  40d0e4:	02002021 	move	a0,s0
  40d0e8:	00002821 	move	a1,zero
  40d0ec:	8f9980fc 	lw	t9,-32516(gp)
  40d0f0:	0320f809 	jalr	t9
  40d0f4:	24060200 	li	a2,512
  40d0f8:	8fbc0010 	lw	gp,16(sp)
  40d0fc:	02402021 	move	a0,s2
  40d100:	03c02821 	move	a1,s8
  40d104:	02003021 	move	a2,s0
  40d108:	8f998148 	lw	t9,-32440(gp)
  40d10c:	0320f809 	jalr	t9
  40d110:	24070200 	li	a3,512
  40d114:	8fbc0010 	lw	gp,16(sp)
  40d118:	1440000f 	bnez	v0,40d158 <GetmydlinkRegInfo@@Base+0x1298>
  40d11c:	001118c0 	sll	v1,s1,0x3
  40d120:	001120c0 	sll	a0,s1,0x3
  40d124:	00111140 	sll	v0,s1,0x5
  40d128:	00822021 	addu	a0,a0,v0
  40d12c:	00912021 	addu	a0,a0,s1
  40d130:	00042080 	sll	a0,a0,0x2
  40d134:	00942021 	addu	a0,a0,s4
  40d138:	24840070 	addiu	a0,a0,112
  40d13c:	02642021 	addu	a0,s3,a0
[31m  40d140:	8f99826c 	lw	t9,strcpy[0m
  40d144:	0320f809 	jalr	t9
  40d148:	02002821 	move	a1,s0
--
  40d1e0:	00002821 	move	a1,zero
  40d1e4:	8f9980fc 	lw	t9,-32516(gp)
  40d1e8:	0320f809 	jalr	t9
  40d1ec:	24060200 	li	a2,512
  40d1f0:	8fbc0010 	lw	gp,16(sp)
  40d1f4:	02402021 	move	a0,s2
  40d1f8:	3c030005 	lui	v1,0x5
  40d1fc:	34635834 	ori	v1,v1,0x5834
  40d200:	007d1821 	addu	v1,v1,sp
  40d204:	8c650000 	lw	a1,0(v1)
  40d208:	02003021 	move	a2,s0
  40d20c:	8f998148 	lw	t9,-32440(gp)
  40d210:	0320f809 	jalr	t9
  40d214:	24070200 	li	a3,512
  40d218:	8fbc0010 	lw	gp,16(sp)
  40d21c:	1440000f 	bnez	v0,40d25c <GetmydlinkRegInfo@@Base+0x139c>
  40d220:	001118c0 	sll	v1,s1,0x3
  40d224:	001120c0 	sll	a0,s1,0x3
  40d228:	00111140 	sll	v0,s1,0x5
  40d22c:	00822021 	addu	a0,a0,v0
  40d230:	00912021 	addu	a0,a0,s1
  40d234:	00042080 	sll	a0,a0,0x2
  40d238:	00942021 	addu	a0,a0,s4
  40d23c:	24840088 	addiu	a0,a0,136
  40d240:	02642021 	addu	a0,s3,a0
[31m  40d244:	8f99826c 	lw	t9,strcpy[0m
  40d248:	0320f809 	jalr	t9
  40d24c:	02002821 	move	a1,s0
--
  40d280:	00002821 	move	a1,zero
  40d284:	8f9980fc 	lw	t9,-32516(gp)
  40d288:	0320f809 	jalr	t9
  40d28c:	24060200 	li	a2,512
  40d290:	8fbc0010 	lw	gp,16(sp)
  40d294:	02402021 	move	a0,s2
  40d298:	3c020005 	lui	v0,0x5
  40d29c:	34425838 	ori	v0,v0,0x5838
  40d2a0:	005d1021 	addu	v0,v0,sp
  40d2a4:	8c450000 	lw	a1,0(v0)
  40d2a8:	02003021 	move	a2,s0
  40d2ac:	8f998148 	lw	t9,-32440(gp)
  40d2b0:	0320f809 	jalr	t9
  40d2b4:	24070200 	li	a3,512
  40d2b8:	8fbc0010 	lw	gp,16(sp)
  40d2bc:	1440000f 	bnez	v0,40d2fc <GetmydlinkRegInfo@@Base+0x143c>
  40d2c0:	001118c0 	sll	v1,s1,0x3
  40d2c4:	001120c0 	sll	a0,s1,0x3
  40d2c8:	00111140 	sll	v0,s1,0x5
  40d2cc:	00822021 	addu	a0,a0,v0
  40d2d0:	00912021 	addu	a0,a0,s1
  40d2d4:	00042080 	sll	a0,a0,0x2
  40d2d8:	00942021 	addu	a0,a0,s4
  40d2dc:	02642021 	addu	a0,s3,a0
  40d2e0:	248400a9 	addiu	a0,a0,169
[31m  40d2e4:	8f99826c 	lw	t9,strcpy[0m
  40d2e8:	0320f809 	jalr	t9
  40d2ec:	02002821 	move	a1,s0
--
  40d384:	00002821 	move	a1,zero
  40d388:	8f9980fc 	lw	t9,-32516(gp)
  40d38c:	0320f809 	jalr	t9
  40d390:	24060200 	li	a2,512
  40d394:	8fbc0010 	lw	gp,16(sp)
  40d398:	02402021 	move	a0,s2
  40d39c:	3c020005 	lui	v0,0x5
  40d3a0:	3442584c 	ori	v0,v0,0x584c
  40d3a4:	005d1021 	addu	v0,v0,sp
  40d3a8:	8c450000 	lw	a1,0(v0)
  40d3ac:	02003021 	move	a2,s0
  40d3b0:	8f998148 	lw	t9,-32440(gp)
  40d3b4:	0320f809 	jalr	t9
  40d3b8:	24070200 	li	a3,512
  40d3bc:	8fbc0010 	lw	gp,16(sp)
  40d3c0:	1440000f 	bnez	v0,40d400 <GetmydlinkRegInfo@@Base+0x1540>
  40d3c4:	001118c0 	sll	v1,s1,0x3
  40d3c8:	001120c0 	sll	a0,s1,0x3
  40d3cc:	00111140 	sll	v0,s1,0x5
  40d3d0:	00822021 	addu	a0,a0,v0
  40d3d4:	00912021 	addu	a0,a0,s1
  40d3d8:	00042080 	sll	a0,a0,0x2
  40d3dc:	00942021 	addu	a0,a0,s4
  40d3e0:	248400d0 	addiu	a0,a0,208
  40d3e4:	02642021 	addu	a0,s3,a0
[31m  40d3e8:	8f99826c 	lw	t9,strcpy[0m
  40d3ec:	0320f809 	jalr	t9
  40d3f0:	02002821 	move	a1,s0
--
  40d56c:	8c640000 	lw	a0,0(v1)
  40d570:	8f998158 	lw	t9,-32424(gp)
  40d574:	0320f809 	jalr	t9
  40d578:	02202821 	move	a1,s1
  40d57c:	8fbc0010 	lw	gp,16(sp)
  40d580:	00409021 	move	s2,v0
  40d584:	02002021 	move	a0,s0
  40d588:	00002821 	move	a1,zero
  40d58c:	8f9980fc 	lw	t9,-32516(gp)
  40d590:	0320f809 	jalr	t9
  40d594:	24060200 	li	a2,512
  40d598:	8fbc0010 	lw	gp,16(sp)
  40d59c:	02402021 	move	a0,s2
  40d5a0:	03c02821 	move	a1,s8
  40d5a4:	02003021 	move	a2,s0
  40d5a8:	8f998148 	lw	t9,-32440(gp)
  40d5ac:	0320f809 	jalr	t9
  40d5b0:	24070200 	li	a3,512
  40d5b4:	8fbc0010 	lw	gp,16(sp)
  40d5b8:	1440000b 	bnez	v0,40d5e8 <GetmydlinkRegInfo@@Base+0x1728>
  40d5bc:	02350018 	mult	s1,s5
  40d5c0:	00002012 	mflo	a0
  40d5c4:	00962021 	addu	a0,a0,s6
  40d5c8:	248414f0 	addiu	a0,a0,5360
  40d5cc:	02642021 	addu	a0,s3,a0
[31m  40d5d0:	8f99826c 	lw	t9,strcpy[0m
  40d5d4:	0320f809 	jalr	t9
  40d5d8:	02002821 	move	a1,s0
--
  40d654:	10000002 	b	40d660 <GetmydlinkRegInfo@@Base+0x17a0>
  40d658:	ae82ff70 	sw	v0,-144(s4)
  40d65c:	ae80ff70 	sw	zero,-144(s4)
  40d660:	02002021 	move	a0,s0
  40d664:	00002821 	move	a1,zero
  40d668:	8f9980fc 	lw	t9,-32516(gp)
  40d66c:	0320f809 	jalr	t9
  40d670:	24060200 	li	a2,512
  40d674:	8fbc0010 	lw	gp,16(sp)
  40d678:	02402021 	move	a0,s2
  40d67c:	3c030005 	lui	v1,0x5
  40d680:	34635834 	ori	v1,v1,0x5834
  40d684:	007d1821 	addu	v1,v1,sp
  40d688:	8c650000 	lw	a1,0(v1)
  40d68c:	02003021 	move	a2,s0
  40d690:	8f998148 	lw	t9,-32440(gp)
  40d694:	0320f809 	jalr	t9
  40d698:	24070200 	li	a3,512
  40d69c:	8fbc0010 	lw	gp,16(sp)
  40d6a0:	1440000b 	bnez	v0,40d6d0 <GetmydlinkRegInfo@@Base+0x1810>
  40d6a4:	02350018 	mult	s1,s5
  40d6a8:	00002012 	mflo	a0
  40d6ac:	00962021 	addu	a0,a0,s6
  40d6b0:	24841508 	addiu	a0,a0,5384
  40d6b4:	02642021 	addu	a0,s3,a0
[31m  40d6b8:	8f99826c 	lw	t9,strcpy[0m
  40d6bc:	0320f809 	jalr	t9
  40d6c0:	02002821 	move	a1,s0
--
  40d6d8:	02621021 	addu	v0,s3,v0
  40d6dc:	92e3cef8 	lbu	v1,-12552(s7)
  40d6e0:	a0431508 	sb	v1,5384(v0)
  40d6e4:	02002021 	move	a0,s0
  40d6e8:	00002821 	move	a1,zero
  40d6ec:	8f9980fc 	lw	t9,-32516(gp)
  40d6f0:	0320f809 	jalr	t9
  40d6f4:	24060200 	li	a2,512
  40d6f8:	8fbc0010 	lw	gp,16(sp)
  40d6fc:	02402021 	move	a0,s2
  40d700:	3c020005 	lui	v0,0x5
  40d704:	34425838 	ori	v0,v0,0x5838
  40d708:	005d1021 	addu	v0,v0,sp
  40d70c:	8c450000 	lw	a1,0(v0)
  40d710:	02003021 	move	a2,s0
  40d714:	8f998148 	lw	t9,-32440(gp)
  40d718:	0320f809 	jalr	t9
  40d71c:	24070200 	li	a3,512
  40d720:	8fbc0010 	lw	gp,16(sp)
  40d724:	1440000b 	bnez	v0,40d754 <GetmydlinkRegInfo@@Base+0x1894>
  40d728:	02350018 	mult	s1,s5
  40d72c:	00002012 	mflo	a0
  40d730:	00962021 	addu	a0,a0,s6
  40d734:	02642021 	addu	a0,s3,a0
  40d738:	24841529 	addiu	a0,a0,5417
[31m  40d73c:	8f99826c 	lw	t9,strcpy[0m
  40d740:	0320f809 	jalr	t9
  40d744:	02002821 	move	a1,s0
--
  40d7c0:	10000002 	b	40d7cc <GetmydlinkRegInfo@@Base+0x190c>
  40d7c4:	ae82ffb8 	sw	v0,-72(s4)
  40d7c8:	ae80ffb8 	sw	zero,-72(s4)
  40d7cc:	02002021 	move	a0,s0
  40d7d0:	00002821 	move	a1,zero
  40d7d4:	8f9980fc 	lw	t9,-32516(gp)
  40d7d8:	0320f809 	jalr	t9
  40d7dc:	24060200 	li	a2,512
  40d7e0:	8fbc0010 	lw	gp,16(sp)
  40d7e4:	02402021 	move	a0,s2
  40d7e8:	3c030005 	lui	v1,0x5
  40d7ec:	34635854 	ori	v1,v1,0x5854
  40d7f0:	007d1821 	addu	v1,v1,sp
  40d7f4:	8c650000 	lw	a1,0(v1)
  40d7f8:	02003021 	move	a2,s0
  40d7fc:	8f998148 	lw	t9,-32440(gp)
  40d800:	0320f809 	jalr	t9
  40d804:	24070200 	li	a3,512
  40d808:	8fbc0010 	lw	gp,16(sp)
  40d80c:	1440000b 	bnez	v0,40d83c <GetmydlinkRegInfo@@Base+0x197c>
  40d810:	02350018 	mult	s1,s5
  40d814:	00002012 	mflo	a0
  40d818:	00962021 	addu	a0,a0,s6
  40d81c:	24841550 	addiu	a0,a0,5456
  40d820:	02642021 	addu	a0,s3,a0
[31m  40d824:	8f99826c 	lw	t9,strcpy[0m
  40d828:	0320f809 	jalr	t9
  40d82c:	02002821 	move	a1,s0
--
  40d910:	0320f809 	jalr	t9
  40d914:	24060200 	li	a2,512
  40d918:	8fbc0010 	lw	gp,16(sp)
  40d91c:	3c030005 	lui	v1,0x5
  40d920:	3463585c 	ori	v1,v1,0x585c
  40d924:	007d1821 	addu	v1,v1,sp
  40d928:	8c640000 	lw	a0,0(v1)
  40d92c:	3c050042 	lui	a1,0x42
  40d930:	24a5ee14 	addiu	a1,a1,-4588
  40d934:	02003021 	move	a2,s0
  40d938:	8f998148 	lw	t9,-32440(gp)
  40d93c:	0320f809 	jalr	t9
  40d940:	24070200 	li	a3,512
  40d944:	8fbc0010 	lw	gp,16(sp)
  40d948:	14400010 	bnez	v0,40d98c <GetmydlinkRegInfo@@Base+0x1acc>
  40d94c:	3c030005 	lui	v1,0x5
  40d950:	24042ab0 	li	a0,10928
  40d954:	3c020005 	lui	v0,0x5
  40d958:	34425860 	ori	v0,v0,0x5860
  40d95c:	005d1021 	addu	v0,v0,sp
  40d960:	8c420000 	lw	v0,0(v0)
  40d964:	00440018 	mult	v0,a0
  40d968:	00002012 	mflo	a0
  40d96c:	24842a78 	addiu	a0,a0,10872
  40d970:	02442021 	addu	a0,s2,a0
[31m  40d974:	8f99826c 	lw	t9,strcpy[0m
  40d978:	0320f809 	jalr	t9
  40d97c:	02002821 	move	a1,s0
--
  410ba8:	00a08821 	move	s1,a1
  410bac:	00c09821 	move	s3,a2
  410bb0:	afa00018 	sw	zero,24(sp)
  410bb4:	afa0001c 	sw	zero,28(sp)
  410bb8:	afa00020 	sw	zero,32(sp)
  410bbc:	afa00024 	sw	zero,36(sp)
  410bc0:	afa00028 	sw	zero,40(sp)
  410bc4:	afa0002c 	sw	zero,44(sp)
  410bc8:	afa00030 	sw	zero,48(sp)
  410bcc:	afa00034 	sw	zero,52(sp)
  410bd0:	a3a00038 	sb	zero,56(sp)
  410bd4:	27b0003c 	addiu	s0,sp,60
  410bd8:	ae000000 	sw	zero,0(s0)
  410bdc:	ae000004 	sw	zero,4(s0)
  410be0:	ae000008 	sw	zero,8(s0)
  410be4:	ae00000c 	sw	zero,12(s0)
  410be8:	a2000010 	sb	zero,16(s0)
  410bec:	27b40050 	addiu	s4,sp,80
  410bf0:	02802021 	move	a0,s4
  410bf4:	00002821 	move	a1,zero
  410bf8:	8f9980fc 	lw	t9,-32516(gp)
  410bfc:	0320f809 	jalr	t9
  410c00:	24060081 	li	a2,129
  410c04:	8fbc0010 	lw	gp,16(sp)
  410c08:	27a40018 	addiu	a0,sp,24
[31m  410c0c:	8f99826c 	lw	t9,strcpy[0m
  410c10:	0320f809 	jalr	t9
  410c14:	02402821 	move	a1,s2
  410c18:	8fbc0010 	lw	gp,16(sp)
  410c1c:	02002021 	move	a0,s0
[31m  410c20:	8f99826c 	lw	t9,strcpy[0m
  410c24:	0320f809 	jalr	t9
  410c28:	02202821 	move	a1,s1
  410c2c:	8fbc0010 	lw	gp,16(sp)
  410c30:	02402021 	move	a0,s2
  410c34:	02202821 	move	a1,s1
  410c38:	00003021 	move	a2,zero
  410c3c:	8f9981c4 	lw	t9,-32316(gp)
  410c40:	0320f809 	jalr	t9
  410c44:	02803821 	move	a3,s4
  410c48:	8fbc0010 	lw	gp,16(sp)
  410c4c:	02602021 	move	a0,s3
[31m  410c50:	8f99826c 	lw	t9,strcpy[0m
  410c54:	0320f809 	jalr	t9
  410c58:	02802821 	move	a1,s4
--
  4110b0:	24060200 	li	a2,512
  4110b4:	8fbc0028 	lw	gp,40(sp)
  4110b8:	3c050005 	lui	a1,0x5
  4110bc:	34a55fb4 	ori	a1,a1,0x5fb4
  4110c0:	00bd2821 	addu	a1,a1,sp
  4110c4:	8ca40000 	lw	a0,0(a1)
  4110c8:	3c050042 	lui	a1,0x42
  4110cc:	24a5ed88 	addiu	a1,a1,-4728
  4110d0:	02003021 	move	a2,s0
  4110d4:	8f998148 	lw	t9,-32440(gp)
  4110d8:	0320f809 	jalr	t9
  4110dc:	24070200 	li	a3,512
  4110e0:	8fbc0028 	lw	gp,40(sp)
  4110e4:	14400011 	bnez	v0,41112c <GetEventSupportList@@Base+0x13a8>
  4110e8:	24020556 	li	v0,1366
  4110ec:	24040556 	li	a0,1366
  4110f0:	3c020005 	lui	v0,0x5
  4110f4:	34425fbc 	ori	v0,v0,0x5fbc
  4110f8:	005d1021 	addu	v0,v0,sp
  4110fc:	8c420000 	lw	v0,0(v0)
  411100:	00440018 	mult	v0,a0
  411104:	00002012 	mflo	a0
  411108:	24840001 	addiu	a0,a0,1
  41110c:	000420c0 	sll	a0,a0,0x3
  411110:	02442021 	addu	a0,s2,a0
[31m  411114:	8f99826c 	lw	t9,strcpy[0m
  411118:	0320f809 	jalr	t9
  41111c:	02002821 	move	a1,s0
--
  411168:	0320f809 	jalr	t9
  41116c:	24060200 	li	a2,512
  411170:	8fbc0028 	lw	gp,40(sp)
  411174:	3c050005 	lui	a1,0x5
  411178:	34a55fb4 	ori	a1,a1,0x5fb4
  41117c:	00bd2821 	addu	a1,a1,sp
  411180:	8ca40000 	lw	a0,0(a1)
  411184:	3c050042 	lui	a1,0x42
  411188:	24a5ed94 	addiu	a1,a1,-4716
  41118c:	02003021 	move	a2,s0
  411190:	8f998148 	lw	t9,-32440(gp)
  411194:	0320f809 	jalr	t9
  411198:	24070200 	li	a3,512
  41119c:	8fbc0028 	lw	gp,40(sp)
  4111a0:	14400010 	bnez	v0,4111e4 <GetEventSupportList@@Base+0x1460>
  4111a4:	24022ab0 	li	v0,10928
  4111a8:	24042ab0 	li	a0,10928
  4111ac:	3c020005 	lui	v0,0x5
  4111b0:	34425fbc 	ori	v0,v0,0x5fbc
  4111b4:	005d1021 	addu	v0,v0,sp
  4111b8:	8c420000 	lw	v0,0(v0)
  4111bc:	00440018 	mult	v0,a0
  4111c0:	00002012 	mflo	a0
  4111c4:	02442021 	addu	a0,s2,a0
  4111c8:	24840029 	addiu	a0,a0,41
[31m  4111cc:	8f99826c 	lw	t9,strcpy[0m
  4111d0:	0320f809 	jalr	t9
  4111d4:	02002821 	move	a1,s0
--
  4113c4:	02202821 	move	a1,s1
  4113c8:	8fbc0028 	lw	gp,40(sp)
  4113cc:	00409021 	move	s2,v0
  4113d0:	02002021 	move	a0,s0
  4113d4:	00002821 	move	a1,zero
  4113d8:	8f9980fc 	lw	t9,-32516(gp)
  4113dc:	0320f809 	jalr	t9
  4113e0:	24060200 	li	a2,512
  4113e4:	8fbc0028 	lw	gp,40(sp)
  4113e8:	02402021 	move	a0,s2
  4113ec:	03c02821 	move	a1,s8
  4113f0:	02003021 	move	a2,s0
  4113f4:	8f998148 	lw	t9,-32440(gp)
  4113f8:	0320f809 	jalr	t9
  4113fc:	24070200 	li	a3,512
  411400:	8fbc0028 	lw	gp,40(sp)
  411404:	1440000e 	bnez	v0,411440 <GetEventSupportList@@Base+0x16bc>
  411408:	001118c0 	sll	v1,s1,0x3
  41140c:	00111140 	sll	v0,s1,0x5
  411410:	00622021 	addu	a0,v1,v0
  411414:	00912021 	addu	a0,a0,s1
  411418:	00042080 	sll	a0,a0,0x2
  41141c:	00942021 	addu	a0,a0,s4
  411420:	24840070 	addiu	a0,a0,112
  411424:	02642021 	addu	a0,s3,a0
[31m  411428:	8f99826c 	lw	t9,strcpy[0m
  41142c:	0320f809 	jalr	t9
  411430:	02002821 	move	a1,s0
--
  4114c4:	02002021 	move	a0,s0
  4114c8:	00002821 	move	a1,zero
  4114cc:	8f9980fc 	lw	t9,-32516(gp)
  4114d0:	0320f809 	jalr	t9
  4114d4:	24060200 	li	a2,512
  4114d8:	8fbc0028 	lw	gp,40(sp)
  4114dc:	02402021 	move	a0,s2
  4114e0:	3c070005 	lui	a3,0x5
  4114e4:	34e75f8c 	ori	a3,a3,0x5f8c
  4114e8:	00fd3821 	addu	a3,a3,sp
  4114ec:	8ce50000 	lw	a1,0(a3)
  4114f0:	02003021 	move	a2,s0
  4114f4:	8f998148 	lw	t9,-32440(gp)
  4114f8:	0320f809 	jalr	t9
  4114fc:	24070200 	li	a3,512
  411500:	8fbc0028 	lw	gp,40(sp)
  411504:	1440000e 	bnez	v0,411540 <GetEventSupportList@@Base+0x17bc>
  411508:	001118c0 	sll	v1,s1,0x3
  41150c:	00111140 	sll	v0,s1,0x5
  411510:	00622021 	addu	a0,v1,v0
  411514:	00912021 	addu	a0,a0,s1
  411518:	00042080 	sll	a0,a0,0x2
  41151c:	00942021 	addu	a0,a0,s4
  411520:	24840088 	addiu	a0,a0,136
  411524:	02642021 	addu	a0,s3,a0
[31m  411528:	8f99826c 	lw	t9,strcpy[0m
  41152c:	0320f809 	jalr	t9
  411530:	02002821 	move	a1,s0
--
  411560:	02002021 	move	a0,s0
  411564:	00002821 	move	a1,zero
  411568:	8f9980fc 	lw	t9,-32516(gp)
  41156c:	0320f809 	jalr	t9
  411570:	24060200 	li	a2,512
  411574:	8fbc0028 	lw	gp,40(sp)
  411578:	02402021 	move	a0,s2
  41157c:	3c080005 	lui	t0,0x5
  411580:	35085f90 	ori	t0,t0,0x5f90
  411584:	011d4021 	addu	t0,t0,sp
  411588:	8d050000 	lw	a1,0(t0)
  41158c:	02003021 	move	a2,s0
  411590:	8f998148 	lw	t9,-32440(gp)
  411594:	0320f809 	jalr	t9
  411598:	24070200 	li	a3,512
  41159c:	8fbc0028 	lw	gp,40(sp)
  4115a0:	1440000e 	bnez	v0,4115dc <GetEventSupportList@@Base+0x1858>
  4115a4:	001118c0 	sll	v1,s1,0x3
  4115a8:	00111140 	sll	v0,s1,0x5
  4115ac:	00622021 	addu	a0,v1,v0
  4115b0:	00912021 	addu	a0,a0,s1
  4115b4:	00042080 	sll	a0,a0,0x2
  4115b8:	00942021 	addu	a0,a0,s4
  4115bc:	02642021 	addu	a0,s3,a0
  4115c0:	248400a9 	addiu	a0,a0,169
[31m  4115c4:	8f99826c 	lw	t9,strcpy[0m
  4115c8:	0320f809 	jalr	t9
  4115cc:	02002821 	move	a1,s0
--
  411664:	00002821 	move	a1,zero
  411668:	8f9980fc 	lw	t9,-32516(gp)
  41166c:	0320f809 	jalr	t9
  411670:	24060200 	li	a2,512
  411674:	8fbc0028 	lw	gp,40(sp)
  411678:	02402021 	move	a0,s2
  41167c:	3c020005 	lui	v0,0x5
  411680:	34425fa4 	ori	v0,v0,0x5fa4
  411684:	005d1021 	addu	v0,v0,sp
  411688:	8c450000 	lw	a1,0(v0)
  41168c:	02003021 	move	a2,s0
  411690:	8f998148 	lw	t9,-32440(gp)
  411694:	0320f809 	jalr	t9
  411698:	24070200 	li	a3,512
  41169c:	8fbc0028 	lw	gp,40(sp)
  4116a0:	1440000f 	bnez	v0,4116e0 <GetEventSupportList@@Base+0x195c>
  4116a4:	001118c0 	sll	v1,s1,0x3
  4116a8:	001120c0 	sll	a0,s1,0x3
  4116ac:	00111140 	sll	v0,s1,0x5
  4116b0:	00822021 	addu	a0,a0,v0
  4116b4:	00912021 	addu	a0,a0,s1
  4116b8:	00042080 	sll	a0,a0,0x2
  4116bc:	00942021 	addu	a0,a0,s4
  4116c0:	248400d0 	addiu	a0,a0,208
  4116c4:	02642021 	addu	a0,s3,a0
[31m  4116c8:	8f99826c 	lw	t9,strcpy[0m
  4116cc:	0320f809 	jalr	t9
  4116d0:	02002821 	move	a1,s0
--
  411850:	8c640000 	lw	a0,0(v1)
  411854:	8f998158 	lw	t9,-32424(gp)
  411858:	0320f809 	jalr	t9
  41185c:	02202821 	move	a1,s1
  411860:	8fbc0028 	lw	gp,40(sp)
  411864:	00409021 	move	s2,v0
  411868:	02002021 	move	a0,s0
  41186c:	00002821 	move	a1,zero
  411870:	8f9980fc 	lw	t9,-32516(gp)
  411874:	0320f809 	jalr	t9
  411878:	24060200 	li	a2,512
  41187c:	8fbc0028 	lw	gp,40(sp)
  411880:	02402021 	move	a0,s2
  411884:	03c02821 	move	a1,s8
  411888:	02003021 	move	a2,s0
  41188c:	8f998148 	lw	t9,-32440(gp)
  411890:	0320f809 	jalr	t9
  411894:	24070200 	li	a3,512
  411898:	8fbc0028 	lw	gp,40(sp)
  41189c:	1440000b 	bnez	v0,4118cc <GetEventSupportList@@Base+0x1b48>
  4118a0:	02350018 	mult	s1,s5
  4118a4:	00002012 	mflo	a0
  4118a8:	00962021 	addu	a0,a0,s6
  4118ac:	248414f0 	addiu	a0,a0,5360
  4118b0:	02642021 	addu	a0,s3,a0
[31m  4118b4:	8f99826c 	lw	t9,strcpy[0m
  4118b8:	0320f809 	jalr	t9
  4118bc:	02002821 	move	a1,s0
--
  411938:	10000002 	b	411944 <GetEventSupportList@@Base+0x1bc0>
  41193c:	ae82ff70 	sw	v0,-144(s4)
  411940:	ae80ff70 	sw	zero,-144(s4)
  411944:	02002021 	move	a0,s0
  411948:	00002821 	move	a1,zero
  41194c:	8f9980fc 	lw	t9,-32516(gp)
  411950:	0320f809 	jalr	t9
  411954:	24060200 	li	a2,512
  411958:	8fbc0028 	lw	gp,40(sp)
  41195c:	02402021 	move	a0,s2
  411960:	3c030005 	lui	v1,0x5
  411964:	34635f8c 	ori	v1,v1,0x5f8c
  411968:	007d1821 	addu	v1,v1,sp
  41196c:	8c650000 	lw	a1,0(v1)
  411970:	02003021 	move	a2,s0
  411974:	8f998148 	lw	t9,-32440(gp)
  411978:	0320f809 	jalr	t9
  41197c:	24070200 	li	a3,512
  411980:	8fbc0028 	lw	gp,40(sp)
  411984:	1440000b 	bnez	v0,4119b4 <GetEventSupportList@@Base+0x1c30>
  411988:	02350018 	mult	s1,s5
  41198c:	00002012 	mflo	a0
  411990:	00962021 	addu	a0,a0,s6
  411994:	24841508 	addiu	a0,a0,5384
  411998:	02642021 	addu	a0,s3,a0
[31m  41199c:	8f99826c 	lw	t9,strcpy[0m
  4119a0:	0320f809 	jalr	t9
  4119a4:	02002821 	move	a1,s0
--
  4119bc:	02621021 	addu	v0,s3,v0
  4119c0:	92e3cef8 	lbu	v1,-12552(s7)
  4119c4:	a0431508 	sb	v1,5384(v0)
  4119c8:	02002021 	move	a0,s0
  4119cc:	00002821 	move	a1,zero
  4119d0:	8f9980fc 	lw	t9,-32516(gp)
  4119d4:	0320f809 	jalr	t9
  4119d8:	24060200 	li	a2,512
  4119dc:	8fbc0028 	lw	gp,40(sp)
  4119e0:	02402021 	move	a0,s2
  4119e4:	3c020005 	lui	v0,0x5
  4119e8:	34425f90 	ori	v0,v0,0x5f90
  4119ec:	005d1021 	addu	v0,v0,sp
  4119f0:	8c450000 	lw	a1,0(v0)
  4119f4:	02003021 	move	a2,s0
  4119f8:	8f998148 	lw	t9,-32440(gp)
  4119fc:	0320f809 	jalr	t9
  411a00:	24070200 	li	a3,512
  411a04:	8fbc0028 	lw	gp,40(sp)
  411a08:	1440000b 	bnez	v0,411a38 <GetEventSupportList@@Base+0x1cb4>
  411a0c:	02350018 	mult	s1,s5
  411a10:	00002012 	mflo	a0
  411a14:	00962021 	addu	a0,a0,s6
  411a18:	02642021 	addu	a0,s3,a0
  411a1c:	24841529 	addiu	a0,a0,5417
[31m  411a20:	8f99826c 	lw	t9,strcpy[0m
  411a24:	0320f809 	jalr	t9
  411a28:	02002821 	move	a1,s0
--
  411aa4:	10000002 	b	411ab0 <GetEventSupportList@@Base+0x1d2c>
  411aa8:	ae82ffb8 	sw	v0,-72(s4)
  411aac:	ae80ffb8 	sw	zero,-72(s4)
  411ab0:	02002021 	move	a0,s0
  411ab4:	00002821 	move	a1,zero
  411ab8:	8f9980fc 	lw	t9,-32516(gp)
  411abc:	0320f809 	jalr	t9
  411ac0:	24060200 	li	a2,512
  411ac4:	8fbc0028 	lw	gp,40(sp)
  411ac8:	02402021 	move	a0,s2
  411acc:	3c030005 	lui	v1,0x5
  411ad0:	34635fac 	ori	v1,v1,0x5fac
  411ad4:	007d1821 	addu	v1,v1,sp
  411ad8:	8c650000 	lw	a1,0(v1)
  411adc:	02003021 	move	a2,s0
  411ae0:	8f998148 	lw	t9,-32440(gp)
  411ae4:	0320f809 	jalr	t9
  411ae8:	24070200 	li	a3,512
  411aec:	8fbc0028 	lw	gp,40(sp)
  411af0:	1440000b 	bnez	v0,411b20 <GetEventSupportList@@Base+0x1d9c>
  411af4:	02350018 	mult	s1,s5
  411af8:	00002012 	mflo	a0
  411afc:	00962021 	addu	a0,a0,s6
  411b00:	24841550 	addiu	a0,a0,5456
  411b04:	02642021 	addu	a0,s3,a0
[31m  411b08:	8f99826c 	lw	t9,strcpy[0m
  411b0c:	0320f809 	jalr	t9
  411b10:	02002821 	move	a1,s0
--
  411bf4:	0320f809 	jalr	t9
  411bf8:	24060200 	li	a2,512
  411bfc:	8fbc0028 	lw	gp,40(sp)
  411c00:	3c060005 	lui	a2,0x5
  411c04:	34c65fb4 	ori	a2,a2,0x5fb4
  411c08:	00dd3021 	addu	a2,a2,sp
  411c0c:	8cc40000 	lw	a0,0(a2)
  411c10:	3c050042 	lui	a1,0x42
  411c14:	24a5ee14 	addiu	a1,a1,-4588
  411c18:	02003021 	move	a2,s0
  411c1c:	8f998148 	lw	t9,-32440(gp)
  411c20:	0320f809 	jalr	t9
  411c24:	24070200 	li	a3,512
  411c28:	8fbc0028 	lw	gp,40(sp)
  411c2c:	14400010 	bnez	v0,411c70 <GetEventSupportList@@Base+0x1eec>
  411c30:	24022ab0 	li	v0,10928
  411c34:	24042ab0 	li	a0,10928
  411c38:	3c020005 	lui	v0,0x5
  411c3c:	34425fbc 	ori	v0,v0,0x5fbc
  411c40:	005d1021 	addu	v0,v0,sp
  411c44:	8c420000 	lw	v0,0(v0)
  411c48:	00440018 	mult	v0,a0
  411c4c:	00002012 	mflo	a0
  411c50:	24842a78 	addiu	a0,a0,10872
  411c54:	02442021 	addu	a0,s2,a0
[31m  411c58:	8f99826c 	lw	t9,strcpy[0m
  411c5c:	0320f809 	jalr	t9
  411c60:	02002821 	move	a1,s0
--
  4154b0:	8f998134 	lw	t9,-32460(gp)
  4154b4:	0320f809 	jalr	t9
  4154b8:	24a5dea4 	addiu	a1,a1,-8540
  4154bc:	8fbc0028 	lw	gp,40(sp)
  4154c0:	14400003 	bnez	v0,4154d0 <GetEventSupportList@@Base+0x574c>
  4154c4:	24020001 	li	v0,1
  4154c8:	10000004 	b	4154dc <GetEventSupportList@@Base+0x5758>
  4154cc:	ae220004 	sw	v0,4(s1)
  4154d0:	10000002 	b	4154dc <GetEventSupportList@@Base+0x5758>
  4154d4:	ae200004 	sw	zero,4(s1)
  4154d8:	ae200004 	sw	zero,4(s1)
  4154dc:	03c02021 	move	a0,s8
  4154e0:	3c050042 	lui	a1,0x42
  4154e4:	8f998138 	lw	t9,-32456(gp)
  4154e8:	0320f809 	jalr	t9
  4154ec:	24a5ed88 	addiu	a1,a1,-4728
  4154f0:	8fbc0028 	lw	gp,40(sp)
  4154f4:	1040000d 	beqz	v0,41552c <GetEventSupportList@@Base+0x57a8>
  4154f8:	24030556 	li	v1,1366
  4154fc:	02430018 	mult	s2,v1
  415500:	00001812 	mflo	v1
  415504:	24630001 	addiu	v1,v1,1
  415508:	000318c0 	sll	v1,v1,0x3
  41550c:	27a40030 	addiu	a0,sp,48
  415510:	00832021 	addu	a0,a0,v1
[31m  415514:	8f99826c 	lw	t9,strcpy[0m
  415518:	0320f809 	jalr	t9
  41551c:	00402821 	move	a1,v0
  415520:	8fbc0028 	lw	gp,40(sp)
  415524:	1000000b 	b	415554 <GetEventSupportList@@Base+0x57d0>
  415528:	03c02021 	move	a0,s8
  41552c:	24020556 	li	v0,1366
  415530:	02420018 	mult	s2,v0
  415534:	00001012 	mflo	v0
  415538:	24420001 	addiu	v0,v0,1
  41553c:	000210c0 	sll	v0,v0,0x3
  415540:	03a21021 	addu	v0,sp,v0
  415544:	3c030042 	lui	v1,0x42
  415548:	9063cef8 	lbu	v1,-12552(v1)
  41554c:	a0430030 	sb	v1,48(v0)
  415550:	03c02021 	move	a0,s8
  415554:	3c050042 	lui	a1,0x42
  415558:	8f998138 	lw	t9,-32456(gp)
  41555c:	0320f809 	jalr	t9
  415560:	24a5ed94 	addiu	a1,a1,-4716
  415564:	8fbc0028 	lw	gp,40(sp)
  415568:	1040000b 	beqz	v0,415598 <GetEventSupportList@@Base+0x5814>
  41556c:	24042ab0 	li	a0,10928
  415570:	02440018 	mult	s2,a0
  415574:	00002012 	mflo	a0
  415578:	03a42021 	addu	a0,sp,a0
  41557c:	24840059 	addiu	a0,a0,89
[31m  415580:	8f99826c 	lw	t9,strcpy[0m
  415584:	0320f809 	jalr	t9
  415588:	00402821 	move	a1,v0
--
  4156b8:	007d1821 	addu	v1,v1,sp
  4156bc:	8c640000 	lw	a0,0(v1)
  4156c0:	8f998158 	lw	t9,-32424(gp)
  4156c4:	0320f809 	jalr	t9
  4156c8:	02002821 	move	a1,s0
  4156cc:	8fbc0028 	lw	gp,40(sp)
  4156d0:	00408821 	move	s1,v0
  4156d4:	00402021 	move	a0,v0
  4156d8:	3c020005 	lui	v0,0x5
  4156dc:	344287f8 	ori	v0,v0,0x87f8
  4156e0:	005d1021 	addu	v0,v0,sp
  4156e4:	8c450000 	lw	a1,0(v0)
  4156e8:	8f998138 	lw	t9,-32456(gp)
  4156ec:	0320f809 	jalr	t9
  4156f0:	00000000 	nop
  4156f4:	8fbc0028 	lw	gp,40(sp)
  4156f8:	1040000e 	beqz	v0,415734 <GetEventSupportList@@Base+0x59b0>
  4156fc:	001020c0 	sll	a0,s0,0x3
  415700:	00101940 	sll	v1,s0,0x5
  415704:	00832021 	addu	a0,a0,v1
  415708:	00902021 	addu	a0,a0,s0
  41570c:	00042080 	sll	a0,a0,0x2
  415710:	00932021 	addu	a0,a0,s3
  415714:	24840070 	addiu	a0,a0,112
  415718:	02842021 	addu	a0,s4,a0
[31m  41571c:	8f99826c 	lw	t9,strcpy[0m
  415720:	0320f809 	jalr	t9
  415724:	00402821 	move	a1,v0
--
  41577c:	00000000 	nop
  415780:	8f998080 	lw	t9,-32640(gp)
  415784:	0320f809 	jalr	t9
  415788:	00402021 	move	a0,v0
  41578c:	8fbc0028 	lw	gp,40(sp)
  415790:	10000002 	b	41579c <GetEventSupportList@@Base+0x5a18>
  415794:	aee2ffb8 	sw	v0,-72(s7)
  415798:	aee0ffb8 	sw	zero,-72(s7)
  41579c:	3c020005 	lui	v0,0x5
  4157a0:	34428800 	ori	v0,v0,0x8800
  4157a4:	005d1021 	addu	v0,v0,sp
  4157a8:	8c450000 	lw	a1,0(v0)
  4157ac:	8f998138 	lw	t9,-32456(gp)
  4157b0:	0320f809 	jalr	t9
  4157b4:	02202021 	move	a0,s1
  4157b8:	8fbc0028 	lw	gp,40(sp)
  4157bc:	1040000e 	beqz	v0,4157f8 <GetEventSupportList@@Base+0x5a74>
  4157c0:	001020c0 	sll	a0,s0,0x3
  4157c4:	00101940 	sll	v1,s0,0x5
  4157c8:	00832021 	addu	a0,a0,v1
  4157cc:	00902021 	addu	a0,a0,s0
  4157d0:	00042080 	sll	a0,a0,0x2
  4157d4:	00932021 	addu	a0,a0,s3
  4157d8:	24840088 	addiu	a0,a0,136
  4157dc:	02842021 	addu	a0,s4,a0
[31m  4157e0:	8f99826c 	lw	t9,strcpy[0m
  4157e4:	0320f809 	jalr	t9
  4157e8:	00402821 	move	a1,v0
--
  4157fc:	00101140 	sll	v0,s0,0x5
  415800:	00621021 	addu	v0,v1,v0
  415804:	00501021 	addu	v0,v0,s0
  415808:	00021080 	sll	v0,v0,0x2
  41580c:	00531021 	addu	v0,v0,s3
  415810:	02821021 	addu	v0,s4,v0
  415814:	92a3cef8 	lbu	v1,-12552(s5)
  415818:	a0430088 	sb	v1,136(v0)
  41581c:	3c030005 	lui	v1,0x5
  415820:	34638804 	ori	v1,v1,0x8804
  415824:	007d1821 	addu	v1,v1,sp
  415828:	8c650000 	lw	a1,0(v1)
  41582c:	8f998138 	lw	t9,-32456(gp)
  415830:	0320f809 	jalr	t9
  415834:	02202021 	move	a0,s1
  415838:	8fbc0028 	lw	gp,40(sp)
  41583c:	1040000e 	beqz	v0,415878 <GetEventSupportList@@Base+0x5af4>
  415840:	001020c0 	sll	a0,s0,0x3
  415844:	00101940 	sll	v1,s0,0x5
  415848:	00832021 	addu	a0,a0,v1
  41584c:	00902021 	addu	a0,a0,s0
  415850:	00042080 	sll	a0,a0,0x2
  415854:	00932021 	addu	a0,a0,s3
  415858:	02842021 	addu	a0,s4,a0
  41585c:	248400a9 	addiu	a0,a0,169
[31m  415860:	8f99826c 	lw	t9,strcpy[0m
  415864:	0320f809 	jalr	t9
  415868:	00402821 	move	a1,v0
--
  4158c0:	00000000 	nop
  4158c4:	8f998080 	lw	t9,-32640(gp)
  4158c8:	0320f809 	jalr	t9
  4158cc:	00402021 	move	a0,v0
  4158d0:	8fbc0028 	lw	gp,40(sp)
  4158d4:	10000002 	b	4158e0 <GetEventSupportList@@Base+0x5b5c>
  4158d8:	aee20000 	sw	v0,0(s7)
  4158dc:	aee00000 	sw	zero,0(s7)
  4158e0:	3c030005 	lui	v1,0x5
  4158e4:	34638810 	ori	v1,v1,0x8810
  4158e8:	007d1821 	addu	v1,v1,sp
  4158ec:	8c650000 	lw	a1,0(v1)
  4158f0:	8f998138 	lw	t9,-32456(gp)
  4158f4:	0320f809 	jalr	t9
  4158f8:	02202021 	move	a0,s1
  4158fc:	8fbc0028 	lw	gp,40(sp)
  415900:	1040000e 	beqz	v0,41593c <GetEventSupportList@@Base+0x5bb8>
  415904:	001020c0 	sll	a0,s0,0x3
  415908:	00101940 	sll	v1,s0,0x5
  41590c:	00832021 	addu	a0,a0,v1
  415910:	00902021 	addu	a0,a0,s0
  415914:	00042080 	sll	a0,a0,0x2
  415918:	00932021 	addu	a0,a0,s3
  41591c:	248400d0 	addiu	a0,a0,208
  415920:	02842021 	addu	a0,s4,a0
[31m  415924:	8f99826c 	lw	t9,strcpy[0m
  415928:	0320f809 	jalr	t9
  41592c:	00402821 	move	a1,v0
--
  415a54:	100000a3 	b	415ce4 <GetEventSupportList@@Base+0x5f60>
  415a58:	ac510000 	sw	s1,0(v0)
  415a5c:	346387e4 	ori	v1,v1,0x87e4
  415a60:	007d1821 	addu	v1,v1,sp
  415a64:	8c640000 	lw	a0,0(v1)
  415a68:	8f998158 	lw	t9,-32424(gp)
  415a6c:	0320f809 	jalr	t9
  415a70:	02002821 	move	a1,s0
  415a74:	8fbc0028 	lw	gp,40(sp)
  415a78:	00408821 	move	s1,v0
  415a7c:	00402021 	move	a0,v0
  415a80:	3c020005 	lui	v0,0x5
  415a84:	344287f8 	ori	v0,v0,0x87f8
  415a88:	005d1021 	addu	v0,v0,sp
  415a8c:	8c450000 	lw	a1,0(v0)
  415a90:	8f998138 	lw	t9,-32456(gp)
  415a94:	0320f809 	jalr	t9
  415a98:	00000000 	nop
  415a9c:	8fbc0028 	lw	gp,40(sp)
  415aa0:	1040000b 	beqz	v0,415ad0 <GetEventSupportList@@Base+0x5d4c>
  415aa4:	02140018 	mult	s0,s4
  415aa8:	00002012 	mflo	a0
  415aac:	00952021 	addu	a0,a0,s5
  415ab0:	248414f0 	addiu	a0,a0,5360
  415ab4:	02c42021 	addu	a0,s6,a0
[31m  415ab8:	8f99826c 	lw	t9,strcpy[0m
  415abc:	0320f809 	jalr	t9
  415ac0:	00402821 	move	a1,v0
--
  415afc:	02202021 	move	a0,s1
  415b00:	8fbc0028 	lw	gp,40(sp)
  415b04:	10400007 	beqz	v0,415b24 <GetEventSupportList@@Base+0x5da0>
  415b08:	00000000 	nop
  415b0c:	8f998080 	lw	t9,-32640(gp)
  415b10:	0320f809 	jalr	t9
  415b14:	00402021 	move	a0,v0
  415b18:	8fbc0028 	lw	gp,40(sp)
  415b1c:	10000002 	b	415b28 <GetEventSupportList@@Base+0x5da4>
  415b20:	ae62ff70 	sw	v0,-144(s3)
  415b24:	ae60ff70 	sw	zero,-144(s3)
  415b28:	3c030005 	lui	v1,0x5
  415b2c:	34638800 	ori	v1,v1,0x8800
  415b30:	007d1821 	addu	v1,v1,sp
  415b34:	8c650000 	lw	a1,0(v1)
  415b38:	8f998138 	lw	t9,-32456(gp)
  415b3c:	0320f809 	jalr	t9
  415b40:	02202021 	move	a0,s1
  415b44:	8fbc0028 	lw	gp,40(sp)
  415b48:	1040000b 	beqz	v0,415b78 <GetEventSupportList@@Base+0x5df4>
  415b4c:	02140018 	mult	s0,s4
  415b50:	00002012 	mflo	a0
  415b54:	00952021 	addu	a0,a0,s5
  415b58:	24841508 	addiu	a0,a0,5384
  415b5c:	02c42021 	addu	a0,s6,a0
[31m  415b60:	8f99826c 	lw	t9,strcpy[0m
  415b64:	0320f809 	jalr	t9
  415b68:	00402821 	move	a1,v0
  415b6c:	8fbc0028 	lw	gp,40(sp)
  415b70:	10000007 	b	415b90 <GetEventSupportList@@Base+0x5e0c>
  415b74:	3c020005 	lui	v0,0x5
  415b78:	00001012 	mflo	v0
  415b7c:	00551021 	addu	v0,v0,s5
  415b80:	02c21021 	addu	v0,s6,v0
  415b84:	92e3cef8 	lbu	v1,-12552(s7)
  415b88:	a0431508 	sb	v1,5384(v0)
  415b8c:	3c020005 	lui	v0,0x5
  415b90:	34428804 	ori	v0,v0,0x8804
  415b94:	005d1021 	addu	v0,v0,sp
  415b98:	8c450000 	lw	a1,0(v0)
  415b9c:	8f998138 	lw	t9,-32456(gp)
  415ba0:	0320f809 	jalr	t9
  415ba4:	02202021 	move	a0,s1
  415ba8:	8fbc0028 	lw	gp,40(sp)
  415bac:	1040000b 	beqz	v0,415bdc <GetEventSupportList@@Base+0x5e58>
  415bb0:	02140018 	mult	s0,s4
  415bb4:	00002012 	mflo	a0
  415bb8:	00952021 	addu	a0,a0,s5
  415bbc:	02c42021 	addu	a0,s6,a0
  415bc0:	24841529 	addiu	a0,a0,5417
[31m  415bc4:	8f99826c 	lw	t9,strcpy[0m
  415bc8:	0320f809 	jalr	t9
  415bcc:	00402821 	move	a1,v0
--
  415c08:	02202021 	move	a0,s1
  415c0c:	8fbc0028 	lw	gp,40(sp)
  415c10:	10400007 	beqz	v0,415c30 <GetEventSupportList@@Base+0x5eac>
  415c14:	00000000 	nop
  415c18:	8f998080 	lw	t9,-32640(gp)
  415c1c:	0320f809 	jalr	t9
  415c20:	00402021 	move	a0,v0
  415c24:	8fbc0028 	lw	gp,40(sp)
  415c28:	10000002 	b	415c34 <GetEventSupportList@@Base+0x5eb0>
  415c2c:	ae62ffb8 	sw	v0,-72(s3)
  415c30:	ae60ffb8 	sw	zero,-72(s3)
  415c34:	3c030005 	lui	v1,0x5
  415c38:	34638818 	ori	v1,v1,0x8818
  415c3c:	007d1821 	addu	v1,v1,sp
  415c40:	8c650000 	lw	a1,0(v1)
  415c44:	8f998138 	lw	t9,-32456(gp)
  415c48:	0320f809 	jalr	t9
  415c4c:	02202021 	move	a0,s1
  415c50:	8fbc0028 	lw	gp,40(sp)
  415c54:	1040000b 	beqz	v0,415c84 <GetEventSupportList@@Base+0x5f00>
  415c58:	02140018 	mult	s0,s4
  415c5c:	00002012 	mflo	a0
  415c60:	00952021 	addu	a0,a0,s5
  415c64:	24841550 	addiu	a0,a0,5456
  415c68:	02c42021 	addu	a0,s6,a0
[31m  415c6c:	8f99826c 	lw	t9,strcpy[0m
  415c70:	0320f809 	jalr	t9
  415c74:	00402821 	move	a1,v0
--
  415ce8:	346387f0 	ori	v1,v1,0x87f0
  415cec:	007d1821 	addu	v1,v1,sp
  415cf0:	8c630000 	lw	v1,0(v1)
  415cf4:	0203102a 	slt	v0,s0,v1
  415cf8:	10400003 	beqz	v0,415d08 <GetEventSupportList@@Base+0x5f84>
  415cfc:	24040020 	li	a0,32
  415d00:	1604ff56 	bne	s0,a0,415a5c <GetEventSupportList@@Base+0x5cd8>
  415d04:	3c030005 	lui	v1,0x5
  415d08:	3c050005 	lui	a1,0x5
  415d0c:	34a58820 	ori	a1,a1,0x8820
  415d10:	00bd2821 	addu	a1,a1,sp
  415d14:	8cb10000 	lw	s1,0(a1)
  415d18:	ae302a74 	sw	s0,10868(s1)
  415d1c:	03c02021 	move	a0,s8
  415d20:	3c050042 	lui	a1,0x42
  415d24:	8f998138 	lw	t9,-32456(gp)
  415d28:	0320f809 	jalr	t9
  415d2c:	24a5ee14 	addiu	a1,a1,-4588
  415d30:	8fbc0028 	lw	gp,40(sp)
  415d34:	1040000b 	beqz	v0,415d64 <GetEventSupportList@@Base+0x5fe0>
  415d38:	24042ab0 	li	a0,10928
  415d3c:	02440018 	mult	s2,a0
  415d40:	00002012 	mflo	a0
  415d44:	03a42021 	addu	a0,sp,a0
  415d48:	24842aa8 	addiu	a0,a0,10920
[31m  415d4c:	8f99826c 	lw	t9,strcpy[0m
  415d50:	0320f809 	jalr	t9
  415d54:	00402821 	move	a1,v0
--
  415f90:	009d2021 	addu	a0,a0,sp
  415f94:	8c840000 	lw	a0,0(a0)
  415f98:	3c050005 	lui	a1,0x5
  415f9c:	00851821 	addu	v1,a0,a1
  415fa0:	10000007 	b	415fc0 <GetEventSupportList@@Base+0x623c>
  415fa4:	ac625600 	sw	v0,22016(v1)
  415fa8:	346387f0 	ori	v1,v1,0x87f0
  415fac:	007d1821 	addu	v1,v1,sp
  415fb0:	8c630000 	lw	v1,0(v1)
  415fb4:	3c040005 	lui	a0,0x5
  415fb8:	00641021 	addu	v0,v1,a0
  415fbc:	ac405600 	sw	zero,22016(v0)
  415fc0:	02a02021 	move	a0,s5
  415fc4:	3c050042 	lui	a1,0x42
  415fc8:	8f998138 	lw	t9,-32456(gp)
  415fcc:	0320f809 	jalr	t9
  415fd0:	24a5d91c 	addiu	a1,a1,-9956
  415fd4:	8fbc0028 	lw	gp,40(sp)
  415fd8:	1040000c 	beqz	v0,41600c <GetEventSupportList@@Base+0x6288>
  415fdc:	3c030005 	lui	v1,0x5
  415fe0:	3c050005 	lui	a1,0x5
  415fe4:	34a58824 	ori	a1,a1,0x8824
  415fe8:	00bd2821 	addu	a1,a1,sp
  415fec:	8ca50000 	lw	a1,0(a1)
  415ff0:	24a40004 	addiu	a0,a1,4
[31m  415ff4:	8f99826c 	lw	t9,strcpy[0m
  415ff8:	0320f809 	jalr	t9
  415ffc:	00402821 	move	a1,v0
--
  41611c:	005d1021 	addu	v0,v0,sp
  416120:	100000bc 	b	416414 <GetEventSupportList@@Base+0x6690>
  416124:	ac530000 	sw	s3,0(v0)
  416128:	8f998158 	lw	t9,-32424(gp)
  41612c:	0320f809 	jalr	t9
  416130:	02202821 	move	a1,s1
  416134:	8fbc0028 	lw	gp,40(sp)
  416138:	00409821 	move	s3,v0
  41613c:	00402021 	move	a0,v0
  416140:	8f998138 	lw	t9,-32456(gp)
  416144:	0320f809 	jalr	t9
  416148:	02e02821 	move	a1,s7
  41614c:	8fbc0028 	lw	gp,40(sp)
  416150:	10400011 	beqz	v0,416198 <GetEventSupportList@@Base+0x6414>
  416154:	001120c0 	sll	a0,s1,0x3
  416158:	00111940 	sll	v1,s1,0x5
  41615c:	00832021 	addu	a0,a0,v1
  416160:	00912021 	addu	a0,a0,s1
  416164:	00042080 	sll	a0,a0,0x2
  416168:	3c030005 	lui	v1,0x5
  41616c:	34638824 	ori	v1,v1,0x8824
  416170:	007d1821 	addu	v1,v1,sp
  416174:	8c630000 	lw	v1,0(v1)
  416178:	00832021 	addu	a0,a0,v1
  41617c:	2484000c 	addiu	a0,a0,12
[31m  416180:	8f99826c 	lw	t9,strcpy[0m
  416184:	0320f809 	jalr	t9
  416188:	00402821 	move	a1,v0
--
  4161ec:	00402021 	move	a0,v0
  4161f0:	8fbc0028 	lw	gp,40(sp)
  4161f4:	10000002 	b	416200 <GetEventSupportList@@Base+0x647c>
  4161f8:	ae42ffb8 	sw	v0,-72(s2)
  4161fc:	ae40ffb8 	sw	zero,-72(s2)
  416200:	3c020005 	lui	v0,0x5
  416204:	344287e0 	ori	v0,v0,0x87e0
  416208:	005d1021 	addu	v0,v0,sp
  41620c:	8c450000 	lw	a1,0(v0)
  416210:	8f998138 	lw	t9,-32456(gp)
  416214:	0320f809 	jalr	t9
  416218:	02602021 	move	a0,s3
  41621c:	8fbc0028 	lw	gp,40(sp)
  416220:	10400011 	beqz	v0,416268 <GetEventSupportList@@Base+0x64e4>
  416224:	00111940 	sll	v1,s1,0x5
  416228:	001120c0 	sll	a0,s1,0x3
  41622c:	00832021 	addu	a0,a0,v1
  416230:	00912021 	addu	a0,a0,s1
  416234:	00042080 	sll	a0,a0,0x2
  416238:	3c030005 	lui	v1,0x5
  41623c:	34638824 	ori	v1,v1,0x8824
  416240:	007d1821 	addu	v1,v1,sp
  416244:	8c630000 	lw	v1,0(v1)
  416248:	00832021 	addu	a0,a0,v1
  41624c:	24840024 	addiu	a0,a0,36
[31m  416250:	8f99826c 	lw	t9,strcpy[0m
  416254:	0320f809 	jalr	t9
  416258:	00402821 	move	a1,v0
--
  416284:	009d2021 	addu	a0,a0,sp
  416288:	8c840000 	lw	a0,0(a0)
  41628c:	00441021 	addu	v0,v0,a0
  416290:	9203cef8 	lbu	v1,-12552(s0)
  416294:	a0430024 	sb	v1,36(v0)
  416298:	3c020005 	lui	v0,0x5
  41629c:	344287e4 	ori	v0,v0,0x87e4
  4162a0:	005d1021 	addu	v0,v0,sp
  4162a4:	8c450000 	lw	a1,0(v0)
  4162a8:	8f998138 	lw	t9,-32456(gp)
  4162ac:	0320f809 	jalr	t9
  4162b0:	02602021 	move	a0,s3
  4162b4:	8fbc0028 	lw	gp,40(sp)
  4162b8:	10400011 	beqz	v0,416300 <GetEventSupportList@@Base+0x657c>
  4162bc:	00111940 	sll	v1,s1,0x5
  4162c0:	001120c0 	sll	a0,s1,0x3
  4162c4:	00832021 	addu	a0,a0,v1
  4162c8:	00912021 	addu	a0,a0,s1
  4162cc:	00042080 	sll	a0,a0,0x2
  4162d0:	3c030005 	lui	v1,0x5
  4162d4:	34638824 	ori	v1,v1,0x8824
  4162d8:	007d1821 	addu	v1,v1,sp
  4162dc:	8c630000 	lw	v1,0(v1)
  4162e0:	00832021 	addu	a0,a0,v1
  4162e4:	24840045 	addiu	a0,a0,69
[31m  4162e8:	8f99826c 	lw	t9,strcpy[0m
  4162ec:	0320f809 	jalr	t9
  4162f0:	00402821 	move	a1,v0
--
  416360:	00402021 	move	a0,v0
  416364:	8fbc0028 	lw	gp,40(sp)
  416368:	10000002 	b	416374 <GetEventSupportList@@Base+0x65f0>
  41636c:	ae420000 	sw	v0,0(s2)
  416370:	ae400000 	sw	zero,0(s2)
  416374:	3c030005 	lui	v1,0x5
  416378:	346387ec 	ori	v1,v1,0x87ec
  41637c:	007d1821 	addu	v1,v1,sp
  416380:	8c650000 	lw	a1,0(v1)
  416384:	8f998138 	lw	t9,-32456(gp)
  416388:	0320f809 	jalr	t9
  41638c:	02602021 	move	a0,s3
  416390:	8fbc0028 	lw	gp,40(sp)
  416394:	10400011 	beqz	v0,4163dc <GetEventSupportList@@Base+0x6658>
  416398:	001120c0 	sll	a0,s1,0x3
  41639c:	00111940 	sll	v1,s1,0x5
  4163a0:	00832021 	addu	a0,a0,v1
  4163a4:	00912021 	addu	a0,a0,s1
  4163a8:	00042080 	sll	a0,a0,0x2
  4163ac:	3c050005 	lui	a1,0x5
  4163b0:	34a58824 	ori	a1,a1,0x8824
  4163b4:	00bd2821 	addu	a1,a1,sp
  4163b8:	8ca50000 	lw	a1,0(a1)
  4163bc:	00852021 	addu	a0,a0,a1
  4163c0:	2484006c 	addiu	a0,a0,108
[31m  4163c4:	8f99826c 	lw	t9,strcpy[0m
  4163c8:	0320f809 	jalr	t9
  4163cc:	00402821 	move	a1,v0
--
  41656c:	acb50000 	sw	s5,0(a1)
  416570:	3c020005 	lui	v0,0x5
  416574:	34428824 	ori	v0,v0,0x8824
  416578:	005d1021 	addu	v0,v0,sp
  41657c:	8c550000 	lw	s5,0(v0)
  416580:	10000097 	b	4167e0 <GetEventSupportList@@Base+0x6a5c>
  416584:	3c120042 	lui	s2,0x42
  416588:	8f998158 	lw	t9,-32424(gp)
  41658c:	0320f809 	jalr	t9
  416590:	02802821 	move	a1,s4
  416594:	8fbc0028 	lw	gp,40(sp)
  416598:	00409821 	move	s3,v0
  41659c:	3c030005 	lui	v1,0x5
  4165a0:	346387e0 	ori	v1,v1,0x87e0
  4165a4:	007d1821 	addu	v1,v1,sp
  4165a8:	8c650000 	lw	a1,0(v1)
  4165ac:	8f998138 	lw	t9,-32456(gp)
  4165b0:	0320f809 	jalr	t9
  4165b4:	00402021 	move	a0,v0
  4165b8:	8fbc0028 	lw	gp,40(sp)
  4165bc:	1040000a 	beqz	v0,4165e8 <GetEventSupportList@@Base+0x6864>
  4165c0:	02910018 	mult	s4,s1
  4165c4:	00002012 	mflo	a0
  4165c8:	00952021 	addu	a0,a0,s5
  4165cc:	2484148c 	addiu	a0,a0,5260
[31m  4165d0:	8f99826c 	lw	t9,strcpy[0m
  4165d4:	0320f809 	jalr	t9
  4165d8:	00402821 	move	a1,v0
--
  41660c:	0320f809 	jalr	t9
  416610:	02602021 	move	a0,s3
  416614:	8fbc0028 	lw	gp,40(sp)
  416618:	10400007 	beqz	v0,416638 <GetEventSupportList@@Base+0x68b4>
  41661c:	00000000 	nop
  416620:	8f998080 	lw	t9,-32640(gp)
  416624:	0320f809 	jalr	t9
  416628:	00402021 	move	a0,v0
  41662c:	8fbc0028 	lw	gp,40(sp)
  416630:	10000002 	b	41663c <GetEventSupportList@@Base+0x68b8>
  416634:	ae02ff70 	sw	v0,-144(s0)
  416638:	ae00ff70 	sw	zero,-144(s0)
  41663c:	3c030005 	lui	v1,0x5
  416640:	346387e8 	ori	v1,v1,0x87e8
  416644:	007d1821 	addu	v1,v1,sp
  416648:	8c650000 	lw	a1,0(v1)
  41664c:	8f998138 	lw	t9,-32456(gp)
  416650:	0320f809 	jalr	t9
  416654:	02602021 	move	a0,s3
  416658:	8fbc0028 	lw	gp,40(sp)
  41665c:	1040000a 	beqz	v0,416688 <GetEventSupportList@@Base+0x6904>
  416660:	02910018 	mult	s4,s1
  416664:	00002012 	mflo	a0
  416668:	00952021 	addu	a0,a0,s5
  41666c:	248414a4 	addiu	a0,a0,5284
[31m  416670:	8f99826c 	lw	t9,strcpy[0m
  416674:	0320f809 	jalr	t9
  416678:	00402821 	move	a1,v0
  41667c:	8fbc0028 	lw	gp,40(sp)
  416680:	10000006 	b	41669c <GetEventSupportList@@Base+0x6918>
  416684:	3c020005 	lui	v0,0x5
  416688:	00001012 	mflo	v0
  41668c:	00551021 	addu	v0,v0,s5
  416690:	9243cef8 	lbu	v1,-12552(s2)
  416694:	a04314a4 	sb	v1,5284(v0)
  416698:	3c020005 	lui	v0,0x5
  41669c:	344287ec 	ori	v0,v0,0x87ec
  4166a0:	005d1021 	addu	v0,v0,sp
  4166a4:	8c450000 	lw	a1,0(v0)
  4166a8:	8f998138 	lw	t9,-32456(gp)
  4166ac:	0320f809 	jalr	t9
  4166b0:	02602021 	move	a0,s3
  4166b4:	8fbc0028 	lw	gp,40(sp)
  4166b8:	1040000a 	beqz	v0,4166e4 <GetEventSupportList@@Base+0x6960>
  4166bc:	02910018 	mult	s4,s1
  4166c0:	00002012 	mflo	a0
  4166c4:	00952021 	addu	a0,a0,s5
  4166c8:	248414c5 	addiu	a0,a0,5317
[31m  4166cc:	8f99826c 	lw	t9,strcpy[0m
  4166d0:	0320f809 	jalr	t9
  4166d4:	00402821 	move	a1,v0
--
  416708:	0320f809 	jalr	t9
  41670c:	02602021 	move	a0,s3
  416710:	8fbc0028 	lw	gp,40(sp)
  416714:	10400007 	beqz	v0,416734 <GetEventSupportList@@Base+0x69b0>
  416718:	00000000 	nop
  41671c:	8f998080 	lw	t9,-32640(gp)
  416720:	0320f809 	jalr	t9
  416724:	00402021 	move	a0,v0
  416728:	8fbc0028 	lw	gp,40(sp)
  41672c:	10000002 	b	416738 <GetEventSupportList@@Base+0x69b4>
  416730:	ae02ffb8 	sw	v0,-72(s0)
  416734:	ae00ffb8 	sw	zero,-72(s0)
  416738:	3c030005 	lui	v1,0x5
  41673c:	346387f8 	ori	v1,v1,0x87f8
  416740:	007d1821 	addu	v1,v1,sp
  416744:	8c650000 	lw	a1,0(v1)
  416748:	8f998138 	lw	t9,-32456(gp)
  41674c:	0320f809 	jalr	t9
  416750:	02602021 	move	a0,s3
  416754:	8fbc0028 	lw	gp,40(sp)
  416758:	1040000a 	beqz	v0,416784 <GetEventSupportList@@Base+0x6a00>
  41675c:	02910018 	mult	s4,s1
  416760:	00002012 	mflo	a0
  416764:	00952021 	addu	a0,a0,s5
  416768:	248414ec 	addiu	a0,a0,5356
[31m  41676c:	8f99826c 	lw	t9,strcpy[0m
  416770:	0320f809 	jalr	t9
  416774:	00402821 	move	a1,v0
--
  4167d0:	ae020000 	sw	v0,0(s0)
  4167d4:	ae000000 	sw	zero,0(s0)
  4167d8:	26940001 	addiu	s4,s4,1
  4167dc:	261000ac 	addiu	s0,s0,172
  4167e0:	029e102a 	slt	v0,s4,s8
  4167e4:	10400003 	beqz	v0,4167f4 <GetEventSupportList@@Base+0x6a70>
  4167e8:	24030020 	li	v1,32
  4167ec:	1683ff66 	bne	s4,v1,416588 <GetEventSupportList@@Base+0x6804>
  4167f0:	02e02021 	move	a0,s7
  4167f4:	3c040005 	lui	a0,0x5
  4167f8:	34848800 	ori	a0,a0,0x8800
  4167fc:	009d2021 	addu	a0,a0,sp
  416800:	8c950000 	lw	s5,0(a0)
  416804:	02a02021 	move	a0,s5
  416808:	3c050042 	lui	a1,0x42
  41680c:	8f998138 	lw	t9,-32456(gp)
  416810:	0320f809 	jalr	t9
  416814:	24a5f250 	addiu	a1,a1,-3504
  416818:	8fbc0028 	lw	gp,40(sp)
  41681c:	1040000b 	beqz	v0,41684c <GetEventSupportList@@Base+0x6ac8>
  416820:	3c050005 	lui	a1,0x5
  416824:	34a58824 	ori	a1,a1,0x8824
  416828:	00bd2821 	addu	a1,a1,sp
  41682c:	8ca50000 	lw	a1,0(a1)
  416830:	24a42a0c 	addiu	a0,a1,10764
[31m  416834:	8f99826c 	lw	t9,strcpy[0m
  416838:	0320f809 	jalr	t9
  41683c:	00402821 	move	a1,v0
  416840:	8fbc0028 	lw	gp,40(sp)
  416844:	10000009 	b	41686c <GetEventSupportList@@Base+0x6ae8>
  416848:	02a02021 	move	a0,s5
  41684c:	3c020042 	lui	v0,0x42
  416850:	9042cef8 	lbu	v0,-12552(v0)
  416854:	3c030005 	lui	v1,0x5
  416858:	34638824 	ori	v1,v1,0x8824
  41685c:	007d1821 	addu	v1,v1,sp
  416860:	8c630000 	lw	v1,0(v1)
  416864:	a0622a0c 	sb	v0,10764(v1)
  416868:	02a02021 	move	a0,s5
  41686c:	3c050042 	lui	a1,0x42
  416870:	8f998138 	lw	t9,-32456(gp)
  416874:	0320f809 	jalr	t9
  416878:	24a5f25c 	addiu	a1,a1,-3492
  41687c:	8fbc0028 	lw	gp,40(sp)
  416880:	1040000b 	beqz	v0,4168b0 <GetEventSupportList@@Base+0x6b2c>
  416884:	3c050005 	lui	a1,0x5
  416888:	34a58824 	ori	a1,a1,0x8824
  41688c:	00bd2821 	addu	a1,a1,sp
  416890:	8ca50000 	lw	a1,0(a1)
  416894:	24a42a1d 	addiu	a0,a1,10781
[31m  416898:	8f99826c 	lw	t9,strcpy[0m
  41689c:	0320f809 	jalr	t9
  4168a0:	00402821 	move	a1,v0
--
  4169bc:	00002821 	move	a1,zero
  4169c0:	8f9980fc 	lw	t9,-32516(gp)
  4169c4:	0320f809 	jalr	t9
  4169c8:	24060081 	li	a2,129
  4169cc:	8fbc0028 	lw	gp,40(sp)
  4169d0:	3c020005 	lui	v0,0x5
  4169d4:	345081ac 	ori	s0,v0,0x81ac
  4169d8:	3c030005 	lui	v1,0x5
  4169dc:	346387f0 	ori	v1,v1,0x87f0
  4169e0:	007d1821 	addu	v1,v1,sp
  4169e4:	8c630000 	lw	v1,0(v1)
  4169e8:	00708021 	addu	s0,v1,s0
  4169ec:	ae000000 	sw	zero,0(s0)
  4169f0:	ae000004 	sw	zero,4(s0)
  4169f4:	ae000008 	sw	zero,8(s0)
  4169f8:	ae00000c 	sw	zero,12(s0)
  4169fc:	a2000010 	sb	zero,16(s0)
  416a00:	24052ab0 	li	a1,10928
  416a04:	3442883c 	ori	v0,v0,0x883c
  416a08:	005d1021 	addu	v0,v0,sp
  416a0c:	8c420000 	lw	v0,0(v0)
  416a10:	00450018 	mult	v0,a1
  416a14:	00002812 	mflo	a1
  416a18:	24a52a78 	addiu	a1,a1,10872
  416a1c:	02202021 	move	a0,s1
[31m  416a20:	8f99826c 	lw	t9,strcpy[0m
  416a24:	0320f809 	jalr	t9
  416a28:	00652821 	addu	a1,v1,a1
  416a2c:	8fbc0028 	lw	gp,40(sp)
  416a30:	02402021 	move	a0,s2
  416a34:	3c020005 	lui	v0,0x5
  416a38:	34428824 	ori	v0,v0,0x8824
  416a3c:	005d1021 	addu	v0,v0,sp
  416a40:	8c420000 	lw	v0,0(v0)
[31m  416a44:	8f99826c 	lw	t9,strcpy[0m
  416a48:	0320f809 	jalr	t9
  416a4c:	24452a1d 	addiu	a1,v0,10781
--
  41a5f8:	00002821 	move	a1,zero
  41a5fc:	8f9980fc 	lw	t9,-32516(gp)
  41a600:	0320f809 	jalr	t9
  41a604:	24060080 	li	a2,128
  41a608:	8fbc0010 	lw	gp,16(sp)
  41a60c:	02002021 	move	a0,s0
  41a610:	00002821 	move	a1,zero
  41a614:	8f9980fc 	lw	t9,-32516(gp)
  41a618:	0320f809 	jalr	t9
  41a61c:	24060080 	li	a2,128
  41a620:	8fbc0010 	lw	gp,16(sp)
  41a624:	02a02021 	move	a0,s5
  41a628:	8f998158 	lw	t9,-32424(gp)
  41a62c:	0320f809 	jalr	t9
  41a630:	02202821 	move	a1,s1
  41a634:	8fbc0010 	lw	gp,16(sp)
  41a638:	00409021 	move	s2,v0
  41a63c:	00402021 	move	a0,v0
  41a640:	8f998138 	lw	t9,-32456(gp)
  41a644:	0320f809 	jalr	t9
  41a648:	02802821 	move	a1,s4
  41a64c:	8fbc0010 	lw	gp,16(sp)
  41a650:	10400006 	beqz	v0,41a66c <SetDCHPolicy@@Base+0x11c>
  41a654:	00000000 	nop
  41a658:	02602021 	move	a0,s3
[31m  41a65c:	8f99826c 	lw	t9,strcpy[0m
  41a660:	0320f809 	jalr	t9
  41a664:	00402821 	move	a1,v0
--
  41aaf8:	0320f809 	jalr	t9
  41aafc:	24060081 	li	a2,129
  41ab00:	8fbc0010 	lw	gp,16(sp)
  41ab04:	afa00018 	sw	zero,24(sp)
  41ab08:	afa0001c 	sw	zero,28(sp)
  41ab0c:	afa00020 	sw	zero,32(sp)
  41ab10:	afa00024 	sw	zero,36(sp)
  41ab14:	afa00028 	sw	zero,40(sp)
  41ab18:	afa0002c 	sw	zero,44(sp)
  41ab1c:	afa00030 	sw	zero,48(sp)
  41ab20:	afa00034 	sw	zero,52(sp)
  41ab24:	a3a00038 	sb	zero,56(sp)
  41ab28:	02a02021 	move	a0,s5
  41ab2c:	8f998158 	lw	t9,-32424(gp)
  41ab30:	0320f809 	jalr	t9
  41ab34:	02002821 	move	a1,s0
  41ab38:	8fbc0010 	lw	gp,16(sp)
  41ab3c:	00408821 	move	s1,v0
  41ab40:	00402021 	move	a0,v0
  41ab44:	8f998138 	lw	t9,-32456(gp)
  41ab48:	0320f809 	jalr	t9
  41ab4c:	02602821 	move	a1,s3
  41ab50:	8fbc0010 	lw	gp,16(sp)
  41ab54:	10400005 	beqz	v0,41ab6c <GetDCHPolicy@@Base+0x1cc>
  41ab58:	02802021 	move	a0,s4
[31m  41ab5c:	8f99826c 	lw	t9,strcpy[0m
  41ab60:	0320f809 	jalr	t9
  41ab64:	00402821 	move	a1,v0

[0m
[[0;33m*[0m] Function [0;33mstrcpy[0m used [0;33m60[0m times [0;33mhnap_service[0m

