[0m
[[0;33m*[0m] Function [0;33mfprintf[0m tear down of [0;33mddp[0m

  401dd0:	13200004 	beqz	t9,401de4 <_ftext@@Base+0x194>
  401dd4:	8fbf001c 	lw	ra,28(sp)
  401dd8:	24846010 	addiu	a0,a0,24592
  401ddc:	03200008 	jr	t9
  401de0:	27bd0020 	addiu	sp,sp,32
  401de4:	8fbf001c 	lw	ra,28(sp)
  401de8:	03e00008 	jr	ra
  401dec:	27bd0020 	addiu	sp,sp,32
  401df0:	27bdffd8 	addiu	sp,sp,-40
  401df4:	afbf0024 	sw	ra,36(sp)
  401df8:	afb00020 	sw	s0,32(sp)
  401dfc:	3c1c0043 	lui	gp,0x43
  401e00:	279ce140 	addiu	gp,gp,-7872
  401e04:	afbc0018 	sw	gp,24(sp)
  401e08:	00808021 	move	s0,a0
  401e0c:	8f8280d0 	lw	v0,-32560(gp)
  401e10:	8c440000 	lw	a0,0(v0)
  401e14:	2402004a 	li	v0,74
  401e18:	afa20010 	sw	v0,16(sp)
  401e1c:	afb00014 	sw	s0,20(sp)
  401e20:	3c050041 	lui	a1,0x41
  401e24:	24a54350 	addiu	a1,a1,17232
  401e28:	3c060041 	lui	a2,0x41
  401e2c:	24c64378 	addiu	a2,a2,17272
  401e30:	3c070041 	lui	a3,0x41
[31m  401e34:	8f9981c0 	lw	t9,fprintf[0m
  401e38:	0320f809 	jalr	t9
  401e3c:	24e74b78 	addiu	a3,a3,19320
  401e40:	8fbc0018 	lw	gp,24(sp)
  401e44:	24020002 	li	v0,2
  401e48:	12020015 	beq	s0,v0,401ea0 <_ftext@@Base+0x250>
  401e4c:	2402000f 	li	v0,15
  401e50:	12020023 	beq	s0,v0,401ee0 <_ftext@@Base+0x290>
  401e54:	24020001 	li	v0,1
  401e58:	16020031 	bne	s0,v0,401f20 <_ftext@@Base+0x2d0>
  401e5c:	3c050041 	lui	a1,0x41
  401e60:	8f8280d0 	lw	v0,-32560(gp)
  401e64:	8c440000 	lw	a0,0(v0)
  401e68:	2402004e 	li	v0,78
  401e6c:	afa20010 	sw	v0,16(sp)
  401e70:	3c050041 	lui	a1,0x41
  401e74:	24a54380 	addiu	a1,a1,17280
  401e78:	3c060041 	lui	a2,0x41
  401e7c:	24c64378 	addiu	a2,a2,17272
  401e80:	3c070041 	lui	a3,0x41
[31m  401e84:	8f9981c0 	lw	t9,fprintf[0m
  401e88:	0320f809 	jalr	t9
  401e8c:	24e74b78 	addiu	a3,a3,19320
  401e90:	24030001 	li	v1,1
  401e94:	3c020042 	lui	v0,0x42
  401e98:	1000002c 	b	401f4c <_ftext@@Base+0x2fc>
  401e9c:	ac436410 	sw	v1,25616(v0)
  401ea0:	8f8280d0 	lw	v0,-32560(gp)
  401ea4:	8c440000 	lw	a0,0(v0)
  401ea8:	24020052 	li	v0,82
  401eac:	afa20010 	sw	v0,16(sp)
  401eb0:	3c050041 	lui	a1,0x41
  401eb4:	24a543b0 	addiu	a1,a1,17328
  401eb8:	3c060041 	lui	a2,0x41
  401ebc:	24c64378 	addiu	a2,a2,17272
  401ec0:	3c070041 	lui	a3,0x41
[31m  401ec4:	8f9981c0 	lw	t9,fprintf[0m
  401ec8:	0320f809 	jalr	t9
  401ecc:	24e74b78 	addiu	a3,a3,19320
  401ed0:	24030001 	li	v1,1
  401ed4:	3c020042 	lui	v0,0x42
  401ed8:	1000001c 	b	401f4c <_ftext@@Base+0x2fc>
  401edc:	ac436410 	sw	v1,25616(v0)
  401ee0:	8f8280d0 	lw	v0,-32560(gp)
  401ee4:	8c440000 	lw	a0,0(v0)
  401ee8:	24020056 	li	v0,86
  401eec:	afa20010 	sw	v0,16(sp)
  401ef0:	3c050041 	lui	a1,0x41
  401ef4:	24a543d8 	addiu	a1,a1,17368
  401ef8:	3c060041 	lui	a2,0x41
  401efc:	24c64378 	addiu	a2,a2,17272
  401f00:	3c070041 	lui	a3,0x41
[31m  401f04:	8f9981c0 	lw	t9,fprintf[0m
  401f08:	0320f809 	jalr	t9
  401f0c:	24e74b78 	addiu	a3,a3,19320
  401f10:	24030001 	li	v1,1
  401f14:	3c020042 	lui	v0,0x42
  401f18:	1000000c 	b	401f4c <_ftext@@Base+0x2fc>
  401f1c:	ac436410 	sw	v1,25616(v0)
  401f20:	8f8280d0 	lw	v0,-32560(gp)
  401f24:	8c440000 	lw	a0,0(v0)
  401f28:	2402005a 	li	v0,90
  401f2c:	afa20010 	sw	v0,16(sp)
  401f30:	24a54400 	addiu	a1,a1,17408
  401f34:	3c060041 	lui	a2,0x41
  401f38:	24c64378 	addiu	a2,a2,17272
  401f3c:	3c070041 	lui	a3,0x41
[31m  401f40:	8f9981c0 	lw	t9,fprintf[0m
  401f44:	0320f809 	jalr	t9
  401f48:	24e74b78 	addiu	a3,a3,19320
--
  402288:	8f9980e4 	lw	t9,-32540(gp)
  40228c:	0320f809 	jalr	t9
  402290:	02203021 	move	a2,s1
  402294:	8fbc0010 	lw	gp,16(sp)
  402298:	02002021 	move	a0,s0
  40229c:	24050501 	li	a1,1281
  4022a0:	8f99808c 	lw	t9,-32628(gp)
  4022a4:	0320f809 	jalr	t9
  4022a8:	24060284 	li	a2,644
  4022ac:	8fbc0010 	lw	gp,16(sp)
  4022b0:	04410013 	bgez	v0,402300 <_ftext@@Base+0x6b0>
  4022b4:	00408021 	move	s0,v0
  4022b8:	8f9980ac 	lw	t9,-32596(gp)
  4022bc:	0320f809 	jalr	t9
  4022c0:	00000000 	nop
  4022c4:	8fbc0010 	lw	gp,16(sp)
  4022c8:	8c430000 	lw	v1,0(v0)
  4022cc:	24020011 	li	v0,17
  4022d0:	10620003 	beq	v1,v0,4022e0 <_ftext@@Base+0x690>
  4022d4:	3c050041 	lui	a1,0x41
  4022d8:	10000022 	b	402364 <_ftext@@Base+0x714>
  4022dc:	2402ffff 	li	v0,-1
  4022e0:	8f8280d0 	lw	v0,-32560(gp)
  4022e4:	8c440000 	lw	a0,0(v0)
  4022e8:	24a5444c 	addiu	a1,a1,17484
[31m  4022ec:	8f9981c0 	lw	t9,fprintf[0m
  4022f0:	0320f809 	jalr	t9
  4022f4:	02203021 	move	a2,s1
--
  402380:	afbe0130 	sw	s8,304(sp)
  402384:	afb7012c 	sw	s7,300(sp)
  402388:	afb60128 	sw	s6,296(sp)
  40238c:	afb50124 	sw	s5,292(sp)
  402390:	afb40120 	sw	s4,288(sp)
  402394:	afb3011c 	sw	s3,284(sp)
  402398:	afb20118 	sw	s2,280(sp)
  40239c:	afb10114 	sw	s1,276(sp)
  4023a0:	afb00110 	sw	s0,272(sp)
  4023a4:	3c1c0043 	lui	gp,0x43
  4023a8:	279ce140 	addiu	gp,gp,-7872
  4023ac:	afbc0018 	sw	gp,24(sp)
  4023b0:	afa00020 	sw	zero,32(sp)
  4023b4:	24020002 	li	v0,2
  4023b8:	1082000f 	beq	a0,v0,4023f8 <main@@Base+0x80>
  4023bc:	afa00024 	sw	zero,36(sp)
  4023c0:	8f8280d0 	lw	v0,-32560(gp)
  4023c4:	8c440000 	lw	a0,0(v0)
  4023c8:	240200a5 	li	v0,165
  4023cc:	afa20010 	sw	v0,16(sp)
  4023d0:	3c050041 	lui	a1,0x41
  4023d4:	24a54470 	addiu	a1,a1,17520
  4023d8:	3c060041 	lui	a2,0x41
  4023dc:	24c64378 	addiu	a2,a2,17272
  4023e0:	3c070041 	lui	a3,0x41
[31m  4023e4:	8f9981c0 	lw	t9,fprintf[0m
  4023e8:	0320f809 	jalr	t9
  4023ec:	24e74b70 	addiu	a3,a3,19312
--
  402424:	0320f809 	jalr	t9
  402428:	24060114 	li	a2,276
  40242c:	0c1007d7 	jal	401f5c <_ftext@@Base+0x30c>
  402430:	00000000 	nop
  402434:	8fbc0018 	lw	gp,24(sp)
  402438:	24040002 	li	a0,2
  40243c:	24050001 	li	a1,1
  402440:	8f998204 	lw	t9,-32252(gp)
  402444:	0320f809 	jalr	t9
  402448:	24060011 	li	a2,17
  40244c:	8fbc0018 	lw	gp,24(sp)
  402450:	3c030042 	lui	v1,0x42
  402454:	ac626030 	sw	v0,24624(v1)
  402458:	2403ffff 	li	v1,-1
  40245c:	14430012 	bne	v0,v1,4024a8 <main@@Base+0x130>
  402460:	27a40048 	addiu	a0,sp,72
  402464:	8f8280d0 	lw	v0,-32560(gp)
  402468:	8c440000 	lw	a0,0(v0)
  40246c:	240200b7 	li	v0,183
  402470:	afa20010 	sw	v0,16(sp)
  402474:	3c050041 	lui	a1,0x41
  402478:	24a5449c 	addiu	a1,a1,17564
  40247c:	3c060041 	lui	a2,0x41
  402480:	24c64378 	addiu	a2,a2,17272
  402484:	3c070041 	lui	a3,0x41
[31m  402488:	8f9981c0 	lw	t9,fprintf[0m
  40248c:	0320f809 	jalr	t9
  402490:	24e74b70 	addiu	a3,a3,19312
--
  4024b8:	a7a20028 	sh	v0,40(sp)
  4024bc:	afa0002c 	sw	zero,44(sp)
  4024c0:	2402f600 	li	v0,-2560
  4024c4:	a7a2002a 	sh	v0,42(sp)
  4024c8:	8e850000 	lw	a1,0(s4)
  4024cc:	8f998178 	lw	t9,-32392(gp)
  4024d0:	0320f809 	jalr	t9
  4024d4:	24060010 	li	a2,16
  4024d8:	8fbc0018 	lw	gp,24(sp)
  4024dc:	8e840000 	lw	a0,0(s4)
  4024e0:	8f9980c0 	lw	t9,-32576(gp)
  4024e4:	0320f809 	jalr	t9
  4024e8:	00000000 	nop
  4024ec:	8fbc0018 	lw	gp,24(sp)
  4024f0:	2403ffff 	li	v1,-1
  4024f4:	14430017 	bne	v0,v1,402554 <main@@Base+0x1dc>
  4024f8:	3c050041 	lui	a1,0x41
  4024fc:	8f8280d0 	lw	v0,-32560(gp)
  402500:	8c440000 	lw	a0,0(v0)
  402504:	240200c3 	li	v0,195
  402508:	afa20010 	sw	v0,16(sp)
  40250c:	24a544cc 	addiu	a1,a1,17612
  402510:	3c060041 	lui	a2,0x41
  402514:	24c64378 	addiu	a2,a2,17272
  402518:	3c070041 	lui	a3,0x41
[31m  40251c:	8f9981c0 	lw	t9,fprintf[0m
  402520:	0320f809 	jalr	t9
  402524:	24e74b70 	addiu	a3,a3,19312
--
  402534:	8f998054 	lw	t9,-32684(gp)
  402538:	0320f809 	jalr	t9
  40253c:	00000000 	nop
  402540:	8e840000 	lw	a0,0(s4)
  402544:	0c100881 	jal	402204 <_ftext@@Base+0x5b4>
  402548:	00000000 	nop
  40254c:	10000594 	b	403ba0 <main@@Base+0x1828>
  402550:	2402ffff 	li	v0,-1
  402554:	8e840000 	lw	a0,0(s4)
  402558:	8f99815c 	lw	t9,-32420(gp)
  40255c:	0320f809 	jalr	t9
  402560:	00000000 	nop
  402564:	8fbc0018 	lw	gp,24(sp)
  402568:	2403ffff 	li	v1,-1
  40256c:	14430018 	bne	v0,v1,4025d0 <main@@Base+0x258>
  402570:	3405ffff 	li	a1,0xffff
  402574:	8f8280d0 	lw	v0,-32560(gp)
  402578:	8c440000 	lw	a0,0(v0)
  40257c:	240200cb 	li	v0,203
  402580:	afa20010 	sw	v0,16(sp)
  402584:	3c050041 	lui	a1,0x41
  402588:	24a54500 	addiu	a1,a1,17664
  40258c:	3c060041 	lui	a2,0x41
  402590:	24c64378 	addiu	a2,a2,17272
  402594:	3c070041 	lui	a3,0x41
[31m  402598:	8f9981c0 	lw	t9,fprintf[0m
  40259c:	0320f809 	jalr	t9
  4025a0:	24e74b70 	addiu	a3,a3,19312
--
  4025bc:	8e840000 	lw	a0,0(s4)
  4025c0:	0c100881 	jal	402204 <_ftext@@Base+0x5b4>
  4025c4:	00000000 	nop
  4025c8:	10000575 	b	403ba0 <main@@Base+0x1828>
  4025cc:	2402ffff 	li	v0,-1
  4025d0:	3c020042 	lui	v0,0x42
  4025d4:	8c446030 	lw	a0,24624(v0)
  4025d8:	24020020 	li	v0,32
  4025dc:	afa20010 	sw	v0,16(sp)
  4025e0:	24060019 	li	a2,25
  4025e4:	8f9981a8 	lw	t9,-32344(gp)
  4025e8:	0320f809 	jalr	t9
  4025ec:	27a70048 	addiu	a3,sp,72
  4025f0:	8fbc0018 	lw	gp,24(sp)
  4025f4:	04410018 	bgez	v0,402658 <main@@Base+0x2e0>
  4025f8:	3405ffff 	li	a1,0xffff
  4025fc:	8f8280d0 	lw	v0,-32560(gp)
  402600:	8c440000 	lw	a0,0(v0)
  402604:	240200d4 	li	v0,212
  402608:	afa20010 	sw	v0,16(sp)
  40260c:	3c050041 	lui	a1,0x41
  402610:	24a54538 	addiu	a1,a1,17720
  402614:	3c060041 	lui	a2,0x41
  402618:	24c64378 	addiu	a2,a2,17272
  40261c:	3c070041 	lui	a3,0x41
[31m  402620:	8f9981c0 	lw	t9,fprintf[0m
  402624:	0320f809 	jalr	t9
  402628:	24e74b70 	addiu	a3,a3,19312
--
  40264c:	00000000 	nop
  402650:	10000553 	b	403ba0 <main@@Base+0x1828>
  402654:	2402ffff 	li	v0,-1
  402658:	24020001 	li	v0,1
  40265c:	afa20020 	sw	v0,32(sp)
  402660:	3c020042 	lui	v0,0x42
  402664:	8c446030 	lw	a0,24624(v0)
  402668:	24020004 	li	v0,4
  40266c:	afa20010 	sw	v0,16(sp)
  402670:	24060020 	li	a2,32
  402674:	8f9981a8 	lw	t9,-32344(gp)
  402678:	0320f809 	jalr	t9
  40267c:	27a70020 	addiu	a3,sp,32
  402680:	8fbc0018 	lw	gp,24(sp)
  402684:	04410018 	bgez	v0,4026e8 <main@@Base+0x370>
  402688:	3405ffff 	li	a1,0xffff
  40268c:	8f8280d0 	lw	v0,-32560(gp)
  402690:	8c440000 	lw	a0,0(v0)
  402694:	240200dc 	li	v0,220
  402698:	afa20010 	sw	v0,16(sp)
  40269c:	3c050041 	lui	a1,0x41
  4026a0:	24a54578 	addiu	a1,a1,17784
  4026a4:	3c060041 	lui	a2,0x41
  4026a8:	24c64378 	addiu	a2,a2,17272
  4026ac:	3c070041 	lui	a3,0x41
[31m  4026b0:	8f9981c0 	lw	t9,fprintf[0m
  4026b4:	0320f809 	jalr	t9
  4026b8:	24e74b70 	addiu	a3,a3,19312
--
  4026dc:	00000000 	nop
  4026e0:	1000052f 	b	403ba0 <main@@Base+0x1828>
  4026e4:	2402ffff 	li	v0,-1
  4026e8:	24020001 	li	v0,1
  4026ec:	afa20020 	sw	v0,32(sp)
  4026f0:	3c020042 	lui	v0,0x42
  4026f4:	8c446030 	lw	a0,24624(v0)
  4026f8:	24020004 	li	v0,4
  4026fc:	afa20010 	sw	v0,16(sp)
  402700:	24060004 	li	a2,4
  402704:	8f9981a8 	lw	t9,-32344(gp)
  402708:	0320f809 	jalr	t9
  40270c:	27a70020 	addiu	a3,sp,32
  402710:	8fbc0018 	lw	gp,24(sp)
  402714:	04410018 	bgez	v0,402778 <main@@Base+0x400>
  402718:	27a50028 	addiu	a1,sp,40
  40271c:	8f8280d0 	lw	v0,-32560(gp)
  402720:	8c440000 	lw	a0,0(v0)
  402724:	240200e4 	li	v0,228
  402728:	afa20010 	sw	v0,16(sp)
  40272c:	3c050041 	lui	a1,0x41
  402730:	24a545b4 	addiu	a1,a1,17844
  402734:	3c060041 	lui	a2,0x41
  402738:	24c64378 	addiu	a2,a2,17272
  40273c:	3c070041 	lui	a3,0x41
[31m  402740:	8f9981c0 	lw	t9,fprintf[0m
  402744:	0320f809 	jalr	t9
  402748:	24e74b70 	addiu	a3,a3,19312
--
  402754:	8c446030 	lw	a0,24624(v0)
  402758:	8f998054 	lw	t9,-32684(gp)
  40275c:	0320f809 	jalr	t9
  402760:	00000000 	nop
  402764:	8e840000 	lw	a0,0(s4)
  402768:	0c100881 	jal	402204 <_ftext@@Base+0x5b4>
  40276c:	00000000 	nop
  402770:	1000050b 	b	403ba0 <main@@Base+0x1828>
  402774:	2402ffff 	li	v0,-1
  402778:	3c020042 	lui	v0,0x42
  40277c:	8c446030 	lw	a0,24624(v0)
  402780:	8f9981bc 	lw	t9,-32324(gp)
  402784:	0320f809 	jalr	t9
  402788:	24060010 	li	a2,16
  40278c:	8fbc0018 	lw	gp,24(sp)
  402790:	04410017 	bgez	v0,4027f0 <main@@Base+0x478>
  402794:	3c050041 	lui	a1,0x41
  402798:	8f8280d0 	lw	v0,-32560(gp)
  40279c:	8c440000 	lw	a0,0(v0)
  4027a0:	240200eb 	li	v0,235
  4027a4:	afa20010 	sw	v0,16(sp)
  4027a8:	24a545f0 	addiu	a1,a1,17904
  4027ac:	3c060041 	lui	a2,0x41
  4027b0:	24c64378 	addiu	a2,a2,17272
  4027b4:	3c070041 	lui	a3,0x41
[31m  4027b8:	8f9981c0 	lw	t9,fprintf[0m
  4027bc:	0320f809 	jalr	t9
  4027c0:	24e74b70 	addiu	a3,a3,19312
--
  4027c8:	3c020042 	lui	v0,0x42
  4027cc:	8c446030 	lw	a0,24624(v0)
  4027d0:	8f998054 	lw	t9,-32684(gp)
  4027d4:	0320f809 	jalr	t9
  4027d8:	00000000 	nop
  4027dc:	8e840000 	lw	a0,0(s4)
  4027e0:	0c100881 	jal	402204 <_ftext@@Base+0x5b4>
  4027e4:	00000000 	nop
  4027e8:	100004ed 	b	403ba0 <main@@Base+0x1828>
  4027ec:	2402ffff 	li	v0,-1
  4027f0:	8f99821c 	lw	t9,-32228(gp)
  4027f4:	0320f809 	jalr	t9
  4027f8:	24040400 	li	a0,1024
  4027fc:	8fbc0018 	lw	gp,24(sp)
  402800:	14400018 	bnez	v0,402864 <main@@Base+0x4ec>
  402804:	00409021 	move	s2,v0
  402808:	8f8280d0 	lw	v0,-32560(gp)
  40280c:	8c440000 	lw	a0,0(v0)
  402810:	240200f5 	li	v0,245
  402814:	afa20010 	sw	v0,16(sp)
  402818:	3c050041 	lui	a1,0x41
  40281c:	24a54618 	addiu	a1,a1,17944
  402820:	3c060041 	lui	a2,0x41
  402824:	24c64378 	addiu	a2,a2,17272
  402828:	3c070041 	lui	a3,0x41
[31m  40282c:	8f9981c0 	lw	t9,fprintf[0m
  402830:	0320f809 	jalr	t9
  402834:	24e74b70 	addiu	a3,a3,19312
--
  40283c:	3c020042 	lui	v0,0x42
  402840:	8c446030 	lw	a0,24624(v0)
  402844:	8f998054 	lw	t9,-32684(gp)
  402848:	0320f809 	jalr	t9
  40284c:	00000000 	nop
  402850:	8e840000 	lw	a0,0(s4)
  402854:	0c100881 	jal	402204 <_ftext@@Base+0x5b4>
  402858:	00000000 	nop
  40285c:	100004d0 	b	403ba0 <main@@Base+0x1828>
  402860:	2402ffff 	li	v0,-1
  402864:	8f99821c 	lw	t9,-32228(gp)
  402868:	0320f809 	jalr	t9
  40286c:	24040400 	li	a0,1024
  402870:	8fbc0018 	lw	gp,24(sp)
  402874:	1440001c 	bnez	v0,4028e8 <main@@Base+0x570>
  402878:	00408821 	move	s1,v0
  40287c:	8f8280d0 	lw	v0,-32560(gp)
  402880:	8c440000 	lw	a0,0(v0)
  402884:	240200fe 	li	v0,254
  402888:	afa20010 	sw	v0,16(sp)
  40288c:	3c050041 	lui	a1,0x41
  402890:	24a54650 	addiu	a1,a1,18000
  402894:	3c060041 	lui	a2,0x41
  402898:	24c64378 	addiu	a2,a2,17272
  40289c:	3c070041 	lui	a3,0x41
[31m  4028a0:	8f9981c0 	lw	t9,fprintf[0m
  4028a4:	0320f809 	jalr	t9
  4028a8:	24e74b70 	addiu	a3,a3,19312
--
  4028c4:	8fbc0018 	lw	gp,24(sp)
  4028c8:	8f998040 	lw	t9,-32704(gp)
  4028cc:	0320f809 	jalr	t9
  4028d0:	02402021 	move	a0,s2
  4028d4:	8e840000 	lw	a0,0(s4)
  4028d8:	0c100881 	jal	402204 <_ftext@@Base+0x5b4>
  4028dc:	00000000 	nop
  4028e0:	100004af 	b	403ba0 <main@@Base+0x1828>
  4028e4:	2402ffff 	li	v0,-1
  4028e8:	8f99821c 	lw	t9,-32228(gp)
  4028ec:	0320f809 	jalr	t9
  4028f0:	24040400 	li	a0,1024
  4028f4:	8fbc0018 	lw	gp,24(sp)
  4028f8:	3c030042 	lui	v1,0x42
  4028fc:	14400020 	bnez	v0,402980 <main@@Base+0x608>
  402900:	ac626440 	sw	v0,25664(v1)
  402904:	8f8280d0 	lw	v0,-32560(gp)
  402908:	8c440000 	lw	a0,0(v0)
  40290c:	2402010c 	li	v0,268
  402910:	afa20010 	sw	v0,16(sp)
  402914:	3c050041 	lui	a1,0x41
  402918:	24a54688 	addiu	a1,a1,18056
  40291c:	3c060041 	lui	a2,0x41
  402920:	24c64378 	addiu	a2,a2,17272
  402924:	3c070041 	lui	a3,0x41
[31m  402928:	8f9981c0 	lw	t9,fprintf[0m
  40292c:	0320f809 	jalr	t9
  402930:	24e74b70 	addiu	a3,a3,19312
--
  40295c:	8fbc0018 	lw	gp,24(sp)
  402960:	8f998040 	lw	t9,-32704(gp)
  402964:	0320f809 	jalr	t9
  402968:	02202021 	move	a0,s1
  40296c:	8e840000 	lw	a0,0(s4)
  402970:	0c100881 	jal	402204 <_ftext@@Base+0x5b4>
  402974:	00000000 	nop
  402978:	10000489 	b	403ba0 <main@@Base+0x1828>
  40297c:	2402ffff 	li	v0,-1
  402980:	8f99821c 	lw	t9,-32228(gp)
  402984:	0320f809 	jalr	t9
  402988:	24045554 	li	a0,21844
  40298c:	8fbc0018 	lw	gp,24(sp)
  402990:	3c030042 	lui	v1,0x42
  402994:	1440002a 	bnez	v0,402a40 <main@@Base+0x6c8>
  402998:	ac626444 	sw	v0,25668(v1)
  40299c:	8f8280d0 	lw	v0,-32560(gp)
  4029a0:	8c440000 	lw	a0,0(v0)
  4029a4:	2402011f 	li	v0,287
  4029a8:	afa20010 	sw	v0,16(sp)
  4029ac:	3c050041 	lui	a1,0x41
  4029b0:	24a546cc 	addiu	a1,a1,18124
  4029b4:	3c060041 	lui	a2,0x41
  4029b8:	24c64378 	addiu	a2,a2,17272
  4029bc:	3c070041 	lui	a3,0x41
[31m  4029c0:	8f9981c0 	lw	t9,fprintf[0m
  4029c4:	0320f809 	jalr	t9
  4029c8:	24e74b70 	addiu	a3,a3,19312
--
  402a08:	3c020042 	lui	v0,0x42
  402a0c:	8c446440 	lw	a0,25664(v0)
  402a10:	10800006 	beqz	a0,402a2c <main@@Base+0x6b4>
  402a14:	00000000 	nop
  402a18:	8f998040 	lw	t9,-32704(gp)
  402a1c:	0320f809 	jalr	t9
  402a20:	00000000 	nop
  402a24:	3c020042 	lui	v0,0x42
  402a28:	ac406440 	sw	zero,25664(v0)
  402a2c:	8e840000 	lw	a0,0(s4)
  402a30:	0c100881 	jal	402204 <_ftext@@Base+0x5b4>
  402a34:	00000000 	nop
  402a38:	10000459 	b	403ba0 <main@@Base+0x1828>
  402a3c:	2402ffff 	li	v0,-1
  402a40:	8f8280d0 	lw	v0,-32560(gp)
  402a44:	8c440000 	lw	a0,0(v0)
  402a48:	24020138 	li	v0,312
  402a4c:	afa20010 	sw	v0,16(sp)
  402a50:	8e820000 	lw	v0,0(s4)
  402a54:	afa20014 	sw	v0,20(sp)
  402a58:	3c050041 	lui	a1,0x41
  402a5c:	24a5470c 	addiu	a1,a1,18188
  402a60:	3c060041 	lui	a2,0x41
  402a64:	24c64378 	addiu	a2,a2,17272
  402a68:	3c070041 	lui	a3,0x41
[31m  402a6c:	8f9981c0 	lw	t9,fprintf[0m
  402a70:	0320f809 	jalr	t9
  402a74:	24e74b70 	addiu	a3,a3,19312
--
  402b48:	afa00010 	sw	zero,16(sp)
  402b4c:	24840001 	addiu	a0,a0,1
  402b50:	27a50068 	addiu	a1,sp,104
  402b54:	8f998200 	lw	t9,-32256(gp)
  402b58:	0320f809 	jalr	t9
  402b5c:	00003821 	move	a3,zero
  402b60:	8fbc0018 	lw	gp,24(sp)
  402b64:	04410016 	bgez	v0,402bc0 <main@@Base+0x848>
  402b68:	3c020042 	lui	v0,0x42
  402b6c:	8f9980ac 	lw	t9,-32596(gp)
  402b70:	0320f809 	jalr	t9
  402b74:	00000000 	nop
  402b78:	8fbc0018 	lw	gp,24(sp)
  402b7c:	8c430000 	lw	v1,0(v0)
  402b80:	24020004 	li	v0,4
  402b84:	106203af 	beq	v1,v0,403a44 <main@@Base+0x16cc>
  402b88:	3c050041 	lui	a1,0x41
  402b8c:	8f8280d0 	lw	v0,-32560(gp)
  402b90:	8c440000 	lw	a0,0(v0)
  402b94:	24020149 	li	v0,329
  402b98:	afa20010 	sw	v0,16(sp)
  402b9c:	24a5474c 	addiu	a1,a1,18252
  402ba0:	3c060041 	lui	a2,0x41
  402ba4:	24c64378 	addiu	a2,a2,17272
  402ba8:	3c070041 	lui	a3,0x41
[31m  402bac:	8f9981c0 	lw	t9,fprintf[0m
  402bb0:	0320f809 	jalr	t9
  402bb4:	24e74b70 	addiu	a3,a3,19312
--
  402c04:	afb60010 	sw	s6,16(sp)
  402c08:	27a20024 	addiu	v0,sp,36
  402c0c:	afa20014 	sw	v0,20(sp)
  402c10:	02402821 	move	a1,s2
  402c14:	24060400 	li	a2,1024
  402c18:	8f998214 	lw	t9,-32236(gp)
  402c1c:	0320f809 	jalr	t9
  402c20:	00003821 	move	a3,zero
  402c24:	8fbc0018 	lw	gp,24(sp)
  402c28:	2c420016 	sltiu	v0,v0,22
  402c2c:	14400385 	bnez	v0,403a44 <main@@Base+0x16cc>
  402c30:	00000000 	nop
  402c34:	8f8280d0 	lw	v0,-32560(gp)
  402c38:	8c500000 	lw	s0,0(v0)
  402c3c:	8fa4003c 	lw	a0,60(sp)
  402c40:	8f998114 	lw	t9,-32492(gp)
  402c44:	0320f809 	jalr	t9
  402c48:	00000000 	nop
  402c4c:	8fbc0018 	lw	gp,24(sp)
  402c50:	24030157 	li	v1,343
  402c54:	afa30010 	sw	v1,16(sp)
  402c58:	afa20014 	sw	v0,20(sp)
  402c5c:	02002021 	move	a0,s0
  402c60:	8fa600f0 	lw	a2,240(sp)
  402c64:	8fa700f4 	lw	a3,244(sp)
[31m  402c68:	8f9981c0 	lw	t9,fprintf[0m
  402c6c:	0320f809 	jalr	t9
  402c70:	03c02821 	move	a1,s8
--
  403b2c:	8fbc0018 	lw	gp,24(sp)
  403b30:	3c020042 	lui	v0,0x42
  403b34:	ac406440 	sw	zero,25664(v0)
  403b38:	3c020042 	lui	v0,0x42
  403b3c:	8c446444 	lw	a0,25668(v0)
  403b40:	10800006 	beqz	a0,403b5c <main@@Base+0x17e4>
  403b44:	00000000 	nop
  403b48:	8f998040 	lw	t9,-32704(gp)
  403b4c:	0320f809 	jalr	t9
  403b50:	00000000 	nop
  403b54:	3c020042 	lui	v0,0x42
  403b58:	ac406444 	sw	zero,25668(v0)
  403b5c:	8e840000 	lw	a0,0(s4)
  403b60:	0c100881 	jal	402204 <_ftext@@Base+0x5b4>
  403b64:	00000000 	nop
  403b68:	8fbc0018 	lw	gp,24(sp)
  403b6c:	8f8280d0 	lw	v0,-32560(gp)
  403b70:	8c440000 	lw	a0,0(v0)
  403b74:	240202e8 	li	v0,744
  403b78:	afa20010 	sw	v0,16(sp)
  403b7c:	3c050041 	lui	a1,0x41
  403b80:	24a54ab8 	addiu	a1,a1,19128
  403b84:	3c060041 	lui	a2,0x41
  403b88:	24c64378 	addiu	a2,a2,17272
  403b8c:	3c070041 	lui	a3,0x41
[31m  403b90:	8f9981c0 	lw	t9,fprintf[0m
  403b94:	0320f809 	jalr	t9
  403b98:	24e74b70 	addiu	a3,a3,19312
--
  403bfc:	3c1c0043 	lui	gp,0x43
  403c00:	279ce140 	addiu	gp,gp,-7872
  403c04:	afbc0018 	sw	gp,24(sp)
  403c08:	00808821 	move	s1,a0
  403c0c:	00a08021 	move	s0,a1
  403c10:	afa704fc 	sw	a3,1276(sp)
  403c14:	8fb30500 	lw	s3,1280(sp)
  403c18:	3c020041 	lui	v0,0x41
  403c1c:	90424ee0 	lbu	v0,20192(v0)
  403c20:	a3a20020 	sb	v0,32(sp)
  403c24:	27a40021 	addiu	a0,sp,33
  403c28:	00002821 	move	a1,zero
  403c2c:	8f99812c 	lw	t9,-32468(gp)
  403c30:	0320f809 	jalr	t9
  403c34:	240603ff 	li	a2,1023
  403c38:	8fbc0018 	lw	gp,24(sp)
  403c3c:	8f8280d0 	lw	v0,-32560(gp)
  403c40:	8c440000 	lw	a0,0(v0)
  403c44:	24020dbb 	li	v0,3515
  403c48:	afa20010 	sw	v0,16(sp)
  403c4c:	3c050041 	lui	a1,0x41
  403c50:	24a54b90 	addiu	a1,a1,19344
  403c54:	3c060041 	lui	a2,0x41
  403c58:	24c64bac 	addiu	a2,a2,19372
  403c5c:	3c070041 	lui	a3,0x41
[31m  403c60:	8f9981c0 	lw	t9,fprintf[0m
  403c64:	0320f809 	jalr	t9
  403c68:	24e752e0 	addiu	a3,a3,21216
--
  404518:	00808021 	move	s0,a0
  40451c:	00a08821 	move	s1,a1
  404520:	00c0b021 	move	s6,a2
  404524:	90930000 	lbu	s3,0(a0)
  404528:	00139a00 	sll	s3,s3,0x8
  40452c:	90820001 	lbu	v0,1(a0)
  404530:	00539825 	or	s3,v0,s3
  404534:	90940012 	lbu	s4,18(a0)
  404538:	0014a200 	sll	s4,s4,0x8
  40453c:	90820013 	lbu	v0,19(a0)
  404540:	0054a025 	or	s4,v0,s4
  404544:	90970014 	lbu	s7,20(a0)
  404548:	0017ba00 	sll	s7,s7,0x8
  40454c:	90820015 	lbu	v0,21(a0)
  404550:	0057b825 	or	s7,v0,s7
  404554:	3c150041 	lui	s5,0x41
  404558:	26b54b90 	addiu	s5,s5,19344
  40455c:	8f8280d0 	lw	v0,-32560(gp)
  404560:	8c440000 	lw	a0,0(v0)
  404564:	2402062a 	li	v0,1578
  404568:	afa20010 	sw	v0,16(sp)
  40456c:	02a02821 	move	a1,s5
  404570:	3c060041 	lui	a2,0x41
  404574:	24c64bac 	addiu	a2,a2,19372
  404578:	3c070041 	lui	a3,0x41
[31m  40457c:	8f9981c0 	lw	t9,fprintf[0m
  404580:	0320f809 	jalr	t9
  404584:	24e753bc 	addiu	a3,a3,21436
  404588:	8fbc0018 	lw	gp,24(sp)
  40458c:	00131200 	sll	v0,s3,0x8
  404590:	3042ffff 	andi	v0,v0,0xffff
  404594:	00139a02 	srl	s3,s3,0x8
  404598:	00539825 	or	s3,v0,s3
  40459c:	3402fdfd 	li	v0,0xfdfd
  4045a0:	1262000d 	beq	s3,v0,4045d8 <fillSiteSurveyInfo@@Base+0xa08>
  4045a4:	02a02821 	move	a1,s5
  4045a8:	8f8280d0 	lw	v0,-32560(gp)
  4045ac:	8c440000 	lw	a0,0(v0)
  4045b0:	2402062e 	li	v0,1582
  4045b4:	afa20010 	sw	v0,16(sp)
  4045b8:	3c060041 	lui	a2,0x41
  4045bc:	24c64bac 	addiu	a2,a2,19372
  4045c0:	3c070041 	lui	a3,0x41
[31m  4045c4:	8f9981c0 	lw	t9,fprintf[0m
  4045c8:	0320f809 	jalr	t9
  4045cc:	24e753bc 	addiu	a3,a3,21436
  4045d0:	1000008a 	b	4047fc <fillSiteSurveyInfo@@Base+0xc2c>
  4045d4:	2402ffff 	li	v0,-1
  4045d8:	00141200 	sll	v0,s4,0x8
  4045dc:	3042ffff 	andi	v0,v0,0xffff
  4045e0:	0014a202 	srl	s4,s4,0x8
  4045e4:	0054a025 	or	s4,v0,s4
  4045e8:	24020002 	li	v0,2
  4045ec:	1282000e 	beq	s4,v0,404628 <fillSiteSurveyInfo@@Base+0xa58>
  4045f0:	26040006 	addiu	a0,s0,6
  4045f4:	8f8280d0 	lw	v0,-32560(gp)
  4045f8:	8c440000 	lw	a0,0(v0)
  4045fc:	24020634 	li	v0,1588
  404600:	afa20010 	sw	v0,16(sp)
  404604:	02a02821 	move	a1,s5
  404608:	3c060041 	lui	a2,0x41
  40460c:	24c64bac 	addiu	a2,a2,19372
  404610:	3c070041 	lui	a3,0x41
[31m  404614:	8f9981c0 	lw	t9,fprintf[0m
  404618:	0320f809 	jalr	t9
  40461c:	24e753bc 	addiu	a3,a3,21436
  404620:	10000076 	b	4047fc <fillSiteSurveyInfo@@Base+0xc2c>
  404624:	2402ffff 	li	v0,-1
  404628:	24050006 	li	a1,6
  40462c:	8f8681ec 	lw	a2,-32276(gp)
  404630:	8f99828c 	lw	t9,-32116(gp)
  404634:	0320f809 	jalr	t9
  404638:	24070006 	li	a3,6
  40463c:	8fbc0018 	lw	gp,24(sp)
  404640:	1040000e 	beqz	v0,40467c <fillSiteSurveyInfo@@Base+0xaac>
  404644:	2ad60098 	slti	s6,s6,152
  404648:	8f8280d0 	lw	v0,-32560(gp)
  40464c:	8c440000 	lw	a0,0(v0)
  404650:	24020642 	li	v0,1602
  404654:	afa20010 	sw	v0,16(sp)
  404658:	02a02821 	move	a1,s5
  40465c:	3c060041 	lui	a2,0x41
  404660:	24c64bac 	addiu	a2,a2,19372
  404664:	3c070041 	lui	a3,0x41
[31m  404668:	8f9981c0 	lw	t9,fprintf[0m
  40466c:	0320f809 	jalr	t9
  404670:	24e753bc 	addiu	a3,a3,21436
--
  40485c:	00808021 	move	s0,a0
  404860:	00a08821 	move	s1,a1
  404864:	00c0b021 	move	s6,a2
  404868:	90930000 	lbu	s3,0(a0)
  40486c:	00139a00 	sll	s3,s3,0x8
  404870:	90820001 	lbu	v0,1(a0)
  404874:	00539825 	or	s3,v0,s3
  404878:	90940012 	lbu	s4,18(a0)
  40487c:	0014a200 	sll	s4,s4,0x8
  404880:	90820013 	lbu	v0,19(a0)
  404884:	0054a025 	or	s4,v0,s4
  404888:	90970014 	lbu	s7,20(a0)
  40488c:	0017ba00 	sll	s7,s7,0x8
  404890:	90820015 	lbu	v0,21(a0)
  404894:	0057b825 	or	s7,v0,s7
  404898:	3c150041 	lui	s5,0x41
  40489c:	26b54b90 	addiu	s5,s5,19344
  4048a0:	8f8280d0 	lw	v0,-32560(gp)
  4048a4:	8c440000 	lw	a0,0(v0)
  4048a8:	24020586 	li	v0,1414
  4048ac:	afa20010 	sw	v0,16(sp)
  4048b0:	02a02821 	move	a1,s5
  4048b4:	3c060041 	lui	a2,0x41
  4048b8:	24c64bac 	addiu	a2,a2,19372
  4048bc:	3c070041 	lui	a3,0x41
[31m  4048c0:	8f9981c0 	lw	t9,fprintf[0m
  4048c4:	0320f809 	jalr	t9
  4048c8:	24e753cc 	addiu	a3,a3,21452
  4048cc:	8fbc0018 	lw	gp,24(sp)
  4048d0:	00131200 	sll	v0,s3,0x8
  4048d4:	3042ffff 	andi	v0,v0,0xffff
  4048d8:	00139a02 	srl	s3,s3,0x8
  4048dc:	00539825 	or	s3,v0,s3
  4048e0:	3402fdfd 	li	v0,0xfdfd
  4048e4:	1262000d 	beq	s3,v0,40491c <fillSiteSurveyInfo@@Base+0xd4c>
  4048e8:	02a02821 	move	a1,s5
  4048ec:	8f8280d0 	lw	v0,-32560(gp)
  4048f0:	8c440000 	lw	a0,0(v0)
  4048f4:	2402058a 	li	v0,1418
  4048f8:	afa20010 	sw	v0,16(sp)
  4048fc:	3c060041 	lui	a2,0x41
  404900:	24c64bac 	addiu	a2,a2,19372
  404904:	3c070041 	lui	a3,0x41
[31m  404908:	8f9981c0 	lw	t9,fprintf[0m
  40490c:	0320f809 	jalr	t9
  404910:	24e753cc 	addiu	a3,a3,21452
  404914:	1000008a 	b	404b40 <fillSiteSurveyInfo@@Base+0xf70>
  404918:	2402ffff 	li	v0,-1
  40491c:	00141200 	sll	v0,s4,0x8
  404920:	3042ffff 	andi	v0,v0,0xffff
  404924:	0014a202 	srl	s4,s4,0x8
  404928:	0054a025 	or	s4,v0,s4
  40492c:	24020002 	li	v0,2
  404930:	1282000e 	beq	s4,v0,40496c <fillSiteSurveyInfo@@Base+0xd9c>
  404934:	26040006 	addiu	a0,s0,6
  404938:	8f8280d0 	lw	v0,-32560(gp)
  40493c:	8c440000 	lw	a0,0(v0)
  404940:	24020590 	li	v0,1424
  404944:	afa20010 	sw	v0,16(sp)
  404948:	02a02821 	move	a1,s5
  40494c:	3c060041 	lui	a2,0x41
  404950:	24c64bac 	addiu	a2,a2,19372
  404954:	3c070041 	lui	a3,0x41
[31m  404958:	8f9981c0 	lw	t9,fprintf[0m
  40495c:	0320f809 	jalr	t9
  404960:	24e753cc 	addiu	a3,a3,21452
  404964:	10000076 	b	404b40 <fillSiteSurveyInfo@@Base+0xf70>
  404968:	2402ffff 	li	v0,-1
  40496c:	24050006 	li	a1,6
  404970:	8f8681ec 	lw	a2,-32276(gp)
  404974:	8f99828c 	lw	t9,-32116(gp)
  404978:	0320f809 	jalr	t9
  40497c:	24070006 	li	a3,6
  404980:	8fbc0018 	lw	gp,24(sp)
  404984:	1040000e 	beqz	v0,4049c0 <fillSiteSurveyInfo@@Base+0xdf0>
  404988:	2ad60098 	slti	s6,s6,152
  40498c:	8f8280d0 	lw	v0,-32560(gp)
  404990:	8c440000 	lw	a0,0(v0)
  404994:	2402059e 	li	v0,1438
  404998:	afa20010 	sw	v0,16(sp)
  40499c:	02a02821 	move	a1,s5
  4049a0:	3c060041 	lui	a2,0x41
  4049a4:	24c64bac 	addiu	a2,a2,19372
  4049a8:	3c070041 	lui	a3,0x41
[31m  4049ac:	8f9981c0 	lw	t9,fprintf[0m
  4049b0:	0320f809 	jalr	t9
  4049b4:	24e753cc 	addiu	a3,a3,21452
--
  404b88:	afb0002c 	sw	s0,44(sp)
  404b8c:	3c1c0043 	lui	gp,0x43
  404b90:	279ce140 	addiu	gp,gp,-7872
  404b94:	afbc0018 	sw	gp,24(sp)
  404b98:	00a08821 	move	s1,a1
  404b9c:	00c0a821 	move	s5,a2
  404ba0:	00808021 	move	s0,a0
  404ba4:	90920000 	lbu	s2,0(a0)
  404ba8:	00129200 	sll	s2,s2,0x8
  404bac:	90820001 	lbu	v0,1(a0)
  404bb0:	00529025 	or	s2,v0,s2
  404bb4:	90930012 	lbu	s3,18(a0)
  404bb8:	00139a00 	sll	s3,s3,0x8
  404bbc:	90820013 	lbu	v0,19(a0)
  404bc0:	00539825 	or	s3,v0,s3
  404bc4:	3c140041 	lui	s4,0x41
  404bc8:	26944b90 	addiu	s4,s4,19344
  404bcc:	8f8280d0 	lw	v0,-32560(gp)
  404bd0:	8c440000 	lw	a0,0(v0)
  404bd4:	24020532 	li	v0,1330
  404bd8:	afa20010 	sw	v0,16(sp)
  404bdc:	02802821 	move	a1,s4
  404be0:	3c060041 	lui	a2,0x41
  404be4:	24c64bac 	addiu	a2,a2,19372
  404be8:	3c070041 	lui	a3,0x41
[31m  404bec:	8f9981c0 	lw	t9,fprintf[0m
  404bf0:	0320f809 	jalr	t9
  404bf4:	24e753e0 	addiu	a3,a3,21472
  404bf8:	8fbc0018 	lw	gp,24(sp)
  404bfc:	00121200 	sll	v0,s2,0x8
  404c00:	3042ffff 	andi	v0,v0,0xffff
  404c04:	00129202 	srl	s2,s2,0x8
  404c08:	00529025 	or	s2,v0,s2
  404c0c:	3402fdfd 	li	v0,0xfdfd
  404c10:	1242000d 	beq	s2,v0,404c48 <alert_info@@Base+0xdc>
  404c14:	02802821 	move	a1,s4
  404c18:	8f8280d0 	lw	v0,-32560(gp)
  404c1c:	8c440000 	lw	a0,0(v0)
  404c20:	24020536 	li	v0,1334
  404c24:	afa20010 	sw	v0,16(sp)
  404c28:	3c060041 	lui	a2,0x41
  404c2c:	24c64bac 	addiu	a2,a2,19372
  404c30:	3c070041 	lui	a3,0x41
[31m  404c34:	8f9981c0 	lw	t9,fprintf[0m
  404c38:	0320f809 	jalr	t9
  404c3c:	24e753e0 	addiu	a3,a3,21472
  404c40:	1000005b 	b	404db0 <alert_info@@Base+0x244>
  404c44:	2402ffff 	li	v0,-1
  404c48:	00131200 	sll	v0,s3,0x8
  404c4c:	3042ffff 	andi	v0,v0,0xffff
  404c50:	00139a02 	srl	s3,s3,0x8
  404c54:	00539825 	or	s3,v0,s3
  404c58:	24020002 	li	v0,2
  404c5c:	1262000e 	beq	s3,v0,404c98 <alert_info@@Base+0x12c>
  404c60:	26040006 	addiu	a0,s0,6
  404c64:	8f8280d0 	lw	v0,-32560(gp)
  404c68:	8c440000 	lw	a0,0(v0)
  404c6c:	2402053c 	li	v0,1340
  404c70:	afa20010 	sw	v0,16(sp)
  404c74:	02802821 	move	a1,s4
  404c78:	3c060041 	lui	a2,0x41
  404c7c:	24c64bac 	addiu	a2,a2,19372
  404c80:	3c070041 	lui	a3,0x41
[31m  404c84:	8f9981c0 	lw	t9,fprintf[0m
  404c88:	0320f809 	jalr	t9
  404c8c:	24e753e0 	addiu	a3,a3,21472
  404c90:	10000047 	b	404db0 <alert_info@@Base+0x244>
  404c94:	2402ffff 	li	v0,-1
  404c98:	24050006 	li	a1,6
  404c9c:	8f8681ec 	lw	a2,-32276(gp)
  404ca0:	8f99828c 	lw	t9,-32116(gp)
  404ca4:	0320f809 	jalr	t9
  404ca8:	24070006 	li	a3,6
  404cac:	8fbc0018 	lw	gp,24(sp)
  404cb0:	1040000e 	beqz	v0,404cec <alert_info@@Base+0x180>
  404cb4:	2ab50096 	slti	s5,s5,150
  404cb8:	8f8280d0 	lw	v0,-32560(gp)
  404cbc:	8c440000 	lw	a0,0(v0)
  404cc0:	2402054a 	li	v0,1354
  404cc4:	afa20010 	sw	v0,16(sp)
  404cc8:	02802821 	move	a1,s4
  404ccc:	3c060041 	lui	a2,0x41
  404cd0:	24c64bac 	addiu	a2,a2,19372
  404cd4:	3c070041 	lui	a3,0x41
[31m  404cd8:	8f9981c0 	lw	t9,fprintf[0m
  404cdc:	0320f809 	jalr	t9
  404ce0:	24e753e0 	addiu	a3,a3,21472
--
  404e00:	279ce140 	addiu	gp,gp,-7872
  404e04:	afbc0018 	sw	gp,24(sp)
  404e08:	00808021 	move	s0,a0
  404e0c:	00a0b821 	move	s7,a1
  404e10:	00c0b021 	move	s6,a2
  404e14:	10e00096 	beqz	a3,405070 <checkSiteSurveyRequest@@Base+0x29c>
  404e18:	00e0a021 	move	s4,a3
  404e1c:	90920000 	lbu	s2,0(a0)
  404e20:	00129200 	sll	s2,s2,0x8
  404e24:	90820001 	lbu	v0,1(a0)
  404e28:	00529025 	or	s2,v0,s2
  404e2c:	90930012 	lbu	s3,18(a0)
  404e30:	00139a00 	sll	s3,s3,0x8
  404e34:	90820013 	lbu	v0,19(a0)
  404e38:	00539825 	or	s3,v0,s3
  404e3c:	3c150041 	lui	s5,0x41
  404e40:	26b54b90 	addiu	s5,s5,19344
  404e44:	8f8280d0 	lw	v0,-32560(gp)
  404e48:	8c440000 	lw	a0,0(v0)
  404e4c:	24020d57 	li	v0,3415
  404e50:	afa20010 	sw	v0,16(sp)
  404e54:	02a02821 	move	a1,s5
  404e58:	3c060041 	lui	a2,0x41
  404e5c:	24c64bac 	addiu	a2,a2,19372
  404e60:	3c070041 	lui	a3,0x41
[31m  404e64:	8f9981c0 	lw	t9,fprintf[0m
  404e68:	0320f809 	jalr	t9
  404e6c:	24e752f4 	addiu	a3,a3,21236
  404e70:	8fbc0018 	lw	gp,24(sp)
  404e74:	00121200 	sll	v0,s2,0x8
  404e78:	3042ffff 	andi	v0,v0,0xffff
  404e7c:	00129202 	srl	s2,s2,0x8
  404e80:	00529025 	or	s2,v0,s2
  404e84:	3402fdfd 	li	v0,0xfdfd
  404e88:	1242000d 	beq	s2,v0,404ec0 <checkSiteSurveyRequest@@Base+0xec>
  404e8c:	02a02821 	move	a1,s5
  404e90:	8f8280d0 	lw	v0,-32560(gp)
  404e94:	8c440000 	lw	a0,0(v0)
  404e98:	24020d5b 	li	v0,3419
  404e9c:	afa20010 	sw	v0,16(sp)
  404ea0:	3c060041 	lui	a2,0x41
  404ea4:	24c64bac 	addiu	a2,a2,19372
  404ea8:	3c070041 	lui	a3,0x41
[31m  404eac:	8f9981c0 	lw	t9,fprintf[0m
  404eb0:	0320f809 	jalr	t9
  404eb4:	24e752f4 	addiu	a3,a3,21236
  404eb8:	1000006e 	b	405074 <checkSiteSurveyRequest@@Base+0x2a0>
  404ebc:	2402ffff 	li	v0,-1
  404ec0:	00131200 	sll	v0,s3,0x8
  404ec4:	3042ffff 	andi	v0,v0,0xffff
  404ec8:	00139a02 	srl	s3,s3,0x8
  404ecc:	00539825 	or	s3,v0,s3
  404ed0:	24020002 	li	v0,2
  404ed4:	1262000e 	beq	s3,v0,404f10 <checkSiteSurveyRequest@@Base+0x13c>
  404ed8:	26040006 	addiu	a0,s0,6
  404edc:	8f8280d0 	lw	v0,-32560(gp)
  404ee0:	8c440000 	lw	a0,0(v0)
  404ee4:	24020d61 	li	v0,3425
  404ee8:	afa20010 	sw	v0,16(sp)
  404eec:	02a02821 	move	a1,s5
  404ef0:	3c060041 	lui	a2,0x41
  404ef4:	24c64bac 	addiu	a2,a2,19372
  404ef8:	3c070041 	lui	a3,0x41
[31m  404efc:	8f9981c0 	lw	t9,fprintf[0m
  404f00:	0320f809 	jalr	t9
  404f04:	24e752f4 	addiu	a3,a3,21236
  404f08:	1000005a 	b	405074 <checkSiteSurveyRequest@@Base+0x2a0>
  404f0c:	2402ffff 	li	v0,-1
  404f10:	24050006 	li	a1,6
  404f14:	8f8681ec 	lw	a2,-32276(gp)
  404f18:	8f99828c 	lw	t9,-32116(gp)
  404f1c:	0320f809 	jalr	t9
  404f20:	24070006 	li	a3,6
  404f24:	8fbc0018 	lw	gp,24(sp)
  404f28:	1040000e 	beqz	v0,404f64 <checkSiteSurveyRequest@@Base+0x190>
  404f2c:	2ad602ea 	slti	s6,s6,746
  404f30:	8f8280d0 	lw	v0,-32560(gp)
  404f34:	8c440000 	lw	a0,0(v0)
  404f38:	24020d6f 	li	v0,3439
  404f3c:	afa20010 	sw	v0,16(sp)
  404f40:	02a02821 	move	a1,s5
  404f44:	3c060041 	lui	a2,0x41
  404f48:	24c64bac 	addiu	a2,a2,19372
  404f4c:	3c070041 	lui	a3,0x41
[31m  404f50:	8f9981c0 	lw	t9,fprintf[0m
  404f54:	0320f809 	jalr	t9
  404f58:	24e752f4 	addiu	a3,a3,21236
--
  4050c0:	afb00028 	sw	s0,40(sp)
  4050c4:	3c1c0043 	lui	gp,0x43
  4050c8:	279ce140 	addiu	gp,gp,-7872
  4050cc:	afbc0018 	sw	gp,24(sp)
  4050d0:	00808021 	move	s0,a0
  4050d4:	00a0b021 	move	s6,a1
  4050d8:	00c0a821 	move	s5,a2
  4050dc:	90920000 	lbu	s2,0(a0)
  4050e0:	00129200 	sll	s2,s2,0x8
  4050e4:	90820001 	lbu	v0,1(a0)
  4050e8:	00529025 	or	s2,v0,s2
  4050ec:	90930012 	lbu	s3,18(a0)
  4050f0:	00139a00 	sll	s3,s3,0x8
  4050f4:	90820013 	lbu	v0,19(a0)
  4050f8:	00539825 	or	s3,v0,s3
  4050fc:	3c140041 	lui	s4,0x41
  405100:	26944b90 	addiu	s4,s4,19344
  405104:	8f8280d0 	lw	v0,-32560(gp)
  405108:	8c440000 	lw	a0,0(v0)
  40510c:	24020cff 	li	v0,3327
  405110:	afa20010 	sw	v0,16(sp)
  405114:	02802821 	move	a1,s4
  405118:	3c060041 	lui	a2,0x41
  40511c:	24c64bac 	addiu	a2,a2,19372
  405120:	3c070041 	lui	a3,0x41
[31m  405124:	8f9981c0 	lw	t9,fprintf[0m
  405128:	0320f809 	jalr	t9
  40512c:	24e7530c 	addiu	a3,a3,21260
  405130:	8fbc0018 	lw	gp,24(sp)
  405134:	00121200 	sll	v0,s2,0x8
  405138:	3042ffff 	andi	v0,v0,0xffff
  40513c:	00129202 	srl	s2,s2,0x8
  405140:	00529025 	or	s2,v0,s2
  405144:	3402fdfd 	li	v0,0xfdfd
  405148:	1242000d 	beq	s2,v0,405180 <commit_setting@@Base+0xe0>
  40514c:	02802821 	move	a1,s4
  405150:	8f8280d0 	lw	v0,-32560(gp)
  405154:	8c440000 	lw	a0,0(v0)
  405158:	24020d03 	li	v0,3331
  40515c:	afa20010 	sw	v0,16(sp)
  405160:	3c060041 	lui	a2,0x41
  405164:	24c64bac 	addiu	a2,a2,19372
  405168:	3c070041 	lui	a3,0x41
[31m  40516c:	8f9981c0 	lw	t9,fprintf[0m
  405170:	0320f809 	jalr	t9
  405174:	24e7530c 	addiu	a3,a3,21260
  405178:	1000006b 	b	405328 <commit_setting@@Base+0x288>
  40517c:	2402ffff 	li	v0,-1
  405180:	00131200 	sll	v0,s3,0x8
  405184:	3042ffff 	andi	v0,v0,0xffff
  405188:	00139a02 	srl	s3,s3,0x8
  40518c:	00539825 	or	s3,v0,s3
  405190:	24020002 	li	v0,2
  405194:	1262000e 	beq	s3,v0,4051d0 <commit_setting@@Base+0x130>
  405198:	26040006 	addiu	a0,s0,6
  40519c:	8f8280d0 	lw	v0,-32560(gp)
  4051a0:	8c440000 	lw	a0,0(v0)
  4051a4:	24020d09 	li	v0,3337
  4051a8:	afa20010 	sw	v0,16(sp)
  4051ac:	02802821 	move	a1,s4
  4051b0:	3c060041 	lui	a2,0x41
  4051b4:	24c64bac 	addiu	a2,a2,19372
  4051b8:	3c070041 	lui	a3,0x41
[31m  4051bc:	8f9981c0 	lw	t9,fprintf[0m
  4051c0:	0320f809 	jalr	t9
  4051c4:	24e7530c 	addiu	a3,a3,21260
  4051c8:	10000057 	b	405328 <commit_setting@@Base+0x288>
  4051cc:	2402ffff 	li	v0,-1
  4051d0:	24050006 	li	a1,6
  4051d4:	8f8681ec 	lw	a2,-32276(gp)
  4051d8:	8f99828c 	lw	t9,-32116(gp)
  4051dc:	0320f809 	jalr	t9
  4051e0:	24070006 	li	a3,6
  4051e4:	8fbc0018 	lw	gp,24(sp)
  4051e8:	1040000e 	beqz	v0,405224 <commit_setting@@Base+0x184>
  4051ec:	2ab50026 	slti	s5,s5,38
  4051f0:	8f8280d0 	lw	v0,-32560(gp)
  4051f4:	8c440000 	lw	a0,0(v0)
  4051f8:	24020d17 	li	v0,3351
  4051fc:	afa20010 	sw	v0,16(sp)
  405200:	02802821 	move	a1,s4
  405204:	3c060041 	lui	a2,0x41
  405208:	24c64bac 	addiu	a2,a2,19372
  40520c:	3c070041 	lui	a3,0x41
[31m  405210:	8f9981c0 	lw	t9,fprintf[0m
  405214:	0320f809 	jalr	t9
  405218:	24e7530c 	addiu	a3,a3,21260
--
  405370:	afb00028 	sw	s0,40(sp)
  405374:	3c1c0043 	lui	gp,0x43
  405378:	279ce140 	addiu	gp,gp,-7872
  40537c:	afbc0018 	sw	gp,24(sp)
  405380:	00808021 	move	s0,a0
  405384:	00a08821 	move	s1,a1
  405388:	00c0b021 	move	s6,a2
  40538c:	90930000 	lbu	s3,0(a0)
  405390:	00139a00 	sll	s3,s3,0x8
  405394:	90820001 	lbu	v0,1(a0)
  405398:	00539825 	or	s3,v0,s3
  40539c:	90940012 	lbu	s4,18(a0)
  4053a0:	0014a200 	sll	s4,s4,0x8
  4053a4:	90820013 	lbu	v0,19(a0)
  4053a8:	0054a025 	or	s4,v0,s4
  4053ac:	3c150041 	lui	s5,0x41
  4053b0:	26b54b90 	addiu	s5,s5,19344
  4053b4:	8f8280d0 	lw	v0,-32560(gp)
  4053b8:	8c440000 	lw	a0,0(v0)
  4053bc:	24020c9e 	li	v0,3230
  4053c0:	afa20010 	sw	v0,16(sp)
  4053c4:	02a02821 	move	a1,s5
  4053c8:	3c060041 	lui	a2,0x41
  4053cc:	24c64bac 	addiu	a2,a2,19372
  4053d0:	3c070041 	lui	a3,0x41
[31m  4053d4:	8f9981c0 	lw	t9,fprintf[0m
  4053d8:	0320f809 	jalr	t9
  4053dc:	24e7531c 	addiu	a3,a3,21276
  4053e0:	8fbc0018 	lw	gp,24(sp)
  4053e4:	00131200 	sll	v0,s3,0x8
  4053e8:	3042ffff 	andi	v0,v0,0xffff
  4053ec:	00139a02 	srl	s3,s3,0x8
  4053f0:	00539825 	or	s3,v0,s3
  4053f4:	3402fdfd 	li	v0,0xfdfd
  4053f8:	1262000d 	beq	s3,v0,405430 <init_wifi_site_survey@@Base+0xe0>
  4053fc:	02a02821 	move	a1,s5
  405400:	8f8280d0 	lw	v0,-32560(gp)
  405404:	8c440000 	lw	a0,0(v0)
  405408:	24020ca2 	li	v0,3234
  40540c:	afa20010 	sw	v0,16(sp)
  405410:	3c060041 	lui	a2,0x41
  405414:	24c64bac 	addiu	a2,a2,19372
  405418:	3c070041 	lui	a3,0x41
[31m  40541c:	8f9981c0 	lw	t9,fprintf[0m
  405420:	0320f809 	jalr	t9
  405424:	24e7531c 	addiu	a3,a3,21276
  405428:	10000072 	b	4055f4 <init_wifi_site_survey@@Base+0x2a4>
  40542c:	2402ffff 	li	v0,-1
  405430:	00141200 	sll	v0,s4,0x8
  405434:	3042ffff 	andi	v0,v0,0xffff
  405438:	0014a202 	srl	s4,s4,0x8
  40543c:	0054a025 	or	s4,v0,s4
  405440:	24020002 	li	v0,2
  405444:	1282000e 	beq	s4,v0,405480 <init_wifi_site_survey@@Base+0x130>
  405448:	26040006 	addiu	a0,s0,6
  40544c:	8f8280d0 	lw	v0,-32560(gp)
  405450:	8c440000 	lw	a0,0(v0)
  405454:	24020ca8 	li	v0,3240
  405458:	afa20010 	sw	v0,16(sp)
  40545c:	02a02821 	move	a1,s5
  405460:	3c060041 	lui	a2,0x41
  405464:	24c64bac 	addiu	a2,a2,19372
  405468:	3c070041 	lui	a3,0x41
[31m  40546c:	8f9981c0 	lw	t9,fprintf[0m
  405470:	0320f809 	jalr	t9
  405474:	24e7531c 	addiu	a3,a3,21276
  405478:	1000005e 	b	4055f4 <init_wifi_site_survey@@Base+0x2a4>
  40547c:	2402ffff 	li	v0,-1
  405480:	24050006 	li	a1,6
  405484:	8f8681ec 	lw	a2,-32276(gp)
  405488:	8f99828c 	lw	t9,-32116(gp)
  40548c:	0320f809 	jalr	t9
  405490:	24070006 	li	a3,6
  405494:	8fbc0018 	lw	gp,24(sp)
  405498:	1040000e 	beqz	v0,4054d4 <init_wifi_site_survey@@Base+0x184>
  40549c:	2ad60026 	slti	s6,s6,38
  4054a0:	8f8280d0 	lw	v0,-32560(gp)
  4054a4:	8c440000 	lw	a0,0(v0)
  4054a8:	24020cb6 	li	v0,3254
  4054ac:	afa20010 	sw	v0,16(sp)
  4054b0:	02a02821 	move	a1,s5
  4054b4:	3c060041 	lui	a2,0x41
  4054b8:	24c64bac 	addiu	a2,a2,19372
  4054bc:	3c070041 	lui	a3,0x41
[31m  4054c0:	8f9981c0 	lw	t9,fprintf[0m
  4054c4:	0320f809 	jalr	t9
  4054c8:	24e7531c 	addiu	a3,a3,21276
--
  40564c:	00a08821 	move	s1,a1
  405650:	00c0b021 	move	s6,a2
  405654:	00808021 	move	s0,a0
  405658:	90920000 	lbu	s2,0(a0)
  40565c:	00129200 	sll	s2,s2,0x8
  405660:	90820001 	lbu	v0,1(a0)
  405664:	00529025 	or	s2,v0,s2
  405668:	90940010 	lbu	s4,16(a0)
  40566c:	0014a200 	sll	s4,s4,0x8
  405670:	90820011 	lbu	v0,17(a0)
  405674:	0054a025 	or	s4,v0,s4
  405678:	90930012 	lbu	s3,18(a0)
  40567c:	00139a00 	sll	s3,s3,0x8
  405680:	90820013 	lbu	v0,19(a0)
  405684:	00539825 	or	s3,v0,s3
  405688:	3c150041 	lui	s5,0x41
  40568c:	26b54b90 	addiu	s5,s5,19344
  405690:	8f8280d0 	lw	v0,-32560(gp)
  405694:	8c440000 	lw	a0,0(v0)
  405698:	24020314 	li	v0,788
  40569c:	afa20010 	sw	v0,16(sp)
  4056a0:	02a02821 	move	a1,s5
  4056a4:	3c060041 	lui	a2,0x41
  4056a8:	24c64bac 	addiu	a2,a2,19372
  4056ac:	3c070041 	lui	a3,0x41
[31m  4056b0:	8f9981c0 	lw	t9,fprintf[0m
  4056b4:	0320f809 	jalr	t9
  4056b8:	24e75424 	addiu	a3,a3,21540
  4056bc:	8fbc0018 	lw	gp,24(sp)
  4056c0:	00121200 	sll	v0,s2,0x8
  4056c4:	3042ffff 	andi	v0,v0,0xffff
  4056c8:	00129202 	srl	s2,s2,0x8
  4056cc:	00529025 	or	s2,v0,s2
  4056d0:	3402fdfd 	li	v0,0xfdfd
  4056d4:	1242000d 	beq	s2,v0,40570c <query_support_fun@@Base+0xf0>
  4056d8:	02a02821 	move	a1,s5
  4056dc:	8f8280d0 	lw	v0,-32560(gp)
  4056e0:	8c440000 	lw	a0,0(v0)
  4056e4:	24020319 	li	v0,793
  4056e8:	afa20010 	sw	v0,16(sp)
  4056ec:	3c060041 	lui	a2,0x41
  4056f0:	24c64bac 	addiu	a2,a2,19372
  4056f4:	3c070041 	lui	a3,0x41
[31m  4056f8:	8f9981c0 	lw	t9,fprintf[0m
  4056fc:	0320f809 	jalr	t9
  405700:	24e75424 	addiu	a3,a3,21540
  405704:	100000b3 	b	4059d4 <query_support_fun@@Base+0x3b8>
  405708:	2402ffff 	li	v0,-1
  40570c:	00131200 	sll	v0,s3,0x8
  405710:	3042ffff 	andi	v0,v0,0xffff
  405714:	00139a02 	srl	s3,s3,0x8
  405718:	00539825 	or	s3,v0,s3
  40571c:	24020002 	li	v0,2
  405720:	1262000c 	beq	s3,v0,405754 <query_support_fun@@Base+0x138>
  405724:	3c060041 	lui	a2,0x41
  405728:	8f8280d0 	lw	v0,-32560(gp)
  40572c:	8c440000 	lw	a0,0(v0)
  405730:	2402031f 	li	v0,799
  405734:	afa20010 	sw	v0,16(sp)
  405738:	24c64bac 	addiu	a2,a2,19372
  40573c:	3c070041 	lui	a3,0x41
[31m  405740:	8f9981c0 	lw	t9,fprintf[0m
  405744:	0320f809 	jalr	t9
  405748:	24e75424 	addiu	a3,a3,21540
  40574c:	100000a1 	b	4059d4 <query_support_fun@@Base+0x3b8>
  405750:	2402ffff 	li	v0,-1
  405754:	00141200 	sll	v0,s4,0x8
  405758:	3042ffff 	andi	v0,v0,0xffff
  40575c:	0014a202 	srl	s4,s4,0x8
  405760:	0054a025 	or	s4,v0,s4
  405764:	24027777 	li	v0,30583
  405768:	16820016 	bne	s4,v0,4057c4 <query_support_fun@@Base+0x1a8>
  40576c:	26040006 	addiu	a0,s0,6
  405770:	24050006 	li	a1,6
  405774:	8f8681ec 	lw	a2,-32276(gp)
  405778:	8f99828c 	lw	t9,-32116(gp)
  40577c:	0320f809 	jalr	t9
  405780:	24070006 	li	a3,6
  405784:	8fbc0018 	lw	gp,24(sp)
  405788:	10400044 	beqz	v0,40589c <query_support_fun@@Base+0x280>
  40578c:	2ad60106 	slti	s6,s6,262
  405790:	8f8280d0 	lw	v0,-32560(gp)
  405794:	8c440000 	lw	a0,0(v0)
  405798:	24020328 	li	v0,808
  40579c:	afa20010 	sw	v0,16(sp)
  4057a0:	02a02821 	move	a1,s5
  4057a4:	3c060041 	lui	a2,0x41
  4057a8:	24c64bac 	addiu	a2,a2,19372
  4057ac:	3c070041 	lui	a3,0x41
[31m  4057b0:	8f9981c0 	lw	t9,fprintf[0m
  4057b4:	0320f809 	jalr	t9
  4057b8:	24e75424 	addiu	a3,a3,21540
--
  405820:	92030009 	lbu	v1,9(s0)
  405824:	14620008 	bne	v1,v0,405848 <query_support_fun@@Base+0x22c>
  405828:	00000000 	nop
  40582c:	9203000a 	lbu	v1,10(s0)
  405830:	14620005 	bne	v1,v0,405848 <query_support_fun@@Base+0x22c>
  405834:	00000000 	nop
  405838:	9203000b 	lbu	v1,11(s0)
  40583c:	10620016 	beq	v1,v0,405898 <query_support_fun@@Base+0x27c>
  405840:	00000000 	nop
  405844:	24050006 	li	a1,6
  405848:	8f8681ec 	lw	a2,-32276(gp)
  40584c:	8f99828c 	lw	t9,-32116(gp)
  405850:	0320f809 	jalr	t9
  405854:	24070006 	li	a3,6
  405858:	8fbc0018 	lw	gp,24(sp)
  40585c:	1040000f 	beqz	v0,40589c <query_support_fun@@Base+0x280>
  405860:	2ad60106 	slti	s6,s6,262
  405864:	8f8280d0 	lw	v0,-32560(gp)
  405868:	8c440000 	lw	a0,0(v0)
  40586c:	24020337 	li	v0,823
  405870:	afa20010 	sw	v0,16(sp)
  405874:	02a02821 	move	a1,s5
  405878:	3c060041 	lui	a2,0x41
  40587c:	24c64bac 	addiu	a2,a2,19372
  405880:	3c070041 	lui	a3,0x41
[31m  405884:	8f9981c0 	lw	t9,fprintf[0m
  405888:	0320f809 	jalr	t9
  40588c:	24e75424 	addiu	a3,a3,21540
--
  405a5c:	afa00120 	sw	zero,288(sp)
  405a60:	afa00124 	sw	zero,292(sp)
  405a64:	afa00128 	sw	zero,296(sp)
  405a68:	afa0012c 	sw	zero,300(sp)
  405a6c:	afa00130 	sw	zero,304(sp)
  405a70:	afa00134 	sw	zero,308(sp)
  405a74:	afa00138 	sw	zero,312(sp)
  405a78:	92130000 	lbu	s3,0(s0)
  405a7c:	00139a00 	sll	s3,s3,0x8
  405a80:	92020001 	lbu	v0,1(s0)
  405a84:	00539825 	or	s3,v0,s3
  405a88:	92140012 	lbu	s4,18(s0)
  405a8c:	0014a200 	sll	s4,s4,0x8
  405a90:	92020013 	lbu	v0,19(s0)
  405a94:	0054a025 	or	s4,v0,s4
  405a98:	3c150041 	lui	s5,0x41
  405a9c:	26b54b90 	addiu	s5,s5,19344
  405aa0:	8f8280d0 	lw	v0,-32560(gp)
  405aa4:	8c440000 	lw	a0,0(v0)
  405aa8:	2402084f 	li	v0,2127
  405aac:	afa20010 	sw	v0,16(sp)
  405ab0:	02a02821 	move	a1,s5
  405ab4:	3c060041 	lui	a2,0x41
  405ab8:	24c64bac 	addiu	a2,a2,19372
  405abc:	3c070041 	lui	a3,0x41
[31m  405ac0:	8f9981c0 	lw	t9,fprintf[0m
  405ac4:	0320f809 	jalr	t9
  405ac8:	24e75374 	addiu	a3,a3,21364
  405acc:	8fbc0018 	lw	gp,24(sp)
  405ad0:	00131200 	sll	v0,s3,0x8
  405ad4:	3042ffff 	andi	v0,v0,0xffff
  405ad8:	00139a02 	srl	s3,s3,0x8
  405adc:	00539825 	or	s3,v0,s3
  405ae0:	3402fdfd 	li	v0,0xfdfd
  405ae4:	1262000d 	beq	s3,v0,405b1c <get_wifi_info@@Base+0x120>
  405ae8:	02a02821 	move	a1,s5
  405aec:	8f8280d0 	lw	v0,-32560(gp)
  405af0:	8c440000 	lw	a0,0(v0)
  405af4:	24020853 	li	v0,2131
  405af8:	afa20010 	sw	v0,16(sp)
  405afc:	3c060041 	lui	a2,0x41
  405b00:	24c64bac 	addiu	a2,a2,19372
  405b04:	3c070041 	lui	a3,0x41
[31m  405b08:	8f9981c0 	lw	t9,fprintf[0m
  405b0c:	0320f809 	jalr	t9
  405b10:	24e75374 	addiu	a3,a3,21364
  405b14:	10000158 	b	406078 <get_wifi_info@@Base+0x67c>
  405b18:	2402ffff 	li	v0,-1
  405b1c:	00141200 	sll	v0,s4,0x8
  405b20:	3042ffff 	andi	v0,v0,0xffff
  405b24:	0014a202 	srl	s4,s4,0x8
  405b28:	0054a025 	or	s4,v0,s4
  405b2c:	24020002 	li	v0,2
  405b30:	1282000e 	beq	s4,v0,405b6c <get_wifi_info@@Base+0x170>
  405b34:	26040006 	addiu	a0,s0,6
  405b38:	8f8280d0 	lw	v0,-32560(gp)
  405b3c:	8c440000 	lw	a0,0(v0)
  405b40:	24020859 	li	v0,2137
  405b44:	afa20010 	sw	v0,16(sp)
  405b48:	02a02821 	move	a1,s5
  405b4c:	3c060041 	lui	a2,0x41
  405b50:	24c64bac 	addiu	a2,a2,19372
  405b54:	3c070041 	lui	a3,0x41
[31m  405b58:	8f9981c0 	lw	t9,fprintf[0m
  405b5c:	0320f809 	jalr	t9
  405b60:	24e75374 	addiu	a3,a3,21364
  405b64:	10000144 	b	406078 <get_wifi_info@@Base+0x67c>
  405b68:	2402ffff 	li	v0,-1
  405b6c:	24050006 	li	a1,6
  405b70:	8f8681ec 	lw	a2,-32276(gp)
  405b74:	8f99828c 	lw	t9,-32116(gp)
  405b78:	0320f809 	jalr	t9
  405b7c:	24070006 	li	a3,6
  405b80:	8fbc0018 	lw	gp,24(sp)
  405b84:	1040000e 	beqz	v0,405bc0 <get_wifi_info@@Base+0x1c4>
  405b88:	2ad60112 	slti	s6,s6,274
  405b8c:	8f8280d0 	lw	v0,-32560(gp)
  405b90:	8c440000 	lw	a0,0(v0)
  405b94:	24020867 	li	v0,2151
  405b98:	afa20010 	sw	v0,16(sp)
  405b9c:	02a02821 	move	a1,s5
  405ba0:	3c060041 	lui	a2,0x41
  405ba4:	24c64bac 	addiu	a2,a2,19372
  405ba8:	3c070041 	lui	a3,0x41
[31m  405bac:	8f9981c0 	lw	t9,fprintf[0m
  405bb0:	0320f809 	jalr	t9
  405bb4:	24e75374 	addiu	a3,a3,21364
--
  4060ec:	00002821 	move	a1,zero
  4060f0:	8f99812c 	lw	t9,-32468(gp)
  4060f4:	0320f809 	jalr	t9
  4060f8:	240600ff 	li	a2,255
  4060fc:	8fbc0018 	lw	gp,24(sp)
  406100:	afa00120 	sw	zero,288(sp)
  406104:	a3a00124 	sb	zero,292(sp)
  406108:	92130000 	lbu	s3,0(s0)
  40610c:	00139a00 	sll	s3,s3,0x8
  406110:	92020001 	lbu	v0,1(s0)
  406114:	00539825 	or	s3,v0,s3
  406118:	92140012 	lbu	s4,18(s0)
  40611c:	0014a200 	sll	s4,s4,0x8
  406120:	92020013 	lbu	v0,19(s0)
  406124:	0054a025 	or	s4,v0,s4
  406128:	3c150041 	lui	s5,0x41
  40612c:	26b54b90 	addiu	s5,s5,19344
  406130:	8f8280d0 	lw	v0,-32560(gp)
  406134:	8c440000 	lw	a0,0(v0)
  406138:	240207a9 	li	v0,1961
  40613c:	afa20010 	sw	v0,16(sp)
  406140:	02a02821 	move	a1,s5
  406144:	3c060041 	lui	a2,0x41
  406148:	24c64bac 	addiu	a2,a2,19372
  40614c:	3c070041 	lui	a3,0x41
[31m  406150:	8f9981c0 	lw	t9,fprintf[0m
  406154:	0320f809 	jalr	t9
  406158:	24e75384 	addiu	a3,a3,21380
  40615c:	8fbc0018 	lw	gp,24(sp)
  406160:	00131200 	sll	v0,s3,0x8
  406164:	3042ffff 	andi	v0,v0,0xffff
  406168:	00139a02 	srl	s3,s3,0x8
  40616c:	00539825 	or	s3,v0,s3
  406170:	3402fdfd 	li	v0,0xfdfd
  406174:	1262000d 	beq	s3,v0,4061ac <set_network_adv_info@@Base+0x10c>
  406178:	02a02821 	move	a1,s5
  40617c:	8f8280d0 	lw	v0,-32560(gp)
  406180:	8c440000 	lw	a0,0(v0)
  406184:	240207ad 	li	v0,1965
  406188:	afa20010 	sw	v0,16(sp)
  40618c:	3c060041 	lui	a2,0x41
  406190:	24c64bac 	addiu	a2,a2,19372
  406194:	3c070041 	lui	a3,0x41
[31m  406198:	8f9981c0 	lw	t9,fprintf[0m
  40619c:	0320f809 	jalr	t9
  4061a0:	24e75384 	addiu	a3,a3,21380
  4061a4:	100000db 	b	406514 <set_network_adv_info@@Base+0x474>
  4061a8:	2402ffff 	li	v0,-1
  4061ac:	00141200 	sll	v0,s4,0x8
  4061b0:	3042ffff 	andi	v0,v0,0xffff
  4061b4:	0014a202 	srl	s4,s4,0x8
  4061b8:	0054a025 	or	s4,v0,s4
  4061bc:	24020002 	li	v0,2
  4061c0:	1282000e 	beq	s4,v0,4061fc <set_network_adv_info@@Base+0x15c>
  4061c4:	26040006 	addiu	a0,s0,6
  4061c8:	8f8280d0 	lw	v0,-32560(gp)
  4061cc:	8c440000 	lw	a0,0(v0)
  4061d0:	240207b3 	li	v0,1971
  4061d4:	afa20010 	sw	v0,16(sp)
  4061d8:	02a02821 	move	a1,s5
  4061dc:	3c060041 	lui	a2,0x41
  4061e0:	24c64bac 	addiu	a2,a2,19372
  4061e4:	3c070041 	lui	a3,0x41
[31m  4061e8:	8f9981c0 	lw	t9,fprintf[0m
  4061ec:	0320f809 	jalr	t9
  4061f0:	24e75384 	addiu	a3,a3,21380
  4061f4:	100000c7 	b	406514 <set_network_adv_info@@Base+0x474>
  4061f8:	2402ffff 	li	v0,-1
  4061fc:	24050006 	li	a1,6
  406200:	8f8681ec 	lw	a2,-32276(gp)
  406204:	8f99828c 	lw	t9,-32116(gp)
  406208:	0320f809 	jalr	t9
  40620c:	24070006 	li	a3,6
  406210:	8fbc0018 	lw	gp,24(sp)
  406214:	1040000e 	beqz	v0,406250 <set_network_adv_info@@Base+0x1b0>
  406218:	2ad60026 	slti	s6,s6,38
  40621c:	8f8280d0 	lw	v0,-32560(gp)
  406220:	8c440000 	lw	a0,0(v0)
  406224:	240207c1 	li	v0,1985
  406228:	afa20010 	sw	v0,16(sp)
  40622c:	02a02821 	move	a1,s5
  406230:	3c060041 	lui	a2,0x41
  406234:	24c64bac 	addiu	a2,a2,19372
  406238:	3c070041 	lui	a3,0x41
[31m  40623c:	8f9981c0 	lw	t9,fprintf[0m
  406240:	0320f809 	jalr	t9
  406244:	24e75384 	addiu	a3,a3,21380
--
  4065a0:	00002821 	move	a1,zero
  4065a4:	8f99812c 	lw	t9,-32468(gp)
  4065a8:	0320f809 	jalr	t9
  4065ac:	240600ff 	li	a2,255
  4065b0:	8fbc0018 	lw	gp,24(sp)
  4065b4:	afa00138 	sw	zero,312(sp)
  4065b8:	a3a00140 	sb	zero,320(sp)
  4065bc:	92130000 	lbu	s3,0(s0)
  4065c0:	00139a00 	sll	s3,s3,0x8
  4065c4:	92020001 	lbu	v0,1(s0)
  4065c8:	00539825 	or	s3,v0,s3
  4065cc:	92140012 	lbu	s4,18(s0)
  4065d0:	0014a200 	sll	s4,s4,0x8
  4065d4:	92020013 	lbu	v0,19(s0)
  4065d8:	0054a025 	or	s4,v0,s4
  4065dc:	3c150041 	lui	s5,0x41
  4065e0:	26b54b90 	addiu	s5,s5,19344
  4065e4:	8f8280d0 	lw	v0,-32560(gp)
  4065e8:	8c440000 	lw	a0,0(v0)
  4065ec:	24020b35 	li	v0,2869
  4065f0:	afa20010 	sw	v0,16(sp)
  4065f4:	02a02821 	move	a1,s5
  4065f8:	3c060041 	lui	a2,0x41
  4065fc:	24c64bac 	addiu	a2,a2,19372
  406600:	3c070041 	lui	a3,0x41
[31m  406604:	8f9981c0 	lw	t9,fprintf[0m
  406608:	0320f809 	jalr	t9
  40660c:	24e75334 	addiu	a3,a3,21300
  406610:	8fbc0018 	lw	gp,24(sp)
  406614:	00131200 	sll	v0,s3,0x8
  406618:	3042ffff 	andi	v0,v0,0xffff
  40661c:	00139a02 	srl	s3,s3,0x8
  406620:	00539825 	or	s3,v0,s3
  406624:	3402fdfd 	li	v0,0xfdfd
  406628:	1262000d 	beq	s3,v0,406660 <set_simple_wifi_info@@Base+0x124>
  40662c:	02a02821 	move	a1,s5
  406630:	8f8280d0 	lw	v0,-32560(gp)
  406634:	8c440000 	lw	a0,0(v0)
  406638:	24020b39 	li	v0,2873
  40663c:	afa20010 	sw	v0,16(sp)
  406640:	3c060041 	lui	a2,0x41
  406644:	24c64bac 	addiu	a2,a2,19372
  406648:	3c070041 	lui	a3,0x41
[31m  40664c:	8f9981c0 	lw	t9,fprintf[0m
  406650:	0320f809 	jalr	t9
  406654:	24e75334 	addiu	a3,a3,21300
  406658:	100002d2 	b	4071a4 <set_simple_wifi_info@@Base+0xc68>
  40665c:	2402ffff 	li	v0,-1
  406660:	00141200 	sll	v0,s4,0x8
  406664:	3042ffff 	andi	v0,v0,0xffff
  406668:	0014a202 	srl	s4,s4,0x8
  40666c:	0054a025 	or	s4,v0,s4
  406670:	24020002 	li	v0,2
  406674:	1282000c 	beq	s4,v0,4066a8 <set_simple_wifi_info@@Base+0x16c>
  406678:	3c060041 	lui	a2,0x41
  40667c:	8f8280d0 	lw	v0,-32560(gp)
  406680:	8c440000 	lw	a0,0(v0)
  406684:	24020b3f 	li	v0,2879
  406688:	afa20010 	sw	v0,16(sp)
  40668c:	24c64bac 	addiu	a2,a2,19372
  406690:	3c070041 	lui	a3,0x41
[31m  406694:	8f9981c0 	lw	t9,fprintf[0m
  406698:	0320f809 	jalr	t9
  40669c:	24e75334 	addiu	a3,a3,21300
  4066a0:	100002c0 	b	4071a4 <set_simple_wifi_info@@Base+0xc68>
  4066a4:	2402ffff 	li	v0,-1
  4066a8:	26040006 	addiu	a0,s0,6
  4066ac:	24050006 	li	a1,6
  4066b0:	8f8681ec 	lw	a2,-32276(gp)
  4066b4:	8f99828c 	lw	t9,-32116(gp)
  4066b8:	0320f809 	jalr	t9
  4066bc:	24070006 	li	a3,6
  4066c0:	8fbc0018 	lw	gp,24(sp)
  4066c4:	1040000e 	beqz	v0,406700 <set_simple_wifi_info@@Base+0x1c4>
  4066c8:	2ad60026 	slti	s6,s6,38
  4066cc:	8f8280d0 	lw	v0,-32560(gp)
  4066d0:	8c440000 	lw	a0,0(v0)
  4066d4:	24020b4d 	li	v0,2893
  4066d8:	afa20010 	sw	v0,16(sp)
  4066dc:	02a02821 	move	a1,s5
  4066e0:	3c060041 	lui	a2,0x41
  4066e4:	24c64bac 	addiu	a2,a2,19372
  4066e8:	3c070041 	lui	a3,0x41
[31m  4066ec:	8f9981c0 	lw	t9,fprintf[0m
  4066f0:	0320f809 	jalr	t9
  4066f4:	24e75334 	addiu	a3,a3,21300
--
  407220:	0320f809 	jalr	t9
  407224:	240600ff 	li	a2,255
  407228:	8fbc0018 	lw	gp,24(sp)
  40722c:	afa00120 	sw	zero,288(sp)
  407230:	afa00124 	sw	zero,292(sp)
  407234:	afa00128 	sw	zero,296(sp)
  407238:	afa0012c 	sw	zero,300(sp)
  40723c:	92130000 	lbu	s3,0(s0)
  407240:	00139a00 	sll	s3,s3,0x8
  407244:	92020001 	lbu	v0,1(s0)
  407248:	00539825 	or	s3,v0,s3
  40724c:	92140012 	lbu	s4,18(s0)
  407250:	0014a200 	sll	s4,s4,0x8
  407254:	92020013 	lbu	v0,19(s0)
  407258:	0054a025 	or	s4,v0,s4
  40725c:	3c150041 	lui	s5,0x41
  407260:	26b54b90 	addiu	s5,s5,19344
  407264:	8f8280d0 	lw	v0,-32560(gp)
  407268:	8c440000 	lw	a0,0(v0)
  40726c:	24020aaa 	li	v0,2730
  407270:	afa20010 	sw	v0,16(sp)
  407274:	02a02821 	move	a1,s5
  407278:	3c060041 	lui	a2,0x41
  40727c:	24c64bac 	addiu	a2,a2,19372
  407280:	3c070041 	lui	a3,0x41
[31m  407284:	8f9981c0 	lw	t9,fprintf[0m
  407288:	0320f809 	jalr	t9
  40728c:	24e7534c 	addiu	a3,a3,21324
  407290:	8fbc0018 	lw	gp,24(sp)
  407294:	00131200 	sll	v0,s3,0x8
  407298:	3042ffff 	andi	v0,v0,0xffff
  40729c:	00139a02 	srl	s3,s3,0x8
  4072a0:	00539825 	or	s3,v0,s3
  4072a4:	3402fdfd 	li	v0,0xfdfd
  4072a8:	1262000d 	beq	s3,v0,4072e0 <get_simple_wifi_info@@Base+0x114>
  4072ac:	02a02821 	move	a1,s5
  4072b0:	8f8280d0 	lw	v0,-32560(gp)
  4072b4:	8c440000 	lw	a0,0(v0)
  4072b8:	24020aae 	li	v0,2734
  4072bc:	afa20010 	sw	v0,16(sp)
  4072c0:	3c060041 	lui	a2,0x41
  4072c4:	24c64bac 	addiu	a2,a2,19372
  4072c8:	3c070041 	lui	a3,0x41
[31m  4072cc:	8f9981c0 	lw	t9,fprintf[0m
  4072d0:	0320f809 	jalr	t9
  4072d4:	24e7534c 	addiu	a3,a3,21324
  4072d8:	10000103 	b	4076e8 <get_simple_wifi_info@@Base+0x51c>
  4072dc:	2402ffff 	li	v0,-1
  4072e0:	00141200 	sll	v0,s4,0x8
  4072e4:	3042ffff 	andi	v0,v0,0xffff
  4072e8:	0014a202 	srl	s4,s4,0x8
  4072ec:	0054a025 	or	s4,v0,s4
  4072f0:	24020002 	li	v0,2
  4072f4:	1282000e 	beq	s4,v0,407330 <get_simple_wifi_info@@Base+0x164>
  4072f8:	26040006 	addiu	a0,s0,6
  4072fc:	8f8280d0 	lw	v0,-32560(gp)
  407300:	8c440000 	lw	a0,0(v0)
  407304:	24020ab4 	li	v0,2740
  407308:	afa20010 	sw	v0,16(sp)
  40730c:	02a02821 	move	a1,s5
  407310:	3c060041 	lui	a2,0x41
  407314:	24c64bac 	addiu	a2,a2,19372
  407318:	3c070041 	lui	a3,0x41
[31m  40731c:	8f9981c0 	lw	t9,fprintf[0m
  407320:	0320f809 	jalr	t9
  407324:	24e7534c 	addiu	a3,a3,21324
  407328:	100000ef 	b	4076e8 <get_simple_wifi_info@@Base+0x51c>
  40732c:	2402ffff 	li	v0,-1
  407330:	24050006 	li	a1,6
  407334:	8f8681ec 	lw	a2,-32276(gp)
  407338:	8f99828c 	lw	t9,-32116(gp)
  40733c:	0320f809 	jalr	t9
  407340:	24070006 	li	a3,6
  407344:	8fbc0018 	lw	gp,24(sp)
  407348:	1040000e 	beqz	v0,407384 <get_simple_wifi_info@@Base+0x1b8>
  40734c:	2ad60082 	slti	s6,s6,130
  407350:	8f8280d0 	lw	v0,-32560(gp)
  407354:	8c440000 	lw	a0,0(v0)
  407358:	24020ac2 	li	v0,2754
  40735c:	afa20010 	sw	v0,16(sp)
  407360:	02a02821 	move	a1,s5
  407364:	3c060041 	lui	a2,0x41
  407368:	24c64bac 	addiu	a2,a2,19372
  40736c:	3c070041 	lui	a3,0x41
[31m  407370:	8f9981c0 	lw	t9,fprintf[0m
  407374:	0320f809 	jalr	t9
  407378:	24e7534c 	addiu	a3,a3,21324
--
  407758:	a3a20024 	sb	v0,36(sp)
  40775c:	27a40025 	addiu	a0,sp,37
  407760:	00002821 	move	a1,zero
  407764:	8f99812c 	lw	t9,-32468(gp)
  407768:	0320f809 	jalr	t9
  40776c:	240600ff 	li	a2,255
  407770:	8fbc0018 	lw	gp,24(sp)
  407774:	92130000 	lbu	s3,0(s0)
  407778:	00139a00 	sll	s3,s3,0x8
  40777c:	92020001 	lbu	v0,1(s0)
  407780:	00539825 	or	s3,v0,s3
  407784:	92140012 	lbu	s4,18(s0)
  407788:	0014a200 	sll	s4,s4,0x8
  40778c:	92020013 	lbu	v0,19(s0)
  407790:	0054a025 	or	s4,v0,s4
  407794:	3c150041 	lui	s5,0x41
  407798:	26b54b90 	addiu	s5,s5,19344
  40779c:	8f8280d0 	lw	v0,-32560(gp)
  4077a0:	8c440000 	lw	a0,0(v0)
  4077a4:	2402016f 	li	v0,367
  4077a8:	afa20010 	sw	v0,16(sp)
  4077ac:	02a02821 	move	a1,s5
  4077b0:	3c060041 	lui	a2,0x41
  4077b4:	24c64bac 	addiu	a2,a2,19372
  4077b8:	3c070041 	lui	a3,0x41
[31m  4077bc:	8f9981c0 	lw	t9,fprintf[0m
  4077c0:	0320f809 	jalr	t9
  4077c4:	24e75460 	addiu	a3,a3,21600
  4077c8:	8fbc0018 	lw	gp,24(sp)
  4077cc:	00131200 	sll	v0,s3,0x8
  4077d0:	3042ffff 	andi	v0,v0,0xffff
  4077d4:	00139a02 	srl	s3,s3,0x8
  4077d8:	00539825 	or	s3,v0,s3
  4077dc:	3402fdfd 	li	v0,0xfdfd
  4077e0:	1262000d 	beq	s3,v0,407818 <set_basic_info@@Base+0x108>
  4077e4:	02a02821 	move	a1,s5
  4077e8:	8f8280d0 	lw	v0,-32560(gp)
  4077ec:	8c440000 	lw	a0,0(v0)
  4077f0:	24020173 	li	v0,371
  4077f4:	afa20010 	sw	v0,16(sp)
  4077f8:	3c060041 	lui	a2,0x41
  4077fc:	24c64bac 	addiu	a2,a2,19372
  407800:	3c070041 	lui	a3,0x41
[31m  407804:	8f9981c0 	lw	t9,fprintf[0m
  407808:	0320f809 	jalr	t9
  40780c:	24e75460 	addiu	a3,a3,21600
  407810:	10000158 	b	407d74 <set_basic_info@@Base+0x664>
  407814:	2402ffff 	li	v0,-1
  407818:	00141200 	sll	v0,s4,0x8
  40781c:	3042ffff 	andi	v0,v0,0xffff
  407820:	0014a202 	srl	s4,s4,0x8
  407824:	0054a025 	or	s4,v0,s4
  407828:	24020002 	li	v0,2
  40782c:	1282000e 	beq	s4,v0,407868 <set_basic_info@@Base+0x158>
  407830:	26040006 	addiu	a0,s0,6
  407834:	8f8280d0 	lw	v0,-32560(gp)
  407838:	8c440000 	lw	a0,0(v0)
  40783c:	24020179 	li	v0,377
  407840:	afa20010 	sw	v0,16(sp)
  407844:	02a02821 	move	a1,s5
  407848:	3c060041 	lui	a2,0x41
  40784c:	24c64bac 	addiu	a2,a2,19372
  407850:	3c070041 	lui	a3,0x41
[31m  407854:	8f9981c0 	lw	t9,fprintf[0m
  407858:	0320f809 	jalr	t9
  40785c:	24e75460 	addiu	a3,a3,21600
  407860:	10000144 	b	407d74 <set_basic_info@@Base+0x664>
  407864:	2402ffff 	li	v0,-1
  407868:	24050006 	li	a1,6
  40786c:	8f8681ec 	lw	a2,-32276(gp)
  407870:	8f99828c 	lw	t9,-32116(gp)
  407874:	0320f809 	jalr	t9
  407878:	24070006 	li	a3,6
  40787c:	8fbc0018 	lw	gp,24(sp)
  407880:	1040000e 	beqz	v0,4078bc <set_basic_info@@Base+0x1ac>
  407884:	2ad60026 	slti	s6,s6,38
  407888:	8f8280d0 	lw	v0,-32560(gp)
  40788c:	8c440000 	lw	a0,0(v0)
  407890:	24020187 	li	v0,391
  407894:	afa20010 	sw	v0,16(sp)
  407898:	02a02821 	move	a1,s5
  40789c:	3c060041 	lui	a2,0x41
  4078a0:	24c64bac 	addiu	a2,a2,19372
  4078a4:	3c070041 	lui	a3,0x41
[31m  4078a8:	8f9981c0 	lw	t9,fprintf[0m
  4078ac:	0320f809 	jalr	t9
  4078b0:	24e75460 	addiu	a3,a3,21600
--
  407e00:	00002821 	move	a1,zero
  407e04:	8f99812c 	lw	t9,-32468(gp)
  407e08:	0320f809 	jalr	t9
  407e0c:	240600ff 	li	a2,255
  407e10:	8fbc0018 	lw	gp,24(sp)
  407e14:	afa00138 	sw	zero,312(sp)
  407e18:	a3a00150 	sb	zero,336(sp)
  407e1c:	92130000 	lbu	s3,0(s0)
  407e20:	00139a00 	sll	s3,s3,0x8
  407e24:	92020001 	lbu	v0,1(s0)
  407e28:	00539825 	or	s3,v0,s3
  407e2c:	92140012 	lbu	s4,18(s0)
  407e30:	0014a200 	sll	s4,s4,0x8
  407e34:	92020013 	lbu	v0,19(s0)
  407e38:	0054a025 	or	s4,v0,s4
  407e3c:	3c150041 	lui	s5,0x41
  407e40:	26b54b90 	addiu	s5,s5,19344
  407e44:	8f8280d0 	lw	v0,-32560(gp)
  407e48:	8c440000 	lw	a0,0(v0)
  407e4c:	240208fe 	li	v0,2302
  407e50:	afa20010 	sw	v0,16(sp)
  407e54:	02a02821 	move	a1,s5
  407e58:	3c060041 	lui	a2,0x41
  407e5c:	24c64bac 	addiu	a2,a2,19372
  407e60:	3c070041 	lui	a3,0x41
[31m  407e64:	8f9981c0 	lw	t9,fprintf[0m
  407e68:	0320f809 	jalr	t9
  407e6c:	24e75364 	addiu	a3,a3,21348
  407e70:	8fbc0018 	lw	gp,24(sp)
  407e74:	00131200 	sll	v0,s3,0x8
  407e78:	3042ffff 	andi	v0,v0,0xffff
  407e7c:	00139a02 	srl	s3,s3,0x8
  407e80:	00539825 	or	s3,v0,s3
  407e84:	3402fdfd 	li	v0,0xfdfd
  407e88:	1262000d 	beq	s3,v0,407ec0 <set_wifi_info@@Base+0x124>
  407e8c:	02a02821 	move	a1,s5
  407e90:	8f8280d0 	lw	v0,-32560(gp)
  407e94:	8c440000 	lw	a0,0(v0)
  407e98:	24020902 	li	v0,2306
  407e9c:	afa20010 	sw	v0,16(sp)
  407ea0:	3c060041 	lui	a2,0x41
  407ea4:	24c64bac 	addiu	a2,a2,19372
  407ea8:	3c070041 	lui	a3,0x41
[31m  407eac:	8f9981c0 	lw	t9,fprintf[0m
  407eb0:	0320f809 	jalr	t9
  407eb4:	24e75364 	addiu	a3,a3,21348
  407eb8:	10000353 	b	408c08 <set_wifi_info@@Base+0xe6c>
  407ebc:	2402ffff 	li	v0,-1
  407ec0:	00141200 	sll	v0,s4,0x8
  407ec4:	3042ffff 	andi	v0,v0,0xffff
  407ec8:	0014a202 	srl	s4,s4,0x8
  407ecc:	0054a025 	or	s4,v0,s4
  407ed0:	24020002 	li	v0,2
  407ed4:	1282000c 	beq	s4,v0,407f08 <set_wifi_info@@Base+0x16c>
  407ed8:	3c060041 	lui	a2,0x41
  407edc:	8f8280d0 	lw	v0,-32560(gp)
  407ee0:	8c440000 	lw	a0,0(v0)
  407ee4:	24020908 	li	v0,2312
  407ee8:	afa20010 	sw	v0,16(sp)
  407eec:	24c64bac 	addiu	a2,a2,19372
  407ef0:	3c070041 	lui	a3,0x41
[31m  407ef4:	8f9981c0 	lw	t9,fprintf[0m
  407ef8:	0320f809 	jalr	t9
  407efc:	24e75364 	addiu	a3,a3,21348
  407f00:	10000341 	b	408c08 <set_wifi_info@@Base+0xe6c>
  407f04:	2402ffff 	li	v0,-1
  407f08:	26040006 	addiu	a0,s0,6
  407f0c:	24050006 	li	a1,6
  407f10:	8f8681ec 	lw	a2,-32276(gp)
  407f14:	8f99828c 	lw	t9,-32116(gp)
  407f18:	0320f809 	jalr	t9
  407f1c:	24070006 	li	a3,6
  407f20:	8fbc0018 	lw	gp,24(sp)
  407f24:	1040000e 	beqz	v0,407f60 <set_wifi_info@@Base+0x1c4>
  407f28:	2ad60026 	slti	s6,s6,38
  407f2c:	8f8280d0 	lw	v0,-32560(gp)
  407f30:	8c440000 	lw	a0,0(v0)
  407f34:	24020916 	li	v0,2326
  407f38:	afa20010 	sw	v0,16(sp)
  407f3c:	02a02821 	move	a1,s5
  407f40:	3c060041 	lui	a2,0x41
  407f44:	24c64bac 	addiu	a2,a2,19372
  407f48:	3c070041 	lui	a3,0x41
[31m  407f4c:	8f9981c0 	lw	t9,fprintf[0m
  407f50:	0320f809 	jalr	t9
  407f54:	24e75364 	addiu	a3,a3,21348
--
  408c7c:	00002821 	move	a1,zero
  408c80:	8f99812c 	lw	t9,-32468(gp)
  408c84:	0320f809 	jalr	t9
  408c88:	240600ff 	li	a2,255
  408c8c:	8fbc0018 	lw	gp,24(sp)
  408c90:	a3a00120 	sb	zero,288(sp)
  408c94:	a3a00121 	sb	zero,289(sp)
  408c98:	92130000 	lbu	s3,0(s0)
  408c9c:	00139a00 	sll	s3,s3,0x8
  408ca0:	92020001 	lbu	v0,1(s0)
  408ca4:	00539825 	or	s3,v0,s3
  408ca8:	92140012 	lbu	s4,18(s0)
  408cac:	0014a200 	sll	s4,s4,0x8
  408cb0:	92020013 	lbu	v0,19(s0)
  408cb4:	0054a025 	or	s4,v0,s4
  408cb8:	3c150041 	lui	s5,0x41
  408cbc:	26b54b90 	addiu	s5,s5,19344
  408cc0:	8f8280d0 	lw	v0,-32560(gp)
  408cc4:	8c440000 	lw	a0,0(v0)
  408cc8:	24020724 	li	v0,1828
  408ccc:	afa20010 	sw	v0,16(sp)
  408cd0:	02a02821 	move	a1,s5
  408cd4:	3c060041 	lui	a2,0x41
  408cd8:	24c64bac 	addiu	a2,a2,19372
  408cdc:	3c070041 	lui	a3,0x41
[31m  408ce0:	8f9981c0 	lw	t9,fprintf[0m
  408ce4:	0320f809 	jalr	t9
  408ce8:	24e7539c 	addiu	a3,a3,21404
  408cec:	8fbc0018 	lw	gp,24(sp)
  408cf0:	00131200 	sll	v0,s3,0x8
  408cf4:	3042ffff 	andi	v0,v0,0xffff
  408cf8:	00139a02 	srl	s3,s3,0x8
  408cfc:	00539825 	or	s3,v0,s3
  408d00:	3402fdfd 	li	v0,0xfdfd
  408d04:	1262000d 	beq	s3,v0,408d3c <get_network_adv_info@@Base+0x10c>
  408d08:	02a02821 	move	a1,s5
  408d0c:	8f8280d0 	lw	v0,-32560(gp)
  408d10:	8c440000 	lw	a0,0(v0)
  408d14:	24020728 	li	v0,1832
  408d18:	afa20010 	sw	v0,16(sp)
  408d1c:	3c060041 	lui	a2,0x41
  408d20:	24c64bac 	addiu	a2,a2,19372
  408d24:	3c070041 	lui	a3,0x41
[31m  408d28:	8f9981c0 	lw	t9,fprintf[0m
  408d2c:	0320f809 	jalr	t9
  408d30:	24e7539c 	addiu	a3,a3,21404
  408d34:	10000108 	b	409158 <get_network_adv_info@@Base+0x528>
  408d38:	2402ffff 	li	v0,-1
  408d3c:	00141200 	sll	v0,s4,0x8
  408d40:	3042ffff 	andi	v0,v0,0xffff
  408d44:	0014a202 	srl	s4,s4,0x8
  408d48:	0054a025 	or	s4,v0,s4
  408d4c:	24020002 	li	v0,2
  408d50:	1282000e 	beq	s4,v0,408d8c <get_network_adv_info@@Base+0x15c>
  408d54:	26040006 	addiu	a0,s0,6
  408d58:	8f8280d0 	lw	v0,-32560(gp)
  408d5c:	8c440000 	lw	a0,0(v0)
  408d60:	2402072e 	li	v0,1838
  408d64:	afa20010 	sw	v0,16(sp)
  408d68:	02a02821 	move	a1,s5
  408d6c:	3c060041 	lui	a2,0x41
  408d70:	24c64bac 	addiu	a2,a2,19372
  408d74:	3c070041 	lui	a3,0x41
[31m  408d78:	8f9981c0 	lw	t9,fprintf[0m
  408d7c:	0320f809 	jalr	t9
  408d80:	24e7539c 	addiu	a3,a3,21404
  408d84:	100000f4 	b	409158 <get_network_adv_info@@Base+0x528>
  408d88:	2402ffff 	li	v0,-1
  408d8c:	24050006 	li	a1,6
  408d90:	8f8681ec 	lw	a2,-32276(gp)
  408d94:	8f99828c 	lw	t9,-32116(gp)
  408d98:	0320f809 	jalr	t9
  408d9c:	24070006 	li	a3,6
  408da0:	8fbc0018 	lw	gp,24(sp)
  408da4:	1040000e 	beqz	v0,408de0 <get_network_adv_info@@Base+0x1b0>
  408da8:	2ad60223 	slti	s6,s6,547
  408dac:	8f8280d0 	lw	v0,-32560(gp)
  408db0:	8c440000 	lw	a0,0(v0)
  408db4:	2402073c 	li	v0,1852
  408db8:	afa20010 	sw	v0,16(sp)
  408dbc:	02a02821 	move	a1,s5
  408dc0:	3c060041 	lui	a2,0x41
  408dc4:	24c64bac 	addiu	a2,a2,19372
  408dc8:	3c070041 	lui	a3,0x41
[31m  408dcc:	8f9981c0 	lw	t9,fprintf[0m
  408dd0:	0320f809 	jalr	t9
  408dd4:	24e7539c 	addiu	a3,a3,21404
--
  4091a4:	3c1c0043 	lui	gp,0x43
  4091a8:	279ce140 	addiu	gp,gp,-7872
  4091ac:	afbc0018 	sw	gp,24(sp)
  4091b0:	00808021 	move	s0,a0
  4091b4:	00a0b021 	move	s6,a1
  4091b8:	00c0a821 	move	s5,a2
  4091bc:	afa00020 	sw	zero,32(sp)
  4091c0:	90910000 	lbu	s1,0(a0)
  4091c4:	00118a00 	sll	s1,s1,0x8
  4091c8:	90820001 	lbu	v0,1(a0)
  4091cc:	00518825 	or	s1,v0,s1
  4091d0:	90930012 	lbu	s3,18(a0)
  4091d4:	00139a00 	sll	s3,s3,0x8
  4091d8:	90820013 	lbu	v0,19(a0)
  4091dc:	00539825 	or	s3,v0,s3
  4091e0:	3c140041 	lui	s4,0x41
  4091e4:	26944b90 	addiu	s4,s4,19344
  4091e8:	8f8280d0 	lw	v0,-32560(gp)
  4091ec:	8c440000 	lw	a0,0(v0)
  4091f0:	240206c6 	li	v0,1734
  4091f4:	afa20010 	sw	v0,16(sp)
  4091f8:	02802821 	move	a1,s4
  4091fc:	3c060041 	lui	a2,0x41
  409200:	24c64bac 	addiu	a2,a2,19372
  409204:	3c070041 	lui	a3,0x41
[31m  409208:	8f9981c0 	lw	t9,fprintf[0m
  40920c:	0320f809 	jalr	t9
  409210:	24e753b4 	addiu	a3,a3,21428
  409214:	8fbc0018 	lw	gp,24(sp)
  409218:	00111200 	sll	v0,s1,0x8
  40921c:	3042ffff 	andi	v0,v0,0xffff
  409220:	00118a02 	srl	s1,s1,0x8
  409224:	00518825 	or	s1,v0,s1
  409228:	3402fdfd 	li	v0,0xfdfd
  40922c:	1222000d 	beq	s1,v0,409264 <reboot@@Base+0xe4>
  409230:	02802821 	move	a1,s4
  409234:	8f8280d0 	lw	v0,-32560(gp)
  409238:	8c440000 	lw	a0,0(v0)
  40923c:	240206ca 	li	v0,1738
  409240:	afa20010 	sw	v0,16(sp)
  409244:	3c060041 	lui	a2,0x41
  409248:	24c64bac 	addiu	a2,a2,19372
  40924c:	3c070041 	lui	a3,0x41
[31m  409250:	8f9981c0 	lw	t9,fprintf[0m
  409254:	0320f809 	jalr	t9
  409258:	24e753b4 	addiu	a3,a3,21428
  40925c:	10000078 	b	409440 <reboot@@Base+0x2c0>
  409260:	2402ffff 	li	v0,-1
  409264:	00131200 	sll	v0,s3,0x8
  409268:	3042ffff 	andi	v0,v0,0xffff
  40926c:	00139a02 	srl	s3,s3,0x8
  409270:	00539825 	or	s3,v0,s3
  409274:	24020002 	li	v0,2
  409278:	1262000e 	beq	s3,v0,4092b4 <reboot@@Base+0x134>
  40927c:	26040006 	addiu	a0,s0,6
  409280:	8f8280d0 	lw	v0,-32560(gp)
  409284:	8c440000 	lw	a0,0(v0)
  409288:	240206d0 	li	v0,1744
  40928c:	afa20010 	sw	v0,16(sp)
  409290:	02802821 	move	a1,s4
  409294:	3c060041 	lui	a2,0x41
  409298:	24c64bac 	addiu	a2,a2,19372
  40929c:	3c070041 	lui	a3,0x41
[31m  4092a0:	8f9981c0 	lw	t9,fprintf[0m
  4092a4:	0320f809 	jalr	t9
  4092a8:	24e753b4 	addiu	a3,a3,21428
  4092ac:	10000064 	b	409440 <reboot@@Base+0x2c0>
  4092b0:	2402ffff 	li	v0,-1
  4092b4:	24050006 	li	a1,6
  4092b8:	8f8681ec 	lw	a2,-32276(gp)
  4092bc:	8f99828c 	lw	t9,-32116(gp)
  4092c0:	0320f809 	jalr	t9
  4092c4:	24070006 	li	a3,6
  4092c8:	8fbc0018 	lw	gp,24(sp)
  4092cc:	1040000e 	beqz	v0,409308 <reboot@@Base+0x188>
  4092d0:	2ab50026 	slti	s5,s5,38
  4092d4:	8f8280d0 	lw	v0,-32560(gp)
  4092d8:	8c440000 	lw	a0,0(v0)
  4092dc:	240206de 	li	v0,1758
  4092e0:	afa20010 	sw	v0,16(sp)
  4092e4:	02802821 	move	a1,s4
  4092e8:	3c060041 	lui	a2,0x41
  4092ec:	24c64bac 	addiu	a2,a2,19372
  4092f0:	3c070041 	lui	a3,0x41
[31m  4092f4:	8f9981c0 	lw	t9,fprintf[0m
  4092f8:	0320f809 	jalr	t9
  4092fc:	24e753b4 	addiu	a3,a3,21428
--
  40948c:	3c1c0043 	lui	gp,0x43
  409490:	279ce140 	addiu	gp,gp,-7872
  409494:	afbc0018 	sw	gp,24(sp)
  409498:	00808021 	move	s0,a0
  40949c:	00a0b021 	move	s6,a1
  4094a0:	00c0a821 	move	s5,a2
  4094a4:	afa00020 	sw	zero,32(sp)
  4094a8:	90910000 	lbu	s1,0(a0)
  4094ac:	00118a00 	sll	s1,s1,0x8
  4094b0:	90820001 	lbu	v0,1(a0)
  4094b4:	00518825 	or	s1,v0,s1
  4094b8:	90930012 	lbu	s3,18(a0)
  4094bc:	00139a00 	sll	s3,s3,0x8
  4094c0:	90820013 	lbu	v0,19(a0)
  4094c4:	00539825 	or	s3,v0,s3
  4094c8:	3c140041 	lui	s4,0x41
  4094cc:	26944b90 	addiu	s4,s4,19344
  4094d0:	8f8280d0 	lw	v0,-32560(gp)
  4094d4:	8c440000 	lw	a0,0(v0)
  4094d8:	24020394 	li	v0,916
  4094dc:	afa20010 	sw	v0,16(sp)
  4094e0:	02802821 	move	a1,s4
  4094e4:	3c060041 	lui	a2,0x41
  4094e8:	24c64bac 	addiu	a2,a2,19372
  4094ec:	3c070041 	lui	a3,0x41
[31m  4094f0:	8f9981c0 	lw	t9,fprintf[0m
  4094f4:	0320f809 	jalr	t9
  4094f8:	24e75414 	addiu	a3,a3,21524
  4094fc:	8fbc0018 	lw	gp,24(sp)
  409500:	00111200 	sll	v0,s1,0x8
  409504:	3042ffff 	andi	v0,v0,0xffff
  409508:	00118a02 	srl	s1,s1,0x8
  40950c:	00518825 	or	s1,v0,s1
  409510:	3402fdfd 	li	v0,0xfdfd
  409514:	1222000d 	beq	s1,v0,40954c <factory_reset@@Base+0xe4>
  409518:	02802821 	move	a1,s4
  40951c:	8f8280d0 	lw	v0,-32560(gp)
  409520:	8c440000 	lw	a0,0(v0)
  409524:	24020398 	li	v0,920
  409528:	afa20010 	sw	v0,16(sp)
  40952c:	3c060041 	lui	a2,0x41
  409530:	24c64bac 	addiu	a2,a2,19372
  409534:	3c070041 	lui	a3,0x41
[31m  409538:	8f9981c0 	lw	t9,fprintf[0m
  40953c:	0320f809 	jalr	t9
  409540:	24e75414 	addiu	a3,a3,21524
  409544:	10000078 	b	409728 <factory_reset@@Base+0x2c0>
  409548:	2402ffff 	li	v0,-1
  40954c:	00131200 	sll	v0,s3,0x8
  409550:	3042ffff 	andi	v0,v0,0xffff
  409554:	00139a02 	srl	s3,s3,0x8
  409558:	00539825 	or	s3,v0,s3
  40955c:	24020002 	li	v0,2
  409560:	1262000e 	beq	s3,v0,40959c <factory_reset@@Base+0x134>
  409564:	26040006 	addiu	a0,s0,6
  409568:	8f8280d0 	lw	v0,-32560(gp)
  40956c:	8c440000 	lw	a0,0(v0)
  409570:	2402039e 	li	v0,926
  409574:	afa20010 	sw	v0,16(sp)
  409578:	02802821 	move	a1,s4
  40957c:	3c060041 	lui	a2,0x41
  409580:	24c64bac 	addiu	a2,a2,19372
  409584:	3c070041 	lui	a3,0x41
[31m  409588:	8f9981c0 	lw	t9,fprintf[0m
  40958c:	0320f809 	jalr	t9
  409590:	24e75414 	addiu	a3,a3,21524
  409594:	10000064 	b	409728 <factory_reset@@Base+0x2c0>
  409598:	2402ffff 	li	v0,-1
  40959c:	24050006 	li	a1,6
  4095a0:	8f8681ec 	lw	a2,-32276(gp)
  4095a4:	8f99828c 	lw	t9,-32116(gp)
  4095a8:	0320f809 	jalr	t9
  4095ac:	24070006 	li	a3,6
  4095b0:	8fbc0018 	lw	gp,24(sp)
  4095b4:	1040000e 	beqz	v0,4095f0 <factory_reset@@Base+0x188>
  4095b8:	2ab50026 	slti	s5,s5,38
  4095bc:	8f8280d0 	lw	v0,-32560(gp)
  4095c0:	8c440000 	lw	a0,0(v0)
  4095c4:	240203ac 	li	v0,940
  4095c8:	afa20010 	sw	v0,16(sp)
  4095cc:	02802821 	move	a1,s4
  4095d0:	3c060041 	lui	a2,0x41
  4095d4:	24c64bac 	addiu	a2,a2,19372
  4095d8:	3c070041 	lui	a3,0x41
[31m  4095dc:	8f9981c0 	lw	t9,fprintf[0m
  4095e0:	0320f809 	jalr	t9
  4095e4:	24e75414 	addiu	a3,a3,21524
--
  4097b0:	a3a20044 	sb	v0,68(sp)
  4097b4:	27a40045 	addiu	a0,sp,69
  4097b8:	00002821 	move	a1,zero
  4097bc:	8f99812c 	lw	t9,-32468(gp)
  4097c0:	0320f809 	jalr	t9
  4097c4:	240600ff 	li	a2,255
  4097c8:	8fbc0020 	lw	gp,32(sp)
  4097cc:	92130000 	lbu	s3,0(s0)
  4097d0:	00139a00 	sll	s3,s3,0x8
  4097d4:	92020001 	lbu	v0,1(s0)
  4097d8:	00539825 	or	s3,v0,s3
  4097dc:	92140012 	lbu	s4,18(s0)
  4097e0:	0014a200 	sll	s4,s4,0x8
  4097e4:	92020013 	lbu	v0,19(s0)
  4097e8:	0054a025 	or	s4,v0,s4
  4097ec:	3c150041 	lui	s5,0x41
  4097f0:	26b54b90 	addiu	s5,s5,19344
  4097f4:	8f8280d0 	lw	v0,-32560(gp)
  4097f8:	8c440000 	lw	a0,0(v0)
  4097fc:	24020471 	li	v0,1137
  409800:	afa20010 	sw	v0,16(sp)
  409804:	02a02821 	move	a1,s5
  409808:	3c060041 	lui	a2,0x41
  40980c:	24c64bac 	addiu	a2,a2,19372
  409810:	3c070041 	lui	a3,0x41
[31m  409814:	8f9981c0 	lw	t9,fprintf[0m
  409818:	0320f809 	jalr	t9
  40981c:	24e753ec 	addiu	a3,a3,21484
  409820:	8fbc0020 	lw	gp,32(sp)
  409824:	00131200 	sll	v0,s3,0x8
  409828:	3042ffff 	andi	v0,v0,0xffff
  40982c:	00139a02 	srl	s3,s3,0x8
  409830:	00539825 	or	s3,v0,s3
  409834:	3402fdfd 	li	v0,0xfdfd
  409838:	1262000d 	beq	s3,v0,409870 <set_system_datetime@@Base+0x120>
  40983c:	02a02821 	move	a1,s5
  409840:	8f8280d0 	lw	v0,-32560(gp)
  409844:	8c440000 	lw	a0,0(v0)
  409848:	24020475 	li	v0,1141
  40984c:	afa20010 	sw	v0,16(sp)
  409850:	3c060041 	lui	a2,0x41
  409854:	24c64bac 	addiu	a2,a2,19372
  409858:	3c070041 	lui	a3,0x41
[31m  40985c:	8f9981c0 	lw	t9,fprintf[0m
  409860:	0320f809 	jalr	t9
  409864:	24e753ec 	addiu	a3,a3,21484
  409868:	10000157 	b	409dc8 <set_system_datetime@@Base+0x678>
  40986c:	2402ffff 	li	v0,-1
  409870:	00141200 	sll	v0,s4,0x8
  409874:	3042ffff 	andi	v0,v0,0xffff
  409878:	0014a202 	srl	s4,s4,0x8
  40987c:	0054a025 	or	s4,v0,s4
  409880:	24020002 	li	v0,2
  409884:	1282000e 	beq	s4,v0,4098c0 <set_system_datetime@@Base+0x170>
  409888:	26040006 	addiu	a0,s0,6
  40988c:	8f8280d0 	lw	v0,-32560(gp)
  409890:	8c440000 	lw	a0,0(v0)
  409894:	2402047b 	li	v0,1147
  409898:	afa20010 	sw	v0,16(sp)
  40989c:	02a02821 	move	a1,s5
  4098a0:	3c060041 	lui	a2,0x41
  4098a4:	24c64bac 	addiu	a2,a2,19372
  4098a8:	3c070041 	lui	a3,0x41
[31m  4098ac:	8f9981c0 	lw	t9,fprintf[0m
  4098b0:	0320f809 	jalr	t9
  4098b4:	24e753ec 	addiu	a3,a3,21484
  4098b8:	10000143 	b	409dc8 <set_system_datetime@@Base+0x678>
  4098bc:	2402ffff 	li	v0,-1
  4098c0:	24050006 	li	a1,6
  4098c4:	8f8681ec 	lw	a2,-32276(gp)
  4098c8:	8f99828c 	lw	t9,-32116(gp)
  4098cc:	0320f809 	jalr	t9
  4098d0:	24070006 	li	a3,6
  4098d4:	8fbc0020 	lw	gp,32(sp)
  4098d8:	1040000e 	beqz	v0,409914 <set_system_datetime@@Base+0x1c4>
  4098dc:	2ad60026 	slti	s6,s6,38
  4098e0:	8f8280d0 	lw	v0,-32560(gp)
  4098e4:	8c440000 	lw	a0,0(v0)
  4098e8:	24020489 	li	v0,1161
  4098ec:	afa20010 	sw	v0,16(sp)
  4098f0:	02a02821 	move	a1,s5
  4098f4:	3c060041 	lui	a2,0x41
  4098f8:	24c64bac 	addiu	a2,a2,19372
  4098fc:	3c070041 	lui	a3,0x41
[31m  409900:	8f9981c0 	lw	t9,fprintf[0m
  409904:	0320f809 	jalr	t9
  409908:	24e753ec 	addiu	a3,a3,21484
--
  409e38:	a3a20030 	sb	v0,48(sp)
  409e3c:	27a40031 	addiu	a0,sp,49
  409e40:	00002821 	move	a1,zero
  409e44:	8f99812c 	lw	t9,-32468(gp)
  409e48:	0320f809 	jalr	t9
  409e4c:	240600ff 	li	a2,255
  409e50:	8fbc0020 	lw	gp,32(sp)
  409e54:	92130000 	lbu	s3,0(s0)
  409e58:	00139a00 	sll	s3,s3,0x8
  409e5c:	92020001 	lbu	v0,1(s0)
  409e60:	00539825 	or	s3,v0,s3
  409e64:	92140012 	lbu	s4,18(s0)
  409e68:	0014a200 	sll	s4,s4,0x8
  409e6c:	92020013 	lbu	v0,19(s0)
  409e70:	0054a025 	or	s4,v0,s4
  409e74:	3c150041 	lui	s5,0x41
  409e78:	26b54b90 	addiu	s5,s5,19344
  409e7c:	8f8280d0 	lw	v0,-32560(gp)
  409e80:	8c440000 	lw	a0,0(v0)
  409e84:	240203f4 	li	v0,1012
  409e88:	afa20010 	sw	v0,16(sp)
  409e8c:	02a02821 	move	a1,s5
  409e90:	3c060041 	lui	a2,0x41
  409e94:	24c64bac 	addiu	a2,a2,19372
  409e98:	3c070041 	lui	a3,0x41
[31m  409e9c:	8f9981c0 	lw	t9,fprintf[0m
  409ea0:	0320f809 	jalr	t9
  409ea4:	24e75400 	addiu	a3,a3,21504
  409ea8:	8fbc0020 	lw	gp,32(sp)
  409eac:	00131200 	sll	v0,s3,0x8
  409eb0:	3042ffff 	andi	v0,v0,0xffff
  409eb4:	00139a02 	srl	s3,s3,0x8
  409eb8:	00539825 	or	s3,v0,s3
  409ebc:	3402fdfd 	li	v0,0xfdfd
  409ec0:	1262000d 	beq	s3,v0,409ef8 <get_system_datetime@@Base+0x108>
  409ec4:	02a02821 	move	a1,s5
  409ec8:	8f8280d0 	lw	v0,-32560(gp)
  409ecc:	8c440000 	lw	a0,0(v0)
  409ed0:	240203f8 	li	v0,1016
  409ed4:	afa20010 	sw	v0,16(sp)
  409ed8:	3c060041 	lui	a2,0x41
  409edc:	24c64bac 	addiu	a2,a2,19372
  409ee0:	3c070041 	lui	a3,0x41
[31m  409ee4:	8f9981c0 	lw	t9,fprintf[0m
  409ee8:	0320f809 	jalr	t9
  409eec:	24e75400 	addiu	a3,a3,21504
  409ef0:	100000cf 	b	40a230 <get_system_datetime@@Base+0x440>
  409ef4:	2402ffff 	li	v0,-1
  409ef8:	00141200 	sll	v0,s4,0x8
  409efc:	3042ffff 	andi	v0,v0,0xffff
  409f00:	0014a202 	srl	s4,s4,0x8
  409f04:	0054a025 	or	s4,v0,s4
  409f08:	24020002 	li	v0,2
  409f0c:	1282000e 	beq	s4,v0,409f48 <get_system_datetime@@Base+0x158>
  409f10:	26040006 	addiu	a0,s0,6
  409f14:	8f8280d0 	lw	v0,-32560(gp)
  409f18:	8c440000 	lw	a0,0(v0)
  409f1c:	240203fe 	li	v0,1022
  409f20:	afa20010 	sw	v0,16(sp)
  409f24:	02a02821 	move	a1,s5
  409f28:	3c060041 	lui	a2,0x41
  409f2c:	24c64bac 	addiu	a2,a2,19372
  409f30:	3c070041 	lui	a3,0x41
[31m  409f34:	8f9981c0 	lw	t9,fprintf[0m
  409f38:	0320f809 	jalr	t9
  409f3c:	24e75400 	addiu	a3,a3,21504
  409f40:	100000bb 	b	40a230 <get_system_datetime@@Base+0x440>
  409f44:	2402ffff 	li	v0,-1
  409f48:	24050006 	li	a1,6
  409f4c:	8f8681ec 	lw	a2,-32276(gp)
  409f50:	8f99828c 	lw	t9,-32116(gp)
  409f54:	0320f809 	jalr	t9
  409f58:	24070006 	li	a3,6
  409f5c:	8fbc0020 	lw	gp,32(sp)
  409f60:	1040000e 	beqz	v0,409f9c <get_system_datetime@@Base+0x1ac>
  409f64:	2ad6007a 	slti	s6,s6,122
  409f68:	8f8280d0 	lw	v0,-32560(gp)
  409f6c:	8c440000 	lw	a0,0(v0)
  409f70:	2402040c 	li	v0,1036
  409f74:	afa20010 	sw	v0,16(sp)
  409f78:	02a02821 	move	a1,s5
  409f7c:	3c060041 	lui	a2,0x41
  409f80:	24c64bac 	addiu	a2,a2,19372
  409f84:	3c070041 	lui	a3,0x41
[31m  409f88:	8f9981c0 	lw	t9,fprintf[0m
  409f8c:	0320f809 	jalr	t9
  409f90:	24e75400 	addiu	a3,a3,21504
--
  40a304:	a3a20268 	sb	v0,616(sp)
  40a308:	27a40269 	addiu	a0,sp,617
  40a30c:	00002821 	move	a1,zero
  40a310:	8f99812c 	lw	t9,-32468(gp)
  40a314:	0320f809 	jalr	t9
  40a318:	240600ff 	li	a2,255
  40a31c:	8fbc0018 	lw	gp,24(sp)
  40a320:	92320000 	lbu	s2,0(s1)
  40a324:	00129200 	sll	s2,s2,0x8
  40a328:	92220001 	lbu	v0,1(s1)
  40a32c:	00529025 	or	s2,v0,s2
  40a330:	92330012 	lbu	s3,18(s1)
  40a334:	00139a00 	sll	s3,s3,0x8
  40a338:	92220013 	lbu	v0,19(s1)
  40a33c:	00539825 	or	s3,v0,s3
  40a340:	3c140041 	lui	s4,0x41
  40a344:	26944b90 	addiu	s4,s4,19344
  40a348:	8f8280d0 	lw	v0,-32560(gp)
  40a34c:	8c440000 	lw	a0,0(v0)
  40a350:	240202ab 	li	v0,683
  40a354:	afa20010 	sw	v0,16(sp)
  40a358:	02802821 	move	a1,s4
  40a35c:	3c060041 	lui	a2,0x41
  40a360:	24c64bac 	addiu	a2,a2,19372
  40a364:	3c070041 	lui	a3,0x41
[31m  40a368:	8f9981c0 	lw	t9,fprintf[0m
  40a36c:	0320f809 	jalr	t9
  40a370:	24e75438 	addiu	a3,a3,21560
  40a374:	8fbc0018 	lw	gp,24(sp)
  40a378:	00121200 	sll	v0,s2,0x8
  40a37c:	3042ffff 	andi	v0,v0,0xffff
  40a380:	00129202 	srl	s2,s2,0x8
  40a384:	00529025 	or	s2,v0,s2
  40a388:	3402fdfd 	li	v0,0xfdfd
  40a38c:	1242000d 	beq	s2,v0,40a3c4 <change_admin_id_pwd@@Base+0x16c>
  40a390:	02802821 	move	a1,s4
  40a394:	8f8280d0 	lw	v0,-32560(gp)
  40a398:	8c440000 	lw	a0,0(v0)
  40a39c:	240202af 	li	v0,687
  40a3a0:	afa20010 	sw	v0,16(sp)
  40a3a4:	3c060041 	lui	a2,0x41
  40a3a8:	24c64bac 	addiu	a2,a2,19372
  40a3ac:	3c070041 	lui	a3,0x41
[31m  40a3b0:	8f9981c0 	lw	t9,fprintf[0m
  40a3b4:	0320f809 	jalr	t9
  40a3b8:	24e75438 	addiu	a3,a3,21560
  40a3bc:	100000b0 	b	40a680 <change_admin_id_pwd@@Base+0x428>
  40a3c0:	2402ffff 	li	v0,-1
  40a3c4:	00131200 	sll	v0,s3,0x8
  40a3c8:	3042ffff 	andi	v0,v0,0xffff
  40a3cc:	00139a02 	srl	s3,s3,0x8
  40a3d0:	00539825 	or	s3,v0,s3
  40a3d4:	24020002 	li	v0,2
  40a3d8:	1262000e 	beq	s3,v0,40a414 <change_admin_id_pwd@@Base+0x1bc>
  40a3dc:	24050006 	li	a1,6
  40a3e0:	8f8280d0 	lw	v0,-32560(gp)
  40a3e4:	8c440000 	lw	a0,0(v0)
  40a3e8:	240202b5 	li	v0,693
  40a3ec:	afa20010 	sw	v0,16(sp)
  40a3f0:	02802821 	move	a1,s4
  40a3f4:	3c060041 	lui	a2,0x41
  40a3f8:	24c64bac 	addiu	a2,a2,19372
  40a3fc:	3c070041 	lui	a3,0x41
[31m  40a400:	8f9981c0 	lw	t9,fprintf[0m
  40a404:	0320f809 	jalr	t9
  40a408:	24e75438 	addiu	a3,a3,21560
  40a40c:	1000009c 	b	40a680 <change_admin_id_pwd@@Base+0x428>
  40a410:	2402ffff 	li	v0,-1
  40a414:	26240006 	addiu	a0,s1,6
  40a418:	8f8681ec 	lw	a2,-32276(gp)
  40a41c:	8f99828c 	lw	t9,-32116(gp)
  40a420:	0320f809 	jalr	t9
  40a424:	24070006 	li	a3,6
  40a428:	8fbc0018 	lw	gp,24(sp)
  40a42c:	1040000e 	beqz	v0,40a468 <change_admin_id_pwd@@Base+0x210>
  40a430:	2ab50026 	slti	s5,s5,38
  40a434:	8f8280d0 	lw	v0,-32560(gp)
  40a438:	8c440000 	lw	a0,0(v0)
  40a43c:	240202c3 	li	v0,707
  40a440:	afa20010 	sw	v0,16(sp)
  40a444:	02802821 	move	a1,s4
  40a448:	3c060041 	lui	a2,0x41
  40a44c:	24c64bac 	addiu	a2,a2,19372
  40a450:	3c070041 	lui	a3,0x41
[31m  40a454:	8f9981c0 	lw	t9,fprintf[0m
  40a458:	0320f809 	jalr	t9
  40a45c:	24e75438 	addiu	a3,a3,21560
--
  40a714:	a3a20120 	sb	v0,288(sp)
  40a718:	27a40121 	addiu	a0,sp,289
  40a71c:	00002821 	move	a1,zero
  40a720:	8f99812c 	lw	t9,-32468(gp)
  40a724:	0320f809 	jalr	t9
  40a728:	240600ff 	li	a2,255
  40a72c:	8fbc0018 	lw	gp,24(sp)
  40a730:	92130000 	lbu	s3,0(s0)
  40a734:	00139a00 	sll	s3,s3,0x8
  40a738:	92020001 	lbu	v0,1(s0)
  40a73c:	00539825 	or	s3,v0,s3
  40a740:	92140012 	lbu	s4,18(s0)
  40a744:	0014a200 	sll	s4,s4,0x8
  40a748:	92020013 	lbu	v0,19(s0)
  40a74c:	0054a025 	or	s4,v0,s4
  40a750:	3c150041 	lui	s5,0x41
  40a754:	26b54b90 	addiu	s5,s5,19344
  40a758:	8f8280d0 	lw	v0,-32560(gp)
  40a75c:	8c440000 	lw	a0,0(v0)
  40a760:	24020238 	li	v0,568
  40a764:	afa20010 	sw	v0,16(sp)
  40a768:	02a02821 	move	a1,s5
  40a76c:	3c060041 	lui	a2,0x41
  40a770:	24c64bac 	addiu	a2,a2,19372
  40a774:	3c070041 	lui	a3,0x41
[31m  40a778:	8f9981c0 	lw	t9,fprintf[0m
  40a77c:	0320f809 	jalr	t9
  40a780:	24e7544c 	addiu	a3,a3,21580
  40a784:	8fbc0018 	lw	gp,24(sp)
  40a788:	00131200 	sll	v0,s3,0x8
  40a78c:	3042ffff 	andi	v0,v0,0xffff
  40a790:	00139a02 	srl	s3,s3,0x8
  40a794:	00539825 	or	s3,v0,s3
  40a798:	3402fdfd 	li	v0,0xfdfd
  40a79c:	1262000d 	beq	s3,v0,40a7d4 <user_verification@@Base+0x124>
  40a7a0:	02a02821 	move	a1,s5
  40a7a4:	8f8280d0 	lw	v0,-32560(gp)
  40a7a8:	8c440000 	lw	a0,0(v0)
  40a7ac:	2402023c 	li	v0,572
  40a7b0:	afa20010 	sw	v0,16(sp)
  40a7b4:	3c060041 	lui	a2,0x41
  40a7b8:	24c64bac 	addiu	a2,a2,19372
  40a7bc:	3c070041 	lui	a3,0x41
[31m  40a7c0:	8f9981c0 	lw	t9,fprintf[0m
  40a7c4:	0320f809 	jalr	t9
  40a7c8:	24e7544c 	addiu	a3,a3,21580
  40a7cc:	1000008d 	b	40aa04 <user_verification@@Base+0x354>
  40a7d0:	2402ffff 	li	v0,-1
  40a7d4:	00141200 	sll	v0,s4,0x8
  40a7d8:	3042ffff 	andi	v0,v0,0xffff
  40a7dc:	0014a202 	srl	s4,s4,0x8
  40a7e0:	0054a025 	or	s4,v0,s4
  40a7e4:	24020002 	li	v0,2
  40a7e8:	1282000e 	beq	s4,v0,40a824 <user_verification@@Base+0x174>
  40a7ec:	26040006 	addiu	a0,s0,6
  40a7f0:	8f8280d0 	lw	v0,-32560(gp)
  40a7f4:	8c440000 	lw	a0,0(v0)
  40a7f8:	24020242 	li	v0,578
  40a7fc:	afa20010 	sw	v0,16(sp)
  40a800:	02a02821 	move	a1,s5
  40a804:	3c060041 	lui	a2,0x41
  40a808:	24c64bac 	addiu	a2,a2,19372
  40a80c:	3c070041 	lui	a3,0x41
[31m  40a810:	8f9981c0 	lw	t9,fprintf[0m
  40a814:	0320f809 	jalr	t9
  40a818:	24e7544c 	addiu	a3,a3,21580
  40a81c:	10000079 	b	40aa04 <user_verification@@Base+0x354>
  40a820:	2402ffff 	li	v0,-1
  40a824:	24050006 	li	a1,6
  40a828:	8f8681ec 	lw	a2,-32276(gp)
  40a82c:	8f99828c 	lw	t9,-32116(gp)
  40a830:	0320f809 	jalr	t9
  40a834:	24070006 	li	a3,6
  40a838:	8fbc0018 	lw	gp,24(sp)
  40a83c:	1040000e 	beqz	v0,40a878 <user_verification@@Base+0x1c8>
  40a840:	2ad6001a 	slti	s6,s6,26
  40a844:	8f8280d0 	lw	v0,-32560(gp)
  40a848:	8c440000 	lw	a0,0(v0)
  40a84c:	24020250 	li	v0,592
  40a850:	afa20010 	sw	v0,16(sp)
  40a854:	02a02821 	move	a1,s5
  40a858:	3c060041 	lui	a2,0x41
  40a85c:	24c64bac 	addiu	a2,a2,19372
  40a860:	3c070041 	lui	a3,0x41
[31m  40a864:	8f9981c0 	lw	t9,fprintf[0m
  40a868:	0320f809 	jalr	t9
  40a86c:	24e7544c 	addiu	a3,a3,21580
--
  40aa54:	afbc0018 	sw	gp,24(sp)
  40aa58:	00808021 	move	s0,a0
  40aa5c:	00a08821 	move	s1,a1
  40aa60:	afa00020 	sw	zero,32(sp)
  40aa64:	3c020041 	lui	v0,0x41
  40aa68:	90424ee0 	lbu	v0,20192(v0)
  40aa6c:	a3a20028 	sb	v0,40(sp)
  40aa70:	27a40029 	addiu	a0,sp,41
  40aa74:	00002821 	move	a1,zero
  40aa78:	8f99812c 	lw	t9,-32468(gp)
  40aa7c:	0320f809 	jalr	t9
  40aa80:	240600ff 	li	a2,255
  40aa84:	8fbc0018 	lw	gp,24(sp)
  40aa88:	a7a00128 	sh	zero,296(sp)
  40aa8c:	a7a0012a 	sh	zero,298(sp)
  40aa90:	3c120041 	lui	s2,0x41
  40aa94:	26524b90 	addiu	s2,s2,19344
  40aa98:	8f8280d0 	lw	v0,-32560(gp)
  40aa9c:	8c440000 	lw	a0,0(v0)
  40aaa0:	24020046 	li	v0,70
  40aaa4:	afa20010 	sw	v0,16(sp)
  40aaa8:	02402821 	move	a1,s2
  40aaac:	3c060041 	lui	a2,0x41
  40aab0:	24c64bac 	addiu	a2,a2,19372
  40aab4:	3c070041 	lui	a3,0x41
[31m  40aab8:	8f9981c0 	lw	t9,fprintf[0m
  40aabc:	0320f809 	jalr	t9
  40aac0:	24e7547c 	addiu	a3,a3,21628
  40aac4:	8fbc0018 	lw	gp,24(sp)
  40aac8:	2a31013d 	slti	s1,s1,317
  40aacc:	1220000e 	beqz	s1,40ab08 <general_report@@Base+0xdc>
  40aad0:	27b30024 	addiu	s3,sp,36
  40aad4:	8f8280d0 	lw	v0,-32560(gp)
  40aad8:	8c440000 	lw	a0,0(v0)
  40aadc:	2402004b 	li	v0,75
  40aae0:	afa20010 	sw	v0,16(sp)
  40aae4:	02402821 	move	a1,s2
  40aae8:	3c060041 	lui	a2,0x41
  40aaec:	24c64bac 	addiu	a2,a2,19372
  40aaf0:	3c070041 	lui	a3,0x41
[31m  40aaf4:	8f9981c0 	lw	t9,fprintf[0m
  40aaf8:	0320f809 	jalr	t9
  40aafc:	24e7547c 	addiu	a3,a3,21628
--
  40ae50:	8fbc0020 	lw	gp,32(sp)
  40ae54:	a7a00130 	sh	zero,304(sp)
  40ae58:	a7a00132 	sh	zero,306(sp)
  40ae5c:	92120000 	lbu	s2,0(s0)
  40ae60:	00129200 	sll	s2,s2,0x8
  40ae64:	92020001 	lbu	v0,1(s0)
  40ae68:	00529025 	or	s2,v0,s2
  40ae6c:	92140010 	lbu	s4,16(s0)
  40ae70:	0014a200 	sll	s4,s4,0x8
  40ae74:	92020011 	lbu	v0,17(s0)
  40ae78:	0054a025 	or	s4,v0,s4
  40ae7c:	92130012 	lbu	s3,18(s0)
  40ae80:	00139a00 	sll	s3,s3,0x8
  40ae84:	92020013 	lbu	v0,19(s0)
  40ae88:	00539825 	or	s3,v0,s3
  40ae8c:	3c150041 	lui	s5,0x41
  40ae90:	26b54b90 	addiu	s5,s5,19344
  40ae94:	8f8280d0 	lw	v0,-32560(gp)
  40ae98:	8c440000 	lw	a0,0(v0)
  40ae9c:	240200a7 	li	v0,167
  40aea0:	afa20010 	sw	v0,16(sp)
  40aea4:	02a02821 	move	a1,s5
  40aea8:	3c060041 	lui	a2,0x41
  40aeac:	24c64bac 	addiu	a2,a2,19372
  40aeb0:	3c070041 	lui	a3,0x41
[31m  40aeb4:	8f9981c0 	lw	t9,fprintf[0m
  40aeb8:	0320f809 	jalr	t9
  40aebc:	24e75470 	addiu	a3,a3,21616
  40aec0:	8fbc0020 	lw	gp,32(sp)
  40aec4:	00121200 	sll	v0,s2,0x8
  40aec8:	3042ffff 	andi	v0,v0,0xffff
  40aecc:	00129202 	srl	s2,s2,0x8
  40aed0:	00529025 	or	s2,v0,s2
  40aed4:	3402fdfd 	li	v0,0xfdfd
  40aed8:	1242000d 	beq	s2,v0,40af10 <discovery@@Base+0x128>
  40aedc:	02a02821 	move	a1,s5
  40aee0:	8f8280d0 	lw	v0,-32560(gp)
  40aee4:	8c440000 	lw	a0,0(v0)
  40aee8:	240200ac 	li	v0,172
  40aeec:	afa20010 	sw	v0,16(sp)
  40aef0:	3c060041 	lui	a2,0x41
  40aef4:	24c64bac 	addiu	a2,a2,19372
  40aef8:	3c070041 	lui	a3,0x41
[31m  40aefc:	8f9981c0 	lw	t9,fprintf[0m
  40af00:	0320f809 	jalr	t9
  40af04:	24e75470 	addiu	a3,a3,21616
  40af08:	100001c2 	b	40b614 <discovery@@Base+0x82c>
  40af0c:	2402ffff 	li	v0,-1
  40af10:	00131200 	sll	v0,s3,0x8
  40af14:	3042ffff 	andi	v0,v0,0xffff
  40af18:	00139a02 	srl	s3,s3,0x8
  40af1c:	00539825 	or	s3,v0,s3
  40af20:	24020002 	li	v0,2
  40af24:	1262000c 	beq	s3,v0,40af58 <discovery@@Base+0x170>
  40af28:	3c060041 	lui	a2,0x41
  40af2c:	8f8280d0 	lw	v0,-32560(gp)
  40af30:	8c440000 	lw	a0,0(v0)
  40af34:	240200b2 	li	v0,178
  40af38:	afa20010 	sw	v0,16(sp)
  40af3c:	24c64bac 	addiu	a2,a2,19372
  40af40:	3c070041 	lui	a3,0x41
[31m  40af44:	8f9981c0 	lw	t9,fprintf[0m
  40af48:	0320f809 	jalr	t9
  40af4c:	24e75470 	addiu	a3,a3,21616
  40af50:	100001b0 	b	40b614 <discovery@@Base+0x82c>
  40af54:	2402ffff 	li	v0,-1
  40af58:	00141200 	sll	v0,s4,0x8
  40af5c:	3042ffff 	andi	v0,v0,0xffff
  40af60:	0014a202 	srl	s4,s4,0x8
  40af64:	0054a025 	or	s4,v0,s4
  40af68:	24027777 	li	v0,30583
  40af6c:	16820016 	bne	s4,v0,40afc8 <discovery@@Base+0x1e0>
  40af70:	26040006 	addiu	a0,s0,6
  40af74:	24050006 	li	a1,6
  40af78:	8f8681ec 	lw	a2,-32276(gp)
  40af7c:	8f99828c 	lw	t9,-32116(gp)
  40af80:	0320f809 	jalr	t9
  40af84:	24070006 	li	a3,6
  40af88:	8fbc0020 	lw	gp,32(sp)
  40af8c:	10400044 	beqz	v0,40b0a0 <discovery@@Base+0x2b8>
  40af90:	2ad601f9 	slti	s6,s6,505
  40af94:	8f8280d0 	lw	v0,-32560(gp)
  40af98:	8c440000 	lw	a0,0(v0)
  40af9c:	240200bb 	li	v0,187
  40afa0:	afa20010 	sw	v0,16(sp)
  40afa4:	02a02821 	move	a1,s5
  40afa8:	3c060041 	lui	a2,0x41
  40afac:	24c64bac 	addiu	a2,a2,19372
  40afb0:	3c070041 	lui	a3,0x41
[31m  40afb4:	8f9981c0 	lw	t9,fprintf[0m
  40afb8:	0320f809 	jalr	t9
  40afbc:	24e75470 	addiu	a3,a3,21616
--
  40b024:	92030009 	lbu	v1,9(s0)
  40b028:	14620008 	bne	v1,v0,40b04c <discovery@@Base+0x264>
  40b02c:	00000000 	nop
  40b030:	9203000a 	lbu	v1,10(s0)
  40b034:	14620005 	bne	v1,v0,40b04c <discovery@@Base+0x264>
  40b038:	00000000 	nop
  40b03c:	9203000b 	lbu	v1,11(s0)
  40b040:	10620016 	beq	v1,v0,40b09c <discovery@@Base+0x2b4>
  40b044:	00000000 	nop
  40b048:	24050006 	li	a1,6
  40b04c:	8f8681ec 	lw	a2,-32276(gp)
  40b050:	8f99828c 	lw	t9,-32116(gp)
  40b054:	0320f809 	jalr	t9
  40b058:	24070006 	li	a3,6
  40b05c:	8fbc0020 	lw	gp,32(sp)
  40b060:	1040000f 	beqz	v0,40b0a0 <discovery@@Base+0x2b8>
  40b064:	2ad601f9 	slti	s6,s6,505
  40b068:	8f8280d0 	lw	v0,-32560(gp)
  40b06c:	8c440000 	lw	a0,0(v0)
  40b070:	240200ca 	li	v0,202
  40b074:	afa20010 	sw	v0,16(sp)
  40b078:	02a02821 	move	a1,s5
  40b07c:	3c060041 	lui	a2,0x41
  40b080:	24c64bac 	addiu	a2,a2,19372
  40b084:	3c070041 	lui	a3,0x41
[31m  40b088:	8f9981c0 	lw	t9,fprintf[0m
  40b08c:	0320f809 	jalr	t9
  40b090:	24e75470 	addiu	a3,a3,21616
--
  40b6cc:	3c1c0043 	lui	gp,0x43
  40b6d0:	279ce140 	addiu	gp,gp,-7872
  40b6d4:	afbc0018 	sw	gp,24(sp)
  40b6d8:	00808821 	move	s1,a0
  40b6dc:	00a08021 	move	s0,a1
  40b6e0:	afa704fc 	sw	a3,1276(sp)
  40b6e4:	8fb30500 	lw	s3,1280(sp)
  40b6e8:	3c020041 	lui	v0,0x41
  40b6ec:	904254c0 	lbu	v0,21696(v0)
  40b6f0:	a3a20020 	sb	v0,32(sp)
  40b6f4:	27a40021 	addiu	a0,sp,33
  40b6f8:	00002821 	move	a1,zero
  40b6fc:	8f99812c 	lw	t9,-32468(gp)
  40b700:	0320f809 	jalr	t9
  40b704:	240603ff 	li	a2,1023
  40b708:	8fbc0018 	lw	gp,24(sp)
  40b70c:	8f8280d0 	lw	v0,-32560(gp)
  40b710:	8c440000 	lw	a0,0(v0)
  40b714:	24020b56 	li	v0,2902
  40b718:	afa20010 	sw	v0,16(sp)
  40b71c:	3c050041 	lui	a1,0x41
  40b720:	24a55490 	addiu	a1,a1,21648
  40b724:	3c060041 	lui	a2,0x41
  40b728:	24c654ac 	addiu	a2,a2,21676
  40b72c:	3c070041 	lui	a3,0x41
[31m  40b730:	8f9981c0 	lw	t9,fprintf[0m
  40b734:	0320f809 	jalr	t9
  40b738:	24e758c0 	addiu	a3,a3,22720
--
  40bfe0:	279ce140 	addiu	gp,gp,-7872
  40bfe4:	afbc0018 	sw	gp,24(sp)
  40bfe8:	00808021 	move	s0,a0
  40bfec:	00a0b821 	move	s7,a1
  40bff0:	00c0b021 	move	s6,a2
  40bff4:	10e00096 	beqz	a3,40c250 <landap_checkSiteSurveyRequest@@Base+0x29c>
  40bff8:	00e0a021 	move	s4,a3
  40bffc:	90920000 	lbu	s2,0(a0)
  40c000:	00129200 	sll	s2,s2,0x8
  40c004:	90820001 	lbu	v0,1(a0)
  40c008:	00529025 	or	s2,v0,s2
  40c00c:	90930012 	lbu	s3,18(a0)
  40c010:	00139a00 	sll	s3,s3,0x8
  40c014:	90820013 	lbu	v0,19(a0)
  40c018:	00539825 	or	s3,v0,s3
  40c01c:	3c150041 	lui	s5,0x41
  40c020:	26b55490 	addiu	s5,s5,21648
  40c024:	8f8280d0 	lw	v0,-32560(gp)
  40c028:	8c440000 	lw	a0,0(v0)
  40c02c:	24020af2 	li	v0,2802
  40c030:	afa20010 	sw	v0,16(sp)
  40c034:	02a02821 	move	a1,s5
  40c038:	3c060041 	lui	a2,0x41
  40c03c:	24c654ac 	addiu	a2,a2,21676
  40c040:	3c070041 	lui	a3,0x41
[31m  40c044:	8f9981c0 	lw	t9,fprintf[0m
  40c048:	0320f809 	jalr	t9
  40c04c:	24e758dc 	addiu	a3,a3,22748
  40c050:	8fbc0018 	lw	gp,24(sp)
  40c054:	00121200 	sll	v0,s2,0x8
  40c058:	3042ffff 	andi	v0,v0,0xffff
  40c05c:	00129202 	srl	s2,s2,0x8
  40c060:	00529025 	or	s2,v0,s2
  40c064:	3402fdfd 	li	v0,0xfdfd
  40c068:	1242000d 	beq	s2,v0,40c0a0 <landap_checkSiteSurveyRequest@@Base+0xec>
  40c06c:	02a02821 	move	a1,s5
  40c070:	8f8280d0 	lw	v0,-32560(gp)
  40c074:	8c440000 	lw	a0,0(v0)
  40c078:	24020af6 	li	v0,2806
  40c07c:	afa20010 	sw	v0,16(sp)
  40c080:	3c060041 	lui	a2,0x41
  40c084:	24c654ac 	addiu	a2,a2,21676
  40c088:	3c070041 	lui	a3,0x41
[31m  40c08c:	8f9981c0 	lw	t9,fprintf[0m
  40c090:	0320f809 	jalr	t9
  40c094:	24e758dc 	addiu	a3,a3,22748
  40c098:	1000006e 	b	40c254 <landap_checkSiteSurveyRequest@@Base+0x2a0>
  40c09c:	2402ffff 	li	v0,-1
  40c0a0:	00131200 	sll	v0,s3,0x8
  40c0a4:	3042ffff 	andi	v0,v0,0xffff
  40c0a8:	00139a02 	srl	s3,s3,0x8
  40c0ac:	00539825 	or	s3,v0,s3
  40c0b0:	24020001 	li	v0,1
  40c0b4:	1262000e 	beq	s3,v0,40c0f0 <landap_checkSiteSurveyRequest@@Base+0x13c>
  40c0b8:	26040006 	addiu	a0,s0,6
  40c0bc:	8f8280d0 	lw	v0,-32560(gp)
  40c0c0:	8c440000 	lw	a0,0(v0)
  40c0c4:	24020afc 	li	v0,2812
  40c0c8:	afa20010 	sw	v0,16(sp)
  40c0cc:	02a02821 	move	a1,s5
  40c0d0:	3c060041 	lui	a2,0x41
  40c0d4:	24c654ac 	addiu	a2,a2,21676
  40c0d8:	3c070041 	lui	a3,0x41
[31m  40c0dc:	8f9981c0 	lw	t9,fprintf[0m
  40c0e0:	0320f809 	jalr	t9
  40c0e4:	24e758dc 	addiu	a3,a3,22748
  40c0e8:	1000005a 	b	40c254 <landap_checkSiteSurveyRequest@@Base+0x2a0>
  40c0ec:	2402ffff 	li	v0,-1
  40c0f0:	24050006 	li	a1,6
  40c0f4:	8f8681ec 	lw	a2,-32276(gp)
  40c0f8:	8f99828c 	lw	t9,-32116(gp)
  40c0fc:	0320f809 	jalr	t9
  40c100:	24070006 	li	a3,6
  40c104:	8fbc0018 	lw	gp,24(sp)
  40c108:	1040000e 	beqz	v0,40c144 <landap_checkSiteSurveyRequest@@Base+0x190>
  40c10c:	2ad602ea 	slti	s6,s6,746
  40c110:	8f8280d0 	lw	v0,-32560(gp)
  40c114:	8c440000 	lw	a0,0(v0)
  40c118:	24020b0a 	li	v0,2826
  40c11c:	afa20010 	sw	v0,16(sp)
  40c120:	02a02821 	move	a1,s5
  40c124:	3c060041 	lui	a2,0x41
  40c128:	24c654ac 	addiu	a2,a2,21676
  40c12c:	3c070041 	lui	a3,0x41
[31m  40c130:	8f9981c0 	lw	t9,fprintf[0m
  40c134:	0320f809 	jalr	t9
  40c138:	24e758dc 	addiu	a3,a3,22748
--
  40c2a0:	afb00028 	sw	s0,40(sp)
  40c2a4:	3c1c0043 	lui	gp,0x43
  40c2a8:	279ce140 	addiu	gp,gp,-7872
  40c2ac:	afbc0018 	sw	gp,24(sp)
  40c2b0:	00808021 	move	s0,a0
  40c2b4:	00a0b021 	move	s6,a1
  40c2b8:	00c0a821 	move	s5,a2
  40c2bc:	90920000 	lbu	s2,0(a0)
  40c2c0:	00129200 	sll	s2,s2,0x8
  40c2c4:	90820001 	lbu	v0,1(a0)
  40c2c8:	00529025 	or	s2,v0,s2
  40c2cc:	90930012 	lbu	s3,18(a0)
  40c2d0:	00139a00 	sll	s3,s3,0x8
  40c2d4:	90820013 	lbu	v0,19(a0)
  40c2d8:	00539825 	or	s3,v0,s3
  40c2dc:	3c140041 	lui	s4,0x41
  40c2e0:	26945490 	addiu	s4,s4,21648
  40c2e4:	8f8280d0 	lw	v0,-32560(gp)
  40c2e8:	8c440000 	lw	a0,0(v0)
  40c2ec:	24020a9a 	li	v0,2714
  40c2f0:	afa20010 	sw	v0,16(sp)
  40c2f4:	02802821 	move	a1,s4
  40c2f8:	3c060041 	lui	a2,0x41
  40c2fc:	24c654ac 	addiu	a2,a2,21676
  40c300:	3c070041 	lui	a3,0x41
[31m  40c304:	8f9981c0 	lw	t9,fprintf[0m
  40c308:	0320f809 	jalr	t9
  40c30c:	24e758fc 	addiu	a3,a3,22780
  40c310:	8fbc0018 	lw	gp,24(sp)
  40c314:	00121200 	sll	v0,s2,0x8
  40c318:	3042ffff 	andi	v0,v0,0xffff
  40c31c:	00129202 	srl	s2,s2,0x8
  40c320:	00529025 	or	s2,v0,s2
  40c324:	3402fdfd 	li	v0,0xfdfd
  40c328:	1242000d 	beq	s2,v0,40c360 <landap_commit_setting@@Base+0xe0>
  40c32c:	02802821 	move	a1,s4
  40c330:	8f8280d0 	lw	v0,-32560(gp)
  40c334:	8c440000 	lw	a0,0(v0)
  40c338:	24020a9e 	li	v0,2718
  40c33c:	afa20010 	sw	v0,16(sp)
  40c340:	3c060041 	lui	a2,0x41
  40c344:	24c654ac 	addiu	a2,a2,21676
  40c348:	3c070041 	lui	a3,0x41
[31m  40c34c:	8f9981c0 	lw	t9,fprintf[0m
  40c350:	0320f809 	jalr	t9
  40c354:	24e758fc 	addiu	a3,a3,22780
  40c358:	1000006b 	b	40c508 <landap_commit_setting@@Base+0x288>
  40c35c:	2402ffff 	li	v0,-1
  40c360:	00131200 	sll	v0,s3,0x8
  40c364:	3042ffff 	andi	v0,v0,0xffff
  40c368:	00139a02 	srl	s3,s3,0x8
  40c36c:	00539825 	or	s3,v0,s3
  40c370:	24020001 	li	v0,1
  40c374:	1262000e 	beq	s3,v0,40c3b0 <landap_commit_setting@@Base+0x130>
  40c378:	26040006 	addiu	a0,s0,6
  40c37c:	8f8280d0 	lw	v0,-32560(gp)
  40c380:	8c440000 	lw	a0,0(v0)
  40c384:	24020aa4 	li	v0,2724
  40c388:	afa20010 	sw	v0,16(sp)
  40c38c:	02802821 	move	a1,s4
  40c390:	3c060041 	lui	a2,0x41
  40c394:	24c654ac 	addiu	a2,a2,21676
  40c398:	3c070041 	lui	a3,0x41
[31m  40c39c:	8f9981c0 	lw	t9,fprintf[0m
  40c3a0:	0320f809 	jalr	t9
  40c3a4:	24e758fc 	addiu	a3,a3,22780
  40c3a8:	10000057 	b	40c508 <landap_commit_setting@@Base+0x288>
  40c3ac:	2402ffff 	li	v0,-1
  40c3b0:	24050006 	li	a1,6
  40c3b4:	8f8681ec 	lw	a2,-32276(gp)
  40c3b8:	8f99828c 	lw	t9,-32116(gp)
  40c3bc:	0320f809 	jalr	t9
  40c3c0:	24070006 	li	a3,6
  40c3c4:	8fbc0018 	lw	gp,24(sp)
  40c3c8:	1040000e 	beqz	v0,40c404 <landap_commit_setting@@Base+0x184>
  40c3cc:	2ab50026 	slti	s5,s5,38
  40c3d0:	8f8280d0 	lw	v0,-32560(gp)
  40c3d4:	8c440000 	lw	a0,0(v0)
  40c3d8:	24020ab2 	li	v0,2738
  40c3dc:	afa20010 	sw	v0,16(sp)
  40c3e0:	02802821 	move	a1,s4
  40c3e4:	3c060041 	lui	a2,0x41
  40c3e8:	24c654ac 	addiu	a2,a2,21676
  40c3ec:	3c070041 	lui	a3,0x41
[31m  40c3f0:	8f9981c0 	lw	t9,fprintf[0m
  40c3f4:	0320f809 	jalr	t9
  40c3f8:	24e758fc 	addiu	a3,a3,22780
--
  40c550:	afb00028 	sw	s0,40(sp)
  40c554:	3c1c0043 	lui	gp,0x43
  40c558:	279ce140 	addiu	gp,gp,-7872
  40c55c:	afbc0018 	sw	gp,24(sp)
  40c560:	00808021 	move	s0,a0
  40c564:	00a08821 	move	s1,a1
  40c568:	00c0b021 	move	s6,a2
  40c56c:	90930000 	lbu	s3,0(a0)
  40c570:	00139a00 	sll	s3,s3,0x8
  40c574:	90820001 	lbu	v0,1(a0)
  40c578:	00539825 	or	s3,v0,s3
  40c57c:	90940012 	lbu	s4,18(a0)
  40c580:	0014a200 	sll	s4,s4,0x8
  40c584:	90820013 	lbu	v0,19(a0)
  40c588:	0054a025 	or	s4,v0,s4
  40c58c:	3c150041 	lui	s5,0x41
  40c590:	26b55490 	addiu	s5,s5,21648
  40c594:	8f8280d0 	lw	v0,-32560(gp)
  40c598:	8c440000 	lw	a0,0(v0)
  40c59c:	24020a39 	li	v0,2617
  40c5a0:	afa20010 	sw	v0,16(sp)
  40c5a4:	02a02821 	move	a1,s5
  40c5a8:	3c060041 	lui	a2,0x41
  40c5ac:	24c654ac 	addiu	a2,a2,21676
  40c5b0:	3c070041 	lui	a3,0x41
[31m  40c5b4:	8f9981c0 	lw	t9,fprintf[0m
  40c5b8:	0320f809 	jalr	t9
  40c5bc:	24e75914 	addiu	a3,a3,22804
  40c5c0:	8fbc0018 	lw	gp,24(sp)
  40c5c4:	00131200 	sll	v0,s3,0x8
  40c5c8:	3042ffff 	andi	v0,v0,0xffff
  40c5cc:	00139a02 	srl	s3,s3,0x8
  40c5d0:	00539825 	or	s3,v0,s3
  40c5d4:	3402fdfd 	li	v0,0xfdfd
  40c5d8:	1262000d 	beq	s3,v0,40c610 <landap_init_wifi_site_survey@@Base+0xe0>
  40c5dc:	02a02821 	move	a1,s5
  40c5e0:	8f8280d0 	lw	v0,-32560(gp)
  40c5e4:	8c440000 	lw	a0,0(v0)
  40c5e8:	24020a3d 	li	v0,2621
  40c5ec:	afa20010 	sw	v0,16(sp)
  40c5f0:	3c060041 	lui	a2,0x41
  40c5f4:	24c654ac 	addiu	a2,a2,21676
  40c5f8:	3c070041 	lui	a3,0x41
[31m  40c5fc:	8f9981c0 	lw	t9,fprintf[0m
  40c600:	0320f809 	jalr	t9
  40c604:	24e75914 	addiu	a3,a3,22804
  40c608:	10000072 	b	40c7d4 <landap_init_wifi_site_survey@@Base+0x2a4>
  40c60c:	2402ffff 	li	v0,-1
  40c610:	00141200 	sll	v0,s4,0x8
  40c614:	3042ffff 	andi	v0,v0,0xffff
  40c618:	0014a202 	srl	s4,s4,0x8
  40c61c:	0054a025 	or	s4,v0,s4
  40c620:	24020001 	li	v0,1
  40c624:	1282000e 	beq	s4,v0,40c660 <landap_init_wifi_site_survey@@Base+0x130>
  40c628:	26040006 	addiu	a0,s0,6
  40c62c:	8f8280d0 	lw	v0,-32560(gp)
  40c630:	8c440000 	lw	a0,0(v0)
  40c634:	24020a43 	li	v0,2627
  40c638:	afa20010 	sw	v0,16(sp)
  40c63c:	02a02821 	move	a1,s5
  40c640:	3c060041 	lui	a2,0x41
  40c644:	24c654ac 	addiu	a2,a2,21676
  40c648:	3c070041 	lui	a3,0x41
[31m  40c64c:	8f9981c0 	lw	t9,fprintf[0m
  40c650:	0320f809 	jalr	t9
  40c654:	24e75914 	addiu	a3,a3,22804
  40c658:	1000005e 	b	40c7d4 <landap_init_wifi_site_survey@@Base+0x2a4>
  40c65c:	2402ffff 	li	v0,-1
  40c660:	24050006 	li	a1,6
  40c664:	8f8681ec 	lw	a2,-32276(gp)
  40c668:	8f99828c 	lw	t9,-32116(gp)
  40c66c:	0320f809 	jalr	t9
  40c670:	24070006 	li	a3,6
  40c674:	8fbc0018 	lw	gp,24(sp)
  40c678:	1040000e 	beqz	v0,40c6b4 <landap_init_wifi_site_survey@@Base+0x184>
  40c67c:	2ad60026 	slti	s6,s6,38
  40c680:	8f8280d0 	lw	v0,-32560(gp)
  40c684:	8c440000 	lw	a0,0(v0)
  40c688:	24020a51 	li	v0,2641
  40c68c:	afa20010 	sw	v0,16(sp)
  40c690:	02a02821 	move	a1,s5
  40c694:	3c060041 	lui	a2,0x41
  40c698:	24c654ac 	addiu	a2,a2,21676
  40c69c:	3c070041 	lui	a3,0x41
[31m  40c6a0:	8f9981c0 	lw	t9,fprintf[0m
  40c6a4:	0320f809 	jalr	t9
  40c6a8:	24e75914 	addiu	a3,a3,22804
--
  40c81c:	afb00028 	sw	s0,40(sp)
  40c820:	3c1c0043 	lui	gp,0x43
  40c824:	279ce140 	addiu	gp,gp,-7872
  40c828:	afbc0018 	sw	gp,24(sp)
  40c82c:	00808021 	move	s0,a0
  40c830:	00a08821 	move	s1,a1
  40c834:	00c0b021 	move	s6,a2
  40c838:	90930000 	lbu	s3,0(a0)
  40c83c:	00139a00 	sll	s3,s3,0x8
  40c840:	90820001 	lbu	v0,1(a0)
  40c844:	00539825 	or	s3,v0,s3
  40c848:	90940012 	lbu	s4,18(a0)
  40c84c:	0014a200 	sll	s4,s4,0x8
  40c850:	90820013 	lbu	v0,19(a0)
  40c854:	0054a025 	or	s4,v0,s4
  40c858:	3c150041 	lui	s5,0x41
  40c85c:	26b55490 	addiu	s5,s5,21648
  40c860:	8f8280d0 	lw	v0,-32560(gp)
  40c864:	8c440000 	lw	a0,0(v0)
  40c868:	240202a6 	li	v0,678
  40c86c:	afa20010 	sw	v0,16(sp)
  40c870:	02a02821 	move	a1,s5
  40c874:	3c060041 	lui	a2,0x41
  40c878:	24c654ac 	addiu	a2,a2,21676
  40c87c:	3c070041 	lui	a3,0x41
[31m  40c880:	8f9981c0 	lw	t9,fprintf[0m
  40c884:	0320f809 	jalr	t9
  40c888:	24e75a24 	addiu	a3,a3,23076
  40c88c:	8fbc0018 	lw	gp,24(sp)
  40c890:	00131200 	sll	v0,s3,0x8
  40c894:	3042ffff 	andi	v0,v0,0xffff
  40c898:	00139a02 	srl	s3,s3,0x8
  40c89c:	00539825 	or	s3,v0,s3
  40c8a0:	3402fdfd 	li	v0,0xfdfd
  40c8a4:	1262000d 	beq	s3,v0,40c8dc <landap_query_support_fun@@Base+0xe0>
  40c8a8:	02a02821 	move	a1,s5
  40c8ac:	8f8280d0 	lw	v0,-32560(gp)
  40c8b0:	8c440000 	lw	a0,0(v0)
  40c8b4:	240202ab 	li	v0,683
  40c8b8:	afa20010 	sw	v0,16(sp)
  40c8bc:	3c060041 	lui	a2,0x41
  40c8c0:	24c654ac 	addiu	a2,a2,21676
  40c8c4:	3c070041 	lui	a3,0x41
[31m  40c8c8:	8f9981c0 	lw	t9,fprintf[0m
  40c8cc:	0320f809 	jalr	t9
  40c8d0:	24e75a24 	addiu	a3,a3,23076
  40c8d4:	10000091 	b	40cb1c <landap_query_support_fun@@Base+0x320>
  40c8d8:	2402ffff 	li	v0,-1
  40c8dc:	00141200 	sll	v0,s4,0x8
  40c8e0:	3042ffff 	andi	v0,v0,0xffff
  40c8e4:	0014a202 	srl	s4,s4,0x8
  40c8e8:	0054a025 	or	s4,v0,s4
  40c8ec:	24020001 	li	v0,1
  40c8f0:	1282000e 	beq	s4,v0,40c92c <landap_query_support_fun@@Base+0x130>
  40c8f4:	26040006 	addiu	a0,s0,6
  40c8f8:	8f8280d0 	lw	v0,-32560(gp)
  40c8fc:	8c440000 	lw	a0,0(v0)
  40c900:	240202b1 	li	v0,689
  40c904:	afa20010 	sw	v0,16(sp)
  40c908:	02a02821 	move	a1,s5
  40c90c:	3c060041 	lui	a2,0x41
  40c910:	24c654ac 	addiu	a2,a2,21676
  40c914:	3c070041 	lui	a3,0x41
[31m  40c918:	8f9981c0 	lw	t9,fprintf[0m
  40c91c:	0320f809 	jalr	t9
  40c920:	24e75a24 	addiu	a3,a3,23076
  40c924:	1000007d 	b	40cb1c <landap_query_support_fun@@Base+0x320>
  40c928:	2402ffff 	li	v0,-1
  40c92c:	24050006 	li	a1,6
  40c930:	8f8681ec 	lw	a2,-32276(gp)
  40c934:	8f99828c 	lw	t9,-32116(gp)
  40c938:	0320f809 	jalr	t9
  40c93c:	24070006 	li	a3,6
  40c940:	8fbc0018 	lw	gp,24(sp)
  40c944:	1040000e 	beqz	v0,40c980 <landap_query_support_fun@@Base+0x184>
  40c948:	2ad60106 	slti	s6,s6,262
  40c94c:	8f8280d0 	lw	v0,-32560(gp)
  40c950:	8c440000 	lw	a0,0(v0)
  40c954:	240202be 	li	v0,702
  40c958:	afa20010 	sw	v0,16(sp)
  40c95c:	02a02821 	move	a1,s5
  40c960:	3c060041 	lui	a2,0x41
  40c964:	24c654ac 	addiu	a2,a2,21676
  40c968:	3c070041 	lui	a3,0x41
[31m  40c96c:	8f9981c0 	lw	t9,fprintf[0m
  40c970:	0320f809 	jalr	t9
  40c974:	24e75a24 	addiu	a3,a3,23076
--
  40cba4:	afa00120 	sw	zero,288(sp)
  40cba8:	afa00124 	sw	zero,292(sp)
  40cbac:	afa00128 	sw	zero,296(sp)
  40cbb0:	afa0012c 	sw	zero,300(sp)
  40cbb4:	afa00130 	sw	zero,304(sp)
  40cbb8:	afa00134 	sw	zero,308(sp)
  40cbbc:	afa00138 	sw	zero,312(sp)
  40cbc0:	92130000 	lbu	s3,0(s0)
  40cbc4:	00139a00 	sll	s3,s3,0x8
  40cbc8:	92020001 	lbu	v0,1(s0)
  40cbcc:	00539825 	or	s3,v0,s3
  40cbd0:	92140012 	lbu	s4,18(s0)
  40cbd4:	0014a200 	sll	s4,s4,0x8
  40cbd8:	92020013 	lbu	v0,19(s0)
  40cbdc:	0054a025 	or	s4,v0,s4
  40cbe0:	3c150041 	lui	s5,0x41
  40cbe4:	26b55490 	addiu	s5,s5,21648
  40cbe8:	8f8280d0 	lw	v0,-32560(gp)
  40cbec:	8c440000 	lw	a0,0(v0)
  40cbf0:	24020449 	li	v0,1097
  40cbf4:	afa20010 	sw	v0,16(sp)
  40cbf8:	02a02821 	move	a1,s5
  40cbfc:	3c060041 	lui	a2,0x41
  40cc00:	24c654ac 	addiu	a2,a2,21676
  40cc04:	3c070041 	lui	a3,0x41
[31m  40cc08:	8f9981c0 	lw	t9,fprintf[0m
  40cc0c:	0320f809 	jalr	t9
  40cc10:	24e759d4 	addiu	a3,a3,22996
  40cc14:	8fbc0018 	lw	gp,24(sp)
  40cc18:	00131200 	sll	v0,s3,0x8
  40cc1c:	3042ffff 	andi	v0,v0,0xffff
  40cc20:	00139a02 	srl	s3,s3,0x8
  40cc24:	00539825 	or	s3,v0,s3
  40cc28:	3402fdfd 	li	v0,0xfdfd
  40cc2c:	1262000d 	beq	s3,v0,40cc64 <landap_get_wifi_info@@Base+0x120>
  40cc30:	02a02821 	move	a1,s5
  40cc34:	8f8280d0 	lw	v0,-32560(gp)
  40cc38:	8c440000 	lw	a0,0(v0)
  40cc3c:	2402044d 	li	v0,1101
  40cc40:	afa20010 	sw	v0,16(sp)
  40cc44:	3c060041 	lui	a2,0x41
  40cc48:	24c654ac 	addiu	a2,a2,21676
  40cc4c:	3c070041 	lui	a3,0x41
[31m  40cc50:	8f9981c0 	lw	t9,fprintf[0m
  40cc54:	0320f809 	jalr	t9
  40cc58:	24e759d4 	addiu	a3,a3,22996
  40cc5c:	10000158 	b	40d1c0 <landap_get_wifi_info@@Base+0x67c>
  40cc60:	2402ffff 	li	v0,-1
  40cc64:	00141200 	sll	v0,s4,0x8
  40cc68:	3042ffff 	andi	v0,v0,0xffff
  40cc6c:	0014a202 	srl	s4,s4,0x8
  40cc70:	0054a025 	or	s4,v0,s4
  40cc74:	24020001 	li	v0,1
  40cc78:	1282000e 	beq	s4,v0,40ccb4 <landap_get_wifi_info@@Base+0x170>
  40cc7c:	26040006 	addiu	a0,s0,6
  40cc80:	8f8280d0 	lw	v0,-32560(gp)
  40cc84:	8c440000 	lw	a0,0(v0)
  40cc88:	24020453 	li	v0,1107
  40cc8c:	afa20010 	sw	v0,16(sp)
  40cc90:	02a02821 	move	a1,s5
  40cc94:	3c060041 	lui	a2,0x41
  40cc98:	24c654ac 	addiu	a2,a2,21676
  40cc9c:	3c070041 	lui	a3,0x41
[31m  40cca0:	8f9981c0 	lw	t9,fprintf[0m
  40cca4:	0320f809 	jalr	t9
  40cca8:	24e759d4 	addiu	a3,a3,22996
  40ccac:	10000144 	b	40d1c0 <landap_get_wifi_info@@Base+0x67c>
  40ccb0:	2402ffff 	li	v0,-1
  40ccb4:	24050006 	li	a1,6
  40ccb8:	8f8681ec 	lw	a2,-32276(gp)
  40ccbc:	8f99828c 	lw	t9,-32116(gp)
  40ccc0:	0320f809 	jalr	t9
  40ccc4:	24070006 	li	a3,6
  40ccc8:	8fbc0018 	lw	gp,24(sp)
  40cccc:	1040000e 	beqz	v0,40cd08 <landap_get_wifi_info@@Base+0x1c4>
  40ccd0:	2ad60112 	slti	s6,s6,274
  40ccd4:	8f8280d0 	lw	v0,-32560(gp)
  40ccd8:	8c440000 	lw	a0,0(v0)
  40ccdc:	24020461 	li	v0,1121
  40cce0:	afa20010 	sw	v0,16(sp)
  40cce4:	02a02821 	move	a1,s5
  40cce8:	3c060041 	lui	a2,0x41
  40ccec:	24c654ac 	addiu	a2,a2,21676
  40ccf0:	3c070041 	lui	a3,0x41
[31m  40ccf4:	8f9981c0 	lw	t9,fprintf[0m
  40ccf8:	0320f809 	jalr	t9
  40ccfc:	24e759d4 	addiu	a3,a3,22996
--
  40d234:	00002821 	move	a1,zero
  40d238:	8f99812c 	lw	t9,-32468(gp)
  40d23c:	0320f809 	jalr	t9
  40d240:	240600ff 	li	a2,255
  40d244:	8fbc0018 	lw	gp,24(sp)
  40d248:	afa00120 	sw	zero,288(sp)
  40d24c:	a3a00124 	sb	zero,292(sp)
  40d250:	92130000 	lbu	s3,0(s0)
  40d254:	00139a00 	sll	s3,s3,0x8
  40d258:	92020001 	lbu	v0,1(s0)
  40d25c:	00539825 	or	s3,v0,s3
  40d260:	92140012 	lbu	s4,18(s0)
  40d264:	0014a200 	sll	s4,s4,0x8
  40d268:	92020013 	lbu	v0,19(s0)
  40d26c:	0054a025 	or	s4,v0,s4
  40d270:	3c150041 	lui	s5,0x41
  40d274:	26b55490 	addiu	s5,s5,21648
  40d278:	8f8280d0 	lw	v0,-32560(gp)
  40d27c:	8c440000 	lw	a0,0(v0)
  40d280:	240203a3 	li	v0,931
  40d284:	afa20010 	sw	v0,16(sp)
  40d288:	02a02821 	move	a1,s5
  40d28c:	3c060041 	lui	a2,0x41
  40d290:	24c654ac 	addiu	a2,a2,21676
  40d294:	3c070041 	lui	a3,0x41
[31m  40d298:	8f9981c0 	lw	t9,fprintf[0m
  40d29c:	0320f809 	jalr	t9
  40d2a0:	24e759ec 	addiu	a3,a3,23020
  40d2a4:	8fbc0018 	lw	gp,24(sp)
  40d2a8:	00131200 	sll	v0,s3,0x8
  40d2ac:	3042ffff 	andi	v0,v0,0xffff
  40d2b0:	00139a02 	srl	s3,s3,0x8
  40d2b4:	00539825 	or	s3,v0,s3
  40d2b8:	3402fdfd 	li	v0,0xfdfd
  40d2bc:	1262000d 	beq	s3,v0,40d2f4 <landap_set_network_adv_info@@Base+0x10c>
  40d2c0:	02a02821 	move	a1,s5
  40d2c4:	8f8280d0 	lw	v0,-32560(gp)
  40d2c8:	8c440000 	lw	a0,0(v0)
  40d2cc:	240203a7 	li	v0,935
  40d2d0:	afa20010 	sw	v0,16(sp)
  40d2d4:	3c060041 	lui	a2,0x41
  40d2d8:	24c654ac 	addiu	a2,a2,21676
  40d2dc:	3c070041 	lui	a3,0x41
[31m  40d2e0:	8f9981c0 	lw	t9,fprintf[0m
  40d2e4:	0320f809 	jalr	t9
  40d2e8:	24e759ec 	addiu	a3,a3,23020
  40d2ec:	100000db 	b	40d65c <landap_set_network_adv_info@@Base+0x474>
  40d2f0:	2402ffff 	li	v0,-1
  40d2f4:	00141200 	sll	v0,s4,0x8
  40d2f8:	3042ffff 	andi	v0,v0,0xffff
  40d2fc:	0014a202 	srl	s4,s4,0x8
  40d300:	0054a025 	or	s4,v0,s4
  40d304:	24020001 	li	v0,1
  40d308:	1282000e 	beq	s4,v0,40d344 <landap_set_network_adv_info@@Base+0x15c>
  40d30c:	26040006 	addiu	a0,s0,6
  40d310:	8f8280d0 	lw	v0,-32560(gp)
  40d314:	8c440000 	lw	a0,0(v0)
  40d318:	240203ad 	li	v0,941
  40d31c:	afa20010 	sw	v0,16(sp)
  40d320:	02a02821 	move	a1,s5
  40d324:	3c060041 	lui	a2,0x41
  40d328:	24c654ac 	addiu	a2,a2,21676
  40d32c:	3c070041 	lui	a3,0x41
[31m  40d330:	8f9981c0 	lw	t9,fprintf[0m
  40d334:	0320f809 	jalr	t9
  40d338:	24e759ec 	addiu	a3,a3,23020
  40d33c:	100000c7 	b	40d65c <landap_set_network_adv_info@@Base+0x474>
  40d340:	2402ffff 	li	v0,-1
  40d344:	24050006 	li	a1,6
  40d348:	8f8681ec 	lw	a2,-32276(gp)
  40d34c:	8f99828c 	lw	t9,-32116(gp)
  40d350:	0320f809 	jalr	t9
  40d354:	24070006 	li	a3,6
  40d358:	8fbc0018 	lw	gp,24(sp)
  40d35c:	1040000e 	beqz	v0,40d398 <landap_set_network_adv_info@@Base+0x1b0>
  40d360:	2ad60026 	slti	s6,s6,38
  40d364:	8f8280d0 	lw	v0,-32560(gp)
  40d368:	8c440000 	lw	a0,0(v0)
  40d36c:	240203bb 	li	v0,955
  40d370:	afa20010 	sw	v0,16(sp)
  40d374:	02a02821 	move	a1,s5
  40d378:	3c060041 	lui	a2,0x41
  40d37c:	24c654ac 	addiu	a2,a2,21676
  40d380:	3c070041 	lui	a3,0x41
[31m  40d384:	8f9981c0 	lw	t9,fprintf[0m
  40d388:	0320f809 	jalr	t9
  40d38c:	24e759ec 	addiu	a3,a3,23020
--
  40d6e8:	00002821 	move	a1,zero
  40d6ec:	8f99812c 	lw	t9,-32468(gp)
  40d6f0:	0320f809 	jalr	t9
  40d6f4:	240600ff 	li	a2,255
  40d6f8:	8fbc0018 	lw	gp,24(sp)
  40d6fc:	afa00138 	sw	zero,312(sp)
  40d700:	a3a00140 	sb	zero,320(sp)
  40d704:	92130000 	lbu	s3,0(s0)
  40d708:	00139a00 	sll	s3,s3,0x8
  40d70c:	92020001 	lbu	v0,1(s0)
  40d710:	00539825 	or	s3,v0,s3
  40d714:	92140012 	lbu	s4,18(s0)
  40d718:	0014a200 	sll	s4,s4,0x8
  40d71c:	92020013 	lbu	v0,19(s0)
  40d720:	0054a025 	or	s4,v0,s4
  40d724:	3c150041 	lui	s5,0x41
  40d728:	26b55490 	addiu	s5,s5,21648
  40d72c:	8f8280d0 	lw	v0,-32560(gp)
  40d730:	8c440000 	lw	a0,0(v0)
  40d734:	240208d0 	li	v0,2256
  40d738:	afa20010 	sw	v0,16(sp)
  40d73c:	02a02821 	move	a1,s5
  40d740:	3c060041 	lui	a2,0x41
  40d744:	24c654ac 	addiu	a2,a2,21676
  40d748:	3c070041 	lui	a3,0x41
[31m  40d74c:	8f9981c0 	lw	t9,fprintf[0m
  40d750:	0320f809 	jalr	t9
  40d754:	24e75934 	addiu	a3,a3,22836
  40d758:	8fbc0018 	lw	gp,24(sp)
  40d75c:	00131200 	sll	v0,s3,0x8
  40d760:	3042ffff 	andi	v0,v0,0xffff
  40d764:	00139a02 	srl	s3,s3,0x8
  40d768:	00539825 	or	s3,v0,s3
  40d76c:	3402fdfd 	li	v0,0xfdfd
  40d770:	1262000d 	beq	s3,v0,40d7a8 <landap_set_simple_wifi_info@@Base+0x124>
  40d774:	02a02821 	move	a1,s5
  40d778:	8f8280d0 	lw	v0,-32560(gp)
  40d77c:	8c440000 	lw	a0,0(v0)
  40d780:	240208d4 	li	v0,2260
  40d784:	afa20010 	sw	v0,16(sp)
  40d788:	3c060041 	lui	a2,0x41
  40d78c:	24c654ac 	addiu	a2,a2,21676
  40d790:	3c070041 	lui	a3,0x41
[31m  40d794:	8f9981c0 	lw	t9,fprintf[0m
  40d798:	0320f809 	jalr	t9
  40d79c:	24e75934 	addiu	a3,a3,22836
  40d7a0:	100002d2 	b	40e2ec <landap_set_simple_wifi_info@@Base+0xc68>
  40d7a4:	2402ffff 	li	v0,-1
  40d7a8:	00141200 	sll	v0,s4,0x8
  40d7ac:	3042ffff 	andi	v0,v0,0xffff
  40d7b0:	0014a202 	srl	s4,s4,0x8
  40d7b4:	0054a025 	or	s4,v0,s4
  40d7b8:	24020001 	li	v0,1
  40d7bc:	1282000c 	beq	s4,v0,40d7f0 <landap_set_simple_wifi_info@@Base+0x16c>
  40d7c0:	3c060041 	lui	a2,0x41
  40d7c4:	8f8280d0 	lw	v0,-32560(gp)
  40d7c8:	8c440000 	lw	a0,0(v0)
  40d7cc:	240208da 	li	v0,2266
  40d7d0:	afa20010 	sw	v0,16(sp)
  40d7d4:	24c654ac 	addiu	a2,a2,21676
  40d7d8:	3c070041 	lui	a3,0x41
[31m  40d7dc:	8f9981c0 	lw	t9,fprintf[0m
  40d7e0:	0320f809 	jalr	t9
  40d7e4:	24e75934 	addiu	a3,a3,22836
  40d7e8:	100002c0 	b	40e2ec <landap_set_simple_wifi_info@@Base+0xc68>
  40d7ec:	2402ffff 	li	v0,-1
  40d7f0:	26040006 	addiu	a0,s0,6
  40d7f4:	24050006 	li	a1,6
  40d7f8:	8f8681ec 	lw	a2,-32276(gp)
  40d7fc:	8f99828c 	lw	t9,-32116(gp)
  40d800:	0320f809 	jalr	t9
  40d804:	24070006 	li	a3,6
  40d808:	8fbc0018 	lw	gp,24(sp)
  40d80c:	1040000e 	beqz	v0,40d848 <landap_set_simple_wifi_info@@Base+0x1c4>
  40d810:	2ad60026 	slti	s6,s6,38
  40d814:	8f8280d0 	lw	v0,-32560(gp)
  40d818:	8c440000 	lw	a0,0(v0)
  40d81c:	240208e8 	li	v0,2280
  40d820:	afa20010 	sw	v0,16(sp)
  40d824:	02a02821 	move	a1,s5
  40d828:	3c060041 	lui	a2,0x41
  40d82c:	24c654ac 	addiu	a2,a2,21676
  40d830:	3c070041 	lui	a3,0x41
[31m  40d834:	8f9981c0 	lw	t9,fprintf[0m
  40d838:	0320f809 	jalr	t9
  40d83c:	24e75934 	addiu	a3,a3,22836
--
  40e368:	0320f809 	jalr	t9
  40e36c:	240600ff 	li	a2,255
  40e370:	8fbc0018 	lw	gp,24(sp)
  40e374:	afa00120 	sw	zero,288(sp)
  40e378:	afa00124 	sw	zero,292(sp)
  40e37c:	afa00128 	sw	zero,296(sp)
  40e380:	afa0012c 	sw	zero,300(sp)
  40e384:	92130000 	lbu	s3,0(s0)
  40e388:	00139a00 	sll	s3,s3,0x8
  40e38c:	92020001 	lbu	v0,1(s0)
  40e390:	00539825 	or	s3,v0,s3
  40e394:	92140012 	lbu	s4,18(s0)
  40e398:	0014a200 	sll	s4,s4,0x8
  40e39c:	92020013 	lbu	v0,19(s0)
  40e3a0:	0054a025 	or	s4,v0,s4
  40e3a4:	3c150041 	lui	s5,0x41
  40e3a8:	26b55490 	addiu	s5,s5,21648
  40e3ac:	8f8280d0 	lw	v0,-32560(gp)
  40e3b0:	8c440000 	lw	a0,0(v0)
  40e3b4:	24020845 	li	v0,2117
  40e3b8:	afa20010 	sw	v0,16(sp)
  40e3bc:	02a02821 	move	a1,s5
  40e3c0:	3c060041 	lui	a2,0x41
  40e3c4:	24c654ac 	addiu	a2,a2,21676
  40e3c8:	3c070041 	lui	a3,0x41
[31m  40e3cc:	8f9981c0 	lw	t9,fprintf[0m
  40e3d0:	0320f809 	jalr	t9
  40e3d4:	24e75950 	addiu	a3,a3,22864
  40e3d8:	8fbc0018 	lw	gp,24(sp)
  40e3dc:	00131200 	sll	v0,s3,0x8
  40e3e0:	3042ffff 	andi	v0,v0,0xffff
  40e3e4:	00139a02 	srl	s3,s3,0x8
  40e3e8:	00539825 	or	s3,v0,s3
  40e3ec:	3402fdfd 	li	v0,0xfdfd
  40e3f0:	1262000d 	beq	s3,v0,40e428 <landap_get_simple_wifi_info@@Base+0x114>
  40e3f4:	02a02821 	move	a1,s5
  40e3f8:	8f8280d0 	lw	v0,-32560(gp)
  40e3fc:	8c440000 	lw	a0,0(v0)
  40e400:	24020849 	li	v0,2121
  40e404:	afa20010 	sw	v0,16(sp)
  40e408:	3c060041 	lui	a2,0x41
  40e40c:	24c654ac 	addiu	a2,a2,21676
  40e410:	3c070041 	lui	a3,0x41
[31m  40e414:	8f9981c0 	lw	t9,fprintf[0m
  40e418:	0320f809 	jalr	t9
  40e41c:	24e75950 	addiu	a3,a3,22864
  40e420:	10000103 	b	40e830 <landap_get_simple_wifi_info@@Base+0x51c>
  40e424:	2402ffff 	li	v0,-1
  40e428:	00141200 	sll	v0,s4,0x8
  40e42c:	3042ffff 	andi	v0,v0,0xffff
  40e430:	0014a202 	srl	s4,s4,0x8
  40e434:	0054a025 	or	s4,v0,s4
  40e438:	24020001 	li	v0,1
  40e43c:	1282000e 	beq	s4,v0,40e478 <landap_get_simple_wifi_info@@Base+0x164>
  40e440:	26040006 	addiu	a0,s0,6
  40e444:	8f8280d0 	lw	v0,-32560(gp)
  40e448:	8c440000 	lw	a0,0(v0)
  40e44c:	2402084f 	li	v0,2127
  40e450:	afa20010 	sw	v0,16(sp)
  40e454:	02a02821 	move	a1,s5
  40e458:	3c060041 	lui	a2,0x41
  40e45c:	24c654ac 	addiu	a2,a2,21676
  40e460:	3c070041 	lui	a3,0x41
[31m  40e464:	8f9981c0 	lw	t9,fprintf[0m
  40e468:	0320f809 	jalr	t9
  40e46c:	24e75950 	addiu	a3,a3,22864
  40e470:	100000ef 	b	40e830 <landap_get_simple_wifi_info@@Base+0x51c>
  40e474:	2402ffff 	li	v0,-1
  40e478:	24050006 	li	a1,6
  40e47c:	8f8681ec 	lw	a2,-32276(gp)
  40e480:	8f99828c 	lw	t9,-32116(gp)
  40e484:	0320f809 	jalr	t9
  40e488:	24070006 	li	a3,6
  40e48c:	8fbc0018 	lw	gp,24(sp)
  40e490:	1040000e 	beqz	v0,40e4cc <landap_get_simple_wifi_info@@Base+0x1b8>
  40e494:	2ad60082 	slti	s6,s6,130
  40e498:	8f8280d0 	lw	v0,-32560(gp)
  40e49c:	8c440000 	lw	a0,0(v0)
  40e4a0:	2402085d 	li	v0,2141
  40e4a4:	afa20010 	sw	v0,16(sp)
  40e4a8:	02a02821 	move	a1,s5
  40e4ac:	3c060041 	lui	a2,0x41
  40e4b0:	24c654ac 	addiu	a2,a2,21676
  40e4b4:	3c070041 	lui	a3,0x41
[31m  40e4b8:	8f9981c0 	lw	t9,fprintf[0m
  40e4bc:	0320f809 	jalr	t9
  40e4c0:	24e75950 	addiu	a3,a3,22864
--
  40e8a0:	a3a20024 	sb	v0,36(sp)
  40e8a4:	27a40025 	addiu	a0,sp,37
  40e8a8:	00002821 	move	a1,zero
  40e8ac:	8f99812c 	lw	t9,-32468(gp)
  40e8b0:	0320f809 	jalr	t9
  40e8b4:	240600ff 	li	a2,255
  40e8b8:	8fbc0018 	lw	gp,24(sp)
  40e8bc:	92130000 	lbu	s3,0(s0)
  40e8c0:	00139a00 	sll	s3,s3,0x8
  40e8c4:	92020001 	lbu	v0,1(s0)
  40e8c8:	00539825 	or	s3,v0,s3
  40e8cc:	92140012 	lbu	s4,18(s0)
  40e8d0:	0014a200 	sll	s4,s4,0x8
  40e8d4:	92020013 	lbu	v0,19(s0)
  40e8d8:	0054a025 	or	s4,v0,s4
  40e8dc:	3c150041 	lui	s5,0x41
  40e8e0:	26b55490 	addiu	s5,s5,21648
  40e8e4:	8f8280d0 	lw	v0,-32560(gp)
  40e8e8:	8c440000 	lw	a0,0(v0)
  40e8ec:	2402010f 	li	v0,271
  40e8f0:	afa20010 	sw	v0,16(sp)
  40e8f4:	02a02821 	move	a1,s5
  40e8f8:	3c060041 	lui	a2,0x41
  40e8fc:	24c654ac 	addiu	a2,a2,21676
  40e900:	3c070041 	lui	a3,0x41
[31m  40e904:	8f9981c0 	lw	t9,fprintf[0m
  40e908:	0320f809 	jalr	t9
  40e90c:	24e75a78 	addiu	a3,a3,23160
  40e910:	8fbc0018 	lw	gp,24(sp)
  40e914:	00131200 	sll	v0,s3,0x8
  40e918:	3042ffff 	andi	v0,v0,0xffff
  40e91c:	00139a02 	srl	s3,s3,0x8
  40e920:	00539825 	or	s3,v0,s3
  40e924:	3402fdfd 	li	v0,0xfdfd
  40e928:	1262000d 	beq	s3,v0,40e960 <landap_set_basic_info@@Base+0x108>
  40e92c:	02a02821 	move	a1,s5
  40e930:	8f8280d0 	lw	v0,-32560(gp)
  40e934:	8c440000 	lw	a0,0(v0)
  40e938:	24020113 	li	v0,275
  40e93c:	afa20010 	sw	v0,16(sp)
  40e940:	3c060041 	lui	a2,0x41
  40e944:	24c654ac 	addiu	a2,a2,21676
  40e948:	3c070041 	lui	a3,0x41
[31m  40e94c:	8f9981c0 	lw	t9,fprintf[0m
  40e950:	0320f809 	jalr	t9
  40e954:	24e75a78 	addiu	a3,a3,23160
  40e958:	10000158 	b	40eebc <landap_set_basic_info@@Base+0x664>
  40e95c:	2402ffff 	li	v0,-1
  40e960:	00141200 	sll	v0,s4,0x8
  40e964:	3042ffff 	andi	v0,v0,0xffff
  40e968:	0014a202 	srl	s4,s4,0x8
  40e96c:	0054a025 	or	s4,v0,s4
  40e970:	24020001 	li	v0,1
  40e974:	1282000e 	beq	s4,v0,40e9b0 <landap_set_basic_info@@Base+0x158>
  40e978:	26040006 	addiu	a0,s0,6
  40e97c:	8f8280d0 	lw	v0,-32560(gp)
  40e980:	8c440000 	lw	a0,0(v0)
  40e984:	24020119 	li	v0,281
  40e988:	afa20010 	sw	v0,16(sp)
  40e98c:	02a02821 	move	a1,s5
  40e990:	3c060041 	lui	a2,0x41
  40e994:	24c654ac 	addiu	a2,a2,21676
  40e998:	3c070041 	lui	a3,0x41
[31m  40e99c:	8f9981c0 	lw	t9,fprintf[0m
  40e9a0:	0320f809 	jalr	t9
  40e9a4:	24e75a78 	addiu	a3,a3,23160
  40e9a8:	10000144 	b	40eebc <landap_set_basic_info@@Base+0x664>
  40e9ac:	2402ffff 	li	v0,-1
  40e9b0:	24050006 	li	a1,6
  40e9b4:	8f8681ec 	lw	a2,-32276(gp)
  40e9b8:	8f99828c 	lw	t9,-32116(gp)
  40e9bc:	0320f809 	jalr	t9
  40e9c0:	24070006 	li	a3,6
  40e9c4:	8fbc0018 	lw	gp,24(sp)
  40e9c8:	1040000e 	beqz	v0,40ea04 <landap_set_basic_info@@Base+0x1ac>
  40e9cc:	2ad60026 	slti	s6,s6,38
  40e9d0:	8f8280d0 	lw	v0,-32560(gp)
  40e9d4:	8c440000 	lw	a0,0(v0)
  40e9d8:	24020127 	li	v0,295
  40e9dc:	afa20010 	sw	v0,16(sp)
  40e9e0:	02a02821 	move	a1,s5
  40e9e4:	3c060041 	lui	a2,0x41
  40e9e8:	24c654ac 	addiu	a2,a2,21676
  40e9ec:	3c070041 	lui	a3,0x41
[31m  40e9f0:	8f9981c0 	lw	t9,fprintf[0m
  40e9f4:	0320f809 	jalr	t9
  40e9f8:	24e75a78 	addiu	a3,a3,23160
--
  40ef44:	a3a20044 	sb	v0,68(sp)
  40ef48:	27a40045 	addiu	a0,sp,69
  40ef4c:	00002821 	move	a1,zero
  40ef50:	8f99812c 	lw	t9,-32468(gp)
  40ef54:	0320f809 	jalr	t9
  40ef58:	240600ff 	li	a2,255
  40ef5c:	8fbc0020 	lw	gp,32(sp)
  40ef60:	92130000 	lbu	s3,0(s0)
  40ef64:	00139a00 	sll	s3,s3,0x8
  40ef68:	92020001 	lbu	v0,1(s0)
  40ef6c:	00539825 	or	s3,v0,s3
  40ef70:	92140012 	lbu	s4,18(s0)
  40ef74:	0014a200 	sll	s4,s4,0x8
  40ef78:	92020013 	lbu	v0,19(s0)
  40ef7c:	0054a025 	or	s4,v0,s4
  40ef80:	3c150041 	lui	s5,0x41
  40ef84:	26b55490 	addiu	s5,s5,21648
  40ef88:	8f8280d0 	lw	v0,-32560(gp)
  40ef8c:	8c440000 	lw	a0,0(v0)
  40ef90:	24020780 	li	v0,1920
  40ef94:	afa20010 	sw	v0,16(sp)
  40ef98:	02a02821 	move	a1,s5
  40ef9c:	3c060041 	lui	a2,0x41
  40efa0:	24c654ac 	addiu	a2,a2,21676
  40efa4:	3c070041 	lui	a3,0x41
[31m  40efa8:	8f9981c0 	lw	t9,fprintf[0m
  40efac:	0320f809 	jalr	t9
  40efb0:	24e7596c 	addiu	a3,a3,22892
  40efb4:	8fbc0020 	lw	gp,32(sp)
  40efb8:	00131200 	sll	v0,s3,0x8
  40efbc:	3042ffff 	andi	v0,v0,0xffff
  40efc0:	00139a02 	srl	s3,s3,0x8
  40efc4:	00539825 	or	s3,v0,s3
  40efc8:	3402fdfd 	li	v0,0xfdfd
  40efcc:	1262000d 	beq	s3,v0,40f004 <landap_set_system_datetime@@Base+0x120>
  40efd0:	02a02821 	move	a1,s5
  40efd4:	8f8280d0 	lw	v0,-32560(gp)
  40efd8:	8c440000 	lw	a0,0(v0)
  40efdc:	24020784 	li	v0,1924
  40efe0:	afa20010 	sw	v0,16(sp)
  40efe4:	3c060041 	lui	a2,0x41
  40efe8:	24c654ac 	addiu	a2,a2,21676
  40efec:	3c070041 	lui	a3,0x41
[31m  40eff0:	8f9981c0 	lw	t9,fprintf[0m
  40eff4:	0320f809 	jalr	t9
  40eff8:	24e7596c 	addiu	a3,a3,22892
  40effc:	10000157 	b	40f55c <landap_set_system_datetime@@Base+0x678>
  40f000:	2402ffff 	li	v0,-1
  40f004:	00141200 	sll	v0,s4,0x8
  40f008:	3042ffff 	andi	v0,v0,0xffff
  40f00c:	0014a202 	srl	s4,s4,0x8
  40f010:	0054a025 	or	s4,v0,s4
  40f014:	24020001 	li	v0,1
  40f018:	1282000e 	beq	s4,v0,40f054 <landap_set_system_datetime@@Base+0x170>
  40f01c:	26040006 	addiu	a0,s0,6
  40f020:	8f8280d0 	lw	v0,-32560(gp)
  40f024:	8c440000 	lw	a0,0(v0)
  40f028:	2402078a 	li	v0,1930
  40f02c:	afa20010 	sw	v0,16(sp)
  40f030:	02a02821 	move	a1,s5
  40f034:	3c060041 	lui	a2,0x41
  40f038:	24c654ac 	addiu	a2,a2,21676
  40f03c:	3c070041 	lui	a3,0x41
[31m  40f040:	8f9981c0 	lw	t9,fprintf[0m
  40f044:	0320f809 	jalr	t9
  40f048:	24e7596c 	addiu	a3,a3,22892
  40f04c:	10000143 	b	40f55c <landap_set_system_datetime@@Base+0x678>
  40f050:	2402ffff 	li	v0,-1
  40f054:	24050006 	li	a1,6
  40f058:	8f8681ec 	lw	a2,-32276(gp)
  40f05c:	8f99828c 	lw	t9,-32116(gp)
  40f060:	0320f809 	jalr	t9
  40f064:	24070006 	li	a3,6
  40f068:	8fbc0020 	lw	gp,32(sp)
  40f06c:	1040000e 	beqz	v0,40f0a8 <landap_set_system_datetime@@Base+0x1c4>
  40f070:	2ad60026 	slti	s6,s6,38
  40f074:	8f8280d0 	lw	v0,-32560(gp)
  40f078:	8c440000 	lw	a0,0(v0)
  40f07c:	24020798 	li	v0,1944
  40f080:	afa20010 	sw	v0,16(sp)
  40f084:	02a02821 	move	a1,s5
  40f088:	3c060041 	lui	a2,0x41
  40f08c:	24c654ac 	addiu	a2,a2,21676
  40f090:	3c070041 	lui	a3,0x41
[31m  40f094:	8f9981c0 	lw	t9,fprintf[0m
  40f098:	0320f809 	jalr	t9
  40f09c:	24e7596c 	addiu	a3,a3,22892
--
  40f5cc:	a3a20030 	sb	v0,48(sp)
  40f5d0:	27a40031 	addiu	a0,sp,49
  40f5d4:	00002821 	move	a1,zero
  40f5d8:	8f99812c 	lw	t9,-32468(gp)
  40f5dc:	0320f809 	jalr	t9
  40f5e0:	240600ff 	li	a2,255
  40f5e4:	8fbc0020 	lw	gp,32(sp)
  40f5e8:	92130000 	lbu	s3,0(s0)
  40f5ec:	00139a00 	sll	s3,s3,0x8
  40f5f0:	92020001 	lbu	v0,1(s0)
  40f5f4:	00539825 	or	s3,v0,s3
  40f5f8:	92140012 	lbu	s4,18(s0)
  40f5fc:	0014a200 	sll	s4,s4,0x8
  40f600:	92020013 	lbu	v0,19(s0)
  40f604:	0054a025 	or	s4,v0,s4
  40f608:	3c150041 	lui	s5,0x41
  40f60c:	26b55490 	addiu	s5,s5,21648
  40f610:	8f8280d0 	lw	v0,-32560(gp)
  40f614:	8c440000 	lw	a0,0(v0)
  40f618:	24020703 	li	v0,1795
  40f61c:	afa20010 	sw	v0,16(sp)
  40f620:	02a02821 	move	a1,s5
  40f624:	3c060041 	lui	a2,0x41
  40f628:	24c654ac 	addiu	a2,a2,21676
  40f62c:	3c070041 	lui	a3,0x41
[31m  40f630:	8f9981c0 	lw	t9,fprintf[0m
  40f634:	0320f809 	jalr	t9
  40f638:	24e75988 	addiu	a3,a3,22920
  40f63c:	8fbc0020 	lw	gp,32(sp)
  40f640:	00131200 	sll	v0,s3,0x8
  40f644:	3042ffff 	andi	v0,v0,0xffff
  40f648:	00139a02 	srl	s3,s3,0x8
  40f64c:	00539825 	or	s3,v0,s3
  40f650:	3402fdfd 	li	v0,0xfdfd
  40f654:	1262000d 	beq	s3,v0,40f68c <landap_get_system_datetime@@Base+0x108>
  40f658:	02a02821 	move	a1,s5
  40f65c:	8f8280d0 	lw	v0,-32560(gp)
  40f660:	8c440000 	lw	a0,0(v0)
  40f664:	24020707 	li	v0,1799
  40f668:	afa20010 	sw	v0,16(sp)
  40f66c:	3c060041 	lui	a2,0x41
  40f670:	24c654ac 	addiu	a2,a2,21676
  40f674:	3c070041 	lui	a3,0x41
[31m  40f678:	8f9981c0 	lw	t9,fprintf[0m
  40f67c:	0320f809 	jalr	t9
  40f680:	24e75988 	addiu	a3,a3,22920
  40f684:	100000cf 	b	40f9c4 <landap_get_system_datetime@@Base+0x440>
  40f688:	2402ffff 	li	v0,-1
  40f68c:	00141200 	sll	v0,s4,0x8
  40f690:	3042ffff 	andi	v0,v0,0xffff
  40f694:	0014a202 	srl	s4,s4,0x8
  40f698:	0054a025 	or	s4,v0,s4
  40f69c:	24020001 	li	v0,1
  40f6a0:	1282000e 	beq	s4,v0,40f6dc <landap_get_system_datetime@@Base+0x158>
  40f6a4:	26040006 	addiu	a0,s0,6
  40f6a8:	8f8280d0 	lw	v0,-32560(gp)
  40f6ac:	8c440000 	lw	a0,0(v0)
  40f6b0:	2402070d 	li	v0,1805
  40f6b4:	afa20010 	sw	v0,16(sp)
  40f6b8:	02a02821 	move	a1,s5
  40f6bc:	3c060041 	lui	a2,0x41
  40f6c0:	24c654ac 	addiu	a2,a2,21676
  40f6c4:	3c070041 	lui	a3,0x41
[31m  40f6c8:	8f9981c0 	lw	t9,fprintf[0m
  40f6cc:	0320f809 	jalr	t9
  40f6d0:	24e75988 	addiu	a3,a3,22920
  40f6d4:	100000bb 	b	40f9c4 <landap_get_system_datetime@@Base+0x440>
  40f6d8:	2402ffff 	li	v0,-1
  40f6dc:	24050006 	li	a1,6
  40f6e0:	8f8681ec 	lw	a2,-32276(gp)
  40f6e4:	8f99828c 	lw	t9,-32116(gp)
  40f6e8:	0320f809 	jalr	t9
  40f6ec:	24070006 	li	a3,6
  40f6f0:	8fbc0020 	lw	gp,32(sp)
  40f6f4:	1040000e 	beqz	v0,40f730 <landap_get_system_datetime@@Base+0x1ac>
  40f6f8:	2ad6007a 	slti	s6,s6,122
  40f6fc:	8f8280d0 	lw	v0,-32560(gp)
  40f700:	8c440000 	lw	a0,0(v0)
  40f704:	2402071b 	li	v0,1819
  40f708:	afa20010 	sw	v0,16(sp)
  40f70c:	02a02821 	move	a1,s5
  40f710:	3c060041 	lui	a2,0x41
  40f714:	24c654ac 	addiu	a2,a2,21676
  40f718:	3c070041 	lui	a3,0x41
[31m  40f71c:	8f9981c0 	lw	t9,fprintf[0m
  40f720:	0320f809 	jalr	t9
  40f724:	24e75988 	addiu	a3,a3,22920
--
  40fa10:	3c1c0043 	lui	gp,0x43
  40fa14:	279ce140 	addiu	gp,gp,-7872
  40fa18:	afbc0018 	sw	gp,24(sp)
  40fa1c:	00808021 	move	s0,a0
  40fa20:	00a0b021 	move	s6,a1
  40fa24:	00c0a821 	move	s5,a2
  40fa28:	afa00020 	sw	zero,32(sp)
  40fa2c:	90910000 	lbu	s1,0(a0)
  40fa30:	00118a00 	sll	s1,s1,0x8
  40fa34:	90820001 	lbu	v0,1(a0)
  40fa38:	00518825 	or	s1,v0,s1
  40fa3c:	90930012 	lbu	s3,18(a0)
  40fa40:	00139a00 	sll	s3,s3,0x8
  40fa44:	90820013 	lbu	v0,19(a0)
  40fa48:	00539825 	or	s3,v0,s3
  40fa4c:	3c140041 	lui	s4,0x41
  40fa50:	26945490 	addiu	s4,s4,21648
  40fa54:	8f8280d0 	lw	v0,-32560(gp)
  40fa58:	8c440000 	lw	a0,0(v0)
  40fa5c:	240206a3 	li	v0,1699
  40fa60:	afa20010 	sw	v0,16(sp)
  40fa64:	02802821 	move	a1,s4
  40fa68:	3c060041 	lui	a2,0x41
  40fa6c:	24c654ac 	addiu	a2,a2,21676
  40fa70:	3c070041 	lui	a3,0x41
[31m  40fa74:	8f9981c0 	lw	t9,fprintf[0m
  40fa78:	0320f809 	jalr	t9
  40fa7c:	24e759a4 	addiu	a3,a3,22948
  40fa80:	8fbc0018 	lw	gp,24(sp)
  40fa84:	00111200 	sll	v0,s1,0x8
  40fa88:	3042ffff 	andi	v0,v0,0xffff
  40fa8c:	00118a02 	srl	s1,s1,0x8
  40fa90:	00518825 	or	s1,v0,s1
  40fa94:	3402fdfd 	li	v0,0xfdfd
  40fa98:	1222000d 	beq	s1,v0,40fad0 <landap_factory_reset@@Base+0xe4>
  40fa9c:	02802821 	move	a1,s4
  40faa0:	8f8280d0 	lw	v0,-32560(gp)
  40faa4:	8c440000 	lw	a0,0(v0)
  40faa8:	240206a7 	li	v0,1703
  40faac:	afa20010 	sw	v0,16(sp)
  40fab0:	3c060041 	lui	a2,0x41
  40fab4:	24c654ac 	addiu	a2,a2,21676
  40fab8:	3c070041 	lui	a3,0x41
[31m  40fabc:	8f9981c0 	lw	t9,fprintf[0m
  40fac0:	0320f809 	jalr	t9
  40fac4:	24e759a4 	addiu	a3,a3,22948
  40fac8:	10000078 	b	40fcac <landap_factory_reset@@Base+0x2c0>
  40facc:	2402ffff 	li	v0,-1
  40fad0:	00131200 	sll	v0,s3,0x8
  40fad4:	3042ffff 	andi	v0,v0,0xffff
  40fad8:	00139a02 	srl	s3,s3,0x8
  40fadc:	00539825 	or	s3,v0,s3
  40fae0:	24020001 	li	v0,1
  40fae4:	1262000e 	beq	s3,v0,40fb20 <landap_factory_reset@@Base+0x134>
  40fae8:	26040006 	addiu	a0,s0,6
  40faec:	8f8280d0 	lw	v0,-32560(gp)
  40faf0:	8c440000 	lw	a0,0(v0)
  40faf4:	240206ad 	li	v0,1709
  40faf8:	afa20010 	sw	v0,16(sp)
  40fafc:	02802821 	move	a1,s4
  40fb00:	3c060041 	lui	a2,0x41
  40fb04:	24c654ac 	addiu	a2,a2,21676
  40fb08:	3c070041 	lui	a3,0x41
[31m  40fb0c:	8f9981c0 	lw	t9,fprintf[0m
  40fb10:	0320f809 	jalr	t9
  40fb14:	24e759a4 	addiu	a3,a3,22948
  40fb18:	10000064 	b	40fcac <landap_factory_reset@@Base+0x2c0>
  40fb1c:	2402ffff 	li	v0,-1
  40fb20:	24050006 	li	a1,6
  40fb24:	8f8681ec 	lw	a2,-32276(gp)
  40fb28:	8f99828c 	lw	t9,-32116(gp)
  40fb2c:	0320f809 	jalr	t9
  40fb30:	24070006 	li	a3,6
  40fb34:	8fbc0018 	lw	gp,24(sp)
  40fb38:	1040000e 	beqz	v0,40fb74 <landap_factory_reset@@Base+0x188>
  40fb3c:	2ab50026 	slti	s5,s5,38
  40fb40:	8f8280d0 	lw	v0,-32560(gp)
  40fb44:	8c440000 	lw	a0,0(v0)
  40fb48:	240206bb 	li	v0,1723
  40fb4c:	afa20010 	sw	v0,16(sp)
  40fb50:	02802821 	move	a1,s4
  40fb54:	3c060041 	lui	a2,0x41
  40fb58:	24c654ac 	addiu	a2,a2,21676
  40fb5c:	3c070041 	lui	a3,0x41
[31m  40fb60:	8f9981c0 	lw	t9,fprintf[0m
  40fb64:	0320f809 	jalr	t9
  40fb68:	24e759a4 	addiu	a3,a3,22948
--
  40fd38:	00002821 	move	a1,zero
  40fd3c:	8f99812c 	lw	t9,-32468(gp)
  40fd40:	0320f809 	jalr	t9
  40fd44:	240600ff 	li	a2,255
  40fd48:	8fbc0018 	lw	gp,24(sp)
  40fd4c:	afa00138 	sw	zero,312(sp)
  40fd50:	a3a00150 	sb	zero,336(sp)
  40fd54:	92130000 	lbu	s3,0(s0)
  40fd58:	00139a00 	sll	s3,s3,0x8
  40fd5c:	92020001 	lbu	v0,1(s0)
  40fd60:	00539825 	or	s3,v0,s3
  40fd64:	92140012 	lbu	s4,18(s0)
  40fd68:	0014a200 	sll	s4,s4,0x8
  40fd6c:	92020013 	lbu	v0,19(s0)
  40fd70:	0054a025 	or	s4,v0,s4
  40fd74:	3c150041 	lui	s5,0x41
  40fd78:	26b55490 	addiu	s5,s5,21648
  40fd7c:	8f8280d0 	lw	v0,-32560(gp)
  40fd80:	8c440000 	lw	a0,0(v0)
  40fd84:	240204f8 	li	v0,1272
  40fd88:	afa20010 	sw	v0,16(sp)
  40fd8c:	02a02821 	move	a1,s5
  40fd90:	3c060041 	lui	a2,0x41
  40fd94:	24c654ac 	addiu	a2,a2,21676
  40fd98:	3c070041 	lui	a3,0x41
[31m  40fd9c:	8f9981c0 	lw	t9,fprintf[0m
  40fda0:	0320f809 	jalr	t9
  40fda4:	24e759bc 	addiu	a3,a3,22972
  40fda8:	8fbc0018 	lw	gp,24(sp)
  40fdac:	00131200 	sll	v0,s3,0x8
  40fdb0:	3042ffff 	andi	v0,v0,0xffff
  40fdb4:	00139a02 	srl	s3,s3,0x8
  40fdb8:	00539825 	or	s3,v0,s3
  40fdbc:	3402fdfd 	li	v0,0xfdfd
  40fdc0:	1262000d 	beq	s3,v0,40fdf8 <landap_set_wifi_info@@Base+0x124>
  40fdc4:	02a02821 	move	a1,s5
  40fdc8:	8f8280d0 	lw	v0,-32560(gp)
  40fdcc:	8c440000 	lw	a0,0(v0)
  40fdd0:	240204fc 	li	v0,1276
  40fdd4:	afa20010 	sw	v0,16(sp)
  40fdd8:	3c060041 	lui	a2,0x41
  40fddc:	24c654ac 	addiu	a2,a2,21676
  40fde0:	3c070041 	lui	a3,0x41
[31m  40fde4:	8f9981c0 	lw	t9,fprintf[0m
  40fde8:	0320f809 	jalr	t9
  40fdec:	24e759bc 	addiu	a3,a3,22972
  40fdf0:	10000353 	b	410b40 <landap_set_wifi_info@@Base+0xe6c>
  40fdf4:	2402ffff 	li	v0,-1
  40fdf8:	00141200 	sll	v0,s4,0x8
  40fdfc:	3042ffff 	andi	v0,v0,0xffff
  40fe00:	0014a202 	srl	s4,s4,0x8
  40fe04:	0054a025 	or	s4,v0,s4
  40fe08:	24020001 	li	v0,1
  40fe0c:	1282000c 	beq	s4,v0,40fe40 <landap_set_wifi_info@@Base+0x16c>
  40fe10:	3c060041 	lui	a2,0x41
  40fe14:	8f8280d0 	lw	v0,-32560(gp)
  40fe18:	8c440000 	lw	a0,0(v0)
  40fe1c:	24020502 	li	v0,1282
  40fe20:	afa20010 	sw	v0,16(sp)
  40fe24:	24c654ac 	addiu	a2,a2,21676
  40fe28:	3c070041 	lui	a3,0x41
[31m  40fe2c:	8f9981c0 	lw	t9,fprintf[0m
  40fe30:	0320f809 	jalr	t9
  40fe34:	24e759bc 	addiu	a3,a3,22972
  40fe38:	10000341 	b	410b40 <landap_set_wifi_info@@Base+0xe6c>
  40fe3c:	2402ffff 	li	v0,-1
  40fe40:	26040006 	addiu	a0,s0,6
  40fe44:	24050006 	li	a1,6
  40fe48:	8f8681ec 	lw	a2,-32276(gp)
  40fe4c:	8f99828c 	lw	t9,-32116(gp)
  40fe50:	0320f809 	jalr	t9
  40fe54:	24070006 	li	a3,6
  40fe58:	8fbc0018 	lw	gp,24(sp)
  40fe5c:	1040000e 	beqz	v0,40fe98 <landap_set_wifi_info@@Base+0x1c4>
  40fe60:	2ad60026 	slti	s6,s6,38
  40fe64:	8f8280d0 	lw	v0,-32560(gp)
  40fe68:	8c440000 	lw	a0,0(v0)
  40fe6c:	24020510 	li	v0,1296
  40fe70:	afa20010 	sw	v0,16(sp)
  40fe74:	02a02821 	move	a1,s5
  40fe78:	3c060041 	lui	a2,0x41
  40fe7c:	24c654ac 	addiu	a2,a2,21676
  40fe80:	3c070041 	lui	a3,0x41
[31m  40fe84:	8f9981c0 	lw	t9,fprintf[0m
  40fe88:	0320f809 	jalr	t9
  40fe8c:	24e759bc 	addiu	a3,a3,22972
--
  410bb4:	00002821 	move	a1,zero
  410bb8:	8f99812c 	lw	t9,-32468(gp)
  410bbc:	0320f809 	jalr	t9
  410bc0:	240600ff 	li	a2,255
  410bc4:	8fbc0018 	lw	gp,24(sp)
  410bc8:	a3a00120 	sb	zero,288(sp)
  410bcc:	a3a00121 	sb	zero,289(sp)
  410bd0:	92130000 	lbu	s3,0(s0)
  410bd4:	00139a00 	sll	s3,s3,0x8
  410bd8:	92020001 	lbu	v0,1(s0)
  410bdc:	00539825 	or	s3,v0,s3
  410be0:	92140012 	lbu	s4,18(s0)
  410be4:	0014a200 	sll	s4,s4,0x8
  410be8:	92020013 	lbu	v0,19(s0)
  410bec:	0054a025 	or	s4,v0,s4
  410bf0:	3c150041 	lui	s5,0x41
  410bf4:	26b55490 	addiu	s5,s5,21648
  410bf8:	8f8280d0 	lw	v0,-32560(gp)
  410bfc:	8c440000 	lw	a0,0(v0)
  410c00:	2402031e 	li	v0,798
  410c04:	afa20010 	sw	v0,16(sp)
  410c08:	02a02821 	move	a1,s5
  410c0c:	3c060041 	lui	a2,0x41
  410c10:	24c654ac 	addiu	a2,a2,21676
  410c14:	3c070041 	lui	a3,0x41
[31m  410c18:	8f9981c0 	lw	t9,fprintf[0m
  410c1c:	0320f809 	jalr	t9
  410c20:	24e75a08 	addiu	a3,a3,23048
  410c24:	8fbc0018 	lw	gp,24(sp)
  410c28:	00131200 	sll	v0,s3,0x8
  410c2c:	3042ffff 	andi	v0,v0,0xffff
  410c30:	00139a02 	srl	s3,s3,0x8
  410c34:	00539825 	or	s3,v0,s3
  410c38:	3402fdfd 	li	v0,0xfdfd
  410c3c:	1262000d 	beq	s3,v0,410c74 <landap_get_network_adv_info@@Base+0x10c>
  410c40:	02a02821 	move	a1,s5
  410c44:	8f8280d0 	lw	v0,-32560(gp)
  410c48:	8c440000 	lw	a0,0(v0)
  410c4c:	24020322 	li	v0,802
  410c50:	afa20010 	sw	v0,16(sp)
  410c54:	3c060041 	lui	a2,0x41
  410c58:	24c654ac 	addiu	a2,a2,21676
  410c5c:	3c070041 	lui	a3,0x41
[31m  410c60:	8f9981c0 	lw	t9,fprintf[0m
  410c64:	0320f809 	jalr	t9
  410c68:	24e75a08 	addiu	a3,a3,23048
  410c6c:	10000108 	b	411090 <landap_get_network_adv_info@@Base+0x528>
  410c70:	2402ffff 	li	v0,-1
  410c74:	00141200 	sll	v0,s4,0x8
  410c78:	3042ffff 	andi	v0,v0,0xffff
  410c7c:	0014a202 	srl	s4,s4,0x8
  410c80:	0054a025 	or	s4,v0,s4
  410c84:	24020001 	li	v0,1
  410c88:	1282000e 	beq	s4,v0,410cc4 <landap_get_network_adv_info@@Base+0x15c>
  410c8c:	26040006 	addiu	a0,s0,6
  410c90:	8f8280d0 	lw	v0,-32560(gp)
  410c94:	8c440000 	lw	a0,0(v0)
  410c98:	24020328 	li	v0,808
  410c9c:	afa20010 	sw	v0,16(sp)
  410ca0:	02a02821 	move	a1,s5
  410ca4:	3c060041 	lui	a2,0x41
  410ca8:	24c654ac 	addiu	a2,a2,21676
  410cac:	3c070041 	lui	a3,0x41
[31m  410cb0:	8f9981c0 	lw	t9,fprintf[0m
  410cb4:	0320f809 	jalr	t9
  410cb8:	24e75a08 	addiu	a3,a3,23048
  410cbc:	100000f4 	b	411090 <landap_get_network_adv_info@@Base+0x528>
  410cc0:	2402ffff 	li	v0,-1
  410cc4:	24050006 	li	a1,6
  410cc8:	8f8681ec 	lw	a2,-32276(gp)
  410ccc:	8f99828c 	lw	t9,-32116(gp)
  410cd0:	0320f809 	jalr	t9
  410cd4:	24070006 	li	a3,6
  410cd8:	8fbc0018 	lw	gp,24(sp)
  410cdc:	1040000e 	beqz	v0,410d18 <landap_get_network_adv_info@@Base+0x1b0>
  410ce0:	2ad60223 	slti	s6,s6,547
  410ce4:	8f8280d0 	lw	v0,-32560(gp)
  410ce8:	8c440000 	lw	a0,0(v0)
  410cec:	24020336 	li	v0,822
  410cf0:	afa20010 	sw	v0,16(sp)
  410cf4:	02a02821 	move	a1,s5
  410cf8:	3c060041 	lui	a2,0x41
  410cfc:	24c654ac 	addiu	a2,a2,21676
  410d00:	3c070041 	lui	a3,0x41
[31m  410d04:	8f9981c0 	lw	t9,fprintf[0m
  410d08:	0320f809 	jalr	t9
  410d0c:	24e75a08 	addiu	a3,a3,23048
--
  411164:	a3a20268 	sb	v0,616(sp)
  411168:	27a40269 	addiu	a0,sp,617
  41116c:	00002821 	move	a1,zero
  411170:	8f99812c 	lw	t9,-32468(gp)
  411174:	0320f809 	jalr	t9
  411178:	240600ff 	li	a2,255
  41117c:	8fbc0018 	lw	gp,24(sp)
  411180:	92320000 	lbu	s2,0(s1)
  411184:	00129200 	sll	s2,s2,0x8
  411188:	92220001 	lbu	v0,1(s1)
  41118c:	00529025 	or	s2,v0,s2
  411190:	92330012 	lbu	s3,18(s1)
  411194:	00139a00 	sll	s3,s3,0x8
  411198:	92220013 	lbu	v0,19(s1)
  41119c:	00539825 	or	s3,v0,s3
  4111a0:	3c140041 	lui	s4,0x41
  4111a4:	26945490 	addiu	s4,s4,21648
  4111a8:	8f8280d0 	lw	v0,-32560(gp)
  4111ac:	8c440000 	lw	a0,0(v0)
  4111b0:	2402023f 	li	v0,575
  4111b4:	afa20010 	sw	v0,16(sp)
  4111b8:	02802821 	move	a1,s4
  4111bc:	3c060041 	lui	a2,0x41
  4111c0:	24c654ac 	addiu	a2,a2,21676
  4111c4:	3c070041 	lui	a3,0x41
[31m  4111c8:	8f9981c0 	lw	t9,fprintf[0m
  4111cc:	0320f809 	jalr	t9
  4111d0:	24e75a40 	addiu	a3,a3,23104
  4111d4:	8fbc0018 	lw	gp,24(sp)
  4111d8:	00121200 	sll	v0,s2,0x8
  4111dc:	3042ffff 	andi	v0,v0,0xffff
  4111e0:	00129202 	srl	s2,s2,0x8
  4111e4:	00529025 	or	s2,v0,s2
  4111e8:	3402fdfd 	li	v0,0xfdfd
  4111ec:	1242000d 	beq	s2,v0,411224 <landap_change_admin_id_pwd@@Base+0x16c>
  4111f0:	02802821 	move	a1,s4
  4111f4:	8f8280d0 	lw	v0,-32560(gp)
  4111f8:	8c440000 	lw	a0,0(v0)
  4111fc:	24020243 	li	v0,579
  411200:	afa20010 	sw	v0,16(sp)
  411204:	3c060041 	lui	a2,0x41
  411208:	24c654ac 	addiu	a2,a2,21676
  41120c:	3c070041 	lui	a3,0x41
[31m  411210:	8f9981c0 	lw	t9,fprintf[0m
  411214:	0320f809 	jalr	t9
  411218:	24e75a40 	addiu	a3,a3,23104
  41121c:	100000b0 	b	4114e0 <landap_change_admin_id_pwd@@Base+0x428>
  411220:	2402ffff 	li	v0,-1
  411224:	00131200 	sll	v0,s3,0x8
  411228:	3042ffff 	andi	v0,v0,0xffff
  41122c:	00139a02 	srl	s3,s3,0x8
  411230:	00539825 	or	s3,v0,s3
  411234:	24020001 	li	v0,1
  411238:	1262000e 	beq	s3,v0,411274 <landap_change_admin_id_pwd@@Base+0x1bc>
  41123c:	24050006 	li	a1,6
  411240:	8f8280d0 	lw	v0,-32560(gp)
  411244:	8c440000 	lw	a0,0(v0)
  411248:	24020249 	li	v0,585
  41124c:	afa20010 	sw	v0,16(sp)
  411250:	02802821 	move	a1,s4
  411254:	3c060041 	lui	a2,0x41
  411258:	24c654ac 	addiu	a2,a2,21676
  41125c:	3c070041 	lui	a3,0x41
[31m  411260:	8f9981c0 	lw	t9,fprintf[0m
  411264:	0320f809 	jalr	t9
  411268:	24e75a40 	addiu	a3,a3,23104
  41126c:	1000009c 	b	4114e0 <landap_change_admin_id_pwd@@Base+0x428>
  411270:	2402ffff 	li	v0,-1
  411274:	26240006 	addiu	a0,s1,6
  411278:	8f8681ec 	lw	a2,-32276(gp)
  41127c:	8f99828c 	lw	t9,-32116(gp)
  411280:	0320f809 	jalr	t9
  411284:	24070006 	li	a3,6
  411288:	8fbc0018 	lw	gp,24(sp)
  41128c:	1040000e 	beqz	v0,4112c8 <landap_change_admin_id_pwd@@Base+0x210>
  411290:	2ab50026 	slti	s5,s5,38
  411294:	8f8280d0 	lw	v0,-32560(gp)
  411298:	8c440000 	lw	a0,0(v0)
  41129c:	24020255 	li	v0,597
  4112a0:	afa20010 	sw	v0,16(sp)
  4112a4:	02802821 	move	a1,s4
  4112a8:	3c060041 	lui	a2,0x41
  4112ac:	24c654ac 	addiu	a2,a2,21676
  4112b0:	3c070041 	lui	a3,0x41
[31m  4112b4:	8f9981c0 	lw	t9,fprintf[0m
  4112b8:	0320f809 	jalr	t9
  4112bc:	24e75a40 	addiu	a3,a3,23104
--
  411574:	a3a20120 	sb	v0,288(sp)
  411578:	27a40121 	addiu	a0,sp,289
  41157c:	00002821 	move	a1,zero
  411580:	8f99812c 	lw	t9,-32468(gp)
  411584:	0320f809 	jalr	t9
  411588:	240600ff 	li	a2,255
  41158c:	8fbc0018 	lw	gp,24(sp)
  411590:	92130000 	lbu	s3,0(s0)
  411594:	00139a00 	sll	s3,s3,0x8
  411598:	92020001 	lbu	v0,1(s0)
  41159c:	00539825 	or	s3,v0,s3
  4115a0:	92140012 	lbu	s4,18(s0)
  4115a4:	0014a200 	sll	s4,s4,0x8
  4115a8:	92020013 	lbu	v0,19(s0)
  4115ac:	0054a025 	or	s4,v0,s4
  4115b0:	3c150041 	lui	s5,0x41
  4115b4:	26b55490 	addiu	s5,s5,21648
  4115b8:	8f8280d0 	lw	v0,-32560(gp)
  4115bc:	8c440000 	lw	a0,0(v0)
  4115c0:	240201cc 	li	v0,460
  4115c4:	afa20010 	sw	v0,16(sp)
  4115c8:	02a02821 	move	a1,s5
  4115cc:	3c060041 	lui	a2,0x41
  4115d0:	24c654ac 	addiu	a2,a2,21676
  4115d4:	3c070041 	lui	a3,0x41
[31m  4115d8:	8f9981c0 	lw	t9,fprintf[0m
  4115dc:	0320f809 	jalr	t9
  4115e0:	24e75a5c 	addiu	a3,a3,23132
  4115e4:	8fbc0018 	lw	gp,24(sp)
  4115e8:	00131200 	sll	v0,s3,0x8
  4115ec:	3042ffff 	andi	v0,v0,0xffff
  4115f0:	00139a02 	srl	s3,s3,0x8
  4115f4:	00539825 	or	s3,v0,s3
  4115f8:	3402fdfd 	li	v0,0xfdfd
  4115fc:	1262000d 	beq	s3,v0,411634 <landap_user_verification@@Base+0x124>
  411600:	02a02821 	move	a1,s5
  411604:	8f8280d0 	lw	v0,-32560(gp)
  411608:	8c440000 	lw	a0,0(v0)
  41160c:	240201d0 	li	v0,464
  411610:	afa20010 	sw	v0,16(sp)
  411614:	3c060041 	lui	a2,0x41
  411618:	24c654ac 	addiu	a2,a2,21676
  41161c:	3c070041 	lui	a3,0x41
[31m  411620:	8f9981c0 	lw	t9,fprintf[0m
  411624:	0320f809 	jalr	t9
  411628:	24e75a5c 	addiu	a3,a3,23132
  41162c:	1000008d 	b	411864 <landap_user_verification@@Base+0x354>
  411630:	2402ffff 	li	v0,-1
  411634:	00141200 	sll	v0,s4,0x8
  411638:	3042ffff 	andi	v0,v0,0xffff
  41163c:	0014a202 	srl	s4,s4,0x8
  411640:	0054a025 	or	s4,v0,s4
  411644:	24020001 	li	v0,1
  411648:	1282000e 	beq	s4,v0,411684 <landap_user_verification@@Base+0x174>
  41164c:	26040006 	addiu	a0,s0,6
  411650:	8f8280d0 	lw	v0,-32560(gp)
  411654:	8c440000 	lw	a0,0(v0)
  411658:	240201d6 	li	v0,470
  41165c:	afa20010 	sw	v0,16(sp)
  411660:	02a02821 	move	a1,s5
  411664:	3c060041 	lui	a2,0x41
  411668:	24c654ac 	addiu	a2,a2,21676
  41166c:	3c070041 	lui	a3,0x41
[31m  411670:	8f9981c0 	lw	t9,fprintf[0m
  411674:	0320f809 	jalr	t9
  411678:	24e75a5c 	addiu	a3,a3,23132
  41167c:	10000079 	b	411864 <landap_user_verification@@Base+0x354>
  411680:	2402ffff 	li	v0,-1
  411684:	24050006 	li	a1,6
  411688:	8f8681ec 	lw	a2,-32276(gp)
  41168c:	8f99828c 	lw	t9,-32116(gp)
  411690:	0320f809 	jalr	t9
  411694:	24070006 	li	a3,6
  411698:	8fbc0018 	lw	gp,24(sp)
  41169c:	1040000e 	beqz	v0,4116d8 <landap_user_verification@@Base+0x1c8>
  4116a0:	2ad6001a 	slti	s6,s6,26
  4116a4:	8f8280d0 	lw	v0,-32560(gp)
  4116a8:	8c440000 	lw	a0,0(v0)
  4116ac:	240201e4 	li	v0,484
  4116b0:	afa20010 	sw	v0,16(sp)
  4116b4:	02a02821 	move	a1,s5
  4116b8:	3c060041 	lui	a2,0x41
  4116bc:	24c654ac 	addiu	a2,a2,21676
  4116c0:	3c070041 	lui	a3,0x41
[31m  4116c4:	8f9981c0 	lw	t9,fprintf[0m
  4116c8:	0320f809 	jalr	t9
  4116cc:	24e75a5c 	addiu	a3,a3,23132
--
  4118f4:	8fbc0020 	lw	gp,32(sp)
  4118f8:	a7a00130 	sh	zero,304(sp)
  4118fc:	a7a00132 	sh	zero,306(sp)
  411900:	92120000 	lbu	s2,0(s0)
  411904:	00129200 	sll	s2,s2,0x8
  411908:	92020001 	lbu	v0,1(s0)
  41190c:	00529025 	or	s2,v0,s2
  411910:	92140010 	lbu	s4,16(s0)
  411914:	0014a200 	sll	s4,s4,0x8
  411918:	92020011 	lbu	v0,17(s0)
  41191c:	0054a025 	or	s4,v0,s4
  411920:	92130012 	lbu	s3,18(s0)
  411924:	00139a00 	sll	s3,s3,0x8
  411928:	92020013 	lbu	v0,19(s0)
  41192c:	00539825 	or	s3,v0,s3
  411930:	3c150041 	lui	s5,0x41
  411934:	26b55490 	addiu	s5,s5,21648
  411938:	8f8280d0 	lw	v0,-32560(gp)
  41193c:	8c440000 	lw	a0,0(v0)
  411940:	24020054 	li	v0,84
  411944:	afa20010 	sw	v0,16(sp)
  411948:	02a02821 	move	a1,s5
  41194c:	3c060041 	lui	a2,0x41
  411950:	24c654ac 	addiu	a2,a2,21676
  411954:	3c070041 	lui	a3,0x41
[31m  411958:	8f9981c0 	lw	t9,fprintf[0m
  41195c:	0320f809 	jalr	t9
  411960:	24e75a90 	addiu	a3,a3,23184
  411964:	8fbc0020 	lw	gp,32(sp)
  411968:	00121200 	sll	v0,s2,0x8
  41196c:	3042ffff 	andi	v0,v0,0xffff
  411970:	00129202 	srl	s2,s2,0x8
  411974:	00529025 	or	s2,v0,s2
  411978:	3402fdfd 	li	v0,0xfdfd
  41197c:	1242000d 	beq	s2,v0,4119b4 <landap_discovery@@Base+0x128>
  411980:	02a02821 	move	a1,s5
  411984:	8f8280d0 	lw	v0,-32560(gp)
  411988:	8c440000 	lw	a0,0(v0)
  41198c:	24020059 	li	v0,89
  411990:	afa20010 	sw	v0,16(sp)
  411994:	3c060041 	lui	a2,0x41
  411998:	24c654ac 	addiu	a2,a2,21676
  41199c:	3c070041 	lui	a3,0x41
[31m  4119a0:	8f9981c0 	lw	t9,fprintf[0m
  4119a4:	0320f809 	jalr	t9
  4119a8:	24e75a90 	addiu	a3,a3,23184
  4119ac:	100001ac 	b	412060 <landap_discovery@@Base+0x7d4>
  4119b0:	2402ffff 	li	v0,-1
  4119b4:	00131200 	sll	v0,s3,0x8
  4119b8:	3042ffff 	andi	v0,v0,0xffff
  4119bc:	00139a02 	srl	s3,s3,0x8
  4119c0:	00539825 	or	s3,v0,s3
  4119c4:	24020001 	li	v0,1
  4119c8:	1262000c 	beq	s3,v0,4119fc <landap_discovery@@Base+0x170>
  4119cc:	3c060041 	lui	a2,0x41
  4119d0:	8f8280d0 	lw	v0,-32560(gp)
  4119d4:	8c440000 	lw	a0,0(v0)
  4119d8:	2402005f 	li	v0,95
  4119dc:	afa20010 	sw	v0,16(sp)
  4119e0:	24c654ac 	addiu	a2,a2,21676
  4119e4:	3c070041 	lui	a3,0x41
[31m  4119e8:	8f9981c0 	lw	t9,fprintf[0m
  4119ec:	0320f809 	jalr	t9
  4119f0:	24e75a90 	addiu	a3,a3,23184
  4119f4:	1000019a 	b	412060 <landap_discovery@@Base+0x7d4>
  4119f8:	2402ffff 	li	v0,-1
  4119fc:	00141200 	sll	v0,s4,0x8
  411a00:	3042ffff 	andi	v0,v0,0xffff
  411a04:	0014a202 	srl	s4,s4,0x8
  411a08:	0054a025 	or	s4,v0,s4
  411a0c:	24027777 	li	v0,30583
  411a10:	16820016 	bne	s4,v0,411a6c <landap_discovery@@Base+0x1e0>
  411a14:	26040006 	addiu	a0,s0,6
  411a18:	24050006 	li	a1,6
  411a1c:	8f8681ec 	lw	a2,-32276(gp)
  411a20:	8f99828c 	lw	t9,-32116(gp)
  411a24:	0320f809 	jalr	t9
  411a28:	24070006 	li	a3,6
  411a2c:	8fbc0020 	lw	gp,32(sp)
  411a30:	10400044 	beqz	v0,411b44 <landap_discovery@@Base+0x2b8>
  411a34:	2ad6014e 	slti	s6,s6,334
  411a38:	8f8280d0 	lw	v0,-32560(gp)
  411a3c:	8c440000 	lw	a0,0(v0)
  411a40:	24020068 	li	v0,104
  411a44:	afa20010 	sw	v0,16(sp)
  411a48:	02a02821 	move	a1,s5
  411a4c:	3c060041 	lui	a2,0x41
  411a50:	24c654ac 	addiu	a2,a2,21676
  411a54:	3c070041 	lui	a3,0x41
[31m  411a58:	8f9981c0 	lw	t9,fprintf[0m
  411a5c:	0320f809 	jalr	t9
  411a60:	24e75a90 	addiu	a3,a3,23184
--
  411ac8:	92030009 	lbu	v1,9(s0)
  411acc:	14620008 	bne	v1,v0,411af0 <landap_discovery@@Base+0x264>
  411ad0:	00000000 	nop
  411ad4:	9203000a 	lbu	v1,10(s0)
  411ad8:	14620005 	bne	v1,v0,411af0 <landap_discovery@@Base+0x264>
  411adc:	00000000 	nop
  411ae0:	9203000b 	lbu	v1,11(s0)
  411ae4:	10620016 	beq	v1,v0,411b40 <landap_discovery@@Base+0x2b4>
  411ae8:	00000000 	nop
  411aec:	24050006 	li	a1,6
  411af0:	8f8681ec 	lw	a2,-32276(gp)
  411af4:	8f99828c 	lw	t9,-32116(gp)
  411af8:	0320f809 	jalr	t9
  411afc:	24070006 	li	a3,6
  411b00:	8fbc0020 	lw	gp,32(sp)
  411b04:	1040000f 	beqz	v0,411b44 <landap_discovery@@Base+0x2b8>
  411b08:	2ad6014e 	slti	s6,s6,334
  411b0c:	8f8280d0 	lw	v0,-32560(gp)
  411b10:	8c440000 	lw	a0,0(v0)
  411b14:	24020077 	li	v0,119
  411b18:	afa20010 	sw	v0,16(sp)
  411b1c:	02a02821 	move	a1,s5
  411b20:	3c060041 	lui	a2,0x41
  411b24:	24c654ac 	addiu	a2,a2,21676
  411b28:	3c070041 	lui	a3,0x41
[31m  411b2c:	8f9981c0 	lw	t9,fprintf[0m
  411b30:	0320f809 	jalr	t9
  411b34:	24e75a90 	addiu	a3,a3,23184

[0m
[[0;33m*[0m] Function [0;33mfprintf[0m used [0;33m181[0m times [0;33mddp[0m

