[0m
[[0;33m*[0m] Function [0;33mfprintf[0m tear down of [0;33mlibcfg.so[0m

    28d0:	8fa30428 	lw	v1,1064(sp)
    28d4:	14400017 	bnez	v0,2934 <CfgSetField@@Base+0x24c>
    28d8:	00000000 	nop
    28dc:	10000003 	b	28ec <CfgSetField@@Base+0x204>
    28e0:	24160001 	li	s6,1
    28e4:	12c00013 	beqz	s6,2934 <CfgSetField@@Base+0x24c>
    28e8:	00000000 	nop
    28ec:	8f998024 	lw	t9,-32732(gp)
    28f0:	00602021 	move	a0,v1
    28f4:	27391e24 	addiu	t9,t9,7716
    28f8:	0320f809 	jalr	t9
    28fc:	02802821 	move	a1,s4
    2900:	8fbc0010 	lw	gp,16(sp)
    2904:	1040000b 	beqz	v0,2934 <CfgSetField@@Base+0x24c>
    2908:	02402021 	move	a0,s2
    290c:	8f998080 	lw	t9,-32640(gp)
    2910:	0320f809 	jalr	t9
    2914:	02802821 	move	a1,s4
    2918:	8fbc0010 	lw	gp,16(sp)
    291c:	14400005 	bnez	v0,2934 <CfgSetField@@Base+0x24c>
    2920:	24020001 	li	v0,1
    2924:	12c00046 	beqz	s6,2a40 <CfgSetField@@Base+0x358>
    2928:	24140001 	li	s4,1
    292c:	1000002a 	b	29d8 <CfgSetField@@Base+0x2f0>
    2930:	00000000 	nop
[31m    2934:	8f9980cc 	lw	t9,fprintf[0m
    2938:	02002021 	move	a0,s0
    293c:	03c02821 	move	a1,s8
--
    2944:	02a03021 	move	a2,s5
    2948:	8fbc0010 	lw	gp,16(sp)
    294c:	04410007 	bgez	v0,296c <CfgSetField@@Base+0x284>
    2950:	00001021 	move	v0,zero
    2954:	0000a021 	move	s4,zero
    2958:	1000000f 	b	2998 <CfgSetField@@Base+0x2b0>
    295c:	2411fffb 	li	s1,-5
    2960:	8f9e8024 	lw	s8,-32732(gp)
    2964:	27b4011c 	addiu	s4,sp,284
    2968:	27de4880 	addiu	s8,s8,18560
    296c:	8f998024 	lw	t9,-32732(gp)
    2970:	8fa40018 	lw	a0,24(sp)
    2974:	2739142c 	addiu	t9,t9,5164
    2978:	0320f809 	jalr	t9
    297c:	00000000 	nop
    2980:	8fbc0010 	lw	gp,16(sp)
    2984:	0040a821 	move	s5,v0
    2988:	1440ffb5 	bnez	v0,2860 <CfgSetField@@Base+0x178>
    298c:	00402021 	move	a0,v0
    2990:	00001021 	move	v0,zero
    2994:	0000a021 	move	s4,zero
    2998:	16c0000f 	bnez	s6,29d8 <CfgSetField@@Base+0x2f0>
    299c:	00000000 	nop
    29a0:	8f858024 	lw	a1,-32732(gp)
    29a4:	02603021 	move	a2,s3
[31m    29a8:	8f9980cc 	lw	t9,fprintf[0m
    29ac:	02002021 	move	a0,s0
    29b0:	0320f809 	jalr	t9
    29b4:	24a54884 	addiu	a1,a1,18564
    29b8:	02403021 	move	a2,s2
    29bc:	8fbc0010 	lw	gp,16(sp)
    29c0:	02e03821 	move	a3,s7
    29c4:	02002021 	move	a0,s0
    29c8:	8f858024 	lw	a1,-32732(gp)
[31m    29cc:	8f9980cc 	lw	t9,fprintf[0m
    29d0:	10000008 	b	29f4 <CfgSetField@@Base+0x30c>
    29d4:	24a5488c 	addiu	a1,a1,18572
[31m    29d8:	8f9980cc 	lw	t9,fprintf[0m
    29dc:	8f858024 	lw	a1,-32732(gp)
    29e0:	10400008 	beqz	v0,2a04 <CfgSetField@@Base+0x31c>
    29e4:	02403021 	move	a2,s2
    29e8:	24a5488c 	addiu	a1,a1,18572
    29ec:	02e03821 	move	a3,s7
    29f0:	02002021 	move	a0,s0
    29f4:	0320f809 	jalr	t9
    29f8:	00000000 	nop
    29fc:	1000000d 	b	2a34 <CfgSetField@@Base+0x34c>
    2a00:	00000000 	nop
    2a04:	24a5488c 	addiu	a1,a1,18572
    2a08:	02e03821 	move	a3,s7
    2a0c:	0320f809 	jalr	t9
    2a10:	02002021 	move	a0,s0
    2a14:	8fbc0010 	lw	gp,16(sp)
    2a18:	12a00007 	beqz	s5,2a38 <CfgSetField@@Base+0x350>
    2a1c:	02a03021 	move	a2,s5
    2a20:	8f858024 	lw	a1,-32732(gp)
[31m    2a24:	8f9980cc 	lw	t9,fprintf[0m
    2a28:	02002021 	move	a0,s0
    2a2c:	0320f809 	jalr	t9
--
    3104:	8fbc0010 	lw	gp,16(sp)
    3108:	8fa60428 	lw	a2,1064(sp)
    310c:	14640014 	bne	v1,a0,3160 <CfgSetSec@@Base+0x1a4>
    3110:	00402021 	move	a0,v0
    3114:	02a0c821 	move	t9,s5
    3118:	0320f809 	jalr	t9
    311c:	02802821 	move	a1,s4
    3120:	02602021 	move	a0,s3
    3124:	8fbc0010 	lw	gp,16(sp)
    3128:	8fa60428 	lw	a2,1064(sp)
    312c:	8f998080 	lw	t9,-32640(gp)
    3130:	1040000b 	beqz	v0,3160 <CfgSetSec@@Base+0x1a4>
    3134:	02802821 	move	a1,s4
    3138:	1640005e 	bnez	s2,32b4 <CfgSetSec@@Base+0x2f8>
    313c:	00000000 	nop
    3140:	0320f809 	jalr	t9
    3144:	00000000 	nop
    3148:	8fbc0010 	lw	gp,16(sp)
    314c:	8fa60428 	lw	a2,1064(sp)
    3150:	10400058 	beqz	v0,32b4 <CfgSetSec@@Base+0x2f8>
    3154:	00000000 	nop
    3158:	10000003 	b	3168 <CfgSetSec@@Base+0x1ac>
    315c:	00000000 	nop
    3160:	16400054 	bnez	s2,32b4 <CfgSetSec@@Base+0x2f8>
    3164:	00000000 	nop
[31m    3168:	8f9980cc 	lw	t9,fprintf[0m
    316c:	02202021 	move	a0,s1
    3170:	00009021 	move	s2,zero
--
    3180:	0441000c 	bgez	v0,31b4 <CfgSetSec@@Base+0x1f8>
    3184:	00000000 	nop
    3188:	10000014 	b	31dc <CfgSetSec@@Base+0x220>
    318c:	2410fffb 	li	s0,-5
    3190:	8f9e8024 	lw	s8,-32732(gp)
    3194:	27b4011c 	addiu	s4,sp,284
    3198:	8f978024 	lw	s7,-32732(gp)
    319c:	8f968024 	lw	s6,-32732(gp)
    31a0:	27de142c 	addiu	s8,s8,5164
    31a4:	8f958024 	lw	s5,-32732(gp)
    31a8:	26f710e0 	addiu	s7,s7,4320
    31ac:	26d64880 	addiu	s6,s6,18560
    31b0:	26b51f2c 	addiu	s5,s5,7980
    31b4:	8fa40018 	lw	a0,24(sp)
    31b8:	03c0c821 	move	t9,s8
    31bc:	0320f809 	jalr	t9
    31c0:	00000000 	nop
    31c4:	8fbc0010 	lw	gp,16(sp)
    31c8:	00403021 	move	a2,v0
    31cc:	1440ffc8 	bnez	v0,30f0 <CfgSetSec@@Base+0x134>
    31d0:	00402021 	move	a0,v0
    31d4:	1640000a 	bnez	s2,3200 <CfgSetSec@@Base+0x244>
    31d8:	00000000 	nop
    31dc:	8f858024 	lw	a1,-32732(gp)
    31e0:	02603021 	move	a2,s3
[31m    31e4:	8f9980cc 	lw	t9,fprintf[0m
    31e8:	02202021 	move	a0,s1
    31ec:	0320f809 	jalr	t9
--
    3258:	8fbc0010 	lw	gp,16(sp)
    325c:	27a70324 	addiu	a3,sp,804
    3260:	8f858024 	lw	a1,-32732(gp)
    3264:	8f998074 	lw	t9,-32652(gp)
    3268:	0320f809 	jalr	t9
    326c:	24a54874 	addiu	a1,a1,18548
    3270:	8fbc0010 	lw	gp,16(sp)
    3274:	8f9980f0 	lw	t9,-32528(gp)
    3278:	0320f809 	jalr	t9
    327c:	02202021 	move	a0,s1
    3280:	02001021 	move	v0,s0
    3284:	8fbf0454 	lw	ra,1108(sp)
    3288:	8fbe0450 	lw	s8,1104(sp)
    328c:	8fb7044c 	lw	s7,1100(sp)
    3290:	8fb60448 	lw	s6,1096(sp)
    3294:	8fb50444 	lw	s5,1092(sp)
    3298:	8fb40440 	lw	s4,1088(sp)
    329c:	8fb3043c 	lw	s3,1084(sp)
    32a0:	8fb20438 	lw	s2,1080(sp)
    32a4:	8fb10434 	lw	s1,1076(sp)
    32a8:	8fb00430 	lw	s0,1072(sp)
    32ac:	03e00008 	jr	ra
    32b0:	27bd0458 	addiu	sp,sp,1112
    32b4:	8f858024 	lw	a1,-32732(gp)
    32b8:	02202021 	move	a0,s1
[31m    32bc:	8f9980cc 	lw	t9,fprintf[0m
    32c0:	0320f809 	jalr	t9
    32c4:	24a54880 	addiu	a1,a1,18560
--
    345c:	02802021 	move	a0,s4
    3460:	8fbc0010 	lw	gp,16(sp)
    3464:	8fa30428 	lw	v1,1064(sp)
    3468:	8f998080 	lw	t9,-32640(gp)
    346c:	1040000b 	beqz	v0,349c <CfgSetList@@Base+0x1b0>
    3470:	02a02821 	move	a1,s5
    3474:	16600041 	bnez	s3,357c <CfgSetList@@Base+0x290>
    3478:	00000000 	nop
    347c:	0320f809 	jalr	t9
    3480:	00000000 	nop
    3484:	8fbc0010 	lw	gp,16(sp)
    3488:	8fa30428 	lw	v1,1064(sp)
    348c:	10400005 	beqz	v0,34a4 <CfgSetList@@Base+0x1b8>
    3490:	00000000 	nop
    3494:	1000000a 	b	34c0 <CfgSetList@@Base+0x1d4>
    3498:	00000000 	nop
    349c:	12600008 	beqz	s3,34c0 <CfgSetList@@Base+0x1d4>
    34a0:	00000000 	nop
    34a4:	8f998024 	lw	t9,-32732(gp)
    34a8:	00602021 	move	a0,v1
    34ac:	24130001 	li	s3,1
    34b0:	27391e24 	addiu	t9,t9,7716
    34b4:	0320f809 	jalr	t9
    34b8:	02a02821 	move	a1,s5
    34bc:	8fbc0010 	lw	gp,16(sp)
[31m    34c0:	8f9980cc 	lw	t9,fprintf[0m
    34c4:	02202021 	move	a0,s1
    34c8:	02e02821 	move	a1,s7
    34cc:	0320f809 	jalr	t9
    34d0:	02403021 	move	a2,s2
    34d4:	8fbc0010 	lw	gp,16(sp)
    34d8:	04410008 	bgez	v0,34fc <CfgSetList@@Base+0x210>
    34dc:	00000000 	nop
    34e0:	1000000f 	b	3520 <CfgSetList@@Base+0x234>
    34e4:	2410fffb 	li	s0,-5
    34e8:	8f9e8024 	lw	s8,-32732(gp)
    34ec:	27b5011c 	addiu	s5,sp,284
    34f0:	8f978024 	lw	s7,-32732(gp)
    34f4:	27de1f2c 	addiu	s8,s8,7980
    34f8:	26f74880 	addiu	s7,s7,18560
    34fc:	8f998024 	lw	t9,-32732(gp)
    3500:	8fa40018 	lw	a0,24(sp)
    3504:	2739142c 	addiu	t9,t9,5164
    3508:	0320f809 	jalr	t9
    350c:	00000000 	nop
    3510:	8fbc0010 	lw	gp,16(sp)
    3514:	00409021 	move	s2,v0
    3518:	1440ffc2 	bnez	v0,3424 <CfgSetList@@Base+0x138>
    351c:	00402021 	move	a0,v0
    3520:	16600017 	bnez	s3,3580 <CfgSetList@@Base+0x294>
    3524:	0000a821 	move	s5,zero
    3528:	8f858024 	lw	a1,-32732(gp)
    352c:	02803021 	move	a2,s4
[31m    3530:	8f9980cc 	lw	t9,fprintf[0m
    3534:	02202021 	move	a0,s1
    3538:	24a54884 	addiu	a1,a1,18564
    353c:	0320f809 	jalr	t9
    3540:	02c09821 	move	s3,s6
    3544:	8fbc0010 	lw	gp,16(sp)
    3548:	8f928024 	lw	s2,-32732(gp)
    354c:	10000005 	b	3564 <CfgSetList@@Base+0x278>
    3550:	26524880 	addiu	s2,s2,18560
    3554:	0320f809 	jalr	t9
    3558:	02402821 	move	a1,s2
    355c:	8fbc0010 	lw	gp,16(sp)
    3560:	8e730100 	lw	s3,256(s3)
[31m    3564:	8f9980cc 	lw	t9,fprintf[0m
    3568:	02603021 	move	a2,s3
    356c:	1660fff9 	bnez	s3,3554 <CfgSetList@@Base+0x268>
    3570:	02202021 	move	a0,s1
    3574:	1000001e 	b	35f0 <CfgSetList@@Base+0x304>
    3578:	00000000 	nop
    357c:	24150001 	li	s5,1
    3580:	8f948024 	lw	s4,-32732(gp)
    3584:	02c09821 	move	s3,s6
    3588:	10000005 	b	35a0 <CfgSetList@@Base+0x2b4>
    358c:	26944880 	addiu	s4,s4,18560
    3590:	0320f809 	jalr	t9
    3594:	02802821 	move	a1,s4
    3598:	8fbc0010 	lw	gp,16(sp)
    359c:	8e730100 	lw	s3,256(s3)
[31m    35a0:	8f9980cc 	lw	t9,fprintf[0m
    35a4:	02603021 	move	a2,s3
    35a8:	1660fff9 	bnez	s3,3590 <CfgSetList@@Base+0x2a4>

[0m
[[0;33m*[0m] Function [0;33mfprintf[0m used [0;33m12[0m times [0;33mlibcfg.so[0m

