[0m
[[0;33m*[0m] Function [0;33msystem[0m tear down of [0;33mlibFVwireless.so[0m

    46f8:	3c1c0002 	lui	gp,0x2
    46fc:	279cdb98 	addiu	gp,gp,-9320
    4700:	0399e021 	addu	gp,gp,t9
    4704:	27bdffe0 	addiu	sp,sp,-32
    4708:	afbf001c 	sw	ra,28(sp)
    470c:	afbc0010 	sw	gp,16(sp)
    4710:	8f848024 	lw	a0,-32732(gp)
    4714:	8f9980a8 	lw	t9,-32600(gp)
    4718:	0320f809 	jalr	t9
    471c:	24848af0 	addiu	a0,a0,-29968
    4720:	8fbc0010 	lw	gp,16(sp)
    4724:	8f848024 	lw	a0,-32732(gp)
    4728:	8f9980a8 	lw	t9,-32600(gp)
    472c:	0320f809 	jalr	t9
    4730:	24848a24 	addiu	a0,a0,-30172
    4734:	8fbc0010 	lw	gp,16(sp)
    4738:	8f828078 	lw	v0,-32648(gp)
    473c:	8f848024 	lw	a0,-32732(gp)
    4740:	8f998044 	lw	t9,-32700(gp)
    4744:	8c450000 	lw	a1,0(v0)
    4748:	0320f809 	jalr	t9
    474c:	24848b04 	addiu	a0,a0,-29948
    4750:	8fbc0010 	lw	gp,16(sp)
    4754:	8fbf001c 	lw	ra,28(sp)
    4758:	8f848024 	lw	a0,-32732(gp)
[31m    475c:	8f9980f8 	lw	t9,system[0m
    4760:	24848b30 	addiu	a0,a0,-29904
    4764:	03200008 	jr	t9
--
    4800:	8c430000 	lw	v1,0(v0)
    4804:	8fbf0024 	lw	ra,36(sp)
    4808:	00601021 	move	v0,v1
    480c:	8fb00020 	lw	s0,32(sp)
    4810:	03e00008 	jr	ra
    4814:	27bd0028 	addiu	sp,sp,40

00004818 <realtek_WSCStop@@Base>:
    4818:	3c1c0002 	lui	gp,0x2
    481c:	279cda78 	addiu	gp,gp,-9608
    4820:	0399e021 	addu	gp,gp,t9
    4824:	27bdffc8 	addiu	sp,sp,-56
    4828:	afbf0034 	sw	ra,52(sp)
    482c:	afb60030 	sw	s6,48(sp)
    4830:	afb5002c 	sw	s5,44(sp)
    4834:	afb40028 	sw	s4,40(sp)
    4838:	afb30024 	sw	s3,36(sp)
    483c:	afb20020 	sw	s2,32(sp)
    4840:	afb1001c 	sw	s1,28(sp)
    4844:	afb00018 	sw	s0,24(sp)
    4848:	afbc0010 	sw	gp,16(sp)
    484c:	3c120007 	lui	s2,0x7
    4850:	8f848024 	lw	a0,-32732(gp)
    4854:	3656a120 	ori	s6,s2,0xa120
    4858:	00008821 	move	s1,zero
[31m    485c:	8f9980f8 	lw	t9,system[0m
    4860:	00008021 	move	s0,zero
    4864:	24848b48 	addiu	a0,a0,-29880
--
    491c:	3c1c0002 	lui	gp,0x2
    4920:	279cd974 	addiu	gp,gp,-9868
    4924:	0399e021 	addu	gp,gp,t9
    4928:	27bdffe0 	addiu	sp,sp,-32
    492c:	afbf001c 	sw	ra,28(sp)
    4930:	afbc0010 	sw	gp,16(sp)
    4934:	8f99805c 	lw	t9,-32676(gp)
    4938:	0320f809 	jalr	t9
    493c:	00000000 	nop
    4940:	24030003 	li	v1,3
    4944:	8fbc0010 	lw	gp,16(sp)
    4948:	10430011 	beq	v0,v1,4990 <realtek_WSCPinStart@@Base+0x74>
    494c:	00000000 	nop
    4950:	8f848024 	lw	a0,-32732(gp)
    4954:	8f9980a8 	lw	t9,-32600(gp)
    4958:	0320f809 	jalr	t9
    495c:	24848af0 	addiu	a0,a0,-29968
    4960:	8fbc0010 	lw	gp,16(sp)
    4964:	8f848024 	lw	a0,-32732(gp)
    4968:	8f9980a8 	lw	t9,-32600(gp)
    496c:	0320f809 	jalr	t9
    4970:	24848a24 	addiu	a0,a0,-30172
    4974:	8fbc0010 	lw	gp,16(sp)
    4978:	8fbf001c 	lw	ra,28(sp)
    497c:	8f848024 	lw	a0,-32732(gp)
[31m    4980:	8f9980f8 	lw	t9,system[0m
    4984:	24848b60 	addiu	a0,a0,-29856
    4988:	03200008 	jr	t9

[0m
[[0;33m*[0m] Function [0;33msystem[0m used [0;33m3[0m times [0;33mlibFVwireless.so[0m

