[0m
[[0;33m*[0m] Function [0;33mstrcat[0m tear down of [0;33mlibcrypto.so.1.0.0[0m

  1148ec:	1000002e 	b	1149a8 <i2v_GENERAL_NAME@@Base+0x240>
  1148f0:	00000000 	nop
  1148f4:	14430025 	bne	v0,v1,11498c <i2v_GENERAL_NAME@@Base+0x224>
  1148f8:	00008821 	move	s1,zero
  1148fc:	8f978028 	lw	s7,-32728(gp)
  114900:	8f96803c 	lw	s6,-32708(gp)
  114904:	27b30028 	addiu	s3,sp,40
  114908:	a3a00030 	sb	zero,48(sp)
  11490c:	26f71310 	addiu	s7,s7,4880
  114910:	26d66e3c 	addiu	s6,s6,28220
  114914:	27b20030 	addiu	s2,sp,48
  114918:	24150007 	li	s5,7
  11491c:	24140008 	li	s4,8
  114920:	92070000 	lbu	a3,0(s0)
  114924:	02602021 	move	a0,s3
  114928:	24050005 	li	a1,5
  11492c:	92020001 	lbu	v0,1(s0)
  114930:	02e03021 	move	a2,s7
  114934:	26100002 	addiu	s0,s0,2
  114938:	8f99927c 	lw	t9,-28036(gp)
  11493c:	00073a00 	sll	a3,a3,0x8
  114940:	0320f809 	jalr	t9
  114944:	00e23825 	or	a3,a3,v0
  114948:	02402021 	move	a0,s2
  11494c:	8fbc0020 	lw	gp,32(sp)
[31m  114950:	8f999e84 	lw	t9,strcat[0m
  114954:	0320f809 	jalr	t9
  114958:	02602821 	move	a1,s3
  11495c:	8fbc0020 	lw	gp,32(sp)
  114960:	12350005 	beq	s1,s5,114978 <i2v_GENERAL_NAME@@Base+0x210>
  114964:	02402021 	move	a0,s2
[31m  114968:	8f999e84 	lw	t9,strcat[0m
  11496c:	0320f809 	jalr	t9
  114970:	02c02821 	move	a1,s6
--
  142a54:	8f999e9c 	lw	t9,-24932(gp)
  142a58:	1440ffdf 	bnez	v0,1429d8 <TS_RESP_verify_response@@Base+0x1b4>
  142a5c:	02a02021 	move	a0,s5
  142a60:	a2400000 	sb	zero,0(s2)
  142a64:	8e620008 	lw	v0,8(s3)
  142a68:	10400020 	beqz	v0,142aec <TS_RESP_verify_response@@Base+0x2c8>
  142a6c:	00000000 	nop
  142a70:	8f928034 	lw	s2,-32716(gp)
  142a74:	24150001 	li	s5,1
  142a78:	8f978034 	lw	s7,-32716(gp)
  142a7c:	27b40028 	addiu	s4,sp,40
  142a80:	8f968028 	lw	s6,-32728(gp)
  142a84:	2652f980 	addiu	s2,s2,-1664
  142a88:	26f7f9c0 	addiu	s7,s7,-1600
  142a8c:	26d6eb34 	addiu	s6,s6,-5324
  142a90:	8f9980b8 	lw	t9,-32584(gp)
  142a94:	8e450000 	lw	a1,0(s2)
  142a98:	8e640008 	lw	a0,8(s3)
  142a9c:	0320f809 	jalr	t9
  142aa0:	00000000 	nop
  142aa4:	8fbc0020 	lw	gp,32(sp)
  142aa8:	1040000d 	beqz	v0,142ae0 <TS_RESP_verify_response@@Base+0x2bc>
  142aac:	00000000 	nop
  142ab0:	16a00005 	bnez	s5,142ac8 <TS_RESP_verify_response@@Base+0x2a4>
  142ab4:	02802021 	move	a0,s4
[31m  142ab8:	8f999e84 	lw	t9,strcat[0m
  142abc:	0320f809 	jalr	t9
  142ac0:	02c02821 	move	a1,s6
  142ac4:	8fbc0020 	lw	gp,32(sp)
[31m  142ac8:	8f999e84 	lw	t9,strcat[0m
  142acc:	02802021 	move	a0,s4
  142ad0:	8e450004 	lw	a1,4(s2)

[0m
[[0;33m*[0m] Function [0;33mstrcat[0m used [0;33m4[0m times [0;33mlibcrypto.so.1.0.0[0m

