[0m
[[0;33m*[0m] Function [0;33mfprintf[0m tear down of [0;33mqueryconf.cgi[0m

  400b9c:	0320f809 	jalr	t9
  400ba0:	02003821 	move	a3,s0
  400ba4:	8fbc0010 	lw	gp,16(sp)
  400ba8:	10000009 	b	400bd0 <_ftext@@Base+0x310>
  400bac:	a3a00018 	sb	zero,24(sp)
  400bb0:	2484126c 	addiu	a0,a0,4716
  400bb4:	24050001 	li	a1,1
  400bb8:	2406000d 	li	a2,13
  400bbc:	8f99803c 	lw	t9,-32708(gp)
  400bc0:	0320f809 	jalr	t9
  400bc4:	02003821 	move	a3,s0
  400bc8:	8fbc0010 	lw	gp,16(sp)
  400bcc:	a3a00018 	sb	zero,24(sp)
  400bd0:	3c120040 	lui	s2,0x40
  400bd4:	26441244 	addiu	a0,s2,4676
  400bd8:	3c050040 	lui	a1,0x40
  400bdc:	24a5127c 	addiu	a1,a1,4732
  400be0:	27b40018 	addiu	s4,sp,24
  400be4:	8f998038 	lw	t9,-32712(gp)
  400be8:	0320f809 	jalr	t9
  400bec:	02803021 	move	a2,s4
  400bf0:	8fbc0010 	lw	gp,16(sp)
  400bf4:	02002021 	move	a0,s0
  400bf8:	3c050040 	lui	a1,0x40
  400bfc:	93a60018 	lbu	a2,24(sp)
[31m  400c00:	8f998060 	lw	t9,fprintf[0m
  400c04:	0320f809 	jalr	t9
  400c08:	24a51288 	addiu	a1,a1,4744
  400c0c:	8fbc0010 	lw	gp,16(sp)
  400c10:	27b10020 	addiu	s1,sp,32
  400c14:	02202021 	move	a0,s1
  400c18:	00002821 	move	a1,zero
  400c1c:	8f998050 	lw	t9,-32688(gp)
  400c20:	0320f809 	jalr	t9
  400c24:	24060100 	li	a2,256
  400c28:	8fbc0010 	lw	gp,16(sp)
  400c2c:	26441244 	addiu	a0,s2,4676
  400c30:	3c050040 	lui	a1,0x40
  400c34:	24a51298 	addiu	a1,a1,4760
  400c38:	8f998038 	lw	t9,-32712(gp)
  400c3c:	0320f809 	jalr	t9
  400c40:	02203021 	move	a2,s1
  400c44:	8fbc0010 	lw	gp,16(sp)
  400c48:	02002021 	move	a0,s0
  400c4c:	3c050040 	lui	a1,0x40
  400c50:	24a512a0 	addiu	a1,a1,4768
[31m  400c54:	8f998060 	lw	t9,fprintf[0m
  400c58:	0320f809 	jalr	t9
  400c5c:	02203021 	move	a2,s1
  400c60:	8fbc0010 	lw	gp,16(sp)
  400c64:	02202021 	move	a0,s1
  400c68:	00002821 	move	a1,zero
  400c6c:	8f998050 	lw	t9,-32688(gp)
  400c70:	0320f809 	jalr	t9
  400c74:	24060100 	li	a2,256
  400c78:	8fbc0010 	lw	gp,16(sp)
  400c7c:	26441244 	addiu	a0,s2,4676
  400c80:	3c050040 	lui	a1,0x40
  400c84:	24a512b0 	addiu	a1,a1,4784
  400c88:	8f998038 	lw	t9,-32712(gp)
  400c8c:	0320f809 	jalr	t9
  400c90:	02203021 	move	a2,s1
  400c94:	8fbc0010 	lw	gp,16(sp)
  400c98:	02002021 	move	a0,s0
  400c9c:	3c050040 	lui	a1,0x40
  400ca0:	24a512bc 	addiu	a1,a1,4796
[31m  400ca4:	8f998060 	lw	t9,fprintf[0m
  400ca8:	0320f809 	jalr	t9
  400cac:	02203021 	move	a2,s1
  400cb0:	8fbc0010 	lw	gp,16(sp)
  400cb4:	02202021 	move	a0,s1
  400cb8:	00002821 	move	a1,zero
  400cbc:	8f998050 	lw	t9,-32688(gp)
  400cc0:	0320f809 	jalr	t9
  400cc4:	24060100 	li	a2,256
  400cc8:	8fbc0010 	lw	gp,16(sp)
  400ccc:	26441244 	addiu	a0,s2,4676
  400cd0:	3c050040 	lui	a1,0x40
  400cd4:	24a512d0 	addiu	a1,a1,4816
  400cd8:	8f998038 	lw	t9,-32712(gp)
  400cdc:	0320f809 	jalr	t9
  400ce0:	02203021 	move	a2,s1
  400ce4:	8fbc0010 	lw	gp,16(sp)
  400ce8:	02002021 	move	a0,s0
  400cec:	3c050040 	lui	a1,0x40
  400cf0:	24a512e0 	addiu	a1,a1,4832
[31m  400cf4:	8f998060 	lw	t9,fprintf[0m
  400cf8:	0320f809 	jalr	t9
  400cfc:	02203021 	move	a2,s1
--
  400d78:	02602021 	move	a0,s3
  400d7c:	3c050040 	lui	a1,0x40
  400d80:	8f99805c 	lw	t9,-32676(gp)
  400d84:	0320f809 	jalr	t9
  400d88:	24a51328 	addiu	a1,a1,4904
  400d8c:	8fbc0010 	lw	gp,16(sp)
  400d90:	1040002a 	beqz	v0,400e3c <_ftext@@Base+0x57c>
  400d94:	27b10020 	addiu	s1,sp,32
  400d98:	02202021 	move	a0,s1
  400d9c:	00002821 	move	a1,zero
  400da0:	8f998050 	lw	t9,-32688(gp)
  400da4:	0320f809 	jalr	t9
  400da8:	24060100 	li	a2,256
  400dac:	8fbc0010 	lw	gp,16(sp)
  400db0:	3c120040 	lui	s2,0x40
  400db4:	26441244 	addiu	a0,s2,4676
  400db8:	3c050040 	lui	a1,0x40
  400dbc:	24a51334 	addiu	a1,a1,4916
  400dc0:	8f998038 	lw	t9,-32712(gp)
  400dc4:	0320f809 	jalr	t9
  400dc8:	02203021 	move	a2,s1
  400dcc:	8fbc0010 	lw	gp,16(sp)
  400dd0:	02002021 	move	a0,s0
  400dd4:	3c050040 	lui	a1,0x40
  400dd8:	24a51348 	addiu	a1,a1,4936
[31m  400ddc:	8f998060 	lw	t9,fprintf[0m
  400de0:	0320f809 	jalr	t9
  400de4:	02203021 	move	a2,s1
  400de8:	8fbc0010 	lw	gp,16(sp)
  400dec:	02202021 	move	a0,s1
  400df0:	00002821 	move	a1,zero
  400df4:	8f998050 	lw	t9,-32688(gp)
  400df8:	0320f809 	jalr	t9
  400dfc:	24060100 	li	a2,256
  400e00:	8fbc0010 	lw	gp,16(sp)
  400e04:	26441244 	addiu	a0,s2,4676
  400e08:	3c050040 	lui	a1,0x40
  400e0c:	24a5135c 	addiu	a1,a1,4956
  400e10:	8f998038 	lw	t9,-32712(gp)
  400e14:	0320f809 	jalr	t9
  400e18:	02203021 	move	a2,s1
  400e1c:	8fbc0010 	lw	gp,16(sp)
  400e20:	02002021 	move	a0,s0
  400e24:	3c050040 	lui	a1,0x40
  400e28:	24a51370 	addiu	a1,a1,4976
[31m  400e2c:	8f998060 	lw	t9,fprintf[0m
  400e30:	0320f809 	jalr	t9
  400e34:	02203021 	move	a2,s1
  400e38:	8fbc0010 	lw	gp,16(sp)
  400e3c:	afa0001c 	sw	zero,28(sp)
  400e40:	3c040040 	lui	a0,0x40
  400e44:	24841244 	addiu	a0,a0,4676
  400e48:	3c050040 	lui	a1,0x40
  400e4c:	24a51384 	addiu	a1,a1,4996
  400e50:	8f998038 	lw	t9,-32712(gp)
  400e54:	0320f809 	jalr	t9
  400e58:	27a6001c 	addiu	a2,sp,28
  400e5c:	8fbc0010 	lw	gp,16(sp)
  400e60:	8fa6001c 	lw	a2,28(sp)
  400e64:	14c0000b 	bnez	a2,400e94 <_ftext@@Base+0x5d4>
  400e68:	02002021 	move	a0,s0
  400e6c:	3c040040 	lui	a0,0x40
  400e70:	24841398 	addiu	a0,a0,5016
  400e74:	24050001 	li	a1,1
  400e78:	2406000a 	li	a2,10
  400e7c:	8f99803c 	lw	t9,-32708(gp)
  400e80:	0320f809 	jalr	t9
  400e84:	02003821 	move	a3,s0
  400e88:	8fbc0010 	lw	gp,16(sp)
  400e8c:	10000007 	b	400eac <_ftext@@Base+0x5ec>
  400e90:	27b10020 	addiu	s1,sp,32
  400e94:	3c050040 	lui	a1,0x40
[31m  400e98:	8f998060 	lw	t9,fprintf[0m
  400e9c:	0320f809 	jalr	t9
  400ea0:	24a513a4 	addiu	a1,a1,5028
  400ea4:	8fbc0010 	lw	gp,16(sp)
  400ea8:	27b10020 	addiu	s1,sp,32
  400eac:	02202021 	move	a0,s1
  400eb0:	00002821 	move	a1,zero
  400eb4:	8f998050 	lw	t9,-32688(gp)
  400eb8:	0320f809 	jalr	t9
  400ebc:	24060100 	li	a2,256
  400ec0:	8fbc0010 	lw	gp,16(sp)
  400ec4:	3c040040 	lui	a0,0x40
  400ec8:	24841244 	addiu	a0,a0,4676
  400ecc:	3c050040 	lui	a1,0x40
  400ed0:	24a513b4 	addiu	a1,a1,5044
  400ed4:	8f998038 	lw	t9,-32712(gp)
  400ed8:	0320f809 	jalr	t9
  400edc:	02203021 	move	a2,s1
  400ee0:	8fbc0010 	lw	gp,16(sp)
  400ee4:	02002021 	move	a0,s0
  400ee8:	3c050040 	lui	a1,0x40
  400eec:	24a513c4 	addiu	a1,a1,5060
[31m  400ef0:	8f998060 	lw	t9,fprintf[0m
  400ef4:	0320f809 	jalr	t9
  400ef8:	02203021 	move	a2,s1

[0m
[[0;33m*[0m] Function [0;33mfprintf[0m used [0;33m8[0m times [0;33mqueryconf.cgi[0m

