[0m
[[0;33m*[0m] Function [0;33msprintf[0m tear down of [0;33mtsa[0m

  402b10:	2625649c 	addiu	a1,s1,25756
  402b14:	0320f809 	jalr	t9
  402b18:	27b401a5 	addiu	s4,sp,421
  402b1c:	02802021 	move	a0,s4
  402b20:	8fbc0018 	lw	gp,24(sp)
  402b24:	97a501ea 	lhu	a1,490(sp)
  402b28:	8f998278 	lw	t9,-32136(gp)
  402b2c:	0320f809 	jalr	t9
  402b30:	00009021 	move	s2,zero
  402b34:	3c060041 	lui	a2,0x41
  402b38:	02803821 	move	a3,s4
  402b3c:	8fbc0018 	lw	gp,24(sp)
  402b40:	24c66138 	addiu	a2,a2,24888
  402b44:	8fa301e8 	lw	v1,488(sp)
  402b48:	26049c90 	addiu	a0,s0,-25456
  402b4c:	8f998330 	lw	t9,-31952(gp)
  402b50:	2625649c 	addiu	a1,s1,25756
  402b54:	afa30010 	sw	v1,16(sp)
  402b58:	afa20014 	sw	v0,20(sp)
  402b5c:	0320f809 	jalr	t9
  402b60:	afa20220 	sw	v0,544(sp)
  402b64:	3c050041 	lui	a1,0x41
  402b68:	8fbc0018 	lw	gp,24(sp)
  402b6c:	24a564c8 	addiu	a1,a1,25800
  402b70:	8fa20220 	lw	v0,544(sp)
[31m  402b74:	8f9980f4 	lw	t9,sprintf[0m
  402b78:	8f848324 	lw	a0,-31964(gp)
  402b7c:	0320f809 	jalr	t9
--
  402c5c:	00409021 	move	s2,v0
  402c60:	8f998330 	lw	t9,-31952(gp)
  402c64:	1000ffec 	b	402c18 <_ftext@@Base+0x938>
  402c68:	24c66084 	addiu	a2,a2,24708
  402c6c:	8f998330 	lw	t9,-31952(gp)
  402c70:	3c060041 	lui	a2,0x41
  402c74:	24c660d8 	addiu	a2,a2,24792
  402c78:	2625649c 	addiu	a1,s1,25756
  402c7c:	0320f809 	jalr	t9
  402c80:	26049c90 	addiu	a0,s0,-25456
  402c84:	0c100920 	jal	402480 <_ftext@@Base+0x1a0>
  402c88:	27a4009c 	addiu	a0,sp,156
  402c8c:	3c060041 	lui	a2,0x41
  402c90:	8fbc0018 	lw	gp,24(sp)
  402c94:	26049c90 	addiu	a0,s0,-25456
  402c98:	00403821 	move	a3,v0
  402c9c:	24c660e4 	addiu	a2,a2,24804
  402ca0:	2625649c 	addiu	a1,s1,25756
  402ca4:	8f998330 	lw	t9,-31952(gp)
  402ca8:	0320f809 	jalr	t9
  402cac:	00409021 	move	s2,v0
  402cb0:	8fbc0018 	lw	gp,24(sp)
  402cb4:	8f848324 	lw	a0,-31964(gp)
  402cb8:	16400053 	bnez	s2,402e08 <_ftext@@Base+0xb28>
  402cbc:	a080000c 	sb	zero,12(a0)
[31m  402cc0:	8f9980f4 	lw	t9,sprintf[0m
  402cc4:	3c050041 	lui	a1,0x41
  402cc8:	24a560fc 	addiu	a1,a1,24828
--
  402da4:	24060020 	li	a2,32
  402da8:	24020002 	li	v0,2
  402dac:	8fbc0018 	lw	gp,24(sp)
  402db0:	afa2009c 	sw	v0,156(sp)
  402db4:	8fa70058 	lw	a3,88(sp)
  402db8:	1000fea0 	b	40283c <_ftext@@Base+0x55c>
  402dbc:	2ce2000b 	sltiu	v0,a3,11
  402dc0:	8f9981b0 	lw	t9,-32336(gp)
  402dc4:	24020006 	li	v0,6
  402dc8:	3c050043 	lui	a1,0x43
  402dcc:	27a401a5 	addiu	a0,sp,421
  402dd0:	24a5a601 	addiu	a1,a1,-23039
  402dd4:	24060020 	li	a2,32
  402dd8:	0320f809 	jalr	t9
  402ddc:	afa20058 	sw	v0,88(sp)
  402de0:	3c040043 	lui	a0,0x43
  402de4:	8fbc0018 	lw	gp,24(sp)
  402de8:	8f998094 	lw	t9,-32620(gp)
  402dec:	0320f809 	jalr	t9
  402df0:	2484a642 	addiu	a0,a0,-22974
  402df4:	8fbc0018 	lw	gp,24(sp)
  402df8:	afa201e8 	sw	v0,488(sp)
  402dfc:	8fa70058 	lw	a3,88(sp)
  402e00:	1000fe8e 	b	40283c <_ftext@@Base+0x55c>
  402e04:	2ce2000b 	sltiu	v0,a3,11
[31m  402e08:	8f9980f4 	lw	t9,sprintf[0m
  402e0c:	3c050041 	lui	a1,0x41
  402e10:	24a56104 	addiu	a1,a1,24836
--
  403aa8:	10800029 	beqz	a0,403b50 <get_strerror@@Base+0xc0>
  403aac:	00803821 	move	a3,a0
  403ab0:	2882fc1a 	slti	v0,a0,-998
  403ab4:	1440001d 	bnez	v0,403b2c <get_strerror@@Base+0x9c>
  403ab8:	2882f832 	slti	v0,a0,-1998
  403abc:	3c030043 	lui	v1,0x43
  403ac0:	2406001b 	li	a2,27
  403ac4:	24639d20 	addiu	v1,v1,-25312
  403ac8:	00001021 	move	v0,zero
  403acc:	8c640000 	lw	a0,0(v1)
  403ad0:	24420001 	addiu	v0,v0,1
  403ad4:	10e40024 	beq	a3,a0,403b68 <get_strerror@@Base+0xd8>
  403ad8:	0046282a 	slt	a1,v0,a2
  403adc:	14a0fffb 	bnez	a1,403acc <get_strerror@@Base+0x3c>
  403ae0:	24630008 	addiu	v1,v1,8
  403ae4:	8f998318 	lw	t9,-31976(gp)
  403ae8:	00e02021 	move	a0,a3
  403aec:	3c100043 	lui	s0,0x43
  403af0:	0320f809 	jalr	t9
  403af4:	afa70018 	sw	a3,24(sp)
  403af8:	3c050041 	lui	a1,0x41
  403afc:	8fbc0010 	lw	gp,16(sp)
  403b00:	24a564c4 	addiu	a1,a1,25796
  403b04:	00403021 	move	a2,v0
  403b08:	8fa70018 	lw	a3,24(sp)
[31m  403b0c:	8f9980f4 	lw	t9,sprintf[0m
  403b10:	0320f809 	jalr	t9
  403b14:	26049ca0 	addiu	a0,s0,-25440
--
  403b8c:	3c030043 	lui	v1,0x43
  403b90:	2882ec7a 	slti	v0,a0,-4998
  403b94:	14400008 	bnez	v0,403bb8 <get_strerror@@Base+0x128>
  403b98:	2882e892 	slti	v0,a0,-5998
  403b9c:	3c030043 	lui	v1,0x43
  403ba0:	2406001b 	li	a2,27
  403ba4:	1000ffc8 	b	403ac8 <get_strerror@@Base+0x38>
  403ba8:	24639ef0 	addiu	v1,v1,-24848
  403bac:	24060007 	li	a2,7
  403bb0:	1000ffc5 	b	403ac8 <get_strerror@@Base+0x38>
  403bb4:	24639eb8 	addiu	v1,v1,-24904
  403bb8:	14400004 	bnez	v0,403bcc <get_strerror@@Base+0x13c>
  403bbc:	3c030043 	lui	v1,0x43
  403bc0:	2406000b 	li	a2,11
  403bc4:	1000ffc0 	b	403ac8 <get_strerror@@Base+0x38>
  403bc8:	24639fc8 	addiu	v1,v1,-24632
  403bcc:	8f998318 	lw	t9,-31976(gp)
  403bd0:	3c100043 	lui	s0,0x43
  403bd4:	0320f809 	jalr	t9
  403bd8:	afa40018 	sw	a0,24(sp)
  403bdc:	3c050041 	lui	a1,0x41
  403be0:	8fbc0010 	lw	gp,16(sp)
  403be4:	24a564c4 	addiu	a1,a1,25796
  403be8:	00403021 	move	a2,v0
  403bec:	8fa70018 	lw	a3,24(sp)
[31m  403bf0:	8f9980f4 	lw	t9,sprintf[0m
  403bf4:	0320f809 	jalr	t9
  403bf8:	26049ca0 	addiu	a0,s0,-25440
--
  408700:	8fb50034 	lw	s5,52(sp)
  408704:	8fb40030 	lw	s4,48(sp)
  408708:	8fb3002c 	lw	s3,44(sp)
  40870c:	8fb20028 	lw	s2,40(sp)
  408710:	8fb10024 	lw	s1,36(sp)
  408714:	8fb00020 	lw	s0,32(sp)
  408718:	03e00008 	jr	ra
  40871c:	27bd0048 	addiu	sp,sp,72
  408720:	27bdffd0 	addiu	sp,sp,-48
  408724:	afbf002c 	sw	ra,44(sp)
  408728:	afb30028 	sw	s3,40(sp)
  40872c:	afb20024 	sw	s2,36(sp)
  408730:	afb10020 	sw	s1,32(sp)
  408734:	afb0001c 	sw	s0,28(sp)
  408738:	3c1c0043 	lui	gp,0x43
  40873c:	279c2230 	addiu	gp,gp,8752
  408740:	afbc0010 	sw	gp,16(sp)
  408744:	3c120041 	lui	s2,0x41
  408748:	00808021 	move	s0,a0
  40874c:	24130025 	li	s3,37
  408750:	26527538 	addiu	s2,s2,30008
  408754:	00a08821 	move	s1,a1
  408758:	92060000 	lbu	a2,0(s0)
  40875c:	02402821 	move	a1,s2
  408760:	26100001 	addiu	s0,s0,1
[31m  408764:	8f9980f4 	lw	t9,sprintf[0m
  408768:	26240001 	addiu	a0,s1,1
  40876c:	24c2ffc6 	addiu	v0,a2,-58
  408770:	2cc30030 	sltiu	v1,a2,48
  408774:	10c00016 	beqz	a2,4087d0 <util_random_str@@Base+0x5a4>
  408778:	304200ff 	andi	v0,v0,0xff
  40877c:	1460001b 	bnez	v1,4087ec <util_random_str@@Base+0x5c0>
  408780:	2c420007 	sltiu	v0,v0,7
  408784:	24c3ffa5 	addiu	v1,a2,-91
  408788:	14400018 	bnez	v0,4087ec <util_random_str@@Base+0x5c0>
  40878c:	306300ff 	andi	v1,v1,0xff
  408790:	2c630006 	sltiu	v1,v1,6
  408794:	14600015 	bnez	v1,4087ec <util_random_str@@Base+0x5c0>
  408798:	2cc2007a 	sltiu	v0,a2,122
  40879c:	10400013 	beqz	v0,4087ec <util_random_str@@Base+0x5c0>
  4087a0:	00000000 	nop
  4087a4:	a2260000 	sb	a2,0(s1)
  4087a8:	26310001 	addiu	s1,s1,1
  4087ac:	02402821 	move	a1,s2
  4087b0:	92060000 	lbu	a2,0(s0)
  4087b4:	26240001 	addiu	a0,s1,1
  4087b8:	26100001 	addiu	s0,s0,1
  4087bc:	24c2ffc6 	addiu	v0,a2,-58
  4087c0:	2cc30030 	sltiu	v1,a2,48
[31m  4087c4:	8f9980f4 	lw	t9,sprintf[0m
  4087c8:	14c0ffec 	bnez	a2,40877c <util_random_str@@Base+0x550>
  4087cc:	304200ff 	andi	v0,v0,0xff
--
  40e5e4:	00402021 	move	a0,v0
  40e5e8:	24050008 	li	a1,8
  40e5ec:	ae0300d0 	sw	v1,208(s0)
  40e5f0:	afa00044 	sw	zero,68(sp)
  40e5f4:	ac400004 	sw	zero,4(v0)
  40e5f8:	ac400008 	sw	zero,8(v0)
  40e5fc:	0320f809 	jalr	t9
  40e600:	ac40000c 	sw	zero,12(v0)
  40e604:	8fbc0038 	lw	gp,56(sp)
  40e608:	10400007 	beqz	v0,40e628 <svrc_relay_ht_set_funcs@@Base+0xeb0>
  40e60c:	3c050042 	lui	a1,0x42
  40e610:	8fa20040 	lw	v0,64(sp)
  40e614:	1040ff7d 	beqz	v0,40e40c <svrc_relay_ht_set_funcs@@Base+0xc94>
  40e618:	2403fc25 	li	v1,-987
  40e61c:	2402fc25 	li	v0,-987
  40e620:	1000ff52 	b	40e36c <svrc_relay_ht_set_funcs@@Base+0xbf4>
  40e624:	afa30040 	sw	v1,64(sp)
  40e628:	93ab0046 	lbu	t3,70(sp)
  40e62c:	93aa0047 	lbu	t2,71(sp)
  40e630:	24a58194 	addiu	a1,a1,-32364
  40e634:	93a90048 	lbu	t1,72(sp)
  40e638:	262404c9 	addiu	a0,s1,1225
  40e63c:	93a80049 	lbu	t0,73(sp)
  40e640:	93a3004a 	lbu	v1,74(sp)
  40e644:	93a2004b 	lbu	v0,75(sp)
[31m  40e648:	8f9980f4 	lw	t9,sprintf[0m
  40e64c:	93a60044 	lbu	a2,68(sp)
  40e650:	93a70045 	lbu	a3,69(sp)
--
  411d08:	24050020 	li	a1,32
  411d0c:	10450124 	beq	v0,a1,4121a0 <tunnel_sendcb@@Base+0x758>
  411d10:	26100018 	addiu	s0,s0,24
  411d14:	8e030000 	lw	v1,0(s0)
  411d18:	1464fffc 	bne	v1,a0,411d0c <tunnel_sendcb@@Base+0x2c4>
  411d1c:	24420001 	addiu	v0,v0,1
  411d20:	8e030004 	lw	v1,4(s0)
  411d24:	14e3fff9 	bne	a3,v1,411d0c <tunnel_sendcb@@Base+0x2c4>
  411d28:	00000000 	nop
  411d2c:	1200011c 	beqz	s0,4121a0 <tunnel_sendcb@@Base+0x758>
  411d30:	27b40020 	addiu	s4,sp,32
  411d34:	3c040042 	lui	a0,0x42
  411d38:	24848df8 	addiu	a0,a0,-29192
  411d3c:	02802821 	move	a1,s4
  411d40:	24060040 	li	a2,64
  411d44:	a3a00020 	sb	zero,32(sp)
  411d48:	a3a00064 	sb	zero,100(sp)
  411d4c:	0c1046c9 	jal	411b24 <tunnel_sendcb@@Base+0xdc>
  411d50:	a3a000e4 	sb	zero,228(sp)
  411d54:	8fbc0018 	lw	gp,24(sp)
  411d58:	04400061 	bltz	v0,411ee0 <tunnel_sendcb@@Base+0x498>
  411d5c:	00408821 	move	s1,v0
  411d60:	27a70064 	addiu	a3,sp,100
  411d64:	3c050042 	lui	a1,0x42
  411d68:	02803021 	move	a2,s4
[31m  411d6c:	8f9980f4 	lw	t9,sprintf[0m
  411d70:	00e02021 	move	a0,a3
  411d74:	24a58e10 	addiu	a1,a1,-29168
  411d78:	afa704d8 	sw	a3,1240(sp)
  411d7c:	0320f809 	jalr	t9
  411d80:	27b400e4 	addiu	s4,sp,228
  411d84:	3c050042 	lui	a1,0x42
  411d88:	02802021 	move	a0,s4
  411d8c:	8fbc0018 	lw	gp,24(sp)
  411d90:	24a58e2c 	addiu	a1,a1,-29140
  411d94:	8fa704d8 	lw	a3,1240(sp)
[31m  411d98:	8f9980f4 	lw	t9,sprintf[0m
  411d9c:	0320f809 	jalr	t9
  411da0:	00403021 	move	a2,v0
--
  41484c:	8f9980ac 	lw	t9,-32596(gp)
  414850:	0080a021 	move	s4,a0
  414854:	26445720 	addiu	a0,s2,22304
  414858:	00a0b821 	move	s7,a1
  41485c:	27b00040 	addiu	s0,sp,64
  414860:	3c110043 	lui	s1,0x43
  414864:	00c0a821 	move	s5,a2
  414868:	0320f809 	jalr	t9
  41486c:	00e0b021 	move	s6,a3
  414870:	8fbc0038 	lw	gp,56(sp)
  414874:	02002021 	move	a0,s0
  414878:	8f998130 	lw	t9,-32464(gp)
  41487c:	0320f809 	jalr	t9
  414880:	a2205b3c 	sb	zero,23356(s1)
  414884:	8fbc0038 	lw	gp,56(sp)
  414888:	8f998158 	lw	t9,-32424(gp)
  41488c:	0320f809 	jalr	t9
  414890:	02002021 	move	a0,s0
  414894:	8fbc0038 	lw	gp,56(sp)
  414898:	1040000d 	beqz	v0,4148d0 <initLog@@Base+0x460>
  41489c:	00408021 	move	s0,v0
  4148a0:	8c420014 	lw	v0,20(v0)
  4148a4:	3c050042 	lui	a1,0x42
  4148a8:	8e060010 	lw	a2,16(s0)
  4148ac:	24a5999c 	addiu	a1,a1,-26212
[31m  4148b0:	8f9980f4 	lw	t9,sprintf[0m
  4148b4:	2442076c 	addiu	v0,v0,1900
  4148b8:	8e07000c 	lw	a3,12(s0)
--
  414ed8:	00a09021 	move	s2,a1
  414edc:	18a00061 	blez	a1,415064 <show_packet@@Base+0x1c8>
  414ee0:	27a20018 	addiu	v0,sp,24
  414ee4:	27a3001a 	addiu	v1,sp,26
  414ee8:	00809821 	move	s3,a0
  414eec:	3c150042 	lui	s5,0x42
  414ef0:	27be0051 	addiu	s8,sp,81
  414ef4:	afa2006c 	sw	v0,108(sp)
  414ef8:	27a2004b 	addiu	v0,sp,75
  414efc:	afa30068 	sw	v1,104(sp)
  414f00:	27a30052 	addiu	v1,sp,82
  414f04:	26b59a3c 	addiu	s5,s5,-26052
  414f08:	24140010 	li	s4,16
  414f0c:	afa20070 	sw	v0,112(sp)
  414f10:	24160007 	li	s6,7
  414f14:	afa30074 	sw	v1,116(sp)
  414f18:	2417002e 	li	s7,46
  414f1c:	8f998154 	lw	t9,-32428(gp)
  414f20:	24050020 	li	a1,32
  414f24:	8fa4006c 	lw	a0,108(sp)
  414f28:	24060050 	li	a2,80
  414f2c:	0320f809 	jalr	t9
  414f30:	00008021 	move	s0,zero
  414f34:	8fbc0010 	lw	gp,16(sp)
  414f38:	8fa40068 	lw	a0,104(sp)
[31m  414f3c:	8f9980f4 	lw	t9,sprintf[0m
  414f40:	92660000 	lbu	a2,0(s3)
  414f44:	0320f809 	jalr	t9
  414f48:	02a02821 	move	a1,s5
  414f4c:	8fa30068 	lw	v1,104(sp)
  414f50:	8fbc0010 	lw	gp,16(sp)
  414f54:	00628821 	addu	s1,v1,v0
  414f58:	26100001 	addiu	s0,s0,1
  414f5c:	02202021 	move	a0,s1
  414f60:	0212102a 	slt	v0,s0,s2
[31m  414f64:	8f9980f4 	lw	t9,sprintf[0m
  414f68:	02701821 	addu	v1,s3,s0
  414f6c:	10400013 	beqz	v0,414fbc <show_packet@@Base+0x120>
  414f70:	02a02821 	move	a1,s5
  414f74:	12140011 	beq	s0,s4,414fbc <show_packet@@Base+0x120>
  414f78:	00000000 	nop
  414f7c:	90660000 	lbu	a2,0(v1)
  414f80:	0320f809 	jalr	t9
  414f84:	00000000 	nop
  414f88:	8fbc0010 	lw	gp,16(sp)
  414f8c:	1616fff2 	bne	s0,s6,414f58 <show_packet@@Base+0xbc>
  414f90:	02228821 	addu	s1,s1,v0
  414f94:	24020020 	li	v0,32
  414f98:	26100001 	addiu	s0,s0,1
  414f9c:	02a02821 	move	a1,s5
  414fa0:	a2220000 	sb	v0,0(s1)
  414fa4:	26310001 	addiu	s1,s1,1
  414fa8:	0212102a 	slt	v0,s0,s2
[31m  414fac:	8f9980f4 	lw	t9,sprintf[0m
  414fb0:	02202021 	move	a0,s1
  414fb4:	1440ffef 	bnez	v0,414f74 <show_packet@@Base+0xd8>

[0m
[[0;33m*[0m] Function [0;33msprintf[0m used [0;33m14[0m times [0;33mtsa[0m

