[0m
[[0;33m*[0m] Function [0;33mprintf[0m tear down of [0;33mupnpc-ddns[0m

  402fb4:	03e00008 	jr	ra
  402fb8:	27bd0090 	addiu	sp,sp,144
  402fbc:	8f858024 	lw	a1,-32732(gp)
  402fc0:	8f998164 	lw	t9,-32412(gp)
  402fc4:	8f84827c 	lw	a0,-32132(gp)
  402fc8:	0320f809 	jalr	t9
  402fcc:	24a5b4c8 	addiu	a1,a1,-19256
  402fd0:	8fbc0018 	lw	gp,24(sp)
  402fd4:	1440ffbc 	bnez	v0,402ec8 <init_all_candiated_port@@Base+0x13c>
  402fd8:	00408021 	move	s0,v0
  402fdc:	8f92812c 	lw	s2,-32468(gp)
  402fe0:	8e420000 	lw	v0,0(s2)
  402fe4:	2c420002 	sltiu	v0,v0,2
  402fe8:	14400016 	bnez	v0,403044 <init_all_candiated_port@@Base+0x2b8>
  402fec:	00000000 	nop
  402ff0:	8f998248 	lw	t9,-32184(gp)
  402ff4:	0320f809 	jalr	t9
  402ff8:	00000000 	nop
  402ffc:	2407074c 	li	a3,1868
  403000:	8fbc0018 	lw	gp,24(sp)
  403004:	00402821 	move	a1,v0
  403008:	8f828024 	lw	v0,-32732(gp)
  40300c:	8f848024 	lw	a0,-32732(gp)
  403010:	8f868024 	lw	a2,-32732(gp)
  403014:	2442c694 	addiu	v0,v0,-14700
[31m  403018:	8f9980b4 	lw	t9,printf[0m
  40301c:	2484b4d0 	addiu	a0,a0,-19248
  403020:	24c6d5f8 	addiu	a2,a2,-10760
--
  403028:	afa20010 	sw	v0,16(sp)
  40302c:	8fbc0018 	lw	gp,24(sp)
  403030:	8f848024 	lw	a0,-32732(gp)
  403034:	8f9980a4 	lw	t9,-32604(gp)
  403038:	0320f809 	jalr	t9
  40303c:	2484b4e4 	addiu	a0,a0,-19228
  403040:	8fbc0018 	lw	gp,24(sp)
  403044:	8f918238 	lw	s1,-32200(gp)
  403048:	8e240000 	lw	a0,0(s1)
  40304c:	14800043 	bnez	a0,40315c <init_all_candiated_port@@Base+0x3d0>
  403050:	2407074c 	li	a3,1868
  403054:	8e420000 	lw	v0,0(s2)
  403058:	2c420002 	sltiu	v0,v0,2
  40305c:	14400018 	bnez	v0,4030c0 <init_all_candiated_port@@Base+0x334>
  403060:	00000000 	nop
  403064:	8f998248 	lw	t9,-32184(gp)
  403068:	0320f809 	jalr	t9
  40306c:	00000000 	nop
  403070:	24070751 	li	a3,1873
  403074:	8fbc0018 	lw	gp,24(sp)
  403078:	00402821 	move	a1,v0
  40307c:	8f828024 	lw	v0,-32732(gp)
  403080:	8f848024 	lw	a0,-32732(gp)
  403084:	8f868024 	lw	a2,-32732(gp)
  403088:	2442c694 	addiu	v0,v0,-14700
[31m  40308c:	8f9980b4 	lw	t9,printf[0m
  403090:	2484b4d0 	addiu	a0,a0,-19248
  403094:	24c6d5f8 	addiu	a2,a2,-10760
  403098:	0320f809 	jalr	t9
  40309c:	afa20010 	sw	v0,16(sp)
  4030a0:	02002821 	move	a1,s0
  4030a4:	8fbc0018 	lw	gp,24(sp)
  4030a8:	8f848024 	lw	a0,-32732(gp)
[31m  4030ac:	8f9980b4 	lw	t9,printf[0m
  4030b0:	8f8680f8 	lw	a2,-32520(gp)
  4030b4:	0320f809 	jalr	t9
--
  403210:	00000000 	nop
  403214:	30420002 	andi	v0,v0,0x2
  403218:	14400005 	bnez	v0,403230 <Init_API@@Base+0x70>
  40321c:	24030001 	li	v1,1
  403220:	8fbf0024 	lw	ra,36(sp)
  403224:	8fb00020 	lw	s0,32(sp)
  403228:	03e00008 	jr	ra
  40322c:	27bd0028 	addiu	sp,sp,40
  403230:	8f82842c 	lw	v0,-31700(gp)
  403234:	8f848024 	lw	a0,-32732(gp)
  403238:	8f9980a4 	lw	t9,-32604(gp)
  40323c:	ac430000 	sw	v1,0(v0)
  403240:	0320f809 	jalr	t9
  403244:	2484b574 	addiu	a0,a0,-19084
  403248:	8fbc0010 	lw	gp,16(sp)
  40324c:	8f82810c 	lw	v0,-32500(gp)
  403250:	8c420000 	lw	v0,0(v0)
  403254:	18400005 	blez	v0,40326c <Init_API@@Base+0xac>
  403258:	00000000 	nop
  40325c:	8f828108 	lw	v0,-32504(gp)
  403260:	80420000 	lb	v0,0(v0)
  403264:	1440ffee 	bnez	v0,403220 <Init_API@@Base+0x60>
  403268:	00000000 	nop
  40326c:	8f848024 	lw	a0,-32732(gp)
  403270:	240507f3 	li	a1,2035
[31m  403274:	8f9980b4 	lw	t9,printf[0m
  403278:	0320f809 	jalr	t9
  40327c:	2484b5a0 	addiu	a0,a0,-19040
--
  403304:	8f94812c 	lw	s4,-32468(gp)
  403308:	00a0a821 	move	s5,a1
  40330c:	00002821 	move	a1,zero
  403310:	00c08821 	move	s1,a2
  403314:	24060400 	li	a2,1024
  403318:	02602021 	move	a0,s3
  40331c:	0320f809 	jalr	t9
  403320:	00e08021 	move	s0,a3
  403324:	8e820000 	lw	v0,0(s4)
  403328:	8fbc0018 	lw	gp,24(sp)
  40332c:	2c420002 	sltiu	v0,v0,2
  403330:	afa00020 	sw	zero,32(sp)
  403334:	a7a00024 	sh	zero,36(sp)
  403338:	14400018 	bnez	v0,40339c <UPNP_RemoteCheck_Proxy@@Base+0xe0>
  40333c:	a3a00026 	sb	zero,38(sp)
  403340:	8f998248 	lw	t9,-32184(gp)
  403344:	0320f809 	jalr	t9
  403348:	00000000 	nop
  40334c:	24070760 	li	a3,1888
  403350:	8fbc0018 	lw	gp,24(sp)
  403354:	00402821 	move	a1,v0
  403358:	8f828024 	lw	v0,-32732(gp)
  40335c:	8f848024 	lw	a0,-32732(gp)
  403360:	8f868024 	lw	a2,-32732(gp)
  403364:	2442c67c 	addiu	v0,v0,-14724
[31m  403368:	8f9980b4 	lw	t9,printf[0m
  40336c:	2484b4d0 	addiu	a0,a0,-19248
  403370:	24c6d5f8 	addiu	a2,a2,-10760
  403374:	0320f809 	jalr	t9
  403378:	afa20010 	sw	v0,16(sp)
  40337c:	02202821 	move	a1,s1
  403380:	8fbc0018 	lw	gp,24(sp)
  403384:	02003021 	move	a2,s0
  403388:	8f848024 	lw	a0,-32732(gp)
[31m  40338c:	8f9980b4 	lw	t9,printf[0m
  403390:	0320f809 	jalr	t9
  403394:	2484c928 	addiu	a0,a0,-14040
--
  4033f4:	8e440000 	lw	a0,0(s2)
  4033f8:	8f9981a4 	lw	t9,-32348(gp)
  4033fc:	0320f809 	jalr	t9
  403400:	00000000 	nop
  403404:	8fbc0018 	lw	gp,24(sp)
  403408:	1200012b 	beqz	s0,4038b8 <UPNP_RemoteCheck_Proxy@@Base+0x5fc>
  40340c:	00000000 	nop
  403410:	12200129 	beqz	s1,4038b8 <UPNP_RemoteCheck_Proxy@@Base+0x5fc>
  403414:	00000000 	nop
  403418:	12a00127 	beqz	s5,4038b8 <UPNP_RemoteCheck_Proxy@@Base+0x5fc>
  40341c:	00000000 	nop
  403420:	8e820000 	lw	v0,0(s4)
  403424:	2c420002 	sltiu	v0,v0,2
  403428:	14400016 	bnez	v0,403484 <UPNP_RemoteCheck_Proxy@@Base+0x1c8>
  40342c:	00000000 	nop
  403430:	8f998248 	lw	t9,-32184(gp)
  403434:	0320f809 	jalr	t9
  403438:	00000000 	nop
  40343c:	24070763 	li	a3,1891
  403440:	8fbc0018 	lw	gp,24(sp)
  403444:	00402821 	move	a1,v0
  403448:	8f828024 	lw	v0,-32732(gp)
  40344c:	8f848024 	lw	a0,-32732(gp)
  403450:	8f868024 	lw	a2,-32732(gp)
  403454:	2442c67c 	addiu	v0,v0,-14724
[31m  403458:	8f9980b4 	lw	t9,printf[0m
  40345c:	2484b4d0 	addiu	a0,a0,-19248
  403460:	24c6d5f8 	addiu	a2,a2,-10760
--
  40366c:	27bd0450 	addiu	sp,sp,1104
  403670:	8f858024 	lw	a1,-32732(gp)
  403674:	8f9980fc 	lw	t9,-32516(gp)
  403678:	8f848108 	lw	a0,-32504(gp)
  40367c:	0320f809 	jalr	t9
  403680:	24a5b6ac 	addiu	a1,a1,-18772
  403684:	8fbc0018 	lw	gp,24(sp)
  403688:	1040ffa9 	beqz	v0,403530 <UPNP_RemoteCheck_Proxy@@Base+0x274>
  40368c:	27b60020 	addiu	s6,sp,32
  403690:	1000ffd6 	b	4035ec <UPNP_RemoteCheck_Proxy@@Base+0x330>
  403694:	00000000 	nop
  403698:	8e820000 	lw	v0,0(s4)
  40369c:	2c420002 	sltiu	v0,v0,2
  4036a0:	14400016 	bnez	v0,4036fc <UPNP_RemoteCheck_Proxy@@Base+0x440>
  4036a4:	00000000 	nop
  4036a8:	8f998248 	lw	t9,-32184(gp)
  4036ac:	0320f809 	jalr	t9
  4036b0:	00000000 	nop
  4036b4:	2407077f 	li	a3,1919
  4036b8:	8fbc0018 	lw	gp,24(sp)
  4036bc:	00402821 	move	a1,v0
  4036c0:	8f828024 	lw	v0,-32732(gp)
  4036c4:	8f848024 	lw	a0,-32732(gp)
  4036c8:	8f868024 	lw	a2,-32732(gp)
  4036cc:	2442c67c 	addiu	v0,v0,-14724
[31m  4036d0:	8f9980b4 	lw	t9,printf[0m
  4036d4:	2484b4d0 	addiu	a0,a0,-19248
  4036d8:	24c6d5f8 	addiu	a2,a2,-10760
--
  4037d0:	2667b640 	addiu	a3,s3,-18880
  4037d4:	afa20010 	sw	v0,16(sp)
  4037d8:	8f998184 	lw	t9,-32380(gp)
  4037dc:	0320f809 	jalr	t9
  4037e0:	02202821 	move	a1,s1
  4037e4:	8fbc0018 	lw	gp,24(sp)
  4037e8:	04400004 	bltz	v0,4037fc <UPNP_RemoteCheck_Proxy@@Base+0x540>
  4037ec:	2665b640 	addiu	a1,s3,-18880
  4037f0:	8f84827c 	lw	a0,-32132(gp)
  4037f4:	1000ff72 	b	4035c0 <UPNP_RemoteCheck_Proxy@@Base+0x304>
  4037f8:	00000000 	nop
  4037fc:	8e820000 	lw	v0,0(s4)
  403800:	2c420002 	sltiu	v0,v0,2
  403804:	14400016 	bnez	v0,403860 <UPNP_RemoteCheck_Proxy@@Base+0x5a4>
  403808:	00000000 	nop
  40380c:	8f998248 	lw	t9,-32184(gp)
  403810:	0320f809 	jalr	t9
  403814:	00000000 	nop
  403818:	2407076d 	li	a3,1901
  40381c:	8fbc0018 	lw	gp,24(sp)
  403820:	00402821 	move	a1,v0
  403824:	8f828024 	lw	v0,-32732(gp)
  403828:	8f848024 	lw	a0,-32732(gp)
  40382c:	8f868024 	lw	a2,-32732(gp)
  403830:	2442c67c 	addiu	v0,v0,-14724
[31m  403834:	8f9980b4 	lw	t9,printf[0m
  403838:	2484b4d0 	addiu	a0,a0,-19248
  40383c:	24c6d5f8 	addiu	a2,a2,-10760
--
  40388c:	24c6d5f8 	addiu	a2,a2,-10760
  403890:	0320f809 	jalr	t9
  403894:	afa20010 	sw	v0,16(sp)
  403898:	24050001 	li	a1,1
  40389c:	8fbc0018 	lw	gp,24(sp)
  4038a0:	24060020 	li	a2,32
  4038a4:	8e070000 	lw	a3,0(s0)
  4038a8:	8f848024 	lw	a0,-32732(gp)
  4038ac:	8f9983e0 	lw	t9,-31776(gp)
  4038b0:	1000ffa7 	b	403750 <UPNP_RemoteCheck_Proxy@@Base+0x494>
  4038b4:	2484b680 	addiu	a0,a0,-18816
  4038b8:	8e820000 	lw	v0,0(s4)
  4038bc:	2c420002 	sltiu	v0,v0,2
  4038c0:	14400016 	bnez	v0,40391c <UPNP_RemoteCheck_Proxy@@Base+0x660>
  4038c4:	00000000 	nop
  4038c8:	8f998248 	lw	t9,-32184(gp)
  4038cc:	0320f809 	jalr	t9
  4038d0:	00000000 	nop
  4038d4:	24070765 	li	a3,1893
  4038d8:	8fbc0018 	lw	gp,24(sp)
  4038dc:	00402821 	move	a1,v0
  4038e0:	8f828024 	lw	v0,-32732(gp)
  4038e4:	8f848024 	lw	a0,-32732(gp)
  4038e8:	8f868024 	lw	a2,-32732(gp)
  4038ec:	2442c67c 	addiu	v0,v0,-14724
[31m  4038f0:	8f9980b4 	lw	t9,printf[0m
  4038f4:	2484b4d0 	addiu	a0,a0,-19248
  4038f8:	24c6d5f8 	addiu	a2,a2,-10760
--
  403c74:	8f9981ec 	lw	t9,-32276(gp)
  403c78:	0320f809 	jalr	t9
  403c7c:	24060003 	li	a2,3
  403c80:	02001021 	move	v0,s0
  403c84:	8fbf002c 	lw	ra,44(sp)
  403c88:	8fb20028 	lw	s2,40(sp)
  403c8c:	8fb10024 	lw	s1,36(sp)
  403c90:	8fb00020 	lw	s0,32(sp)
  403c94:	03e00008 	jr	ra
  403c98:	27bd0030 	addiu	sp,sp,48
  403c9c:	8f82812c 	lw	v0,-32468(gp)
  403ca0:	8c420000 	lw	v0,0(v0)
  403ca4:	2c420002 	sltiu	v0,v0,2
  403ca8:	14400016 	bnez	v0,403d04 <create_del_entry@@Base+0x140>
  403cac:	00000000 	nop
  403cb0:	8f998248 	lw	t9,-32184(gp)
  403cb4:	0320f809 	jalr	t9
  403cb8:	00000000 	nop
  403cbc:	24070390 	li	a3,912
  403cc0:	8fbc0018 	lw	gp,24(sp)
  403cc4:	00402821 	move	a1,v0
  403cc8:	8f828024 	lw	v0,-32732(gp)
  403ccc:	8f848024 	lw	a0,-32732(gp)
  403cd0:	8f868024 	lw	a2,-32732(gp)
  403cd4:	2442c748 	addiu	v0,v0,-14520
[31m  403cd8:	8f9980b4 	lw	t9,printf[0m
  403cdc:	2484b4d0 	addiu	a0,a0,-19248
  403ce0:	24c6d5f8 	addiu	a2,a2,-10760
--
  4042c0:	1440010d 	bnez	v0,4046f8 <add_check_rule@@Base+0x52c>
  4042c4:	00408021 	move	s0,v0
  4042c8:	8f828228 	lw	v0,-32216(gp)
  4042cc:	8c420000 	lw	v0,0(v0)
  4042d0:	10400005 	beqz	v0,4042e8 <add_check_rule@@Base+0x11c>
  4042d4:	00000000 	nop
  4042d8:	80430000 	lb	v1,0(v0)
  4042dc:	24020030 	li	v0,48
  4042e0:	10620148 	beq	v1,v0,404804 <add_check_rule@@Base+0x638>
  4042e4:	02602821 	move	a1,s3
  4042e8:	8f94812c 	lw	s4,-32468(gp)
  4042ec:	8e820000 	lw	v0,0(s4)
  4042f0:	2c420002 	sltiu	v0,v0,2
  4042f4:	14400016 	bnez	v0,404350 <add_check_rule@@Base+0x184>
  4042f8:	00000000 	nop
  4042fc:	8f998248 	lw	t9,-32184(gp)
  404300:	0320f809 	jalr	t9
  404304:	00000000 	nop
  404308:	24070541 	li	a3,1345
  40430c:	8fbc0020 	lw	gp,32(sp)
  404310:	00402821 	move	a1,v0
  404314:	8f828024 	lw	v0,-32732(gp)
  404318:	8f848024 	lw	a0,-32732(gp)
  40431c:	8f868024 	lw	a2,-32732(gp)
  404320:	2442c6f8 	addiu	v0,v0,-14600
[31m  404324:	8f9980b4 	lw	t9,printf[0m
  404328:	2484b4d0 	addiu	a0,a0,-19248
  40432c:	24c6d5f8 	addiu	a2,a2,-10760
  404330:	0320f809 	jalr	t9
  404334:	afa20010 	sw	v0,16(sp)
  404338:	8fbc0020 	lw	gp,32(sp)
  40433c:	8f848024 	lw	a0,-32732(gp)
[31m  404340:	8f9980b4 	lw	t9,printf[0m
  404344:	0320f809 	jalr	t9
  404348:	2484b8a0 	addiu	a0,a0,-18272
--
  4043b0:	0320f809 	jalr	t9
  4043b4:	00000000 	nop
  4043b8:	8fbc0020 	lw	gp,32(sp)
  4043bc:	8f998198 	lw	t9,-32360(gp)
  4043c0:	02a02021 	move	a0,s5
  4043c4:	24060001 	li	a2,1
  4043c8:	0320f809 	jalr	t9
  4043cc:	02602821 	move	a1,s3
  4043d0:	8fbc0020 	lw	gp,32(sp)
  4043d4:	14400047 	bnez	v0,4044f4 <add_check_rule@@Base+0x328>
  4043d8:	00408021 	move	s0,v0
  4043dc:	8e820000 	lw	v0,0(s4)
  4043e0:	2c420002 	sltiu	v0,v0,2
  4043e4:	14400019 	bnez	v0,40444c <add_check_rule@@Base+0x280>
  4043e8:	00000000 	nop
  4043ec:	8f998248 	lw	t9,-32184(gp)
  4043f0:	0320f809 	jalr	t9
  4043f4:	00000000 	nop
  4043f8:	24070546 	li	a3,1350
  4043fc:	8fbc0020 	lw	gp,32(sp)
  404400:	00402821 	move	a1,v0
  404404:	8f828024 	lw	v0,-32732(gp)
  404408:	8f848024 	lw	a0,-32732(gp)
  40440c:	8f868024 	lw	a2,-32732(gp)
  404410:	2442c6f8 	addiu	v0,v0,-14600
[31m  404414:	8f9980b4 	lw	t9,printf[0m
  404418:	2484b4d0 	addiu	a0,a0,-19248
  40441c:	24c6d5f8 	addiu	a2,a2,-10760
  404420:	0320f809 	jalr	t9
  404424:	afa20010 	sw	v0,16(sp)
  404428:	00002821 	move	a1,zero
  40442c:	02a03021 	move	a2,s5
  404430:	8fbc0020 	lw	gp,32(sp)
  404434:	02603821 	move	a3,s3
  404438:	8f848024 	lw	a0,-32732(gp)
[31m  40443c:	8f9980b4 	lw	t9,printf[0m
  404440:	0320f809 	jalr	t9
  404444:	2484b8d4 	addiu	a0,a0,-18220
--
  4044ec:	1000ff4f 	b	40422c <add_check_rule@@Base+0x60>
  4044f0:	02001021 	move	v0,s0
  4044f4:	8f9982b0 	lw	t9,-32080(gp)
  4044f8:	02e02821 	move	a1,s7
  4044fc:	8e240000 	lw	a0,0(s1)
  404500:	02603021 	move	a2,s3
  404504:	0320f809 	jalr	t9
  404508:	02c03821 	move	a3,s6
  40450c:	8fbc0020 	lw	gp,32(sp)
  404510:	10400025 	beqz	v0,4045a8 <add_check_rule@@Base+0x3dc>
  404514:	00408821 	move	s1,v0
  404518:	8e820000 	lw	v0,0(s4)
  40451c:	2c420002 	sltiu	v0,v0,2
  404520:	1440001b 	bnez	v0,404590 <add_check_rule@@Base+0x3c4>
  404524:	00000000 	nop
  404528:	8f998248 	lw	t9,-32184(gp)
  40452c:	0320f809 	jalr	t9
  404530:	00000000 	nop
  404534:	24070550 	li	a3,1360
  404538:	8fbc0020 	lw	gp,32(sp)
  40453c:	00402821 	move	a1,v0
  404540:	8f828024 	lw	v0,-32732(gp)
  404544:	8f848024 	lw	a0,-32732(gp)
  404548:	8f868024 	lw	a2,-32732(gp)
  40454c:	2442c6f8 	addiu	v0,v0,-14600
[31m  404550:	8f9980b4 	lw	t9,printf[0m
  404554:	2484b4d0 	addiu	a0,a0,-19248
  404558:	24c6d5f8 	addiu	a2,a2,-10760
  40455c:	0320f809 	jalr	t9
  404560:	afa20010 	sw	v0,16(sp)
  404564:	8fbc0020 	lw	gp,32(sp)
  404568:	8f9983d0 	lw	t9,-31792(gp)
  40456c:	0320f809 	jalr	t9
  404570:	02202021 	move	a0,s1
  404574:	8fbc0020 	lw	gp,32(sp)
  404578:	00402821 	move	a1,v0
  40457c:	8f848024 	lw	a0,-32732(gp)
[31m  404580:	8f9980b4 	lw	t9,printf[0m
  404584:	0320f809 	jalr	t9
  404588:	2484b914 	addiu	a0,a0,-18156
  40458c:	8fbc0020 	lw	gp,32(sp)
  404590:	8e440000 	lw	a0,0(s2)
  404594:	8f928238 	lw	s2,-32200(gp)
  404598:	14800039 	bnez	a0,404680 <add_check_rule@@Base+0x4b4>
  40459c:	2410fecd 	li	s0,-307
  4045a0:	1000ff21 	b	404228 <add_check_rule@@Base+0x5c>
  4045a4:	00000000 	nop
  4045a8:	8e820000 	lw	v0,0(s4)
  4045ac:	2c420002 	sltiu	v0,v0,2
  4045b0:	14400016 	bnez	v0,40460c <add_check_rule@@Base+0x440>
  4045b4:	00000000 	nop
  4045b8:	8f998248 	lw	t9,-32184(gp)
  4045bc:	0320f809 	jalr	t9
  4045c0:	00000000 	nop
  4045c4:	24070554 	li	a3,1364
  4045c8:	8fbc0020 	lw	gp,32(sp)
  4045cc:	00402821 	move	a1,v0
  4045d0:	8f828024 	lw	v0,-32732(gp)
  4045d4:	8f848024 	lw	a0,-32732(gp)
  4045d8:	8f868024 	lw	a2,-32732(gp)
  4045dc:	2442c6f8 	addiu	v0,v0,-14600
[31m  4045e0:	8f9980b4 	lw	t9,printf[0m
  4045e4:	2484b4d0 	addiu	a0,a0,-19248
  4045e8:	24c6d5f8 	addiu	a2,a2,-10760
--
  4046d0:	8f998168 	lw	t9,-32408(gp)
  4046d4:	0320f809 	jalr	t9
  4046d8:	24a5b914 	addiu	a1,a1,-18156
  4046dc:	8fbc0020 	lw	gp,32(sp)
  4046e0:	8e440000 	lw	a0,0(s2)
  4046e4:	8f9981a4 	lw	t9,-32348(gp)
  4046e8:	0320f809 	jalr	t9
  4046ec:	00000000 	nop
  4046f0:	1000fece 	b	40422c <add_check_rule@@Base+0x60>
  4046f4:	02001021 	move	v0,s0
  4046f8:	8f82812c 	lw	v0,-32468(gp)
  4046fc:	8c420000 	lw	v0,0(v0)
  404700:	2c420002 	sltiu	v0,v0,2
  404704:	1440001f 	bnez	v0,404784 <add_check_rule@@Base+0x5b8>
  404708:	00000000 	nop
  40470c:	8f998248 	lw	t9,-32184(gp)
  404710:	0320f809 	jalr	t9
  404714:	00000000 	nop
  404718:	2407055d 	li	a3,1373
  40471c:	8fbc0020 	lw	gp,32(sp)
  404720:	00402821 	move	a1,v0
  404724:	8f828024 	lw	v0,-32732(gp)
  404728:	8f848024 	lw	a0,-32732(gp)
  40472c:	8f868024 	lw	a2,-32732(gp)
  404730:	2442c6f8 	addiu	v0,v0,-14600
[31m  404734:	8f9980b4 	lw	t9,printf[0m
  404738:	2484b4d0 	addiu	a0,a0,-19248
  40473c:	24c6d5f8 	addiu	a2,a2,-10760
  404740:	0320f809 	jalr	t9
  404744:	afa20010 	sw	v0,16(sp)
  404748:	8fbc0020 	lw	gp,32(sp)
  40474c:	8f9983d0 	lw	t9,-31792(gp)
  404750:	0320f809 	jalr	t9
  404754:	02002021 	move	a0,s0
  404758:	02602821 	move	a1,s3
  40475c:	8fbc0020 	lw	gp,32(sp)
  404760:	02803021 	move	a2,s4
  404764:	02403821 	move	a3,s2
  404768:	afa20014 	sw	v0,20(sp)
  40476c:	8f848024 	lw	a0,-32732(gp)
[31m  404770:	8f9980b4 	lw	t9,printf[0m
  404774:	2484b990 	addiu	a0,a0,-18032
  404778:	0320f809 	jalr	t9
--
  404808:	8f8482d8 	lw	a0,-32040(gp)
  40480c:	0320f809 	jalr	t9
  404810:	24060006 	li	a2,6
  404814:	02a02821 	move	a1,s5
  404818:	8fbc0020 	lw	gp,32(sp)
  40481c:	8f9981ec 	lw	t9,-32276(gp)
  404820:	8f848200 	lw	a0,-32256(gp)
  404824:	0320f809 	jalr	t9
  404828:	24060010 	li	a2,16
  40482c:	8fbc0020 	lw	gp,32(sp)
  404830:	8f82812c 	lw	v0,-32468(gp)
  404834:	8c420000 	lw	v0,0(v0)
  404838:	2c420002 	sltiu	v0,v0,2
  40483c:	14400018 	bnez	v0,4048a0 <add_check_rule@@Base+0x6d4>
  404840:	00000000 	nop
  404844:	8f998248 	lw	t9,-32184(gp)
  404848:	0320f809 	jalr	t9
  40484c:	00000000 	nop
  404850:	2407053b 	li	a3,1339
  404854:	8fbc0020 	lw	gp,32(sp)
  404858:	00402821 	move	a1,v0
  40485c:	8f828024 	lw	v0,-32732(gp)
  404860:	8f848024 	lw	a0,-32732(gp)
  404864:	8f868024 	lw	a2,-32732(gp)
  404868:	2442c6f8 	addiu	v0,v0,-14600
[31m  40486c:	8f9980b4 	lw	t9,printf[0m
  404870:	2484b4d0 	addiu	a0,a0,-19248
  404874:	24c6d5f8 	addiu	a2,a2,-10760
  404878:	0320f809 	jalr	t9
  40487c:	afa20010 	sw	v0,16(sp)
  404880:	8fbc0020 	lw	gp,32(sp)
  404884:	8f848024 	lw	a0,-32732(gp)
[31m  404888:	8f9980b4 	lw	t9,printf[0m
  40488c:	8f858200 	lw	a1,-32256(gp)
  404890:	8f8682d8 	lw	a2,-32040(gp)
--
  4049f8:	8fb00038 	lw	s0,56(sp)
  4049fc:	03e00008 	jr	ra
  404a00:	27bd0048 	addiu	sp,sp,72
  404a04:	8f858024 	lw	a1,-32732(gp)
  404a08:	8f998100 	lw	t9,-32512(gp)
  404a0c:	0320f809 	jalr	t9
  404a10:	24a5b9c4 	addiu	a1,a1,-17980
  404a14:	8fbc0018 	lw	gp,24(sp)
  404a18:	1440ffcc 	bnez	v0,40494c <fetch_ip@@Base+0x4c>
  404a1c:	00000000 	nop
  404a20:	8f82812c 	lw	v0,-32468(gp)
  404a24:	8c420000 	lw	v0,0(v0)
  404a28:	2c420002 	sltiu	v0,v0,2
  404a2c:	14400016 	bnez	v0,404a88 <fetch_ip@@Base+0x188>
  404a30:	00000000 	nop
  404a34:	8f998248 	lw	t9,-32184(gp)
  404a38:	0320f809 	jalr	t9
  404a3c:	00000000 	nop
  404a40:	240702d1 	li	a3,721
  404a44:	8fbc0018 	lw	gp,24(sp)
  404a48:	00402821 	move	a1,v0
  404a4c:	8f828024 	lw	v0,-32732(gp)
  404a50:	8f848024 	lw	a0,-32732(gp)
  404a54:	8f868024 	lw	a2,-32732(gp)
  404a58:	2442c75c 	addiu	v0,v0,-14500
[31m  404a5c:	8f9980b4 	lw	t9,printf[0m
  404a60:	2484b4d0 	addiu	a0,a0,-19248
  404a64:	24c6d5f8 	addiu	a2,a2,-10760
--
  404b84:	27b00020 	addiu	s0,sp,32
  404b88:	afa00020 	sw	zero,32(sp)
  404b8c:	02002821 	move	a1,s0
  404b90:	afa00024 	sw	zero,36(sp)
  404b94:	afa00028 	sw	zero,40(sp)
  404b98:	0320f809 	jalr	t9
  404b9c:	afa0002c 	sw	zero,44(sp)
  404ba0:	8fbc0018 	lw	gp,24(sp)
  404ba4:	1440009f 	bnez	v0,404e24 <fetch_UPnPIGD_info@@Base+0x2d8>
  404ba8:	00409821 	move	s3,v0
  404bac:	8f94812c 	lw	s4,-32468(gp)
  404bb0:	8e820000 	lw	v0,0(s4)
  404bb4:	2c420002 	sltiu	v0,v0,2
  404bb8:	14400018 	bnez	v0,404c1c <fetch_UPnPIGD_info@@Base+0xd0>
  404bbc:	00000000 	nop
  404bc0:	8f998248 	lw	t9,-32184(gp)
  404bc4:	0320f809 	jalr	t9
  404bc8:	00000000 	nop
  404bcc:	2407048e 	li	a3,1166
  404bd0:	8fbc0018 	lw	gp,24(sp)
  404bd4:	00402821 	move	a1,v0
  404bd8:	8f828024 	lw	v0,-32732(gp)
  404bdc:	8f848024 	lw	a0,-32732(gp)
  404be0:	8f868024 	lw	a2,-32732(gp)
  404be4:	2442c718 	addiu	v0,v0,-14568
[31m  404be8:	8f9980b4 	lw	t9,printf[0m
  404bec:	2484b4d0 	addiu	a0,a0,-19248
  404bf0:	24c6d5f8 	addiu	a2,a2,-10760
  404bf4:	0320f809 	jalr	t9
  404bf8:	afa20010 	sw	v0,16(sp)
  404bfc:	02002821 	move	a1,s0
  404c00:	8fbc0018 	lw	gp,24(sp)
  404c04:	8f848024 	lw	a0,-32732(gp)
[31m  404c08:	8f9980b4 	lw	t9,printf[0m
  404c0c:	8f8680d8 	lw	a2,-32552(gp)
  404c10:	0320f809 	jalr	t9
--
  404c78:	8f9981a4 	lw	t9,-32348(gp)
  404c7c:	0320f809 	jalr	t9
  404c80:	00000000 	nop
  404c84:	8fbc0018 	lw	gp,24(sp)
  404c88:	8f9980fc 	lw	t9,-32516(gp)
  404c8c:	8f8480d8 	lw	a0,-32552(gp)
  404c90:	0320f809 	jalr	t9
  404c94:	02002821 	move	a1,s0
  404c98:	8fbc0018 	lw	gp,24(sp)
  404c9c:	14400063 	bnez	v0,404e2c <fetch_UPnPIGD_info@@Base+0x2e0>
  404ca0:	00000000 	nop
  404ca4:	8e820000 	lw	v0,0(s4)
  404ca8:	2c420002 	sltiu	v0,v0,2
  404cac:	14400017 	bnez	v0,404d0c <fetch_UPnPIGD_info@@Base+0x1c0>
  404cb0:	00000000 	nop
  404cb4:	8f998248 	lw	t9,-32184(gp)
  404cb8:	0320f809 	jalr	t9
  404cbc:	00000000 	nop
  404cc0:	24070491 	li	a3,1169
  404cc4:	8fbc0018 	lw	gp,24(sp)
  404cc8:	00402821 	move	a1,v0
  404ccc:	8f828024 	lw	v0,-32732(gp)
  404cd0:	8f848024 	lw	a0,-32732(gp)
  404cd4:	8f868024 	lw	a2,-32732(gp)
  404cd8:	2442c718 	addiu	v0,v0,-14568
[31m  404cdc:	8f9980b4 	lw	t9,printf[0m
  404ce0:	2484b4d0 	addiu	a0,a0,-19248
  404ce4:	24c6d5f8 	addiu	a2,a2,-10760
  404ce8:	0320f809 	jalr	t9
  404cec:	afa20010 	sw	v0,16(sp)
  404cf0:	02002821 	move	a1,s0
  404cf4:	8fbc0018 	lw	gp,24(sp)
  404cf8:	8f848024 	lw	a0,-32732(gp)
[31m  404cfc:	8f9980b4 	lw	t9,printf[0m
  404d00:	0320f809 	jalr	t9
  404d04:	2484ba4c 	addiu	a0,a0,-17844
--
  404e00:	02202021 	move	a0,s1
  404e04:	8fbf0044 	lw	ra,68(sp)
  404e08:	8fb40040 	lw	s4,64(sp)
  404e0c:	8fb3003c 	lw	s3,60(sp)
  404e10:	8fb20038 	lw	s2,56(sp)
  404e14:	8fb10034 	lw	s1,52(sp)
  404e18:	8fb00030 	lw	s0,48(sp)
  404e1c:	03e00008 	jr	ra
  404e20:	27bd0048 	addiu	sp,sp,72
  404e24:	8f94812c 	lw	s4,-32468(gp)
  404e28:	8f928238 	lw	s2,-32200(gp)
  404e2c:	8e820000 	lw	v0,0(s4)
  404e30:	2c420002 	sltiu	v0,v0,2
  404e34:	14400018 	bnez	v0,404e98 <fetch_UPnPIGD_info@@Base+0x34c>
  404e38:	00000000 	nop
  404e3c:	8f998248 	lw	t9,-32184(gp)
  404e40:	0320f809 	jalr	t9
  404e44:	00000000 	nop
  404e48:	240704a2 	li	a3,1186
  404e4c:	8fbc0018 	lw	gp,24(sp)
  404e50:	00402821 	move	a1,v0
  404e54:	8f828024 	lw	v0,-32732(gp)
  404e58:	8f848024 	lw	a0,-32732(gp)
  404e5c:	8f868024 	lw	a2,-32732(gp)
  404e60:	2442c718 	addiu	v0,v0,-14568
[31m  404e64:	8f9980b4 	lw	t9,printf[0m
  404e68:	2484b4d0 	addiu	a0,a0,-19248
  404e6c:	24c6d5f8 	addiu	a2,a2,-10760
  404e70:	0320f809 	jalr	t9
  404e74:	afa20010 	sw	v0,16(sp)
  404e78:	02202821 	move	a1,s1
  404e7c:	8fbc0018 	lw	gp,24(sp)
  404e80:	02603021 	move	a2,s3
  404e84:	8f848024 	lw	a0,-32732(gp)
[31m  404e88:	8f9980b4 	lw	t9,printf[0m
  404e8c:	0320f809 	jalr	t9
  404e90:	2484baac 	addiu	a0,a0,-17748
--
  404f24:	ac400004 	sw	zero,4(v0)
  404f28:	2402fec9 	li	v0,-311
  404f2c:	8fbf0044 	lw	ra,68(sp)
  404f30:	8fb40040 	lw	s4,64(sp)
  404f34:	8fb3003c 	lw	s3,60(sp)
  404f38:	8fb20038 	lw	s2,56(sp)
  404f3c:	8fb10034 	lw	s1,52(sp)
  404f40:	8fb00030 	lw	s0,48(sp)
  404f44:	03e00008 	jr	ra
  404f48:	27bd0048 	addiu	sp,sp,72
  404f4c:	8f82812c 	lw	v0,-32468(gp)
  404f50:	8c420000 	lw	v0,0(v0)
  404f54:	2c420002 	sltiu	v0,v0,2
  404f58:	14400016 	bnez	v0,404fb4 <fetch_UPnPIGD_info@@Base+0x468>
  404f5c:	00000000 	nop
  404f60:	8f998248 	lw	t9,-32184(gp)
  404f64:	0320f809 	jalr	t9
  404f68:	00000000 	nop
  404f6c:	24070487 	li	a3,1159
  404f70:	8fbc0018 	lw	gp,24(sp)
  404f74:	00402821 	move	a1,v0
  404f78:	8f828024 	lw	v0,-32732(gp)
  404f7c:	8f848024 	lw	a0,-32732(gp)
  404f80:	8f868024 	lw	a2,-32732(gp)
  404f84:	2442c718 	addiu	v0,v0,-14568
[31m  404f88:	8f9980b4 	lw	t9,printf[0m
  404f8c:	2484b4d0 	addiu	a0,a0,-19248
  404f90:	24c6d5f8 	addiu	a2,a2,-10760
--
  4050b4:	8f998348 	lw	t9,-31928(gp)
  4050b8:	00002821 	move	a1,zero
  4050bc:	8fa40068 	lw	a0,104(sp)
  4050c0:	0320f809 	jalr	t9
  4050c4:	00003021 	move	a2,zero
  4050c8:	8fbc0018 	lw	gp,24(sp)
  4050cc:	104000de 	beqz	v0,405448 <discover_IGD@@Base+0x41c>
  4050d0:	afa20034 	sw	v0,52(sp)
  4050d4:	8f948238 	lw	s4,-32200(gp)
  4050d8:	00408021 	move	s0,v0
  4050dc:	10000030 	b	4051a0 <discover_IGD@@Base+0x174>
  4050e0:	27b10020 	addiu	s1,sp,32
  4050e4:	8fc20000 	lw	v0,0(s8)
  4050e8:	8f998248 	lw	t9,-32184(gp)
  4050ec:	2c420002 	sltiu	v0,v0,2
  4050f0:	14400011 	bnez	v0,405138 <discover_IGD@@Base+0x10c>
  4050f4:	00000000 	nop
  4050f8:	0320f809 	jalr	t9
  4050fc:	00000000 	nop
  405100:	02a03021 	move	a2,s5
  405104:	240704d4 	li	a3,1236
  405108:	8fbc0018 	lw	gp,24(sp)
  40510c:	00402821 	move	a1,v0
  405110:	afb60010 	sw	s6,16(sp)
  405114:	8f848024 	lw	a0,-32732(gp)
[31m  405118:	8f9980b4 	lw	t9,printf[0m
  40511c:	0320f809 	jalr	t9
  405120:	2484b4d0 	addiu	a0,a0,-19248
  405124:	8fbc0018 	lw	gp,24(sp)
[31m  405128:	8f9980b4 	lw	t9,printf[0m
  40512c:	0320f809 	jalr	t9
  405130:	02e02021 	move	a0,s7
--
  405218:	0320f809 	jalr	t9
  40521c:	00000000 	nop
  405220:	8fbc0018 	lw	gp,24(sp)
  405224:	1440ffdb 	bnez	v0,405194 <discover_IGD@@Base+0x168>
  405228:	00000000 	nop
  40522c:	8f9980a8 	lw	t9,-32600(gp)
  405230:	8e040004 	lw	a0,4(s0)
  405234:	0320f809 	jalr	t9
  405238:	00000000 	nop
  40523c:	8fbc0018 	lw	gp,24(sp)
  405240:	1440ffd4 	bnez	v0,405194 <discover_IGD@@Base+0x168>
  405244:	afa20030 	sw	v0,48(sp)
  405248:	8fc20000 	lw	v0,0(s8)
  40524c:	2c420002 	sltiu	v0,v0,2
  405250:	14400015 	bnez	v0,4052a8 <discover_IGD@@Base+0x27c>
  405254:	00000000 	nop
  405258:	8f998248 	lw	t9,-32184(gp)
  40525c:	0320f809 	jalr	t9
  405260:	00000000 	nop
  405264:	240704d0 	li	a3,1232
  405268:	02a03021 	move	a2,s5
  40526c:	8fbc0018 	lw	gp,24(sp)
  405270:	00402821 	move	a1,v0
  405274:	afb60010 	sw	s6,16(sp)
  405278:	8f848024 	lw	a0,-32732(gp)
[31m  40527c:	8f9980b4 	lw	t9,printf[0m
  405280:	0320f809 	jalr	t9
  405284:	2484b4d0 	addiu	a0,a0,-19248
  405288:	00003021 	move	a2,zero
  40528c:	8fbc0018 	lw	gp,24(sp)
  405290:	8e050004 	lw	a1,4(s0)
  405294:	8f848024 	lw	a0,-32732(gp)
[31m  405298:	8f9980b4 	lw	t9,printf[0m
  40529c:	0320f809 	jalr	t9
  4052a0:	2484bb3c 	addiu	a0,a0,-17604
--
  40531c:	8fbc0018 	lw	gp,24(sp)
  405320:	1060003c 	beqz	v1,405414 <discover_IGD@@Base+0x3e8>
  405324:	00000000 	nop
  405328:	8fa20038 	lw	v0,56(sp)
  40532c:	24420001 	addiu	v0,v0,1
  405330:	afa20038 	sw	v0,56(sp)
  405334:	24020002 	li	v0,2
  405338:	8fa30038 	lw	v1,56(sp)
  40533c:	1462ff5d 	bne	v1,v0,4050b4 <discover_IGD@@Base+0x88>
  405340:	00000000 	nop
  405344:	8f82812c 	lw	v0,-32468(gp)
  405348:	8c420000 	lw	v0,0(v0)
  40534c:	2c420002 	sltiu	v0,v0,2
  405350:	14400017 	bnez	v0,4053b0 <discover_IGD@@Base+0x384>
  405354:	00000000 	nop
  405358:	8f998248 	lw	t9,-32184(gp)
  40535c:	0320f809 	jalr	t9
  405360:	00000000 	nop
  405364:	240704e5 	li	a3,1253
  405368:	8fbc0018 	lw	gp,24(sp)
  40536c:	00402821 	move	a1,v0
  405370:	8f828024 	lw	v0,-32732(gp)
  405374:	8f848024 	lw	a0,-32732(gp)
  405378:	8f868024 	lw	a2,-32732(gp)
  40537c:	2442c708 	addiu	v0,v0,-14584
[31m  405380:	8f9980b4 	lw	t9,printf[0m
  405384:	2484b4d0 	addiu	a0,a0,-19248
  405388:	24c6d5f8 	addiu	a2,a2,-10760
  40538c:	0320f809 	jalr	t9
  405390:	afa20010 	sw	v0,16(sp)
  405394:	8fbc0018 	lw	gp,24(sp)
  405398:	8fa50030 	lw	a1,48(sp)
  40539c:	8f848024 	lw	a0,-32732(gp)
[31m  4053a0:	8f9980b4 	lw	t9,printf[0m
  4053a4:	0320f809 	jalr	t9
  4053a8:	2484bbe4 	addiu	a0,a0,-17436
--
  405418:	8fbf0064 	lw	ra,100(sp)
  40541c:	8fbe0060 	lw	s8,96(sp)
  405420:	8fb7005c 	lw	s7,92(sp)
  405424:	8fb60058 	lw	s6,88(sp)
  405428:	8fb50054 	lw	s5,84(sp)
  40542c:	8fb40050 	lw	s4,80(sp)
  405430:	8fb3004c 	lw	s3,76(sp)
  405434:	8fb20048 	lw	s2,72(sp)
  405438:	8fb10044 	lw	s1,68(sp)
  40543c:	8fb00040 	lw	s0,64(sp)
  405440:	03e00008 	jr	ra
  405444:	27bd0068 	addiu	sp,sp,104
  405448:	8fc20000 	lw	v0,0(s8)
  40544c:	2c420002 	sltiu	v0,v0,2
  405450:	14400013 	bnez	v0,4054a0 <discover_IGD@@Base+0x474>
  405454:	00000000 	nop
  405458:	8f998248 	lw	t9,-32184(gp)
  40545c:	0320f809 	jalr	t9
  405460:	00000000 	nop
  405464:	240704df 	li	a3,1247
  405468:	02a03021 	move	a2,s5
  40546c:	8fbc0018 	lw	gp,24(sp)
  405470:	00402821 	move	a1,v0
  405474:	afb60010 	sw	s6,16(sp)
  405478:	8f848024 	lw	a0,-32732(gp)
[31m  40547c:	8f9980b4 	lw	t9,printf[0m
  405480:	0320f809 	jalr	t9
  405484:	2484b4d0 	addiu	a0,a0,-19248
--
  4055fc:	83a20020 	lb	v0,32(sp)
  405600:	10400033 	beqz	v0,4056d0 <get_previous_upnp_setting@@Base+0x170>
  405604:	00000000 	nop
  405608:	8f9980fc 	lw	t9,-32516(gp)
  40560c:	8f8580d8 	lw	a1,-32552(gp)
  405610:	0320f809 	jalr	t9
  405614:	02002021 	move	a0,s0
  405618:	8fbc0018 	lw	gp,24(sp)
  40561c:	10400028 	beqz	v0,4056c0 <get_previous_upnp_setting@@Base+0x160>
  405620:	00000000 	nop
  405624:	8f82812c 	lw	v0,-32468(gp)
  405628:	8c420000 	lw	v0,0(v0)
  40562c:	2c420002 	sltiu	v0,v0,2
  405630:	14400018 	bnez	v0,405694 <get_previous_upnp_setting@@Base+0x134>
  405634:	00000000 	nop
  405638:	8f998248 	lw	t9,-32184(gp)
  40563c:	0320f809 	jalr	t9
  405640:	00000000 	nop
  405644:	24070429 	li	a3,1065
  405648:	8fbc0018 	lw	gp,24(sp)
  40564c:	00402821 	move	a1,v0
  405650:	8f828024 	lw	v0,-32732(gp)
  405654:	8f848024 	lw	a0,-32732(gp)
  405658:	8f868024 	lw	a2,-32732(gp)
  40565c:	2442c72c 	addiu	v0,v0,-14548
[31m  405660:	8f9980b4 	lw	t9,printf[0m
  405664:	2484b4d0 	addiu	a0,a0,-19248
  405668:	24c6d5f8 	addiu	a2,a2,-10760
  40566c:	0320f809 	jalr	t9
  405670:	afa20010 	sw	v0,16(sp)
  405674:	02002821 	move	a1,s0
  405678:	8fbc0018 	lw	gp,24(sp)
  40567c:	8f848024 	lw	a0,-32732(gp)
[31m  405680:	8f9980b4 	lw	t9,printf[0m
  405684:	8f8680d8 	lw	a2,-32552(gp)
  405688:	0320f809 	jalr	t9
--
  4057b0:	2406000f 	li	a2,15
  4057b4:	8fbc0018 	lw	gp,24(sp)
  4057b8:	02002021 	move	a0,s0
  4057bc:	ae000000 	sw	zero,0(s0)
  4057c0:	8f9981ec 	lw	t9,-32276(gp)
  4057c4:	ae000004 	sw	zero,4(s0)
  4057c8:	ae000008 	sw	zero,8(s0)
  4057cc:	0320f809 	jalr	t9
  4057d0:	ae00000c 	sw	zero,12(s0)
  4057d4:	8fbc0018 	lw	gp,24(sp)
  4057d8:	8f82812c 	lw	v0,-32468(gp)
  4057dc:	8c420000 	lw	v0,0(v0)
  4057e0:	2c420002 	sltiu	v0,v0,2
  4057e4:	14400018 	bnez	v0,405848 <get_previous_upnp_setting@@Base+0x2e8>
  4057e8:	00000000 	nop
  4057ec:	8f998248 	lw	t9,-32184(gp)
  4057f0:	0320f809 	jalr	t9
  4057f4:	00000000 	nop
  4057f8:	24070459 	li	a3,1113
  4057fc:	8fbc0018 	lw	gp,24(sp)
  405800:	00402821 	move	a1,v0
  405804:	8f828024 	lw	v0,-32732(gp)
  405808:	8f848024 	lw	a0,-32732(gp)
  40580c:	8f868024 	lw	a2,-32732(gp)
  405810:	2442c72c 	addiu	v0,v0,-14548
[31m  405814:	8f9980b4 	lw	t9,printf[0m
  405818:	2484b4d0 	addiu	a0,a0,-19248
  40581c:	24c6d5f8 	addiu	a2,a2,-10760
  405820:	0320f809 	jalr	t9
  405824:	afa20010 	sw	v0,16(sp)
  405828:	02002821 	move	a1,s0
  40582c:	8fbc0018 	lw	gp,24(sp)
  405830:	02203021 	move	a2,s1
  405834:	8f848024 	lw	a0,-32732(gp)
[31m  405838:	8f9980b4 	lw	t9,printf[0m
  40583c:	0320f809 	jalr	t9
  405840:	2484bc7c 	addiu	a0,a0,-17284
--
  40592c:	8f8780d8 	lw	a3,-32552(gp)
  405930:	0320f809 	jalr	t9
  405934:	24a5bc1c 	addiu	a1,a1,-17380
  405938:	8fbc0018 	lw	gp,24(sp)
  40593c:	8e240000 	lw	a0,0(s1)
  405940:	8f9981a4 	lw	t9,-32348(gp)
  405944:	0320f809 	jalr	t9
  405948:	00000000 	nop
  40594c:	1000ff56 	b	4056a8 <get_previous_upnp_setting@@Base+0x148>
  405950:	2402fec9 	li	v0,-311
  405954:	8f82812c 	lw	v0,-32468(gp)
  405958:	8c420000 	lw	v0,0(v0)
  40595c:	2c420002 	sltiu	v0,v0,2
  405960:	14400017 	bnez	v0,4059c0 <get_previous_upnp_setting@@Base+0x460>
  405964:	00000000 	nop
  405968:	8f998248 	lw	t9,-32184(gp)
  40596c:	0320f809 	jalr	t9
  405970:	00000000 	nop
  405974:	2407041b 	li	a3,1051
  405978:	8fbc0018 	lw	gp,24(sp)
  40597c:	00402821 	move	a1,v0
  405980:	8f828024 	lw	v0,-32732(gp)
  405984:	8f848024 	lw	a0,-32732(gp)
  405988:	8f868024 	lw	a2,-32732(gp)
  40598c:	2442c72c 	addiu	v0,v0,-14548
[31m  405990:	8f9980b4 	lw	t9,printf[0m
  405994:	2484b4d0 	addiu	a0,a0,-19248
  405998:	24c6d5f8 	addiu	a2,a2,-10760
  40599c:	0320f809 	jalr	t9
  4059a0:	afa20010 	sw	v0,16(sp)
  4059a4:	02002821 	move	a1,s0
  4059a8:	8fbc0018 	lw	gp,24(sp)
  4059ac:	8f848024 	lw	a0,-32732(gp)
[31m  4059b0:	8f9980b4 	lw	t9,printf[0m
  4059b4:	0320f809 	jalr	t9
  4059b8:	2484bbfc 	addiu	a0,a0,-17412
--
  405a0c:	8f998168 	lw	t9,-32408(gp)
  405a10:	0320f809 	jalr	t9
  405a14:	24a5bbfc 	addiu	a1,a1,-17412
  405a18:	8fbc0018 	lw	gp,24(sp)
  405a1c:	8e240000 	lw	a0,0(s1)
  405a20:	8f9981a4 	lw	t9,-32348(gp)
  405a24:	0320f809 	jalr	t9
  405a28:	00000000 	nop
  405a2c:	1000ff1e 	b	4056a8 <get_previous_upnp_setting@@Base+0x148>
  405a30:	2402fec6 	li	v0,-314
  405a34:	8f82812c 	lw	v0,-32468(gp)
  405a38:	8c420000 	lw	v0,0(v0)
  405a3c:	2c420002 	sltiu	v0,v0,2
  405a40:	14400016 	bnez	v0,405a9c <get_previous_upnp_setting@@Base+0x53c>
  405a44:	00000000 	nop
  405a48:	8f998248 	lw	t9,-32184(gp)
  405a4c:	0320f809 	jalr	t9
  405a50:	00000000 	nop
  405a54:	2407044e 	li	a3,1102
  405a58:	8fbc0018 	lw	gp,24(sp)
  405a5c:	00402821 	move	a1,v0
  405a60:	8f828024 	lw	v0,-32732(gp)
  405a64:	8f848024 	lw	a0,-32732(gp)
  405a68:	8f868024 	lw	a2,-32732(gp)
  405a6c:	2442c72c 	addiu	v0,v0,-14548
[31m  405a70:	8f9980b4 	lw	t9,printf[0m
  405a74:	2484b4d0 	addiu	a0,a0,-19248
  405a78:	24c6d5f8 	addiu	a2,a2,-10760
  405a7c:	0320f809 	jalr	t9
  405a80:	afa20010 	sw	v0,16(sp)
  405a84:	8fbc0018 	lw	gp,24(sp)
  405a88:	8f848024 	lw	a0,-32732(gp)
[31m  405a8c:	8f9980b4 	lw	t9,printf[0m
  405a90:	0320f809 	jalr	t9
  405a94:	2484bc68 	addiu	a0,a0,-17304
--
  405b6c:	afbc0018 	sw	gp,24(sp)
  405b70:	8f998334 	lw	t9,strlen
  405b74:	0320f809 	jalr	t9
  405b78:	00808021 	move	s0,a0
  405b7c:	24030011 	li	v1,17
  405b80:	8fbc0018 	lw	gp,24(sp)
  405b84:	1043003e 	beq	v0,v1,405c80 <Get_MAC_6bytes@@Base+0x134>
  405b88:	26050009 	addiu	a1,s0,9
  405b8c:	8f918018 	lw	s1,-32744(gp)
  405b90:	2632ecf0 	addiu	s2,s1,-4880
  405b94:	8f82812c 	lw	v0,-32468(gp)
  405b98:	8c420000 	lw	v0,0(v0)
  405b9c:	2c420002 	sltiu	v0,v0,2
  405ba0:	14400017 	bnez	v0,405c00 <Get_MAC_6bytes@@Base+0xb4>
  405ba4:	00000000 	nop
  405ba8:	8f998248 	lw	t9,-32184(gp)
  405bac:	0320f809 	jalr	t9
  405bb0:	00000000 	nop
  405bb4:	24070248 	li	a3,584
  405bb8:	8fbc0018 	lw	gp,24(sp)
  405bbc:	00402821 	move	a1,v0
  405bc0:	8f828024 	lw	v0,-32732(gp)
  405bc4:	8f848024 	lw	a0,-32732(gp)
  405bc8:	8f868024 	lw	a2,-32732(gp)
  405bcc:	2442c798 	addiu	v0,v0,-14440
[31m  405bd0:	8f9980b4 	lw	t9,printf[0m
  405bd4:	2484b4d0 	addiu	a0,a0,-19248
  405bd8:	24c6d5f8 	addiu	a2,a2,-10760
  405bdc:	0320f809 	jalr	t9
  405be0:	afa20010 	sw	v0,16(sp)
  405be4:	2625ecf0 	addiu	a1,s1,-4880
  405be8:	8fbc0018 	lw	gp,24(sp)
  405bec:	8f848024 	lw	a0,-32732(gp)
[31m  405bf0:	8f9980b4 	lw	t9,printf[0m
  405bf4:	0320f809 	jalr	t9
  405bf8:	2484bc90 	addiu	a0,a0,-17264
--
  405f88:	8f858024 	lw	a1,-32732(gp)
  405f8c:	8f9980e4 	lw	t9,-32540(gp)
  405f90:	0320f809 	jalr	t9
  405f94:	24a5bcb8 	addiu	a1,a1,-17224
  405f98:	8fbc0030 	lw	gp,48(sp)
  405f9c:	8f9980f0 	lw	t9,-32528(gp)
  405fa0:	8f848378 	lw	a0,-31880(gp)
  405fa4:	0320f809 	jalr	t9
  405fa8:	00402821 	move	a1,v0
  405fac:	8fbc0030 	lw	gp,48(sp)
  405fb0:	8f83812c 	lw	v1,-32468(gp)
  405fb4:	8c620000 	lw	v0,0(v1)
  405fb8:	2c420002 	sltiu	v0,v0,2
  405fbc:	14400019 	bnez	v0,406024 <recycle_unused_port_rule@@Base+0x340>
  405fc0:	00000000 	nop
  405fc4:	8f998248 	lw	t9,-32184(gp)
  405fc8:	0320f809 	jalr	t9
  405fcc:	00000000 	nop
  405fd0:	240706e4 	li	a3,1764
  405fd4:	8fbc0030 	lw	gp,48(sp)
  405fd8:	00402821 	move	a1,v0
  405fdc:	8f828024 	lw	v0,-32732(gp)
  405fe0:	8f848024 	lw	a0,-32732(gp)
  405fe4:	8f868024 	lw	a2,-32732(gp)
  405fe8:	2442c6c0 	addiu	v0,v0,-14656
[31m  405fec:	8f9980b4 	lw	t9,printf[0m
  405ff0:	2484b4d0 	addiu	a0,a0,-19248
  405ff4:	24c6d5f8 	addiu	a2,a2,-10760
  405ff8:	0320f809 	jalr	t9
  405ffc:	afa20010 	sw	v0,16(sp)
  406000:	02402821 	move	a1,s2
  406004:	8fbc0030 	lw	gp,48(sp)
  406008:	8f848024 	lw	a0,-32732(gp)
  40600c:	8f868024 	lw	a2,-32732(gp)
[31m  406010:	8f9980b4 	lw	t9,printf[0m
  406014:	2484bcec 	addiu	a0,a0,-17172
  406018:	0320f809 	jalr	t9
--
  40613c:	8f858024 	lw	a1,-32732(gp)
  406140:	8f9980e4 	lw	t9,-32540(gp)
  406144:	0320f809 	jalr	t9
  406148:	24a5bcb8 	addiu	a1,a1,-17224
  40614c:	8fbc0030 	lw	gp,48(sp)
  406150:	8f9980f0 	lw	t9,-32528(gp)
  406154:	8f848378 	lw	a0,-31880(gp)
  406158:	0320f809 	jalr	t9
  40615c:	00402821 	move	a1,v0
  406160:	8fbc0030 	lw	gp,48(sp)
  406164:	8f83812c 	lw	v1,-32468(gp)
  406168:	8c620000 	lw	v0,0(v1)
  40616c:	2c420002 	sltiu	v0,v0,2
  406170:	14400019 	bnez	v0,4061d8 <recycle_unused_port_rule@@Base+0x4f4>
  406174:	00000000 	nop
  406178:	8f998248 	lw	t9,-32184(gp)
  40617c:	0320f809 	jalr	t9
  406180:	00000000 	nop
  406184:	240706d3 	li	a3,1747
  406188:	8fbc0030 	lw	gp,48(sp)
  40618c:	00402821 	move	a1,v0
  406190:	8f828024 	lw	v0,-32732(gp)
  406194:	8f848024 	lw	a0,-32732(gp)
  406198:	8f868024 	lw	a2,-32732(gp)
  40619c:	2442c6c0 	addiu	v0,v0,-14656
[31m  4061a0:	8f9980b4 	lw	t9,printf[0m
  4061a4:	2484b4d0 	addiu	a0,a0,-19248
  4061a8:	24c6d5f8 	addiu	a2,a2,-10760
  4061ac:	0320f809 	jalr	t9
  4061b0:	afa20010 	sw	v0,16(sp)
  4061b4:	02402821 	move	a1,s2
  4061b8:	8fbc0030 	lw	gp,48(sp)
  4061bc:	8f848024 	lw	a0,-32732(gp)
  4061c0:	8f868024 	lw	a2,-32732(gp)
[31m  4061c4:	8f9980b4 	lw	t9,printf[0m
  4061c8:	2484bcbc 	addiu	a0,a0,-17220
  4061cc:	0320f809 	jalr	t9
--
  406280:	8f858024 	lw	a1,-32732(gp)
  406284:	8f9980e4 	lw	t9,-32540(gp)
  406288:	0320f809 	jalr	t9
  40628c:	24a5bcb8 	addiu	a1,a1,-17224
  406290:	8fbc0030 	lw	gp,48(sp)
  406294:	8f9980f0 	lw	t9,-32528(gp)
  406298:	8f848378 	lw	a0,-31880(gp)
  40629c:	0320f809 	jalr	t9
  4062a0:	00402821 	move	a1,v0
  4062a4:	8fbc0030 	lw	gp,48(sp)
  4062a8:	8f83812c 	lw	v1,-32468(gp)
  4062ac:	8c620000 	lw	v0,0(v1)
  4062b0:	2c420002 	sltiu	v0,v0,2
  4062b4:	14400019 	bnez	v0,40631c <recycle_unused_port_rule@@Base+0x638>
  4062b8:	00000000 	nop
  4062bc:	8f998248 	lw	t9,-32184(gp)
  4062c0:	0320f809 	jalr	t9
  4062c4:	00000000 	nop
  4062c8:	240706cc 	li	a3,1740
  4062cc:	8fbc0030 	lw	gp,48(sp)
  4062d0:	00402821 	move	a1,v0
  4062d4:	8f828024 	lw	v0,-32732(gp)
  4062d8:	8f848024 	lw	a0,-32732(gp)
  4062dc:	8f868024 	lw	a2,-32732(gp)
  4062e0:	2442c6c0 	addiu	v0,v0,-14656
[31m  4062e4:	8f9980b4 	lw	t9,printf[0m
  4062e8:	2484b4d0 	addiu	a0,a0,-19248
  4062ec:	24c6d5f8 	addiu	a2,a2,-10760
  4062f0:	0320f809 	jalr	t9
  4062f4:	afa20010 	sw	v0,16(sp)
  4062f8:	02402821 	move	a1,s2
  4062fc:	8fbc0030 	lw	gp,48(sp)
  406300:	8f848024 	lw	a0,-32732(gp)
  406304:	8f868024 	lw	a2,-32732(gp)
[31m  406308:	8f9980b4 	lw	t9,printf[0m
  40630c:	2484bcbc 	addiu	a0,a0,-17220
  406310:	0320f809 	jalr	t9
--
  406528:	02202021 	move	a0,s1
  40652c:	24050050 	li	a1,80
  406530:	8fbc0018 	lw	gp,24(sp)
  406534:	00403821 	move	a3,v0
  406538:	afb20010 	sw	s2,16(sp)
  40653c:	8f868024 	lw	a2,-32732(gp)
  406540:	8f998310 	lw	t9,-31984(gp)
  406544:	0320f809 	jalr	t9
  406548:	24c6bc9c 	addiu	a2,a2,-17252
  40654c:	8fbc0018 	lw	gp,24(sp)
  406550:	8f82812c 	lw	v0,-32468(gp)
  406554:	8c420000 	lw	v0,0(v0)
  406558:	2c420002 	sltiu	v0,v0,2
  40655c:	14400018 	bnez	v0,4065c0 <init_mapping_rule@@Base+0x21c>
  406560:	00000000 	nop
  406564:	8f998248 	lw	t9,-32184(gp)
  406568:	0320f809 	jalr	t9
  40656c:	00000000 	nop
  406570:	24070257 	li	a3,599
  406574:	8fbc0018 	lw	gp,24(sp)
  406578:	00402821 	move	a1,v0
  40657c:	8f828024 	lw	v0,-32732(gp)
  406580:	8f848024 	lw	a0,-32732(gp)
  406584:	8f868024 	lw	a2,-32732(gp)
  406588:	2442c784 	addiu	v0,v0,-14460
[31m  40658c:	8f9980b4 	lw	t9,printf[0m
  406590:	2484b4d0 	addiu	a0,a0,-19248
  406594:	24c6d5f8 	addiu	a2,a2,-10760
  406598:	0320f809 	jalr	t9
  40659c:	afa20010 	sw	v0,16(sp)
  4065a0:	02202821 	move	a1,s1
  4065a4:	8fbc0018 	lw	gp,24(sp)
  4065a8:	8f848024 	lw	a0,-32732(gp)
[31m  4065ac:	8f9980b4 	lw	t9,printf[0m
  4065b0:	8f868434 	lw	a2,-31692(gp)
  4065b4:	0320f809 	jalr	t9
--
  4066ec:	a240ffff 	sb	zero,-1(s2)
  4066f0:	8fbf0034 	lw	ra,52(sp)
  4066f4:	8fb30030 	lw	s3,48(sp)
  4066f8:	8fb2002c 	lw	s2,44(sp)
  4066fc:	8fb10028 	lw	s1,40(sp)
  406700:	8fb00024 	lw	s0,36(sp)
  406704:	03e00008 	jr	ra
  406708:	27bd0038 	addiu	sp,sp,56
  40670c:	14a0ffe3 	bnez	a1,40669c <GetRunConf@@Base+0x38>
  406710:	00000000 	nop
  406714:	8f82812c 	lw	v0,-32468(gp)
  406718:	8c420000 	lw	v0,0(v0)
  40671c:	2c420002 	sltiu	v0,v0,2
  406720:	14400016 	bnez	v0,40677c <GetRunConf@@Base+0x118>
  406724:	00000000 	nop
  406728:	8f998248 	lw	t9,-32184(gp)
  40672c:	0320f809 	jalr	t9
  406730:	00000000 	nop
  406734:	24070224 	li	a3,548
  406738:	8fbc0018 	lw	gp,24(sp)
  40673c:	00402821 	move	a1,v0
  406740:	8f828024 	lw	v0,-32732(gp)
  406744:	8f848024 	lw	a0,-32732(gp)
  406748:	8f868024 	lw	a2,-32732(gp)
  40674c:	2442c7a8 	addiu	v0,v0,-14424
[31m  406750:	8f9980b4 	lw	t9,printf[0m
  406754:	2484b4d0 	addiu	a0,a0,-19248
  406758:	24c6d5f8 	addiu	a2,a2,-10760
--
  40676c:	8f9980a4 	lw	t9,-32604(gp)
  406770:	0320f809 	jalr	t9
  406774:	2484bd24 	addiu	a0,a0,-17116
  406778:	8fbc0018 	lw	gp,24(sp)
  40677c:	8f908238 	lw	s0,-32200(gp)
  406780:	8e040000 	lw	a0,0(s0)
  406784:	14800049 	bnez	a0,4068ac <GetRunConf@@Base+0x248>
  406788:	24070224 	li	a3,548
  40678c:	1000ffd8 	b	4066f0 <GetRunConf@@Base+0x8c>
  406790:	2402fed3 	li	v0,-301
  406794:	8f82812c 	lw	v0,-32468(gp)
  406798:	8c420000 	lw	v0,0(v0)
  40679c:	2c420002 	sltiu	v0,v0,2
  4067a0:	14400017 	bnez	v0,406800 <GetRunConf@@Base+0x19c>
  4067a4:	00000000 	nop
  4067a8:	8f998248 	lw	t9,-32184(gp)
  4067ac:	0320f809 	jalr	t9
  4067b0:	00000000 	nop
  4067b4:	2407022c 	li	a3,556
  4067b8:	8fbc0018 	lw	gp,24(sp)
  4067bc:	00402821 	move	a1,v0
  4067c0:	8f828024 	lw	v0,-32732(gp)
  4067c4:	8f848024 	lw	a0,-32732(gp)
  4067c8:	8f868024 	lw	a2,-32732(gp)
  4067cc:	2442c7a8 	addiu	v0,v0,-14424
[31m  4067d0:	8f9980b4 	lw	t9,printf[0m
  4067d4:	2484b4d0 	addiu	a0,a0,-19248
  4067d8:	24c6d5f8 	addiu	a2,a2,-10760
  4067dc:	0320f809 	jalr	t9
  4067e0:	afa20010 	sw	v0,16(sp)
  4067e4:	02002821 	move	a1,s0
  4067e8:	8fbc0018 	lw	gp,24(sp)
  4067ec:	8f848024 	lw	a0,-32732(gp)
[31m  4067f0:	8f9980b4 	lw	t9,printf[0m
  4067f4:	0320f809 	jalr	t9
  4067f8:	2484bd50 	addiu	a0,a0,-17072
--
  406a00:	2402fec9 	li	v0,-311
  406a04:	8fb20428 	lw	s2,1064(sp)
  406a08:	8fb10424 	lw	s1,1060(sp)
  406a0c:	8fb00420 	lw	s0,1056(sp)
  406a10:	03e00008 	jr	ra
  406a14:	27bd0430 	addiu	sp,sp,1072
  406a18:	00001021 	move	v0,zero
  406a1c:	02021021 	addu	v0,s0,v0
  406a20:	1000ffea 	b	4069cc <get_gateway_address@@Base+0xc0>
  406a24:	a0400000 	sb	zero,0(v0)
  406a28:	8f82812c 	lw	v0,-32468(gp)
  406a2c:	8c420000 	lw	v0,0(v0)
  406a30:	2c420002 	sltiu	v0,v0,2
  406a34:	14400016 	bnez	v0,406a90 <get_gateway_address@@Base+0x184>
  406a38:	00000000 	nop
  406a3c:	8f998248 	lw	t9,-32184(gp)
  406a40:	0320f809 	jalr	t9
  406a44:	00000000 	nop
  406a48:	24070282 	li	a3,642
  406a4c:	8fbc0018 	lw	gp,24(sp)
  406a50:	00402821 	move	a1,v0
  406a54:	8f828024 	lw	v0,-32732(gp)
  406a58:	8f848024 	lw	a0,-32732(gp)
  406a5c:	8f868024 	lw	a2,-32732(gp)
  406a60:	2442c770 	addiu	v0,v0,-14480
[31m  406a64:	8f9980b4 	lw	t9,printf[0m
  406a68:	2484b4d0 	addiu	a0,a0,-19248
  406a6c:	24c6d5f8 	addiu	a2,a2,-10760
--
  406b7c:	24040050 	li	a0,80
  406b80:	8f99813c 	lw	t9,-32452(gp)
  406b84:	0320f809 	jalr	t9
  406b88:	00002821 	move	a1,zero
  406b8c:	02001021 	move	v0,s0
  406b90:	8fbf002c 	lw	ra,44(sp)
  406b94:	8fb10028 	lw	s1,40(sp)
  406b98:	8fb00024 	lw	s0,36(sp)
  406b9c:	03e00008 	jr	ra
  406ba0:	27bd0030 	addiu	sp,sp,48
  406ba4:	8f82812c 	lw	v0,-32468(gp)
  406ba8:	8c420000 	lw	v0,0(v0)
  406bac:	2c420002 	sltiu	v0,v0,2
  406bb0:	14400016 	bnez	v0,406c0c <Init@@Base+0xf0>
  406bb4:	00000000 	nop
  406bb8:	8f998248 	lw	t9,-32184(gp)
  406bbc:	0320f809 	jalr	t9
  406bc0:	00000000 	nop
  406bc4:	240702a9 	li	a3,681
  406bc8:	8fbc0018 	lw	gp,24(sp)
  406bcc:	00402821 	move	a1,v0
  406bd0:	8f828024 	lw	v0,-32732(gp)
  406bd4:	8f848024 	lw	a0,-32732(gp)
  406bd8:	8f868024 	lw	a2,-32732(gp)
  406bdc:	2442c768 	addiu	v0,v0,-14488
[31m  406be0:	8f9980b4 	lw	t9,printf[0m
  406be4:	2484b4d0 	addiu	a0,a0,-19248
  406be8:	24c6d5f8 	addiu	a2,a2,-10760
--
  406c2c:	8f998168 	lw	t9,-32408(gp)
  406c30:	24a5b4f4 	addiu	a1,a1,-19212
  406c34:	24c6d5f8 	addiu	a2,a2,-10760
  406c38:	0320f809 	jalr	t9
  406c3c:	afa20010 	sw	v0,16(sp)
  406c40:	24050001 	li	a1,1
  406c44:	8fbc0018 	lw	gp,24(sp)
  406c48:	24060012 	li	a2,18
  406c4c:	8e270000 	lw	a3,0(s1)
  406c50:	8f848024 	lw	a0,-32732(gp)
  406c54:	8f9983e0 	lw	t9,-31776(gp)
  406c58:	0320f809 	jalr	t9
  406c5c:	2484be24 	addiu	a0,a0,-16860
  406c60:	8fbc0018 	lw	gp,24(sp)
  406c64:	8e240000 	lw	a0,0(s1)
  406c68:	8f9981a4 	lw	t9,-32348(gp)
  406c6c:	0320f809 	jalr	t9
  406c70:	00000000 	nop
  406c74:	8fbc0018 	lw	gp,24(sp)
  406c78:	8f828210 	lw	v0,-32240(gp)
  406c7c:	8c420000 	lw	v0,0(v0)
  406c80:	10400007 	beqz	v0,406ca0 <Init@@Base+0x184>
  406c84:	00000000 	nop
  406c88:	8f848024 	lw	a0,-32732(gp)
  406c8c:	02002821 	move	a1,s0
[31m  406c90:	8f9980b4 	lw	t9,printf[0m
  406c94:	0320f809 	jalr	t9
  406c98:	2484be38 	addiu	a0,a0,-16840
--
  406da4:	8f9981ec 	lw	t9,-32276(gp)
  406da8:	8f8480f8 	lw	a0,-32520(gp)
  406dac:	0320f809 	jalr	t9
  406db0:	24060012 	li	a2,18
  406db4:	00001021 	move	v0,zero
  406db8:	8fbf002c 	lw	ra,44(sp)
  406dbc:	8fb10028 	lw	s1,40(sp)
  406dc0:	8fb00024 	lw	s0,36(sp)
  406dc4:	03e00008 	jr	ra
  406dc8:	27bd0030 	addiu	sp,sp,48
  406dcc:	8f82812c 	lw	v0,-32468(gp)
  406dd0:	8c420000 	lw	v0,0(v0)
  406dd4:	2c420002 	sltiu	v0,v0,2
  406dd8:	14400016 	bnez	v0,406e34 <init_net_prefix@@Base+0xf8>
  406ddc:	00000000 	nop
  406de0:	8f998248 	lw	t9,-32184(gp)
  406de4:	0320f809 	jalr	t9
  406de8:	00000000 	nop
  406dec:	24070217 	li	a3,535
  406df0:	8fbc0018 	lw	gp,24(sp)
  406df4:	00402821 	move	a1,v0
  406df8:	8f828024 	lw	v0,-32732(gp)
  406dfc:	8f848024 	lw	a0,-32732(gp)
  406e00:	8f868024 	lw	a2,-32732(gp)
  406e04:	2442c7b4 	addiu	v0,v0,-14412
[31m  406e08:	8f9980b4 	lw	t9,printf[0m
  406e0c:	2484b4d0 	addiu	a0,a0,-19248
  406e10:	24c6d5f8 	addiu	a2,a2,-10760
--
  406e84:	8f9983e0 	lw	t9,-31776(gp)
  406e88:	0320f809 	jalr	t9
  406e8c:	2484be88 	addiu	a0,a0,-16760
  406e90:	8fbc0018 	lw	gp,24(sp)
  406e94:	8e040000 	lw	a0,0(s0)
  406e98:	8f9981a4 	lw	t9,-32348(gp)
  406e9c:	0320f809 	jalr	t9
  406ea0:	00000000 	nop
  406ea4:	1000ffc4 	b	406db8 <init_net_prefix@@Base+0x7c>
  406ea8:	2402fec4 	li	v0,-316
  406eac:	8f82812c 	lw	v0,-32468(gp)
  406eb0:	8c420000 	lw	v0,0(v0)
  406eb4:	2c420002 	sltiu	v0,v0,2
  406eb8:	14400017 	bnez	v0,406f18 <init_net_prefix@@Base+0x1dc>
  406ebc:	00000000 	nop
  406ec0:	8f998248 	lw	t9,-32184(gp)
  406ec4:	0320f809 	jalr	t9
  406ec8:	00000000 	nop
  406ecc:	24070211 	li	a3,529
  406ed0:	8fbc0018 	lw	gp,24(sp)
  406ed4:	00402821 	move	a1,v0
  406ed8:	8f828024 	lw	v0,-32732(gp)
  406edc:	8f848024 	lw	a0,-32732(gp)
  406ee0:	8f868024 	lw	a2,-32732(gp)
  406ee4:	2442c7b4 	addiu	v0,v0,-14412
[31m  406ee8:	8f9980b4 	lw	t9,printf[0m
  406eec:	2484b4d0 	addiu	a0,a0,-19248
  406ef0:	24c6d5f8 	addiu	a2,a2,-10760
  406ef4:	0320f809 	jalr	t9
  406ef8:	afa20010 	sw	v0,16(sp)
  406efc:	02002821 	move	a1,s0
  406f00:	8fbc0018 	lw	gp,24(sp)
  406f04:	8f848024 	lw	a0,-32732(gp)
[31m  406f08:	8f9980b4 	lw	t9,printf[0m
  406f0c:	0320f809 	jalr	t9
  406f10:	2484be50 	addiu	a0,a0,-16816
--
  407150:	afb40018 	sw	s4,24(sp)
  407154:	0320f809 	jalr	t9
  407158:	afa20024 	sw	v0,36(sp)
  40715c:	8fbc0028 	lw	gp,40(sp)
  407160:	00409021 	move	s2,v0
  407164:	82220000 	lb	v0,0(s1)
  407168:	1040006c 	beqz	v0,40731c <init_net_prefix@@Base+0x5e0>
  40716c:	00000000 	nop
  407170:	1a40006a 	blez	s2,40731c <init_net_prefix@@Base+0x5e0>
  407174:	00000000 	nop
  407178:	8f82812c 	lw	v0,-32468(gp)
  40717c:	8c420000 	lw	v0,0(v0)
  407180:	2c420002 	sltiu	v0,v0,2
  407184:	14400016 	bnez	v0,4071e0 <init_net_prefix@@Base+0x4a4>
  407188:	00000000 	nop
  40718c:	8f998248 	lw	t9,-32184(gp)
  407190:	0320f809 	jalr	t9
  407194:	00000000 	nop
  407198:	240701d2 	li	a3,466
  40719c:	8fbc0028 	lw	gp,40(sp)
  4071a0:	00402821 	move	a1,v0
  4071a4:	8f828024 	lw	v0,-32732(gp)
  4071a8:	8f848024 	lw	a0,-32732(gp)
  4071ac:	8f868024 	lw	a2,-32732(gp)
  4071b0:	2442c7c4 	addiu	v0,v0,-14396
[31m  4071b4:	8f9980b4 	lw	t9,printf[0m
  4071b8:	2484b4d0 	addiu	a0,a0,-19248
  4071bc:	24c6d5f8 	addiu	a2,a2,-10760
--
  407508:	10620009 	beq	v1,v0,407530 <add_port_mapping_rule@@Base+0x158>
  40750c:	00000000 	nop
  407510:	8f848024 	lw	a0,-32732(gp)
  407514:	8f9980fc 	lw	t9,-32516(gp)
  407518:	8fa50060 	lw	a1,96(sp)
  40751c:	0320f809 	jalr	t9
  407520:	2484bfec 	addiu	a0,a0,-16404
  407524:	8fbc0028 	lw	gp,40(sp)
  407528:	144001db 	bnez	v0,407c98 <add_port_mapping_rule@@Base+0x8c0>
  40752c:	00000000 	nop
  407530:	8f93812c 	lw	s3,-32468(gp)
  407534:	8e620000 	lw	v0,0(s3)
  407538:	2c420002 	sltiu	v0,v0,2
  40753c:	1440001c 	bnez	v0,4075b0 <add_port_mapping_rule@@Base+0x1d8>
  407540:	00000000 	nop
  407544:	8f998248 	lw	t9,-32184(gp)
  407548:	0320f809 	jalr	t9
  40754c:	00000000 	nop
  407550:	240705be 	li	a3,1470
  407554:	8fbc0028 	lw	gp,40(sp)
  407558:	00402821 	move	a1,v0
  40755c:	8f828024 	lw	v0,-32732(gp)
  407560:	8f868024 	lw	a2,-32732(gp)
  407564:	8f848024 	lw	a0,-32732(gp)
  407568:	2442c6dc 	addiu	v0,v0,-14628
[31m  40756c:	8f9980b4 	lw	t9,printf[0m
  407570:	24c6d5f8 	addiu	a2,a2,-10760
  407574:	2484b4d0 	addiu	a0,a0,-19248
  407578:	0320f809 	jalr	t9
  40757c:	afa20010 	sw	v0,16(sp)
  407580:	8fbc0028 	lw	gp,40(sp)
  407584:	8f9983d0 	lw	t9,-31792(gp)
  407588:	0320f809 	jalr	t9
  40758c:	02c02021 	move	a0,s6
  407590:	8fbc0028 	lw	gp,40(sp)
  407594:	00403021 	move	a2,v0
  407598:	8fa50060 	lw	a1,96(sp)
  40759c:	8f848024 	lw	a0,-32732(gp)
[31m  4075a0:	8f9980b4 	lw	t9,printf[0m
  4075a4:	0320f809 	jalr	t9
  4075a8:	2484bff4 	addiu	a0,a0,-16396
--
  40760c:	8f998168 	lw	t9,-32408(gp)
  407610:	0320f809 	jalr	t9
  407614:	24a5bff4 	addiu	a1,a1,-16396
  407618:	8fbc0028 	lw	gp,40(sp)
  40761c:	8fc40000 	lw	a0,0(s8)
  407620:	8f9981a4 	lw	t9,-32348(gp)
  407624:	0320f809 	jalr	t9
  407628:	00000000 	nop
  40762c:	8fbc0028 	lw	gp,40(sp)
  407630:	8e620000 	lw	v0,0(s3)
  407634:	2c420002 	sltiu	v0,v0,2
  407638:	14400017 	bnez	v0,407698 <add_port_mapping_rule@@Base+0x2c0>
  40763c:	00000000 	nop
  407640:	8f998248 	lw	t9,-32184(gp)
  407644:	0320f809 	jalr	t9
  407648:	00000000 	nop
  40764c:	240705bf 	li	a3,1471
  407650:	8fbc0028 	lw	gp,40(sp)
  407654:	00402821 	move	a1,v0
  407658:	8f868024 	lw	a2,-32732(gp)
  40765c:	8f848024 	lw	a0,-32732(gp)
  407660:	24c6c6dc 	addiu	a2,a2,-14628
  407664:	afa60010 	sw	a2,16(sp)
  407668:	2484b4d0 	addiu	a0,a0,-19248
  40766c:	8f868024 	lw	a2,-32732(gp)
[31m  407670:	8f9980b4 	lw	t9,printf[0m
  407674:	0320f809 	jalr	t9
  407678:	24c6d5f8 	addiu	a2,a2,-10760
  40767c:	8fbc0028 	lw	gp,40(sp)
  407680:	8f848024 	lw	a0,-32732(gp)
[31m  407684:	8f9980b4 	lw	t9,printf[0m
  407688:	8f858208 	lw	a1,-32248(gp)
  40768c:	0320f809 	jalr	t9
--
  407710:	00000000 	nop
  407714:	8fbc0028 	lw	gp,40(sp)
  407718:	8f998160 	lw	t9,-32416(gp)
  40771c:	8fa40060 	lw	a0,96(sp)
  407720:	0320f809 	jalr	t9
  407724:	00000000 	nop
  407728:	2403ffff 	li	v1,-1
  40772c:	8fbc0028 	lw	gp,40(sp)
  407730:	10430151 	beq	v0,v1,407c78 <add_port_mapping_rule@@Base+0x8a0>
  407734:	00000000 	nop
  407738:	8f93812c 	lw	s3,-32468(gp)
  40773c:	8e620000 	lw	v0,0(s3)
  407740:	2c420002 	sltiu	v0,v0,2
  407744:	14400017 	bnez	v0,4077a4 <add_port_mapping_rule@@Base+0x3cc>
  407748:	00000000 	nop
  40774c:	8f998248 	lw	t9,-32184(gp)
  407750:	0320f809 	jalr	t9
  407754:	00000000 	nop
  407758:	240705c7 	li	a3,1479
  40775c:	8fbc0028 	lw	gp,40(sp)
  407760:	00402821 	move	a1,v0
  407764:	8f838024 	lw	v1,-32732(gp)
  407768:	8f848024 	lw	a0,-32732(gp)
  40776c:	8f868024 	lw	a2,-32732(gp)
  407770:	2463c6dc 	addiu	v1,v1,-14628
[31m  407774:	8f9980b4 	lw	t9,printf[0m
  407778:	2484b4d0 	addiu	a0,a0,-19248
  40777c:	afa30010 	sw	v1,16(sp)
  407780:	0320f809 	jalr	t9
  407784:	24c6d5f8 	addiu	a2,a2,-10760
  407788:	8fbc0028 	lw	gp,40(sp)
  40778c:	8fa50060 	lw	a1,96(sp)
  407790:	8f848024 	lw	a0,-32732(gp)
[31m  407794:	8f9980b4 	lw	t9,printf[0m
  407798:	0320f809 	jalr	t9
  40779c:	2484c050 	addiu	a0,a0,-16304
--
  4078b8:	0320f809 	jalr	t9
  4078bc:	afbe0014 	sw	s8,20(sp)
  4078c0:	8fbc0028 	lw	gp,40(sp)
  4078c4:	14400067 	bnez	v0,407a64 <add_port_mapping_rule@@Base+0x68c>
  4078c8:	0040b021 	move	s6,v0
  4078cc:	26100001 	addiu	s0,s0,1
  4078d0:	24020006 	li	v0,6
  4078d4:	1202008c 	beq	s0,v0,407b08 <add_port_mapping_rule@@Base+0x730>
  4078d8:	2631000c 	addiu	s1,s1,12
  4078dc:	8ea20000 	lw	v0,0(s5)
  4078e0:	2c420002 	sltiu	v0,v0,2
  4078e4:	1440001c 	bnez	v0,407958 <add_port_mapping_rule@@Base+0x580>
  4078e8:	00000000 	nop
  4078ec:	8f998248 	lw	t9,-32184(gp)
  4078f0:	00109880 	sll	s3,s0,0x2
  4078f4:	0320f809 	jalr	t9
  4078f8:	0010a100 	sll	s4,s0,0x4
  4078fc:	240705d5 	li	a3,1493
  407900:	8fbc0028 	lw	gp,40(sp)
  407904:	00402821 	move	a1,v0
  407908:	02939823 	subu	s3,s4,s3
  40790c:	8f828024 	lw	v0,-32732(gp)
  407910:	8f848024 	lw	a0,-32732(gp)
  407914:	8f868024 	lw	a2,-32732(gp)
  407918:	2442c6dc 	addiu	v0,v0,-14628
[31m  40791c:	8f9980b4 	lw	t9,printf[0m
  407920:	2484b4d0 	addiu	a0,a0,-19248
  407924:	24c6d5f8 	addiu	a2,a2,-10760
  407928:	0320f809 	jalr	t9
  40792c:	afa20010 	sw	v0,16(sp)
  407930:	02002821 	move	a1,s0
  407934:	8fbc0028 	lw	gp,40(sp)
  407938:	8e270000 	lw	a3,0(s1)
  40793c:	8f848024 	lw	a0,-32732(gp)
  407940:	8f838240 	lw	v1,-32192(gp)
[31m  407944:	8f9980b4 	lw	t9,printf[0m
  407948:	2484c060 	addiu	a0,a0,-16288
  40794c:	0320f809 	jalr	t9
--
  407bd8:	8fb5009c 	lw	s5,156(sp)
  407bdc:	8fb40098 	lw	s4,152(sp)
  407be0:	8fb30094 	lw	s3,148(sp)
  407be4:	8fb20090 	lw	s2,144(sp)
  407be8:	8fb1008c 	lw	s1,140(sp)
  407bec:	8fb00088 	lw	s0,136(sp)
  407bf0:	03e00008 	jr	ra
  407bf4:	27bd00b0 	addiu	sp,sp,176
  407bf8:	8f82812c 	lw	v0,-32468(gp)
  407bfc:	8c420000 	lw	v0,0(v0)
  407c00:	2c420002 	sltiu	v0,v0,2
  407c04:	14400016 	bnez	v0,407c60 <add_port_mapping_rule@@Base+0x888>
  407c08:	00000000 	nop
  407c0c:	8f998248 	lw	t9,-32184(gp)
  407c10:	0320f809 	jalr	t9
  407c14:	00000000 	nop
  407c18:	240705b2 	li	a3,1458
  407c1c:	8fbc0028 	lw	gp,40(sp)
  407c20:	00402821 	move	a1,v0
  407c24:	8f868024 	lw	a2,-32732(gp)
  407c28:	8f848024 	lw	a0,-32732(gp)
  407c2c:	24c6c6dc 	addiu	a2,a2,-14628
  407c30:	afa60010 	sw	a2,16(sp)
  407c34:	2484b4d0 	addiu	a0,a0,-19248
  407c38:	8f868024 	lw	a2,-32732(gp)
[31m  407c3c:	8f9980b4 	lw	t9,printf[0m
  407c40:	0320f809 	jalr	t9
  407c44:	24c6d5f8 	addiu	a2,a2,-10760
--
  407d1c:	0320f809 	jalr	t9
  407d20:	26520001 	addiu	s2,s2,1
  407d24:	8fbc0028 	lw	gp,40(sp)
  407d28:	8e040000 	lw	a0,0(s0)
  407d2c:	8f9981a4 	lw	t9,-32348(gp)
  407d30:	0320f809 	jalr	t9
  407d34:	00000000 	nop
  407d38:	8fbc0028 	lw	gp,40(sp)
  407d3c:	1000fdc4 	b	407450 <add_port_mapping_rule@@Base+0x78>
  407d40:	24020008 	li	v0,8
  407d44:	8f82812c 	lw	v0,-32468(gp)
  407d48:	8c420000 	lw	v0,0(v0)
  407d4c:	2c420002 	sltiu	v0,v0,2
  407d50:	14400016 	bnez	v0,407dac <add_port_mapping_rule@@Base+0x9d4>
  407d54:	00000000 	nop
  407d58:	8f998248 	lw	t9,-32184(gp)
  407d5c:	0320f809 	jalr	t9
  407d60:	00000000 	nop
  407d64:	240705ab 	li	a3,1451
  407d68:	8fbc0028 	lw	gp,40(sp)
  407d6c:	00402821 	move	a1,v0
  407d70:	8f838024 	lw	v1,-32732(gp)
  407d74:	8f848024 	lw	a0,-32732(gp)
  407d78:	8f868024 	lw	a2,-32732(gp)
  407d7c:	2463c6dc 	addiu	v1,v1,-14628
[31m  407d80:	8f9980b4 	lw	t9,printf[0m
  407d84:	2484b4d0 	addiu	a0,a0,-19248
  407d88:	afa30010 	sw	v1,16(sp)
--
  407e18:	afb20028 	sw	s2,40(sp)
  407e1c:	afb10024 	sw	s1,36(sp)
  407e20:	afb00020 	sw	s0,32(sp)
  407e24:	afbc0018 	sw	gp,24(sp)
  407e28:	8f998418 	lw	t9,-31720(gp)
  407e2c:	0320f809 	jalr	t9
  407e30:	00000000 	nop
  407e34:	8fbc0018 	lw	gp,24(sp)
  407e38:	1440003f 	bnez	v0,407f38 <UPnPPortMappingSets@@Base+0x134>
  407e3c:	00408021 	move	s0,v0
  407e40:	8f82812c 	lw	v0,-32468(gp)
  407e44:	8c420000 	lw	v0,0(v0)
  407e48:	2c420002 	sltiu	v0,v0,2
  407e4c:	14400018 	bnez	v0,407eb0 <UPnPPortMappingSets@@Base+0xac>
  407e50:	00000000 	nop
  407e54:	8f998248 	lw	t9,-32184(gp)
  407e58:	0320f809 	jalr	t9
  407e5c:	00000000 	nop
  407e60:	24070701 	li	a3,1793
  407e64:	8fbc0018 	lw	gp,24(sp)
  407e68:	00402821 	move	a1,v0
  407e6c:	8f828024 	lw	v0,-32732(gp)
  407e70:	8f848024 	lw	a0,-32732(gp)
  407e74:	8f868024 	lw	a2,-32732(gp)
  407e78:	2442c6ac 	addiu	v0,v0,-14676
[31m  407e7c:	8f9980b4 	lw	t9,printf[0m
  407e80:	2484b4d0 	addiu	a0,a0,-19248
  407e84:	24c6d5f8 	addiu	a2,a2,-10760
  407e88:	0320f809 	jalr	t9
  407e8c:	afa20010 	sw	v0,16(sp)
  407e90:	8fbc0018 	lw	gp,24(sp)
  407e94:	8f848024 	lw	a0,-32732(gp)
[31m  407e98:	8f9980b4 	lw	t9,printf[0m
  407e9c:	8f858200 	lw	a1,-32256(gp)
  407ea0:	8f8682d8 	lw	a2,-32040(gp)
--
  407f10:	8f9981a4 	lw	t9,-32348(gp)
  407f14:	0320f809 	jalr	t9
  407f18:	00000000 	nop
  407f1c:	02001021 	move	v0,s0
  407f20:	8fbf002c 	lw	ra,44(sp)
  407f24:	8fb20028 	lw	s2,40(sp)
  407f28:	8fb10024 	lw	s1,36(sp)
  407f2c:	8fb00020 	lw	s0,32(sp)
  407f30:	03e00008 	jr	ra
  407f34:	27bd0030 	addiu	sp,sp,48
  407f38:	8f91812c 	lw	s1,-32468(gp)
  407f3c:	8e220000 	lw	v0,0(s1)
  407f40:	2c420002 	sltiu	v0,v0,2
  407f44:	14400018 	bnez	v0,407fa8 <UPnPPortMappingSets@@Base+0x1a4>
  407f48:	00000000 	nop
  407f4c:	8f998248 	lw	t9,-32184(gp)
  407f50:	0320f809 	jalr	t9
  407f54:	00000000 	nop
  407f58:	24070704 	li	a3,1796
  407f5c:	8fbc0018 	lw	gp,24(sp)
  407f60:	00402821 	move	a1,v0
  407f64:	8f828024 	lw	v0,-32732(gp)
  407f68:	8f848024 	lw	a0,-32732(gp)
  407f6c:	8f868024 	lw	a2,-32732(gp)
  407f70:	2442c6ac 	addiu	v0,v0,-14676
[31m  407f74:	8f9980b4 	lw	t9,printf[0m
  407f78:	2484b4d0 	addiu	a0,a0,-19248
  407f7c:	24c6d5f8 	addiu	a2,a2,-10760
  407f80:	0320f809 	jalr	t9
  407f84:	afa20010 	sw	v0,16(sp)
  407f88:	8fbc0018 	lw	gp,24(sp)
  407f8c:	8f848024 	lw	a0,-32732(gp)
[31m  407f90:	8f9980b4 	lw	t9,printf[0m
  407f94:	8f858200 	lw	a1,-32256(gp)
  407f98:	8f8682d8 	lw	a2,-32040(gp)
--
  408050:	00000000 	nop
  408054:	8fbc0018 	lw	gp,24(sp)
  408058:	8fbf002c 	lw	ra,44(sp)
  40805c:	8f8483d8 	lw	a0,-31784(gp)
  408060:	8f8581dc 	lw	a1,-32292(gp)
  408064:	8f99838c 	lw	t9,-31860(gp)
  408068:	8fb20028 	lw	s2,40(sp)
  40806c:	8fb10024 	lw	s1,36(sp)
  408070:	8fb00020 	lw	s0,32(sp)
  408074:	03200008 	jr	t9
  408078:	27bd0030 	addiu	sp,sp,48
  40807c:	8e220000 	lw	v0,0(s1)
  408080:	2c420002 	sltiu	v0,v0,2
  408084:	14400018 	bnez	v0,4080e8 <UPnPPortMappingSets@@Base+0x2e4>
  408088:	00000000 	nop
  40808c:	8f998248 	lw	t9,-32184(gp)
  408090:	0320f809 	jalr	t9
  408094:	00000000 	nop
  408098:	2407070b 	li	a3,1803
  40809c:	8fbc0018 	lw	gp,24(sp)
  4080a0:	00402821 	move	a1,v0
  4080a4:	8f828024 	lw	v0,-32732(gp)
  4080a8:	8f848024 	lw	a0,-32732(gp)
  4080ac:	8f868024 	lw	a2,-32732(gp)
  4080b0:	2442c6ac 	addiu	v0,v0,-14676
[31m  4080b4:	8f9980b4 	lw	t9,printf[0m
  4080b8:	2484b4d0 	addiu	a0,a0,-19248
  4080bc:	24c6d5f8 	addiu	a2,a2,-10760
  4080c0:	0320f809 	jalr	t9
  4080c4:	afa20010 	sw	v0,16(sp)
  4080c8:	02402821 	move	a1,s2
  4080cc:	2406fec8 	li	a2,-312
  4080d0:	8fbc0018 	lw	gp,24(sp)
  4080d4:	8f848024 	lw	a0,-32732(gp)
[31m  4080d8:	8f9980b4 	lw	t9,printf[0m
  4080dc:	0320f809 	jalr	t9
  4080e0:	2484c0f0 	addiu	a0,a0,-16144
--
  408194:	00402021 	move	a0,v0
  408198:	a3a00064 	sb	zero,100(sp)
  40819c:	a3a00074 	sb	zero,116(sp)
  4081a0:	a3a00084 	sb	zero,132(sp)
  4081a4:	a3a000a4 	sb	zero,164(sp)
  4081a8:	0320f809 	jalr	t9
  4081ac:	a3a0003c 	sb	zero,60(sp)
  4081b0:	8fbc0030 	lw	gp,48(sp)
  4081b4:	104000bd 	beqz	v0,4084ac <UPnPPortMappingSets@@Base+0x6a8>
  4081b8:	afa20188 	sw	v0,392(sp)
  4081bc:	8f95812c 	lw	s5,-32468(gp)
  4081c0:	8ea20000 	lw	v0,0(s5)
  4081c4:	2c420002 	sltiu	v0,v0,2
  4081c8:	14400017 	bnez	v0,408228 <UPnPPortMappingSets@@Base+0x424>
  4081cc:	00000000 	nop
  4081d0:	8f998248 	lw	t9,-32184(gp)
  4081d4:	0320f809 	jalr	t9
  4081d8:	00000000 	nop
  4081dc:	240708d5 	li	a3,2261
  4081e0:	8fbc0030 	lw	gp,48(sp)
  4081e4:	00402821 	move	a1,v0
  4081e8:	8f828024 	lw	v0,-32732(gp)
  4081ec:	8f848024 	lw	a0,-32732(gp)
  4081f0:	8f868024 	lw	a2,-32732(gp)
  4081f4:	2442c640 	addiu	v0,v0,-14784
[31m  4081f8:	8f9980b4 	lw	t9,printf[0m
  4081fc:	2484b4d0 	addiu	a0,a0,-19248
  408200:	24c6d5f8 	addiu	a2,a2,-10760
  408204:	0320f809 	jalr	t9
  408208:	afa20010 	sw	v0,16(sp)
  40820c:	8fbc0030 	lw	gp,48(sp)
  408210:	8fa50188 	lw	a1,392(sp)
  408214:	8f848024 	lw	a0,-32732(gp)
[31m  408218:	8f9980b4 	lw	t9,printf[0m
  40821c:	0320f809 	jalr	t9
  408220:	2484be38 	addiu	a0,a0,-16840
--
  4082a8:	0320f809 	jalr	t9
  4082ac:	2627e1b8 	addiu	a3,s1,-7752
  4082b0:	2627e1b8 	addiu	a3,s1,-7752
  4082b4:	8fbc0030 	lw	gp,48(sp)
  4082b8:	2605b760 	addiu	a1,s0,-18592
  4082bc:	8f868024 	lw	a2,-32732(gp)
  4082c0:	8f9982cc 	lw	t9,-32052(gp)
  4082c4:	8f8481f8 	lw	a0,-32264(gp)
  4082c8:	0320f809 	jalr	t9
  4082cc:	24c6b778 	addiu	a2,a2,-18568
  4082d0:	8ea20000 	lw	v0,0(s5)
  4082d4:	8fbc0030 	lw	gp,48(sp)
  4082d8:	2c420002 	sltiu	v0,v0,2
  4082dc:	14400017 	bnez	v0,40833c <UPnPPortMappingSets@@Base+0x538>
  4082e0:	00000000 	nop
  4082e4:	8f998248 	lw	t9,-32184(gp)
  4082e8:	0320f809 	jalr	t9
  4082ec:	00000000 	nop
  4082f0:	24070942 	li	a3,2370
  4082f4:	8fbc0030 	lw	gp,48(sp)
  4082f8:	00402821 	move	a1,v0
  4082fc:	8f828024 	lw	v0,-32732(gp)
  408300:	8f848024 	lw	a0,-32732(gp)
  408304:	8f868024 	lw	a2,-32732(gp)
  408308:	2442c640 	addiu	v0,v0,-14784
[31m  40830c:	8f9980b4 	lw	t9,printf[0m
  408310:	2484b4d0 	addiu	a0,a0,-19248
  408314:	24c6d5f8 	addiu	a2,a2,-10760
  408318:	0320f809 	jalr	t9
  40831c:	afa20010 	sw	v0,16(sp)
  408320:	8fbc0030 	lw	gp,48(sp)
  408324:	8fa50188 	lw	a1,392(sp)
  408328:	8f848024 	lw	a0,-32732(gp)
[31m  40832c:	8f9980b4 	lw	t9,printf[0m
  408330:	0320f809 	jalr	t9
  408334:	2484c3a8 	addiu	a0,a0,-15448
--
  408378:	8f858024 	lw	a1,-32732(gp)
  40837c:	8f998168 	lw	t9,-32408(gp)
  408380:	8e240000 	lw	a0,0(s1)
  408384:	0320f809 	jalr	t9
  408388:	24a5c3a8 	addiu	a1,a1,-15448
  40838c:	8fbc0030 	lw	gp,48(sp)
  408390:	8e240000 	lw	a0,0(s1)
  408394:	8f9981a4 	lw	t9,-32348(gp)
  408398:	0320f809 	jalr	t9
  40839c:	00000000 	nop
  4083a0:	8fbc0030 	lw	gp,48(sp)
  4083a4:	8ea20000 	lw	v0,0(s5)
  4083a8:	2c420002 	sltiu	v0,v0,2
  4083ac:	14400018 	bnez	v0,408410 <UPnPPortMappingSets@@Base+0x60c>
  4083b0:	00000000 	nop
  4083b4:	8f998248 	lw	t9,-32184(gp)
  4083b8:	0320f809 	jalr	t9
  4083bc:	00000000 	nop
  4083c0:	24070943 	li	a3,2371
  4083c4:	8fbc0030 	lw	gp,48(sp)
  4083c8:	00402821 	move	a1,v0
  4083cc:	8f828024 	lw	v0,-32732(gp)
  4083d0:	8f848024 	lw	a0,-32732(gp)
  4083d4:	8f868024 	lw	a2,-32732(gp)
  4083d8:	2442c640 	addiu	v0,v0,-14784
[31m  4083dc:	8f9980b4 	lw	t9,printf[0m
  4083e0:	2484b4d0 	addiu	a0,a0,-19248
  4083e4:	24c6d5f8 	addiu	a2,a2,-10760
  4083e8:	0320f809 	jalr	t9
  4083ec:	afa20010 	sw	v0,16(sp)
  4083f0:	2606b760 	addiu	a2,s0,-18592
  4083f4:	8fbc0030 	lw	gp,48(sp)
  4083f8:	8f848024 	lw	a0,-32732(gp)
[31m  4083fc:	8f9980b4 	lw	t9,printf[0m
  408400:	8f858108 	lw	a1,-32504(gp)
  408404:	0320f809 	jalr	t9
--
  408484:	8fb701bc 	lw	s7,444(sp)
  408488:	8fb601b8 	lw	s6,440(sp)
  40848c:	8fb501b4 	lw	s5,436(sp)
  408490:	8fb401b0 	lw	s4,432(sp)
  408494:	8fb301ac 	lw	s3,428(sp)
  408498:	8fb201a8 	lw	s2,424(sp)
  40849c:	8fb101a4 	lw	s1,420(sp)
  4084a0:	8fb001a0 	lw	s0,416(sp)
  4084a4:	03e00008 	jr	ra
  4084a8:	27bd01c8 	addiu	sp,sp,456
  4084ac:	8f95812c 	lw	s5,-32468(gp)
  4084b0:	8ea20000 	lw	v0,0(s5)
  4084b4:	2c420002 	sltiu	v0,v0,2
  4084b8:	14400017 	bnez	v0,408518 <UPnPPortMappingSets@@Base+0x714>
  4084bc:	00000000 	nop
  4084c0:	8f998248 	lw	t9,-32184(gp)
  4084c4:	0320f809 	jalr	t9
  4084c8:	00000000 	nop
  4084cc:	240708d9 	li	a3,2265
  4084d0:	8fbc0030 	lw	gp,48(sp)
  4084d4:	00402821 	move	a1,v0
  4084d8:	8f828024 	lw	v0,-32732(gp)
  4084dc:	8f848024 	lw	a0,-32732(gp)
  4084e0:	8f868024 	lw	a2,-32732(gp)
  4084e4:	2442c640 	addiu	v0,v0,-14784
[31m  4084e8:	8f9980b4 	lw	t9,printf[0m
  4084ec:	2484b4d0 	addiu	a0,a0,-19248
  4084f0:	24c6d5f8 	addiu	a2,a2,-10760
  4084f4:	0320f809 	jalr	t9
  4084f8:	afa20010 	sw	v0,16(sp)
  4084fc:	8fbc0030 	lw	gp,48(sp)
  408500:	8fa5018c 	lw	a1,396(sp)
  408504:	8f848024 	lw	a0,-32732(gp)
[31m  408508:	8f9980b4 	lw	t9,printf[0m
  40850c:	0320f809 	jalr	t9
  408510:	2484c118 	addiu	a0,a0,-16104
--
  4085c0:	10400330 	beqz	v0,409284 <UPnPPortMappingSets@@Base+0x1480>
  4085c4:	00408021 	move	s0,v0
  4085c8:	8f938024 	lw	s3,-32732(gp)
  4085cc:	0000b021 	move	s6,zero
  4085d0:	8f928024 	lw	s2,-32732(gp)
  4085d4:	27b10064 	addiu	s1,sp,100
  4085d8:	8f978024 	lw	s7,-32732(gp)
  4085dc:	2673c640 	addiu	s3,s3,-14784
  4085e0:	afa20194 	sw	v0,404(sp)
  4085e4:	2652d5f8 	addiu	s2,s2,-10760
  4085e8:	10000032 	b	4086b4 <UPnPPortMappingSets@@Base+0x8b0>
  4085ec:	26f7b4f4 	addiu	s7,s7,-19212
  4085f0:	8ea20000 	lw	v0,0(s5)
  4085f4:	2c420002 	sltiu	v0,v0,2
  4085f8:	14400014 	bnez	v0,40864c <UPnPPortMappingSets@@Base+0x848>
  4085fc:	00000000 	nop
  408600:	8f998248 	lw	t9,-32184(gp)
  408604:	0320f809 	jalr	t9
  408608:	00000000 	nop
  40860c:	24070914 	li	a3,2324
  408610:	02403021 	move	a2,s2
  408614:	8fbc0030 	lw	gp,48(sp)
  408618:	00402821 	move	a1,v0
  40861c:	afb30010 	sw	s3,16(sp)
  408620:	8f848024 	lw	a0,-32732(gp)
[31m  408624:	8f9980b4 	lw	t9,printf[0m
  408628:	0320f809 	jalr	t9
  40862c:	2484b4d0 	addiu	a0,a0,-19248
  408630:	8fbc0030 	lw	gp,48(sp)
  408634:	8e050008 	lw	a1,8(s0)
  408638:	8f848024 	lw	a0,-32732(gp)
[31m  40863c:	8f9980b4 	lw	t9,printf[0m
  408640:	0320f809 	jalr	t9
  408644:	2484c25c 	addiu	a0,a0,-15780
--
  408690:	8fc40000 	lw	a0,0(s8)
  408694:	8f9981a4 	lw	t9,-32348(gp)
  408698:	0320f809 	jalr	t9
  40869c:	00000000 	nop
  4086a0:	8fbc0030 	lw	gp,48(sp)
  4086a4:	8e100000 	lw	s0,0(s0)
  4086a8:	12000126 	beqz	s0,408b44 <UPnPPortMappingSets@@Base+0xd40>
  4086ac:	00000000 	nop
  4086b0:	26d60001 	addiu	s6,s6,1
  4086b4:	8ea20000 	lw	v0,0(s5)
  4086b8:	ae200000 	sw	zero,0(s1)
  4086bc:	2c420002 	sltiu	v0,v0,2
  4086c0:	ae200004 	sw	zero,4(s1)
  4086c4:	ae200008 	sw	zero,8(s1)
  4086c8:	14400014 	bnez	v0,40871c <UPnPPortMappingSets@@Base+0x918>
  4086cc:	ae20000c 	sw	zero,12(s1)
  4086d0:	8f998248 	lw	t9,-32184(gp)
  4086d4:	0320f809 	jalr	t9
  4086d8:	00000000 	nop
  4086dc:	240708f1 	li	a3,2289
  4086e0:	02403021 	move	a2,s2
  4086e4:	8fbc0030 	lw	gp,48(sp)
  4086e8:	00402821 	move	a1,v0
  4086ec:	afb30010 	sw	s3,16(sp)
  4086f0:	8f848024 	lw	a0,-32732(gp)
[31m  4086f4:	8f9980b4 	lw	t9,printf[0m
  4086f8:	0320f809 	jalr	t9
  4086fc:	2484b4d0 	addiu	a0,a0,-19248
  408700:	02c02821 	move	a1,s6
  408704:	8fbc0030 	lw	gp,48(sp)
  408708:	8f848024 	lw	a0,-32732(gp)
[31m  40870c:	8f9980b4 	lw	t9,printf[0m
  408710:	0320f809 	jalr	t9
  408714:	2484c17c 	addiu	a0,a0,-16004
--
  408744:	8fbc0030 	lw	gp,48(sp)
  408748:	8fc40000 	lw	a0,0(s8)
  40874c:	8f858024 	lw	a1,-32732(gp)
  408750:	8f998168 	lw	t9,-32408(gp)
  408754:	0320f809 	jalr	t9
  408758:	24a5c17c 	addiu	a1,a1,-16004
  40875c:	8fbc0030 	lw	gp,48(sp)
  408760:	8fc40000 	lw	a0,0(s8)
  408764:	8f9981a4 	lw	t9,-32348(gp)
  408768:	0320f809 	jalr	t9
  40876c:	00000000 	nop
  408770:	8fbc0030 	lw	gp,48(sp)
  408774:	8ea20000 	lw	v0,0(s5)
  408778:	2c420002 	sltiu	v0,v0,2
  40877c:	14400015 	bnez	v0,4087d4 <UPnPPortMappingSets@@Base+0x9d0>
  408780:	00000000 	nop
  408784:	8f998248 	lw	t9,-32184(gp)
  408788:	0320f809 	jalr	t9
  40878c:	00000000 	nop
  408790:	240708f4 	li	a3,2292
  408794:	02403021 	move	a2,s2
  408798:	8fbc0030 	lw	gp,48(sp)
  40879c:	00402821 	move	a1,v0
  4087a0:	afb30010 	sw	s3,16(sp)
  4087a4:	8f848024 	lw	a0,-32732(gp)
[31m  4087a8:	8f9980b4 	lw	t9,printf[0m
  4087ac:	0320f809 	jalr	t9
  4087b0:	2484b4d0 	addiu	a0,a0,-19248
  4087b4:	8fbc0030 	lw	gp,48(sp)
  4087b8:	8f848024 	lw	a0,-32732(gp)
  4087bc:	8f828024 	lw	v0,-32732(gp)
[31m  4087c0:	8f9980b4 	lw	t9,printf[0m
  4087c4:	2484c190 	addiu	a0,a0,-15984
  4087c8:	0320f809 	jalr	t9
--
  408800:	8f858024 	lw	a1,-32732(gp)
  408804:	8f828024 	lw	v0,-32732(gp)
  408808:	8f998168 	lw	t9,-32408(gp)
  40880c:	24a5c190 	addiu	a1,a1,-15984
  408810:	0320f809 	jalr	t9
  408814:	2446bad4 	addiu	a2,v0,-17708
  408818:	8fbc0030 	lw	gp,48(sp)
  40881c:	8fc40000 	lw	a0,0(s8)
  408820:	8f9981a4 	lw	t9,-32348(gp)
  408824:	0320f809 	jalr	t9
  408828:	00000000 	nop
  40882c:	8fbc0030 	lw	gp,48(sp)
  408830:	8ea20000 	lw	v0,0(s5)
  408834:	2c420002 	sltiu	v0,v0,2
  408838:	14400015 	bnez	v0,408890 <UPnPPortMappingSets@@Base+0xa8c>
  40883c:	00000000 	nop
  408840:	8f998248 	lw	t9,-32184(gp)
  408844:	0320f809 	jalr	t9
  408848:	00000000 	nop
  40884c:	240708f5 	li	a3,2293
  408850:	02403021 	move	a2,s2
  408854:	8fbc0030 	lw	gp,48(sp)
  408858:	00402821 	move	a1,v0
  40885c:	afb30010 	sw	s3,16(sp)
  408860:	8f848024 	lw	a0,-32732(gp)
[31m  408864:	8f9980b4 	lw	t9,printf[0m
  408868:	0320f809 	jalr	t9
  40886c:	2484b4d0 	addiu	a0,a0,-19248
  408870:	8fbc0030 	lw	gp,48(sp)
  408874:	8e050004 	lw	a1,4(s0)
  408878:	8f848024 	lw	a0,-32732(gp)
[31m  40887c:	8f9980b4 	lw	t9,printf[0m
  408880:	8e060008 	lw	a2,8(s0)
  408884:	0320f809 	jalr	t9
--
  408934:	0320f809 	jalr	t9
  408938:	02202821 	move	a1,s1
  40893c:	8fbc0030 	lw	gp,48(sp)
  408940:	144001d7 	bnez	v0,4090a0 <UPnPPortMappingSets@@Base+0x129c>
  408944:	00000000 	nop
  408948:	8f9980fc 	lw	t9,-32516(gp)
  40894c:	8fa4018c 	lw	a0,396(sp)
  408950:	0320f809 	jalr	t9
  408954:	02202821 	move	a1,s1
  408958:	8fbc0030 	lw	gp,48(sp)
  40895c:	144001d0 	bnez	v0,4090a0 <UPnPPortMappingSets@@Base+0x129c>
  408960:	00000000 	nop
  408964:	8ea20000 	lw	v0,0(s5)
  408968:	2c420002 	sltiu	v0,v0,2
  40896c:	14400015 	bnez	v0,4089c4 <UPnPPortMappingSets@@Base+0xbc0>
  408970:	00000000 	nop
  408974:	8f998248 	lw	t9,-32184(gp)
  408978:	0320f809 	jalr	t9
  40897c:	00000000 	nop
  408980:	240708fe 	li	a3,2302
  408984:	02403021 	move	a2,s2
  408988:	8fbc0030 	lw	gp,48(sp)
  40898c:	00402821 	move	a1,v0
  408990:	afb30010 	sw	s3,16(sp)
  408994:	8f848024 	lw	a0,-32732(gp)
[31m  408998:	8f9980b4 	lw	t9,printf[0m
  40899c:	0320f809 	jalr	t9
  4089a0:	2484b4d0 	addiu	a0,a0,-19248
  4089a4:	8fbc0030 	lw	gp,48(sp)
  4089a8:	8fa60188 	lw	a2,392(sp)
  4089ac:	8f828024 	lw	v0,-32732(gp)
[31m  4089b0:	8f9980b4 	lw	t9,printf[0m
  4089b4:	8e050004 	lw	a1,4(s0)
  4089b8:	0320f809 	jalr	t9
--
  408a48:	8fbc0030 	lw	gp,48(sp)
  408a4c:	8e040004 	lw	a0,4(s0)
  408a50:	8f998094 	lw	t9,-32620(gp)
  408a54:	8f8583d8 	lw	a1,-31784(gp)
  408a58:	8f8681dc 	lw	a2,-32292(gp)
  408a5c:	0320f809 	jalr	t9
  408a60:	afa20010 	sw	v0,16(sp)
  408a64:	0040f021 	move	s8,v0
  408a68:	24020001 	li	v0,1
  408a6c:	8fbc0030 	lw	gp,48(sp)
  408a70:	13c201bf 	beq	s8,v0,409170 <UPnPPortMappingSets@@Base+0x136c>
  408a74:	00000000 	nop
  408a78:	8ea20000 	lw	v0,0(s5)
  408a7c:	2c420002 	sltiu	v0,v0,2
  408a80:	14400014 	bnez	v0,408ad4 <UPnPPortMappingSets@@Base+0xcd0>
  408a84:	00000000 	nop
  408a88:	8f998248 	lw	t9,-32184(gp)
  408a8c:	0320f809 	jalr	t9
  408a90:	00000000 	nop
  408a94:	2407090b 	li	a3,2315
  408a98:	02403021 	move	a2,s2
  408a9c:	8fbc0030 	lw	gp,48(sp)
  408aa0:	00402821 	move	a1,v0
  408aa4:	afb30010 	sw	s3,16(sp)
  408aa8:	8f848024 	lw	a0,-32732(gp)
[31m  408aac:	8f9980b4 	lw	t9,printf[0m
  408ab0:	0320f809 	jalr	t9
  408ab4:	2484b4d0 	addiu	a0,a0,-19248
  408ab8:	03c02821 	move	a1,s8
  408abc:	8fbc0030 	lw	gp,48(sp)
  408ac0:	8f848024 	lw	a0,-32732(gp)
[31m  408ac4:	8f9980b4 	lw	t9,printf[0m
  408ac8:	0320f809 	jalr	t9
  408acc:	2484c214 	addiu	a0,a0,-15852
--
  408c4c:	00000000 	nop
  408c50:	8fbc0030 	lw	gp,48(sp)
  408c54:	8f858234 	lw	a1,-32204(gp)
  408c58:	8f9980fc 	lw	t9,-32516(gp)
  408c5c:	1440ffd2 	bnez	v0,408ba8 <UPnPPortMappingSets@@Base+0xda4>
  408c60:	02602021 	move	a0,s3
  408c64:	0320f809 	jalr	t9
  408c68:	00000000 	nop
  408c6c:	8fbc0030 	lw	gp,48(sp)
  408c70:	1440ffcd 	bnez	v0,408ba8 <UPnPPortMappingSets@@Base+0xda4>
  408c74:	00000000 	nop
  408c78:	8ea20000 	lw	v0,0(s5)
  408c7c:	2c420002 	sltiu	v0,v0,2
  408c80:	14400018 	bnez	v0,408ce4 <UPnPPortMappingSets@@Base+0xee0>
  408c84:	00000000 	nop
  408c88:	8f998248 	lw	t9,-32184(gp)
  408c8c:	0320f809 	jalr	t9
  408c90:	00000000 	nop
  408c94:	2407097f 	li	a3,2431
  408c98:	8fbc0030 	lw	gp,48(sp)
  408c9c:	00402821 	move	a1,v0
  408ca0:	8f828024 	lw	v0,-32732(gp)
  408ca4:	8f848024 	lw	a0,-32732(gp)
  408ca8:	8f868024 	lw	a2,-32732(gp)
  408cac:	2442c660 	addiu	v0,v0,-14752
[31m  408cb0:	8f9980b4 	lw	t9,printf[0m
  408cb4:	2484b4d0 	addiu	a0,a0,-19248
  408cb8:	24c6d5f8 	addiu	a2,a2,-10760
  408cbc:	0320f809 	jalr	t9
  408cc0:	afa20010 	sw	v0,16(sp)
  408cc4:	8fbc0030 	lw	gp,48(sp)
  408cc8:	8f848024 	lw	a0,-32732(gp)
[31m  408ccc:	8f9980b4 	lw	t9,printf[0m
  408cd0:	8f858394 	lw	a1,-31852(gp)
  408cd4:	8f868234 	lw	a2,-32204(gp)
--
  408d64:	27b200a4 	addiu	s2,sp,164
  408d68:	02403021 	move	a2,s2
  408d6c:	8fbc0030 	lw	gp,48(sp)
  408d70:	8fa20190 	lw	v0,400(sp)
  408d74:	8f9982a0 	lw	t9,-32096(gp)
  408d78:	8e240000 	lw	a0,0(s1)
  408d7c:	0320f809 	jalr	t9
  408d80:	24450484 	addiu	a1,v0,1156
  408d84:	8fbc0030 	lw	gp,48(sp)
  408d88:	104001ea 	beqz	v0,409534 <UPnPPortMappingSets@@Base+0x1730>
  408d8c:	00408821 	move	s1,v0
  408d90:	8ea20000 	lw	v0,0(s5)
  408d94:	2c420002 	sltiu	v0,v0,2
  408d98:	14400018 	bnez	v0,408dfc <UPnPPortMappingSets@@Base+0xff8>
  408d9c:	00000000 	nop
  408da0:	8f998248 	lw	t9,-32184(gp)
  408da4:	0320f809 	jalr	t9
  408da8:	00000000 	nop
  408dac:	2407092f 	li	a3,2351
  408db0:	8fbc0030 	lw	gp,48(sp)
  408db4:	00402821 	move	a1,v0
  408db8:	8f828024 	lw	v0,-32732(gp)
  408dbc:	8f848024 	lw	a0,-32732(gp)
  408dc0:	8f868024 	lw	a2,-32732(gp)
  408dc4:	2442c640 	addiu	v0,v0,-14784
[31m  408dc8:	8f9980b4 	lw	t9,printf[0m
  408dcc:	2484b4d0 	addiu	a0,a0,-19248
  408dd0:	24c6d5f8 	addiu	a2,a2,-10760
  408dd4:	0320f809 	jalr	t9
  408dd8:	afa20010 	sw	v0,16(sp)
  408ddc:	02202821 	move	a1,s1
  408de0:	8fbc0030 	lw	gp,48(sp)
  408de4:	8f848024 	lw	a0,-32732(gp)
[31m  408de8:	8f9980b4 	lw	t9,printf[0m
  408dec:	8f868208 	lw	a2,-32248(gp)
  408df0:	0320f809 	jalr	t9
--
  408e90:	0320f809 	jalr	t9
  408e94:	2605b760 	addiu	a1,s0,-18592
  408e98:	2605b760 	addiu	a1,s0,-18592
  408e9c:	02403821 	move	a3,s2
  408ea0:	8fbc0030 	lw	gp,48(sp)
  408ea4:	8f868024 	lw	a2,-32732(gp)
  408ea8:	8f9982cc 	lw	t9,-32052(gp)
  408eac:	8f8481f8 	lw	a0,-32264(gp)
  408eb0:	0320f809 	jalr	t9
  408eb4:	24c6b778 	addiu	a2,a2,-18568
  408eb8:	8ea20000 	lw	v0,0(s5)
  408ebc:	8fbc0030 	lw	gp,48(sp)
  408ec0:	2c420002 	sltiu	v0,v0,2
  408ec4:	14400019 	bnez	v0,408f2c <UPnPPortMappingSets@@Base+0x1128>
  408ec8:	00000000 	nop
  408ecc:	8f998248 	lw	t9,-32184(gp)
  408ed0:	0320f809 	jalr	t9
  408ed4:	00000000 	nop
  408ed8:	2407093d 	li	a3,2365
  408edc:	8fbc0030 	lw	gp,48(sp)
  408ee0:	00402821 	move	a1,v0
  408ee4:	8f828024 	lw	v0,-32732(gp)
  408ee8:	8f848024 	lw	a0,-32732(gp)
  408eec:	8f868024 	lw	a2,-32732(gp)
  408ef0:	2442c640 	addiu	v0,v0,-14784
[31m  408ef4:	8f9980b4 	lw	t9,printf[0m
  408ef8:	2484b4d0 	addiu	a0,a0,-19248
  408efc:	24c6d5f8 	addiu	a2,a2,-10760
  408f00:	0320f809 	jalr	t9
  408f04:	afa20010 	sw	v0,16(sp)
  408f08:	02403021 	move	a2,s2
  408f0c:	2607b760 	addiu	a3,s0,-18592
  408f10:	8fbc0030 	lw	gp,48(sp)
  408f14:	8f848024 	lw	a0,-32732(gp)
[31m  408f18:	8f9980b4 	lw	t9,printf[0m
  408f1c:	8f858108 	lw	a1,-32504(gp)
  408f20:	0320f809 	jalr	t9
--
  408f74:	8f998168 	lw	t9,-32408(gp)
  408f78:	8f868108 	lw	a2,-32504(gp)
  408f7c:	24a5c348 	addiu	a1,a1,-15544
  408f80:	0320f809 	jalr	t9
  408f84:	afb00010 	sw	s0,16(sp)
  408f88:	8fbc0030 	lw	gp,48(sp)
  408f8c:	8e240000 	lw	a0,0(s1)
  408f90:	8f9981a4 	lw	t9,-32348(gp)
  408f94:	0320f809 	jalr	t9
  408f98:	00000000 	nop
  408f9c:	8fbc0030 	lw	gp,48(sp)
  408fa0:	8ea20000 	lw	v0,0(s5)
  408fa4:	2c420002 	sltiu	v0,v0,2
  408fa8:	14400016 	bnez	v0,409004 <UPnPPortMappingSets@@Base+0x1200>
  408fac:	00000000 	nop
  408fb0:	8f998248 	lw	t9,-32184(gp)
  408fb4:	0320f809 	jalr	t9
  408fb8:	00000000 	nop
  408fbc:	2407093e 	li	a3,2366
  408fc0:	8fbc0030 	lw	gp,48(sp)
  408fc4:	00402821 	move	a1,v0
  408fc8:	8f828024 	lw	v0,-32732(gp)
  408fcc:	8f848024 	lw	a0,-32732(gp)
  408fd0:	8f868024 	lw	a2,-32732(gp)
  408fd4:	2442c640 	addiu	v0,v0,-14784
[31m  408fd8:	8f9980b4 	lw	t9,printf[0m
  408fdc:	2484b4d0 	addiu	a0,a0,-19248
  408fe0:	24c6d5f8 	addiu	a2,a2,-10760
--
  409070:	8fbf01c4 	lw	ra,452(sp)
  409074:	8fbe01c0 	lw	s8,448(sp)
  409078:	8fb701bc 	lw	s7,444(sp)
  40907c:	8fb601b8 	lw	s6,440(sp)
  409080:	8fb501b4 	lw	s5,436(sp)
  409084:	8fb401b0 	lw	s4,432(sp)
  409088:	8fb301ac 	lw	s3,428(sp)
  40908c:	8fb201a8 	lw	s2,424(sp)
  409090:	8fb101a4 	lw	s1,420(sp)
  409094:	8fb001a0 	lw	s0,416(sp)
  409098:	03e00008 	jr	ra
  40909c:	27bd01c8 	addiu	sp,sp,456
  4090a0:	8ea20000 	lw	v0,0(s5)
  4090a4:	2c420002 	sltiu	v0,v0,2
  4090a8:	14400016 	bnez	v0,409104 <UPnPPortMappingSets@@Base+0x1300>
  4090ac:	00000000 	nop
  4090b0:	8f998248 	lw	t9,-32184(gp)
  4090b4:	0320f809 	jalr	t9
  4090b8:	00000000 	nop
  4090bc:	24070910 	li	a3,2320
  4090c0:	02403021 	move	a2,s2
  4090c4:	8fbc0030 	lw	gp,48(sp)
  4090c8:	00402821 	move	a1,v0
  4090cc:	afb30010 	sw	s3,16(sp)
  4090d0:	8f848024 	lw	a0,-32732(gp)
[31m  4090d4:	8f9980b4 	lw	t9,printf[0m
  4090d8:	0320f809 	jalr	t9
  4090dc:	2484b4d0 	addiu	a0,a0,-19248
  4090e0:	02203821 	move	a3,s1
  4090e4:	8fbc0030 	lw	gp,48(sp)
  4090e8:	8fa50188 	lw	a1,392(sp)
  4090ec:	8f848024 	lw	a0,-32732(gp)
[31m  4090f0:	8f9980b4 	lw	t9,printf[0m
  4090f4:	8fa6018c 	lw	a2,396(sp)
  4090f8:	0320f809 	jalr	t9
--
  40916c:	afa20188 	sw	v0,392(sp)
  409170:	8f8281dc 	lw	v0,-32292(gp)
  409174:	8f858024 	lw	a1,-32732(gp)
  409178:	8f9980fc 	lw	t9,-32516(gp)
  40917c:	24440284 	addiu	a0,v0,644
  409180:	afa20190 	sw	v0,400(sp)
  409184:	0320f809 	jalr	t9
  409188:	24a5ba64 	addiu	a1,a1,-17820
  40918c:	8fbc0030 	lw	gp,48(sp)
  409190:	1440fe39 	bnez	v0,408a78 <UPnPPortMappingSets@@Base+0xc74>
  409194:	00000000 	nop
  409198:	8ea20000 	lw	v0,0(s5)
  40919c:	2c420002 	sltiu	v0,v0,2
  4091a0:	14400016 	bnez	v0,4091fc <UPnPPortMappingSets@@Base+0x13f8>
  4091a4:	00000000 	nop
  4091a8:	8f998248 	lw	t9,-32184(gp)
  4091ac:	0320f809 	jalr	t9
  4091b0:	00000000 	nop
  4091b4:	24070907 	li	a3,2311
  4091b8:	8fbc0030 	lw	gp,48(sp)
  4091bc:	00402821 	move	a1,v0
  4091c0:	8f828024 	lw	v0,-32732(gp)
  4091c4:	8f848024 	lw	a0,-32732(gp)
  4091c8:	8f868024 	lw	a2,-32732(gp)
  4091cc:	2442c640 	addiu	v0,v0,-14784
[31m  4091d0:	8f9980b4 	lw	t9,printf[0m
  4091d4:	2484b4d0 	addiu	a0,a0,-19248
  4091d8:	24c6d5f8 	addiu	a2,a2,-10760
--
  409254:	8e040000 	lw	a0,0(s0)
  409258:	8f9981a4 	lw	t9,-32348(gp)
  40925c:	0320f809 	jalr	t9
  409260:	00000000 	nop
  409264:	8fbc0030 	lw	gp,48(sp)
  409268:	8f998388 	lw	t9,-31864(gp)
  40926c:	8fa40194 	lw	a0,404(sp)
  409270:	0320f809 	jalr	t9
  409274:	00000000 	nop
  409278:	8fbc0030 	lw	gp,48(sp)
  40927c:	1000fe3c 	b	408b70 <UPnPPortMappingSets@@Base+0xd6c>
  409280:	27a20134 	addiu	v0,sp,308
  409284:	8ea20000 	lw	v0,0(s5)
  409288:	8f998248 	lw	t9,-32184(gp)
  40928c:	2c420002 	sltiu	v0,v0,2
  409290:	14400012 	bnez	v0,4092dc <UPnPPortMappingSets@@Base+0x14d8>
  409294:	00000000 	nop
  409298:	0320f809 	jalr	t9
  40929c:	00000000 	nop
  4092a0:	02403021 	move	a2,s2
  4092a4:	240708e1 	li	a3,2273
  4092a8:	8fbc0030 	lw	gp,48(sp)
  4092ac:	00402821 	move	a1,v0
  4092b0:	afb70010 	sw	s7,16(sp)
  4092b4:	8f848024 	lw	a0,-32732(gp)
[31m  4092b8:	8f9980b4 	lw	t9,printf[0m
  4092bc:	0320f809 	jalr	t9
  4092c0:	2484b4d0 	addiu	a0,a0,-19248
  4092c4:	02202821 	move	a1,s1
  4092c8:	8fbc0030 	lw	gp,48(sp)
[31m  4092cc:	8f9980b4 	lw	t9,printf[0m
  4092d0:	0320f809 	jalr	t9
  4092d4:	02c02021 	move	a0,s6
--
  409314:	02c02821 	move	a1,s6
  409318:	8fbc0030 	lw	gp,48(sp)
  40931c:	8e640000 	lw	a0,0(s3)
  409320:	8f9981a4 	lw	t9,-32348(gp)
  409324:	0320f809 	jalr	t9
  409328:	00000000 	nop
  40932c:	8fbc0030 	lw	gp,48(sp)
  409330:	26310001 	addiu	s1,s1,1
  409334:	24020002 	li	v0,2
  409338:	1622fc9b 	bne	s1,v0,4085a8 <UPnPPortMappingSets@@Base+0x7a4>
  40933c:	00000000 	nop
  409340:	8ea20000 	lw	v0,0(s5)
  409344:	2c420002 	sltiu	v0,v0,2
  409348:	14400016 	bnez	v0,4093a4 <UPnPPortMappingSets@@Base+0x15a0>
  40934c:	00000000 	nop
  409350:	8f998248 	lw	t9,-32184(gp)
  409354:	0320f809 	jalr	t9
  409358:	00000000 	nop
  40935c:	240708e7 	li	a3,2279
  409360:	8fbc0030 	lw	gp,48(sp)
  409364:	00402821 	move	a1,v0
  409368:	8f828024 	lw	v0,-32732(gp)
  40936c:	8f848024 	lw	a0,-32732(gp)
  409370:	8f868024 	lw	a2,-32732(gp)
  409374:	2442c640 	addiu	v0,v0,-14784
[31m  409378:	8f9980b4 	lw	t9,printf[0m
  40937c:	2484b4d0 	addiu	a0,a0,-19248
  409380:	24c6d5f8 	addiu	a2,a2,-10760
--
  409390:	8f848024 	lw	a0,-32732(gp)
  409394:	8f9980a4 	lw	t9,-32604(gp)
  409398:	0320f809 	jalr	t9
  40939c:	2484c150 	addiu	a0,a0,-16048
  4093a0:	8fbc0030 	lw	gp,48(sp)
  4093a4:	8e840000 	lw	a0,0(s4)
  4093a8:	8f908238 	lw	s0,-32200(gp)
  4093ac:	14800046 	bnez	a0,4094c8 <UPnPPortMappingSets@@Base+0x16c4>
  4093b0:	2402fec8 	li	v0,-312
  4093b4:	1000fbb6 	b	408290 <UPnPPortMappingSets@@Base+0x48c>
  4093b8:	afa20188 	sw	v0,392(sp)
  4093bc:	8ea20000 	lw	v0,0(s5)
  4093c0:	2c420002 	sltiu	v0,v0,2
  4093c4:	1440001d 	bnez	v0,40943c <UPnPPortMappingSets@@Base+0x1638>
  4093c8:	00000000 	nop
  4093cc:	8f998248 	lw	t9,-32184(gp)
  4093d0:	0320f809 	jalr	t9
  4093d4:	00000000 	nop
  4093d8:	24070985 	li	a3,2437
  4093dc:	8fbc0030 	lw	gp,48(sp)
  4093e0:	00402821 	move	a1,v0
  4093e4:	8f828024 	lw	v0,-32732(gp)
  4093e8:	8f848024 	lw	a0,-32732(gp)
  4093ec:	8f868024 	lw	a2,-32732(gp)
  4093f0:	2442c660 	addiu	v0,v0,-14752
[31m  4093f4:	8f9980b4 	lw	t9,printf[0m
  4093f8:	2484b4d0 	addiu	a0,a0,-19248
  4093fc:	24c6d5f8 	addiu	a2,a2,-10760
  409400:	0320f809 	jalr	t9
  409404:	afa20010 	sw	v0,16(sp)
  409408:	8fbc0030 	lw	gp,48(sp)
  40940c:	8fa40188 	lw	a0,392(sp)
  409410:	8f9983d0 	lw	t9,-31792(gp)
  409414:	0320f809 	jalr	t9
  409418:	00000000 	nop
  40941c:	8fbc0030 	lw	gp,48(sp)
  409420:	00403021 	move	a2,v0
  409424:	8fa50188 	lw	a1,392(sp)
  409428:	8f848024 	lw	a0,-32732(gp)
[31m  40942c:	8f9980b4 	lw	t9,printf[0m
  409430:	0320f809 	jalr	t9
  409434:	2484c2ac 	addiu	a0,a0,-15700
--
  409508:	8f9983e0 	lw	t9,-31776(gp)
  40950c:	0320f809 	jalr	t9
  409510:	2484c164 	addiu	a0,a0,-16028
  409514:	8fbc0030 	lw	gp,48(sp)
  409518:	8e040000 	lw	a0,0(s0)
  40951c:	8f9981a4 	lw	t9,-32348(gp)
  409520:	0320f809 	jalr	t9
  409524:	00000000 	nop
  409528:	8fbc0030 	lw	gp,48(sp)
  40952c:	1000fb58 	b	408290 <UPnPPortMappingSets@@Base+0x48c>
  409530:	00000000 	nop
  409534:	8ea20000 	lw	v0,0(s5)
  409538:	2c420002 	sltiu	v0,v0,2
  40953c:	14400017 	bnez	v0,40959c <UPnPPortMappingSets@@Base+0x1798>
  409540:	00000000 	nop
  409544:	8f998248 	lw	t9,-32184(gp)
  409548:	0320f809 	jalr	t9
  40954c:	00000000 	nop
  409550:	24070934 	li	a3,2356
  409554:	8fbc0030 	lw	gp,48(sp)
  409558:	00402821 	move	a1,v0
  40955c:	8f828024 	lw	v0,-32732(gp)
  409560:	8f848024 	lw	a0,-32732(gp)
  409564:	8f868024 	lw	a2,-32732(gp)
  409568:	2442c640 	addiu	v0,v0,-14784
[31m  40956c:	8f9980b4 	lw	t9,printf[0m
  409570:	2484b4d0 	addiu	a0,a0,-19248
  409574:	24c6d5f8 	addiu	a2,a2,-10760
  409578:	0320f809 	jalr	t9
  40957c:	afa20010 	sw	v0,16(sp)
  409580:	02402821 	move	a1,s2
  409584:	8fbc0030 	lw	gp,48(sp)
  409588:	8f848024 	lw	a0,-32732(gp)
[31m  40958c:	8f9980b4 	lw	t9,printf[0m
  409590:	0320f809 	jalr	t9
  409594:	2484c32c 	addiu	a0,a0,-15572
--
  40970c:	8fbc0018 	lw	gp,24(sp)
  409710:	10540028 	beq	v0,s4,4097b4 <main@@Base+0x1a8>
  409714:	2442ffbf 	addiu	v0,v0,-65
  409718:	2c430036 	sltiu	v1,v0,54
  40971c:	14600009 	bnez	v1,409744 <main@@Base+0x138>
  409720:	00021080 	sll	v0,v0,0x2
  409724:	8f848024 	lw	a0,-32732(gp)
  409728:	8f9980a4 	lw	t9,-32604(gp)
  40972c:	0320f809 	jalr	t9
  409730:	2484c448 	addiu	a0,a0,-15288
  409734:	8fbc0018 	lw	gp,24(sp)
  409738:	8f998120 	lw	t9,-32480(gp)
  40973c:	0320f809 	jalr	t9
  409740:	00002021 	move	a0,zero
  409744:	02c21021 	addu	v0,s6,v0
  409748:	8c420000 	lw	v0,0(v0)
  40974c:	005c1021 	addu	v0,v0,gp
  409750:	00400008 	jr	v0
  409754:	00000000 	nop
  409758:	8f998124 	lw	t9,-32476(gp)
  40975c:	0320f809 	jalr	t9
  409760:	00000000 	nop
  409764:	8fbc0018 	lw	gp,24(sp)
  409768:	00402821 	move	a1,v0
  40976c:	8f848024 	lw	a0,-32732(gp)
[31m  409770:	8f9980b4 	lw	t9,printf[0m
  409774:	8f8681c8 	lw	a2,-32312(gp)
  409778:	0320f809 	jalr	t9
--
  409828:	8f8482bc 	lw	a0,-32068(gp)
  40982c:	0320f809 	jalr	t9
  409830:	24a5c500 	addiu	a1,a1,-15104
  409834:	8fbc0018 	lw	gp,24(sp)
  409838:	8f838228 	lw	v1,-32216(gp)
  40983c:	8f998414 	lw	t9,-31724(gp)
  409840:	0320f809 	jalr	t9
  409844:	ac620000 	sw	v0,0(v1)
  409848:	8fbc0018 	lw	gp,24(sp)
  40984c:	104000ba 	beqz	v0,409b38 <main@@Base+0x52c>
  409850:	00408821 	move	s1,v0
  409854:	8e020000 	lw	v0,0(s0)
  409858:	2c420002 	sltiu	v0,v0,2
  40985c:	14400017 	bnez	v0,4098bc <main@@Base+0x2b0>
  409860:	00000000 	nop
  409864:	8f998248 	lw	t9,-32184(gp)
  409868:	0320f809 	jalr	t9
  40986c:	00000000 	nop
  409870:	240708a1 	li	a3,2209
  409874:	8fbc0018 	lw	gp,24(sp)
  409878:	00402821 	move	a1,v0
  40987c:	8f828024 	lw	v0,-32732(gp)
  409880:	8f848024 	lw	a0,-32732(gp)
  409884:	8f868024 	lw	a2,-32732(gp)
  409888:	2442c638 	addiu	v0,v0,-14792
[31m  40988c:	8f9980b4 	lw	t9,printf[0m
  409890:	2484b4d0 	addiu	a0,a0,-19248
  409894:	24c6d5f8 	addiu	a2,a2,-10760
  409898:	0320f809 	jalr	t9
  40989c:	afa20010 	sw	v0,16(sp)
  4098a0:	02202821 	move	a1,s1
  4098a4:	8fbc0018 	lw	gp,24(sp)
  4098a8:	8f848024 	lw	a0,-32732(gp)
[31m  4098ac:	8f9980b4 	lw	t9,printf[0m
  4098b0:	0320f809 	jalr	t9
  4098b4:	2484c514 	addiu	a0,a0,-15084
--
  409a78:	8f9980d0 	lw	t9,-32560(gp)
  409a7c:	8ea40000 	lw	a0,0(s5)
  409a80:	0320f809 	jalr	t9
  409a84:	00000000 	nop
  409a88:	8fbc0018 	lw	gp,24(sp)
  409a8c:	8f838258 	lw	v1,-32168(gp)
  409a90:	1000ff19 	b	4096f8 <main@@Base+0xec>
  409a94:	ac620000 	sw	v0,0(v1)
  409a98:	8f9981ec 	lw	t9,-32276(gp)
  409a9c:	8fa40038 	lw	a0,56(sp)
  409aa0:	8ea50000 	lw	a1,0(s5)
  409aa4:	0320f809 	jalr	t9
  409aa8:	24060010 	li	a2,16
  409aac:	8fbc0018 	lw	gp,24(sp)
  409ab0:	1000ff11 	b	4096f8 <main@@Base+0xec>
  409ab4:	00000000 	nop
  409ab8:	8f99817c 	lw	t9,-32388(gp)
  409abc:	8ea40000 	lw	a0,0(s5)
  409ac0:	0320f809 	jalr	t9
  409ac4:	00000000 	nop
  409ac8:	8fbc0018 	lw	gp,24(sp)
  409acc:	1000ff0a 	b	4096f8 <main@@Base+0xec>
  409ad0:	00000000 	nop
  409ad4:	8f848024 	lw	a0,-32732(gp)
  409ad8:	00402821 	move	a1,v0
[31m  409adc:	8f9980b4 	lw	t9,printf[0m
  409ae0:	0320f809 	jalr	t9
  409ae4:	2484c3f0 	addiu	a0,a0,-15376
--
  409b38:	8f82842c 	lw	v0,-31700(gp)
  409b3c:	8c430000 	lw	v1,0(v0)
  409b40:	24020001 	li	v0,1
  409b44:	10620037 	beq	v1,v0,409c24 <main@@Base+0x618>
  409b48:	00000000 	nop
  409b4c:	8f9980dc 	lw	t9,-32548(gp)
  409b50:	0320f809 	jalr	t9
  409b54:	00000000 	nop
  409b58:	8fbc0018 	lw	gp,24(sp)
  409b5c:	1040002f 	beqz	v0,409c1c <main@@Base+0x610>
  409b60:	00408821 	move	s1,v0
  409b64:	8e020000 	lw	v0,0(s0)
  409b68:	2c420002 	sltiu	v0,v0,2
  409b6c:	14400017 	bnez	v0,409bcc <main@@Base+0x5c0>
  409b70:	00000000 	nop
  409b74:	8f998248 	lw	t9,-32184(gp)
  409b78:	0320f809 	jalr	t9
  409b7c:	00000000 	nop
  409b80:	240708a9 	li	a3,2217
  409b84:	8fbc0018 	lw	gp,24(sp)
  409b88:	00402821 	move	a1,v0
  409b8c:	8f828024 	lw	v0,-32732(gp)
  409b90:	8f848024 	lw	a0,-32732(gp)
  409b94:	8f868024 	lw	a2,-32732(gp)
  409b98:	2442c638 	addiu	v0,v0,-14792
[31m  409b9c:	8f9980b4 	lw	t9,printf[0m
  409ba0:	2484b4d0 	addiu	a0,a0,-19248
  409ba4:	24c6d5f8 	addiu	a2,a2,-10760
  409ba8:	0320f809 	jalr	t9
  409bac:	afa20010 	sw	v0,16(sp)
  409bb0:	02202821 	move	a1,s1
  409bb4:	8fbc0018 	lw	gp,24(sp)
  409bb8:	8f848024 	lw	a0,-32732(gp)
[31m  409bbc:	8f9980b4 	lw	t9,printf[0m
  409bc0:	0320f809 	jalr	t9
  409bc4:	2484c534 	addiu	a0,a0,-15052
--
  409c58:	8f838234 	lw	v1,-32204(gp)
  409c5c:	80620000 	lb	v0,0(v1)
  409c60:	1040fee7 	beqz	v0,409800 <main@@Base+0x1f4>
  409c64:	00000000 	nop
  409c68:	8f99802c 	lw	t9,-32724(gp)
  409c6c:	27398148 	addiu	t9,t9,-32440
  409c70:	0320f809 	jalr	t9
  409c74:	00000000 	nop
  409c78:	8fbc0018 	lw	gp,24(sp)
  409c7c:	1440fee0 	bnez	v0,409800 <main@@Base+0x1f4>
  409c80:	00000000 	nop
  409c84:	8e020000 	lw	v0,0(s0)
  409c88:	2c420002 	sltiu	v0,v0,2
  409c8c:	14400016 	bnez	v0,409ce8 <main@@Base+0x6dc>
  409c90:	00000000 	nop
  409c94:	8f998248 	lw	t9,-32184(gp)
  409c98:	0320f809 	jalr	t9
  409c9c:	00000000 	nop
  409ca0:	24070880 	li	a3,2176
  409ca4:	8fbc0018 	lw	gp,24(sp)
  409ca8:	00402821 	move	a1,v0
  409cac:	8f828024 	lw	v0,-32732(gp)
  409cb0:	8f848024 	lw	a0,-32732(gp)
  409cb4:	8f868024 	lw	a2,-32732(gp)
  409cb8:	2442c638 	addiu	v0,v0,-14792
[31m  409cbc:	8f9980b4 	lw	t9,printf[0m
  409cc0:	2484b4d0 	addiu	a0,a0,-19248
  409cc4:	24c6d5f8 	addiu	a2,a2,-10760
--
  409d5c:	00002021 	move	a0,zero
  409d60:	8f82810c 	lw	v0,-32500(gp)
  409d64:	24040002 	li	a0,2
  409d68:	8f998244 	lw	t9,-32188(gp)
  409d6c:	8f858308 	lw	a1,-31992(gp)
  409d70:	8c470000 	lw	a3,0(v0)
  409d74:	0320f809 	jalr	t9
  409d78:	27a60020 	addiu	a2,sp,32
  409d7c:	8fbc0018 	lw	gp,24(sp)
  409d80:	1000fe9f 	b	409800 <main@@Base+0x1f4>
  409d84:	00000000 	nop
  409d88:	8e020000 	lw	v0,0(s0)
  409d8c:	2c420002 	sltiu	v0,v0,2
  409d90:	14400017 	bnez	v0,409df0 <main@@Base+0x7e4>
  409d94:	00000000 	nop
  409d98:	8f998248 	lw	t9,-32184(gp)
  409d9c:	0320f809 	jalr	t9
  409da0:	00000000 	nop
  409da4:	2407089a 	li	a3,2202
  409da8:	8fbc0018 	lw	gp,24(sp)
  409dac:	00402821 	move	a1,v0
  409db0:	8f828024 	lw	v0,-32732(gp)
  409db4:	8f848024 	lw	a0,-32732(gp)
  409db8:	8f868024 	lw	a2,-32732(gp)
  409dbc:	2442c638 	addiu	v0,v0,-14792
[31m  409dc0:	8f9980b4 	lw	t9,printf[0m
  409dc4:	2484b4d0 	addiu	a0,a0,-19248
  409dc8:	24c6d5f8 	addiu	a2,a2,-10760
  409dcc:	0320f809 	jalr	t9
  409dd0:	afa20010 	sw	v0,16(sp)
  409dd4:	2625c4c8 	addiu	a1,s1,-15160
  409dd8:	8fbc0018 	lw	gp,24(sp)
  409ddc:	8f848024 	lw	a0,-32732(gp)
[31m  409de0:	8f9980b4 	lw	t9,printf[0m
  409de4:	0320f809 	jalr	t9
  409de8:	2484c4dc 	addiu	a0,a0,-15140
--
  409f38:	8e04ed00 	lw	a0,-4864(s0)
  409f3c:	8f9982f0 	lw	t9,-32016(gp)
  409f40:	01494825 	or	t1,t2,t1
  409f44:	8f95812c 	lw	s5,-32468(gp)
  409f48:	24840001 	addiu	a0,a0,1
  409f4c:	ac490008 	sw	t1,8(v0)
  409f50:	afa30020 	sw	v1,32(sp)
  409f54:	afa80024 	sw	t0,36(sp)
  409f58:	0320f809 	jalr	t9
  409f5c:	afb20010 	sw	s2,16(sp)
  409f60:	8ea30000 	lw	v1,0(s5)
  409f64:	8fbc0018 	lw	gp,24(sp)
  409f68:	2c630002 	sltiu	v1,v1,2
  409f6c:	14600017 	bnez	v1,409fcc <read_input@@Base+0x12c>
  409f70:	00408821 	move	s1,v0
  409f74:	8f998248 	lw	t9,-32184(gp)
  409f78:	0320f809 	jalr	t9
  409f7c:	00000000 	nop
  409f80:	2407016a 	li	a3,362
  409f84:	8fbc0018 	lw	gp,24(sp)
  409f88:	00402821 	move	a1,v0
  409f8c:	8f828024 	lw	v0,-32732(gp)
  409f90:	8f848024 	lw	a0,-32732(gp)
  409f94:	8f868024 	lw	a2,-32732(gp)
  409f98:	2442cc60 	addiu	v0,v0,-13216
[31m  409f9c:	8f9980b4 	lw	t9,printf[0m
  409fa0:	2484b4d0 	addiu	a0,a0,-19248
  409fa4:	24c6c7e0 	addiu	a2,a2,-14368
  409fa8:	0320f809 	jalr	t9
  409fac:	afa20010 	sw	v0,16(sp)
  409fb0:	02202821 	move	a1,s1
  409fb4:	8fbc0018 	lw	gp,24(sp)
  409fb8:	8f848024 	lw	a0,-32732(gp)
[31m  409fbc:	8f9980b4 	lw	t9,printf[0m
  409fc0:	0320f809 	jalr	t9
  409fc4:	2484c7e8 	addiu	a0,a0,-14360
--
  40a110:	8fbf00cc 	lw	ra,204(sp)
  40a114:	8fb700c8 	lw	s7,200(sp)
  40a118:	8fb600c4 	lw	s6,196(sp)
  40a11c:	8fb500c0 	lw	s5,192(sp)
  40a120:	8fb400bc 	lw	s4,188(sp)
  40a124:	8fb300b8 	lw	s3,184(sp)
  40a128:	8fb200b4 	lw	s2,180(sp)
  40a12c:	8fb100b0 	lw	s1,176(sp)
  40a130:	8fb000ac 	lw	s0,172(sp)
  40a134:	03e00008 	jr	ra
  40a138:	27bd00d0 	addiu	sp,sp,208
  40a13c:	8ea20000 	lw	v0,0(s5)
  40a140:	2c420002 	sltiu	v0,v0,2
  40a144:	14400016 	bnez	v0,40a1a0 <read_input@@Base+0x300>
  40a148:	00000000 	nop
  40a14c:	8f998248 	lw	t9,-32184(gp)
  40a150:	0320f809 	jalr	t9
  40a154:	00000000 	nop
  40a158:	24070180 	li	a3,384
  40a15c:	8fbc0018 	lw	gp,24(sp)
  40a160:	00402821 	move	a1,v0
  40a164:	8f828024 	lw	v0,-32732(gp)
  40a168:	8f848024 	lw	a0,-32732(gp)
  40a16c:	8f868024 	lw	a2,-32732(gp)
  40a170:	2442cc60 	addiu	v0,v0,-13216
[31m  40a174:	8f9980b4 	lw	t9,printf[0m
  40a178:	2484b4d0 	addiu	a0,a0,-19248
  40a17c:	24c6c7e0 	addiu	a2,a2,-14368
  40a180:	0320f809 	jalr	t9
  40a184:	afa20010 	sw	v0,16(sp)
  40a188:	8fbc0018 	lw	gp,24(sp)
  40a18c:	8f848024 	lw	a0,-32732(gp)
[31m  40a190:	8f9980b4 	lw	t9,printf[0m
  40a194:	0320f809 	jalr	t9
  40a198:	2484c830 	addiu	a0,a0,-14288
--
  40a21c:	8f848024 	lw	a0,-32732(gp)
  40a220:	8f9983e0 	lw	t9,-31776(gp)
  40a224:	0320f809 	jalr	t9
  40a228:	2484c830 	addiu	a0,a0,-14288
  40a22c:	8fbc0018 	lw	gp,24(sp)
  40a230:	8e240000 	lw	a0,0(s1)
  40a234:	8f9981a4 	lw	t9,-32348(gp)
  40a238:	0320f809 	jalr	t9
  40a23c:	00000000 	nop
  40a240:	1000ff96 	b	40a09c <read_input@@Base+0x1fc>
  40a244:	02001021 	move	v0,s0
  40a248:	8ea20000 	lw	v0,0(s5)
  40a24c:	2c420002 	sltiu	v0,v0,2
  40a250:	14400016 	bnez	v0,40a2ac <read_input@@Base+0x40c>
  40a254:	00000000 	nop
  40a258:	8f998248 	lw	t9,-32184(gp)
  40a25c:	0320f809 	jalr	t9
  40a260:	00000000 	nop
  40a264:	24070172 	li	a3,370
  40a268:	8fbc0018 	lw	gp,24(sp)
  40a26c:	00402821 	move	a1,v0
  40a270:	8f828024 	lw	v0,-32732(gp)
  40a274:	8f848024 	lw	a0,-32732(gp)
  40a278:	8f868024 	lw	a2,-32732(gp)
  40a27c:	2442cc60 	addiu	v0,v0,-13216
[31m  40a280:	8f9980b4 	lw	t9,printf[0m
  40a284:	2484b4d0 	addiu	a0,a0,-19248
  40a288:	24c6c7e0 	addiu	a2,a2,-14368
--
  40a2e0:	24c6c7e0 	addiu	a2,a2,-14368
  40a2e4:	24050001 	li	a1,1
  40a2e8:	8fbc0018 	lw	gp,24(sp)
  40a2ec:	24060008 	li	a2,8
  40a2f0:	8e270000 	lw	a3,0(s1)
  40a2f4:	8f848024 	lw	a0,-32732(gp)
  40a2f8:	8f9983e0 	lw	t9,-31776(gp)
  40a2fc:	0320f809 	jalr	t9
  40a300:	2484c808 	addiu	a0,a0,-14328
  40a304:	1000ffc9 	b	40a22c <read_input@@Base+0x38c>
  40a308:	00000000 	nop
  40a30c:	8ea20000 	lw	v0,0(s5)
  40a310:	2c420002 	sltiu	v0,v0,2
  40a314:	14400020 	bnez	v0,40a398 <read_input@@Base+0x4f8>
  40a318:	00000000 	nop
  40a31c:	8f998248 	lw	t9,-32184(gp)
  40a320:	0320f809 	jalr	t9
  40a324:	00000000 	nop
  40a328:	2407016e 	li	a3,366
  40a32c:	8fbc0018 	lw	gp,24(sp)
  40a330:	00402821 	move	a1,v0
  40a334:	8f828024 	lw	v0,-32732(gp)
  40a338:	8f848024 	lw	a0,-32732(gp)
  40a33c:	8f868024 	lw	a2,-32732(gp)
  40a340:	2442cc60 	addiu	v0,v0,-13216
[31m  40a344:	8f9980b4 	lw	t9,printf[0m
  40a348:	2484b4d0 	addiu	a0,a0,-19248
  40a34c:	24c6c7e0 	addiu	a2,a2,-14368
  40a350:	0320f809 	jalr	t9
  40a354:	afa20010 	sw	v0,16(sp)
  40a358:	8fbc0018 	lw	gp,24(sp)
  40a35c:	8f9983ec 	lw	t9,-31764(gp)
  40a360:	0320f809 	jalr	t9
  40a364:	00000000 	nop
  40a368:	8fbc0018 	lw	gp,24(sp)
  40a36c:	8c440000 	lw	a0,0(v0)
  40a370:	8f9980bc 	lw	t9,-32580(gp)
  40a374:	0320f809 	jalr	t9
  40a378:	00000000 	nop
  40a37c:	8fbc0018 	lw	gp,24(sp)
  40a380:	00402821 	move	a1,v0
  40a384:	8f848024 	lw	a0,-32732(gp)
[31m  40a388:	8f9980b4 	lw	t9,printf[0m
  40a38c:	0320f809 	jalr	t9
  40a390:	2484c7f4 	addiu	a0,a0,-14348
--
  40a428:	27bdff38 	addiu	sp,sp,-200
  40a42c:	afbf00c4 	sw	ra,196(sp)
  40a430:	afb600c0 	sw	s6,192(sp)
  40a434:	afb500bc 	sw	s5,188(sp)
  40a438:	afb400b8 	sw	s4,184(sp)
  40a43c:	afb300b4 	sw	s3,180(sp)
  40a440:	afb200b0 	sw	s2,176(sp)
  40a444:	afb100ac 	sw	s1,172(sp)
  40a448:	afb000a8 	sw	s0,168(sp)
  40a44c:	afbc0018 	sw	gp,24(sp)
  40a450:	8f93812c 	lw	s3,-32468(gp)
  40a454:	8e620000 	lw	v0,0(s3)
  40a458:	2c420002 	sltiu	v0,v0,2
  40a45c:	14400017 	bnez	v0,40a4bc <output@@Base+0xa0>
  40a460:	0080a821 	move	s5,a0
  40a464:	8f998248 	lw	t9,-32184(gp)
  40a468:	0320f809 	jalr	t9
  40a46c:	00000000 	nop
  40a470:	24070137 	li	a3,311
  40a474:	8fbc0018 	lw	gp,24(sp)
  40a478:	00402821 	move	a1,v0
  40a47c:	8f828024 	lw	v0,-32732(gp)
  40a480:	8f848024 	lw	a0,-32732(gp)
  40a484:	8f868024 	lw	a2,-32732(gp)
  40a488:	2442cc6c 	addiu	v0,v0,-13204
[31m  40a48c:	8f9980b4 	lw	t9,printf[0m
  40a490:	2484b4d0 	addiu	a0,a0,-19248
  40a494:	24c6c7e0 	addiu	a2,a2,-14368
  40a498:	0320f809 	jalr	t9
  40a49c:	afa20010 	sw	v0,16(sp)
  40a4a0:	02a02821 	move	a1,s5
  40a4a4:	8fbc0018 	lw	gp,24(sp)
  40a4a8:	8f848024 	lw	a0,-32732(gp)
[31m  40a4ac:	8f9980b4 	lw	t9,printf[0m
  40a4b0:	0320f809 	jalr	t9
  40a4b4:	2484c84c 	addiu	a0,a0,-14260
--
  40a574:	8c4a0008 	lw	t2,8(v0)
  40a578:	8e24ed00 	lw	a0,-4864(s1)
  40a57c:	8f9982f0 	lw	t9,-32016(gp)
  40a580:	01494825 	or	t1,t2,t1
  40a584:	ac490008 	sw	t1,8(v0)
  40a588:	24840001 	addiu	a0,a0,1
  40a58c:	afa30020 	sw	v1,32(sp)
  40a590:	afa80024 	sw	t0,36(sp)
  40a594:	0320f809 	jalr	t9
  40a598:	afb40010 	sw	s4,16(sp)
  40a59c:	8e630000 	lw	v1,0(s3)
  40a5a0:	8fbc0018 	lw	gp,24(sp)
  40a5a4:	2c630002 	sltiu	v1,v1,2
  40a5a8:	14600017 	bnez	v1,40a608 <output@@Base+0x1ec>
  40a5ac:	00409021 	move	s2,v0
  40a5b0:	8f998248 	lw	t9,-32184(gp)
  40a5b4:	0320f809 	jalr	t9
  40a5b8:	00000000 	nop
  40a5bc:	24070140 	li	a3,320
  40a5c0:	8fbc0018 	lw	gp,24(sp)
  40a5c4:	00402821 	move	a1,v0
  40a5c8:	8f828024 	lw	v0,-32732(gp)
  40a5cc:	8f848024 	lw	a0,-32732(gp)
  40a5d0:	8f868024 	lw	a2,-32732(gp)
  40a5d4:	2442cc6c 	addiu	v0,v0,-13204
[31m  40a5d8:	8f9980b4 	lw	t9,printf[0m
  40a5dc:	2484b4d0 	addiu	a0,a0,-19248
  40a5e0:	24c6c7e0 	addiu	a2,a2,-14368
  40a5e4:	0320f809 	jalr	t9
  40a5e8:	afa20010 	sw	v0,16(sp)
  40a5ec:	02402821 	move	a1,s2
  40a5f0:	8fbc0018 	lw	gp,24(sp)
  40a5f4:	8f848024 	lw	a0,-32732(gp)
[31m  40a5f8:	8f9980b4 	lw	t9,printf[0m
  40a5fc:	0320f809 	jalr	t9
  40a600:	2484c7e8 	addiu	a0,a0,-14360
--
  40a680:	00000000 	nop
  40a684:	8e23ed00 	lw	v1,-4864(s1)
  40a688:	8e22ed00 	lw	v0,-4864(s1)
  40a68c:	00031942 	srl	v1,v1,0x5
  40a690:	00031880 	sll	v1,v1,0x2
  40a694:	0283a021 	addu	s4,s4,v1
  40a698:	8e830008 	lw	v1,8(s4)
  40a69c:	00431007 	srav	v0,v1,v0
  40a6a0:	30420001 	andi	v0,v0,0x1
  40a6a4:	144000b1 	bnez	v0,40a96c <output@@Base+0x550>
  40a6a8:	02a02021 	move	a0,s5
  40a6ac:	8e620000 	lw	v0,0(s3)
  40a6b0:	2c420002 	sltiu	v0,v0,2
  40a6b4:	14400016 	bnez	v0,40a710 <output@@Base+0x2f4>
  40a6b8:	00000000 	nop
  40a6bc:	8f998248 	lw	t9,-32184(gp)
  40a6c0:	0320f809 	jalr	t9
  40a6c4:	00000000 	nop
  40a6c8:	24070156 	li	a3,342
  40a6cc:	8fbc0018 	lw	gp,24(sp)
  40a6d0:	00402821 	move	a1,v0
  40a6d4:	8f828024 	lw	v0,-32732(gp)
  40a6d8:	8f848024 	lw	a0,-32732(gp)
  40a6dc:	8f868024 	lw	a2,-32732(gp)
  40a6e0:	2442cc6c 	addiu	v0,v0,-13204
[31m  40a6e4:	8f9980b4 	lw	t9,printf[0m
  40a6e8:	2484b4d0 	addiu	a0,a0,-19248
  40a6ec:	24c6c7e0 	addiu	a2,a2,-14368
  40a6f0:	0320f809 	jalr	t9
  40a6f4:	afa20010 	sw	v0,16(sp)
  40a6f8:	8fbc0018 	lw	gp,24(sp)
  40a6fc:	8f848024 	lw	a0,-32732(gp)
[31m  40a700:	8f9980b4 	lw	t9,printf[0m
  40a704:	0320f809 	jalr	t9
  40a708:	2484c830 	addiu	a0,a0,-14288
--
  40a740:	24c6c7e0 	addiu	a2,a2,-14368
  40a744:	24050001 	li	a1,1
  40a748:	8fbc0018 	lw	gp,24(sp)
  40a74c:	24060018 	li	a2,24
  40a750:	8e070000 	lw	a3,0(s0)
  40a754:	8f848024 	lw	a0,-32732(gp)
  40a758:	8f9983e0 	lw	t9,-31776(gp)
  40a75c:	0320f809 	jalr	t9
  40a760:	2484c830 	addiu	a0,a0,-14288
  40a764:	1000002f 	b	40a824 <output@@Base+0x408>
  40a768:	00000000 	nop
  40a76c:	8e620000 	lw	v0,0(s3)
  40a770:	2c420002 	sltiu	v0,v0,2
  40a774:	14400016 	bnez	v0,40a7d0 <output@@Base+0x3b4>
  40a778:	00000000 	nop
  40a77c:	8f998248 	lw	t9,-32184(gp)
  40a780:	0320f809 	jalr	t9
  40a784:	00000000 	nop
  40a788:	24070148 	li	a3,328
  40a78c:	8fbc0018 	lw	gp,24(sp)
  40a790:	00402821 	move	a1,v0
  40a794:	8f828024 	lw	v0,-32732(gp)
  40a798:	8f848024 	lw	a0,-32732(gp)
  40a79c:	8f868024 	lw	a2,-32732(gp)
  40a7a0:	2442cc6c 	addiu	v0,v0,-13204
[31m  40a7a4:	8f9980b4 	lw	t9,printf[0m
  40a7a8:	2484b4d0 	addiu	a0,a0,-19248
  40a7ac:	24c6c7e0 	addiu	a2,a2,-14368
--
  40a834:	00000000 	nop
  40a838:	8fbf00c4 	lw	ra,196(sp)
  40a83c:	8fb600c0 	lw	s6,192(sp)
  40a840:	8fb500bc 	lw	s5,188(sp)
  40a844:	8fb400b8 	lw	s4,184(sp)
  40a848:	8fb300b4 	lw	s3,180(sp)
  40a84c:	8fb200b0 	lw	s2,176(sp)
  40a850:	8fb100ac 	lw	s1,172(sp)
  40a854:	8fb000a8 	lw	s0,168(sp)
  40a858:	03e00008 	jr	ra
  40a85c:	27bd00c8 	addiu	sp,sp,200
  40a860:	8e620000 	lw	v0,0(s3)
  40a864:	2c420002 	sltiu	v0,v0,2
  40a868:	14400020 	bnez	v0,40a8ec <output@@Base+0x4d0>
  40a86c:	00000000 	nop
  40a870:	8f998248 	lw	t9,-32184(gp)
  40a874:	0320f809 	jalr	t9
  40a878:	00000000 	nop
  40a87c:	24070144 	li	a3,324
  40a880:	8fbc0018 	lw	gp,24(sp)
  40a884:	00402821 	move	a1,v0
  40a888:	8f828024 	lw	v0,-32732(gp)
  40a88c:	8f848024 	lw	a0,-32732(gp)
  40a890:	8f868024 	lw	a2,-32732(gp)
  40a894:	2442cc6c 	addiu	v0,v0,-13204
[31m  40a898:	8f9980b4 	lw	t9,printf[0m
  40a89c:	2484b4d0 	addiu	a0,a0,-19248
  40a8a0:	24c6c7e0 	addiu	a2,a2,-14368
  40a8a4:	0320f809 	jalr	t9
  40a8a8:	afa20010 	sw	v0,16(sp)
  40a8ac:	8fbc0018 	lw	gp,24(sp)
  40a8b0:	8f9983ec 	lw	t9,-31764(gp)
  40a8b4:	0320f809 	jalr	t9
  40a8b8:	00000000 	nop
  40a8bc:	8fbc0018 	lw	gp,24(sp)
  40a8c0:	8c440000 	lw	a0,0(v0)
  40a8c4:	8f9980bc 	lw	t9,-32580(gp)
  40a8c8:	0320f809 	jalr	t9
  40a8cc:	00000000 	nop
  40a8d0:	8fbc0018 	lw	gp,24(sp)
  40a8d4:	00402821 	move	a1,v0
  40a8d8:	8f848024 	lw	a0,-32732(gp)
[31m  40a8dc:	8f9980b4 	lw	t9,printf[0m
  40a8e0:	0320f809 	jalr	t9
  40a8e4:	2484c7f4 	addiu	a0,a0,-14348
--
  40a97c:	00000000 	nop
  40a980:	02a02821 	move	a1,s5
  40a984:	00003821 	move	a3,zero
  40a988:	8fbc0018 	lw	gp,24(sp)
  40a98c:	02202021 	move	a0,s1
  40a990:	8f998398 	lw	t9,-31848(gp)
  40a994:	0320f809 	jalr	t9
  40a998:	00403021 	move	a2,v0
  40a99c:	8fbc0018 	lw	gp,24(sp)
  40a9a0:	1456ffa5 	bne	v0,s6,40a838 <output@@Base+0x41c>
  40a9a4:	00000000 	nop
  40a9a8:	8e620000 	lw	v0,0(s3)
  40a9ac:	2c420002 	sltiu	v0,v0,2
  40a9b0:	14400020 	bnez	v0,40aa34 <output@@Base+0x618>
  40a9b4:	00000000 	nop
  40a9b8:	8f998248 	lw	t9,-32184(gp)
  40a9bc:	0320f809 	jalr	t9
  40a9c0:	00000000 	nop
  40a9c4:	24070151 	li	a3,337
  40a9c8:	8fbc0018 	lw	gp,24(sp)
  40a9cc:	00402821 	move	a1,v0
  40a9d0:	8f828024 	lw	v0,-32732(gp)
  40a9d4:	8f848024 	lw	a0,-32732(gp)
  40a9d8:	8f868024 	lw	a2,-32732(gp)
  40a9dc:	2442cc6c 	addiu	v0,v0,-13204
[31m  40a9e0:	8f9980b4 	lw	t9,printf[0m
  40a9e4:	2484b4d0 	addiu	a0,a0,-19248
  40a9e8:	24c6c7e0 	addiu	a2,a2,-14368
  40a9ec:	0320f809 	jalr	t9
  40a9f0:	afa20010 	sw	v0,16(sp)
  40a9f4:	8fbc0018 	lw	gp,24(sp)
  40a9f8:	8f9983ec 	lw	t9,-31764(gp)
  40a9fc:	0320f809 	jalr	t9
  40aa00:	00000000 	nop
  40aa04:	8fbc0018 	lw	gp,24(sp)
  40aa08:	8c440000 	lw	a0,0(v0)
  40aa0c:	8f9980bc 	lw	t9,-32580(gp)
  40aa10:	0320f809 	jalr	t9
  40aa14:	00000000 	nop
  40aa18:	8fbc0018 	lw	gp,24(sp)
  40aa1c:	00402821 	move	a1,v0
  40aa20:	8f848024 	lw	a0,-32732(gp)
[31m  40aa24:	8f9980b4 	lw	t9,printf[0m
  40aa28:	0320f809 	jalr	t9
  40aa2c:	2484c858 	addiu	a0,a0,-14248
--
  40aac4:	afbf0054 	sw	ra,84(sp)
  40aac8:	afb50050 	sw	s5,80(sp)
  40aacc:	afb4004c 	sw	s4,76(sp)
  40aad0:	afb30048 	sw	s3,72(sp)
  40aad4:	afb20044 	sw	s2,68(sp)
  40aad8:	afb10040 	sw	s1,64(sp)
  40aadc:	afb0003c 	sw	s0,60(sp)
  40aae0:	afbc0018 	sw	gp,24(sp)
  40aae4:	8f93812c 	lw	s3,-32468(gp)
  40aae8:	0080a021 	move	s4,a0
  40aaec:	00a08021 	move	s0,a1
  40aaf0:	8e620000 	lw	v0,0(s3)
  40aaf4:	2c420002 	sltiu	v0,v0,2
  40aaf8:	14400018 	bnez	v0,40ab5c <do_connect@@Base+0xa8>
  40aafc:	30d2ffff 	andi	s2,a2,0xffff
  40ab00:	8f998248 	lw	t9,-32184(gp)
  40ab04:	0320f809 	jalr	t9
  40ab08:	00000000 	nop
  40ab0c:	240700ff 	li	a3,255
  40ab10:	8fbc0018 	lw	gp,24(sp)
  40ab14:	00402821 	move	a1,v0
  40ab18:	8f828024 	lw	v0,-32732(gp)
  40ab1c:	8f848024 	lw	a0,-32732(gp)
  40ab20:	8f868024 	lw	a2,-32732(gp)
  40ab24:	2442cc74 	addiu	v0,v0,-13196
[31m  40ab28:	8f9980b4 	lw	t9,printf[0m
  40ab2c:	2484b4d0 	addiu	a0,a0,-19248
  40ab30:	24c6c7e0 	addiu	a2,a2,-14368
  40ab34:	0320f809 	jalr	t9
  40ab38:	afa20010 	sw	v0,16(sp)
  40ab3c:	02002821 	move	a1,s0
  40ab40:	8fbc0018 	lw	gp,24(sp)
  40ab44:	02403021 	move	a2,s2
  40ab48:	8f848024 	lw	a0,-32732(gp)
[31m  40ab4c:	8f9980b4 	lw	t9,printf[0m
  40ab50:	0320f809 	jalr	t9
  40ab54:	2484c878 	addiu	a0,a0,-14216
--
  40ac64:	8c420008 	lw	v0,8(v0)
  40ac68:	a7a2002a 	sh	v0,42(sp)
  40ac6c:	8f9983c0 	lw	t9,-31808(gp)
  40ac70:	27a50028 	addiu	a1,sp,40
  40ac74:	8e840000 	lw	a0,0(s4)
  40ac78:	0320f809 	jalr	t9
  40ac7c:	24060010 	li	a2,16
  40ac80:	2403ffff 	li	v1,-1
  40ac84:	8fbc0018 	lw	gp,24(sp)
  40ac88:	1043008d 	beq	v0,v1,40aec0 <do_connect@@Base+0x40c>
  40ac8c:	00000000 	nop
  40ac90:	8e620000 	lw	v0,0(s3)
  40ac94:	2c420002 	sltiu	v0,v0,2
  40ac98:	1440001a 	bnez	v0,40ad04 <do_connect@@Base+0x250>
  40ac9c:	00000000 	nop
  40aca0:	8f998248 	lw	t9,-32184(gp)
  40aca4:	0320f809 	jalr	t9
  40aca8:	00000000 	nop
  40acac:	2407012b 	li	a3,299
  40acb0:	8fbc0018 	lw	gp,24(sp)
  40acb4:	00402821 	move	a1,v0
  40acb8:	8f828024 	lw	v0,-32732(gp)
  40acbc:	8f848024 	lw	a0,-32732(gp)
  40acc0:	8f868024 	lw	a2,-32732(gp)
  40acc4:	2442cc74 	addiu	v0,v0,-13196
[31m  40acc8:	8f9980b4 	lw	t9,printf[0m
  40accc:	2484b4d0 	addiu	a0,a0,-19248
  40acd0:	24c6c7e0 	addiu	a2,a2,-14368
  40acd4:	0320f809 	jalr	t9
  40acd8:	afa20010 	sw	v0,16(sp)
  40acdc:	02002821 	move	a1,s0
  40ace0:	8fbc0018 	lw	gp,24(sp)
  40ace4:	97a7002a 	lhu	a3,42(sp)
  40ace8:	8f848024 	lw	a0,-32732(gp)
  40acec:	8f868024 	lw	a2,-32732(gp)
[31m  40acf0:	8f9980b4 	lw	t9,printf[0m
  40acf4:	2484c8d4 	addiu	a0,a0,-14124
  40acf8:	0320f809 	jalr	t9
--
  40ada4:	00001021 	move	v0,zero
  40ada8:	8fb50050 	lw	s5,80(sp)
  40adac:	8fb4004c 	lw	s4,76(sp)
  40adb0:	8fb30048 	lw	s3,72(sp)
  40adb4:	8fb20044 	lw	s2,68(sp)
  40adb8:	8fb10040 	lw	s1,64(sp)
  40adbc:	8fb0003c 	lw	s0,60(sp)
  40adc0:	03e00008 	jr	ra
  40adc4:	27bd0058 	addiu	sp,sp,88
  40adc8:	1000ffa8 	b	40ac6c <do_connect@@Base+0x1b8>
  40adcc:	a7b2002a 	sh	s2,42(sp)
  40add0:	8e620000 	lw	v0,0(s3)
  40add4:	2c420002 	sltiu	v0,v0,2
  40add8:	14400018 	bnez	v0,40ae3c <do_connect@@Base+0x388>
  40addc:	00000000 	nop
  40ade0:	8f998248 	lw	t9,-32184(gp)
  40ade4:	0320f809 	jalr	t9
  40ade8:	00000000 	nop
  40adec:	24070104 	li	a3,260
  40adf0:	8fbc0018 	lw	gp,24(sp)
  40adf4:	00402821 	move	a1,v0
  40adf8:	8f828024 	lw	v0,-32732(gp)
  40adfc:	8f848024 	lw	a0,-32732(gp)
  40ae00:	8f868024 	lw	a2,-32732(gp)
  40ae04:	2442cc74 	addiu	v0,v0,-13196
[31m  40ae08:	8f9980b4 	lw	t9,printf[0m
  40ae0c:	2484b4d0 	addiu	a0,a0,-19248
  40ae10:	24c6c7e0 	addiu	a2,a2,-14368
  40ae14:	0320f809 	jalr	t9
  40ae18:	afa20010 	sw	v0,16(sp)
  40ae1c:	24050002 	li	a1,2
  40ae20:	8fbc0018 	lw	gp,24(sp)
  40ae24:	24060002 	li	a2,2
  40ae28:	8f848024 	lw	a0,-32732(gp)
[31m  40ae2c:	8f9980b4 	lw	t9,printf[0m
  40ae30:	0320f809 	jalr	t9
  40ae34:	2484c88c 	addiu	a0,a0,-14196
--
  40ae94:	8e040000 	lw	a0,0(s0)
  40ae98:	8f9981a4 	lw	t9,-32348(gp)
  40ae9c:	0320f809 	jalr	t9
  40aea0:	00000000 	nop
  40aea4:	8fbc0018 	lw	gp,24(sp)
  40aea8:	8f848024 	lw	a0,-32732(gp)
  40aeac:	8f998180 	lw	t9,-32384(gp)
  40aeb0:	0320f809 	jalr	t9
  40aeb4:	2484c8a0 	addiu	a0,a0,-14176
  40aeb8:	1000ffb0 	b	40ad7c <do_connect@@Base+0x2c8>
  40aebc:	2402ffff 	li	v0,-1
  40aec0:	8e620000 	lw	v0,0(s3)
  40aec4:	2c420002 	sltiu	v0,v0,2
  40aec8:	14400018 	bnez	v0,40af2c <do_connect@@Base+0x478>
  40aecc:	00000000 	nop
  40aed0:	8f998248 	lw	t9,-32184(gp)
  40aed4:	0320f809 	jalr	t9
  40aed8:	00000000 	nop
  40aedc:	24070125 	li	a3,293
  40aee0:	8fbc0018 	lw	gp,24(sp)
  40aee4:	00402821 	move	a1,v0
  40aee8:	8f828024 	lw	v0,-32732(gp)
  40aeec:	8f848024 	lw	a0,-32732(gp)
  40aef0:	8f868024 	lw	a2,-32732(gp)
  40aef4:	2442cc74 	addiu	v0,v0,-13196
[31m  40aef8:	8f9980b4 	lw	t9,printf[0m
  40aefc:	2484b4d0 	addiu	a0,a0,-19248
  40af00:	24c6c7e0 	addiu	a2,a2,-14368
  40af04:	0320f809 	jalr	t9
  40af08:	afa20010 	sw	v0,16(sp)
  40af0c:	02002821 	move	a1,s0
  40af10:	8fbc0018 	lw	gp,24(sp)
  40af14:	02403021 	move	a2,s2
  40af18:	8f848024 	lw	a0,-32732(gp)
[31m  40af1c:	8f9980b4 	lw	t9,printf[0m
  40af20:	0320f809 	jalr	t9
  40af24:	2484c8bc 	addiu	a0,a0,-14148
--
  40b224:	96060000 	lhu	a2,0(s0)
  40b228:	8f828018 	lw	v0,-32744(gp)
  40b22c:	8f998130 	lw	t9,-32464(gp)
  40b230:	8f858254 	lw	a1,-32172(gp)
  40b234:	2444ed00 	addiu	a0,v0,-4864
  40b238:	0320f809 	jalr	t9
  40b23c:	a3a0102b 	sb	zero,4139(sp)
  40b240:	8fbc0020 	lw	gp,32(sp)
  40b244:	10400044 	beqz	v0,40b358 <update_entry@@Base+0x1b0>
  40b248:	00000000 	nop
  40b24c:	8f82812c 	lw	v0,-32468(gp)
  40b250:	8c420000 	lw	v0,0(v0)
  40b254:	2c420002 	sltiu	v0,v0,2
  40b258:	14400018 	bnez	v0,40b2bc <update_entry@@Base+0x114>
  40b25c:	00000000 	nop
  40b260:	8f998248 	lw	t9,-32184(gp)
  40b264:	0320f809 	jalr	t9
  40b268:	00000000 	nop
  40b26c:	24070060 	li	a3,96
  40b270:	8fbc0020 	lw	gp,32(sp)
  40b274:	00402821 	move	a1,v0
  40b278:	8f828024 	lw	v0,-32732(gp)
  40b27c:	8f848024 	lw	a0,-32732(gp)
  40b280:	8f868024 	lw	a2,-32732(gp)
  40b284:	2442ccc4 	addiu	v0,v0,-13116
[31m  40b288:	8f9980b4 	lw	t9,printf[0m
  40b28c:	2484b4d0 	addiu	a0,a0,-19248
  40b290:	24c6c7e0 	addiu	a2,a2,-14368
  40b294:	0320f809 	jalr	t9
  40b298:	afa20010 	sw	v0,16(sp)
  40b29c:	8fbc0020 	lw	gp,32(sp)
  40b2a0:	96060000 	lhu	a2,0(s0)
  40b2a4:	8f848024 	lw	a0,-32732(gp)
[31m  40b2a8:	8f9980b4 	lw	t9,printf[0m
  40b2ac:	8f858254 	lw	a1,-32172(gp)
  40b2b0:	0320f809 	jalr	t9
--
  40b330:	8fb7104c 	lw	s7,4172(sp)
  40b334:	8fb61048 	lw	s6,4168(sp)
  40b338:	8fb51044 	lw	s5,4164(sp)
  40b33c:	8fb41040 	lw	s4,4160(sp)
  40b340:	8fb3103c 	lw	s3,4156(sp)
  40b344:	8fb21038 	lw	s2,4152(sp)
  40b348:	8fb11034 	lw	s1,4148(sp)
  40b34c:	8fb01030 	lw	s0,4144(sp)
  40b350:	03e00008 	jr	ra
  40b354:	27bd1058 	addiu	sp,sp,4184
  40b358:	8f94812c 	lw	s4,-32468(gp)
  40b35c:	8e820000 	lw	v0,0(s4)
  40b360:	2c420002 	sltiu	v0,v0,2
  40b364:	144002f1 	bnez	v0,40bf2c <update_entry@@Base+0xd84>
  40b368:	27b11098 	addiu	s1,sp,4248
  40b36c:	8f998248 	lw	t9,-32184(gp)
  40b370:	0320f809 	jalr	t9
  40b374:	27b010a8 	addiu	s0,sp,4264
  40b378:	24070064 	li	a3,100
  40b37c:	8fbc0020 	lw	gp,32(sp)
  40b380:	00402821 	move	a1,v0
  40b384:	8f828024 	lw	v0,-32732(gp)
  40b388:	8f848024 	lw	a0,-32732(gp)
  40b38c:	8f868024 	lw	a2,-32732(gp)
  40b390:	2442ccc4 	addiu	v0,v0,-13116
[31m  40b394:	8f9980b4 	lw	t9,printf[0m
  40b398:	2484b4d0 	addiu	a0,a0,-19248
  40b39c:	24c6c7e0 	addiu	a2,a2,-14368
  40b3a0:	0320f809 	jalr	t9
  40b3a4:	afa20010 	sw	v0,16(sp)
  40b3a8:	02202821 	move	a1,s1
  40b3ac:	8fbc0020 	lw	gp,32(sp)
  40b3b0:	02003021 	move	a2,s0
  40b3b4:	8f848024 	lw	a0,-32732(gp)
[31m  40b3b8:	8f9980b4 	lw	t9,printf[0m
  40b3bc:	0320f809 	jalr	t9
  40b3c0:	2484c930 	addiu	a0,a0,-14032
--
  40b440:	02003821 	move	a3,s0
  40b444:	8f848170 	lw	a0,-32400(gp)
  40b448:	0320f809 	jalr	t9
  40b44c:	24a5c94c 	addiu	a1,a1,-14004
  40b450:	8fbc0020 	lw	gp,32(sp)
  40b454:	8f9982a4 	lw	t9,-32092(gp)
  40b458:	8f848170 	lw	a0,-32400(gp)
  40b45c:	8f85826c 	lw	a1,-32148(gp)
  40b460:	0320f809 	jalr	t9
  40b464:	00000000 	nop
  40b468:	8e820000 	lw	v0,0(s4)
  40b46c:	8fbc0020 	lw	gp,32(sp)
  40b470:	2c420002 	sltiu	v0,v0,2
  40b474:	14400017 	bnez	v0,40b4d4 <update_entry@@Base+0x32c>
  40b478:	00000000 	nop
  40b47c:	8f998248 	lw	t9,-32184(gp)
  40b480:	0320f809 	jalr	t9
  40b484:	00000000 	nop
  40b488:	24070068 	li	a3,104
  40b48c:	8fbc0020 	lw	gp,32(sp)
  40b490:	00402821 	move	a1,v0
  40b494:	8f828024 	lw	v0,-32732(gp)
  40b498:	8f848024 	lw	a0,-32732(gp)
  40b49c:	8f868024 	lw	a2,-32732(gp)
  40b4a0:	2442ccc4 	addiu	v0,v0,-13116
[31m  40b4a4:	8f9980b4 	lw	t9,printf[0m
  40b4a8:	2484b4d0 	addiu	a0,a0,-19248
  40b4ac:	24c6c7e0 	addiu	a2,a2,-14368
  40b4b0:	0320f809 	jalr	t9
  40b4b4:	afa20010 	sw	v0,16(sp)
  40b4b8:	8fbc0020 	lw	gp,32(sp)
  40b4bc:	8f848024 	lw	a0,-32732(gp)
[31m  40b4c0:	8f9980b4 	lw	t9,printf[0m
  40b4c4:	8f85826c 	lw	a1,-32148(gp)
  40b4c8:	0320f809 	jalr	t9
--
  40b5ec:	8f878024 	lw	a3,-32732(gp)
  40b5f0:	24050fff 	li	a1,4095
  40b5f4:	8f998310 	lw	t9,-31984(gp)
  40b5f8:	24c6c984 	addiu	a2,a2,-13948
  40b5fc:	afa20014 	sw	v0,20(sp)
  40b600:	24e7c9d8 	addiu	a3,a3,-13864
  40b604:	afb50010 	sw	s5,16(sp)
  40b608:	afb10018 	sw	s1,24(sp)
  40b60c:	0320f809 	jalr	t9
  40b610:	afb0001c 	sw	s0,28(sp)
  40b614:	8e820000 	lw	v0,0(s4)
  40b618:	8fbc0020 	lw	gp,32(sp)
  40b61c:	2c420002 	sltiu	v0,v0,2
  40b620:	14400018 	bnez	v0,40b684 <update_entry@@Base+0x4dc>
  40b624:	00000000 	nop
  40b628:	8f998248 	lw	t9,-32184(gp)
  40b62c:	0320f809 	jalr	t9
  40b630:	00000000 	nop
  40b634:	24070076 	li	a3,118
  40b638:	8fbc0020 	lw	gp,32(sp)
  40b63c:	00402821 	move	a1,v0
  40b640:	8f828024 	lw	v0,-32732(gp)
  40b644:	8f848024 	lw	a0,-32732(gp)
  40b648:	8f868024 	lw	a2,-32732(gp)
  40b64c:	2442ccc4 	addiu	v0,v0,-13116
[31m  40b650:	8f9980b4 	lw	t9,printf[0m
  40b654:	2484b4d0 	addiu	a0,a0,-19248
  40b658:	24c6c7e0 	addiu	a2,a2,-14368
  40b65c:	0320f809 	jalr	t9
  40b660:	afa20010 	sw	v0,16(sp)
  40b664:	24050fff 	li	a1,4095
  40b668:	02403021 	move	a2,s2
  40b66c:	8fbc0020 	lw	gp,32(sp)
  40b670:	8f848024 	lw	a0,-32732(gp)
[31m  40b674:	8f9980b4 	lw	t9,printf[0m
  40b678:	0320f809 	jalr	t9
  40b67c:	2484c9f0 	addiu	a0,a0,-13840
--
  40b6f0:	8f998104 	lw	t9,-32508(gp)
  40b6f4:	0320f809 	jalr	t9
  40b6f8:	02402021 	move	a0,s2
  40b6fc:	02402021 	move	a0,s2
  40b700:	24050fff 	li	a1,4095
  40b704:	8fbc0020 	lw	gp,32(sp)
  40b708:	8f868024 	lw	a2,-32732(gp)
  40b70c:	8f998310 	lw	t9,-31984(gp)
  40b710:	0320f809 	jalr	t9
  40b714:	24c6ca0c 	addiu	a2,a2,-13812
  40b718:	8e820000 	lw	v0,0(s4)
  40b71c:	8fbc0020 	lw	gp,32(sp)
  40b720:	2c420002 	sltiu	v0,v0,2
  40b724:	14400017 	bnez	v0,40b784 <update_entry@@Base+0x5dc>
  40b728:	00000000 	nop
  40b72c:	8f998248 	lw	t9,-32184(gp)
  40b730:	0320f809 	jalr	t9
  40b734:	00000000 	nop
  40b738:	24070079 	li	a3,121
  40b73c:	8fbc0020 	lw	gp,32(sp)
  40b740:	00402821 	move	a1,v0
  40b744:	8f828024 	lw	v0,-32732(gp)
  40b748:	8f848024 	lw	a0,-32732(gp)
  40b74c:	8f868024 	lw	a2,-32732(gp)
  40b750:	2442ccc4 	addiu	v0,v0,-13116
[31m  40b754:	8f9980b4 	lw	t9,printf[0m
  40b758:	2484b4d0 	addiu	a0,a0,-19248
  40b75c:	24c6c7e0 	addiu	a2,a2,-14368
  40b760:	0320f809 	jalr	t9
  40b764:	afa20010 	sw	v0,16(sp)
  40b768:	02402821 	move	a1,s2
  40b76c:	8fbc0020 	lw	gp,32(sp)
  40b770:	8f848024 	lw	a0,-32732(gp)
[31m  40b774:	8f9980b4 	lw	t9,printf[0m
  40b778:	0320f809 	jalr	t9
  40b77c:	2484ca00 	addiu	a0,a0,-13824
--
  40b7f0:	0320f809 	jalr	t9
  40b7f4:	02402021 	move	a0,s2
  40b7f8:	02402021 	move	a0,s2
  40b7fc:	24050fff 	li	a1,4095
  40b800:	8fbc0020 	lw	gp,32(sp)
  40b804:	8f868024 	lw	a2,-32732(gp)
  40b808:	8f998310 	lw	t9,-31984(gp)
  40b80c:	8f87826c 	lw	a3,-32148(gp)
  40b810:	0320f809 	jalr	t9
  40b814:	24c6ca18 	addiu	a2,a2,-13800
  40b818:	8e820000 	lw	v0,0(s4)
  40b81c:	8fbc0020 	lw	gp,32(sp)
  40b820:	2c420002 	sltiu	v0,v0,2
  40b824:	14400017 	bnez	v0,40b884 <update_entry@@Base+0x6dc>
  40b828:	00000000 	nop
  40b82c:	8f998248 	lw	t9,-32184(gp)
  40b830:	0320f809 	jalr	t9
  40b834:	00000000 	nop
  40b838:	2407007c 	li	a3,124
  40b83c:	8fbc0020 	lw	gp,32(sp)
  40b840:	00402821 	move	a1,v0
  40b844:	8f828024 	lw	v0,-32732(gp)
  40b848:	8f848024 	lw	a0,-32732(gp)
  40b84c:	8f868024 	lw	a2,-32732(gp)
  40b850:	2442ccc4 	addiu	v0,v0,-13116
[31m  40b854:	8f9980b4 	lw	t9,printf[0m
  40b858:	2484b4d0 	addiu	a0,a0,-19248
  40b85c:	24c6c7e0 	addiu	a2,a2,-14368
  40b860:	0320f809 	jalr	t9
  40b864:	afa20010 	sw	v0,16(sp)
  40b868:	02402821 	move	a1,s2
  40b86c:	8fbc0020 	lw	gp,32(sp)
  40b870:	8f848024 	lw	a0,-32732(gp)
[31m  40b874:	8f9980b4 	lw	t9,printf[0m
  40b878:	0320f809 	jalr	t9
  40b87c:	2484ca00 	addiu	a0,a0,-13824
--
  40b91c:	8f868024 	lw	a2,-32732(gp)
  40b920:	8f878024 	lw	a3,-32732(gp)
  40b924:	2463ca6c 	addiu	v1,v1,-13716
  40b928:	8f998310 	lw	t9,-31984(gp)
  40b92c:	24c6ca34 	addiu	a2,a2,-13772
  40b930:	24e7ca58 	addiu	a3,a3,-13736
  40b934:	afa20018 	sw	v0,24(sp)
  40b938:	afa3001c 	sw	v1,28(sp)
  40b93c:	0320f809 	jalr	t9
  40b940:	afa20014 	sw	v0,20(sp)
  40b944:	8e820000 	lw	v0,0(s4)
  40b948:	8fbc0020 	lw	gp,32(sp)
  40b94c:	2c420002 	sltiu	v0,v0,2
  40b950:	14400017 	bnez	v0,40b9b0 <update_entry@@Base+0x808>
  40b954:	00000000 	nop
  40b958:	8f998248 	lw	t9,-32184(gp)
  40b95c:	0320f809 	jalr	t9
  40b960:	00000000 	nop
  40b964:	24070080 	li	a3,128
  40b968:	8fbc0020 	lw	gp,32(sp)
  40b96c:	00402821 	move	a1,v0
  40b970:	8f828024 	lw	v0,-32732(gp)
  40b974:	8f848024 	lw	a0,-32732(gp)
  40b978:	8f868024 	lw	a2,-32732(gp)
  40b97c:	2442ccc4 	addiu	v0,v0,-13116
[31m  40b980:	8f9980b4 	lw	t9,printf[0m
  40b984:	2484b4d0 	addiu	a0,a0,-19248
  40b988:	24c6c7e0 	addiu	a2,a2,-14368
  40b98c:	0320f809 	jalr	t9
  40b990:	afa20010 	sw	v0,16(sp)
  40b994:	02402821 	move	a1,s2
  40b998:	8fbc0020 	lw	gp,32(sp)
  40b99c:	8f848024 	lw	a0,-32732(gp)
[31m  40b9a0:	8f9980b4 	lw	t9,printf[0m
  40b9a4:	0320f809 	jalr	t9
  40b9a8:	2484ca00 	addiu	a0,a0,-13824
--
  40ba24:	02402021 	move	a0,s2
  40ba28:	02402021 	move	a0,s2
  40ba2c:	24050fff 	li	a1,4095
  40ba30:	8fbc0020 	lw	gp,32(sp)
  40ba34:	8f868024 	lw	a2,-32732(gp)
  40ba38:	8f878024 	lw	a3,-32732(gp)
  40ba3c:	8f998310 	lw	t9,-31984(gp)
  40ba40:	24c6ca7c 	addiu	a2,a2,-13700
  40ba44:	0320f809 	jalr	t9
  40ba48:	24e7ca88 	addiu	a3,a3,-13688
  40ba4c:	8e820000 	lw	v0,0(s4)
  40ba50:	8fbc0020 	lw	gp,32(sp)
  40ba54:	2c420002 	sltiu	v0,v0,2
  40ba58:	14400017 	bnez	v0,40bab8 <update_entry@@Base+0x910>
  40ba5c:	00000000 	nop
  40ba60:	8f998248 	lw	t9,-32184(gp)
  40ba64:	0320f809 	jalr	t9
  40ba68:	00000000 	nop
  40ba6c:	24070083 	li	a3,131
  40ba70:	8fbc0020 	lw	gp,32(sp)
  40ba74:	00402821 	move	a1,v0
  40ba78:	8f828024 	lw	v0,-32732(gp)
  40ba7c:	8f848024 	lw	a0,-32732(gp)
  40ba80:	8f868024 	lw	a2,-32732(gp)
  40ba84:	2442ccc4 	addiu	v0,v0,-13116
[31m  40ba88:	8f9980b4 	lw	t9,printf[0m
  40ba8c:	2484b4d0 	addiu	a0,a0,-19248
  40ba90:	24c6c7e0 	addiu	a2,a2,-14368
  40ba94:	0320f809 	jalr	t9
  40ba98:	afa20010 	sw	v0,16(sp)
  40ba9c:	02402821 	move	a1,s2
  40baa0:	8fbc0020 	lw	gp,32(sp)
  40baa4:	8f848024 	lw	a0,-32732(gp)
[31m  40baa8:	8f9980b4 	lw	t9,printf[0m
  40baac:	0320f809 	jalr	t9
  40bab0:	2484ca00 	addiu	a0,a0,-13824
--
  40bb20:	8f998104 	lw	t9,-32508(gp)
  40bb24:	0320f809 	jalr	t9
  40bb28:	02402021 	move	a0,s2
  40bb2c:	02402021 	move	a0,s2
  40bb30:	24050fff 	li	a1,4095
  40bb34:	8fbc0020 	lw	gp,32(sp)
  40bb38:	8f868024 	lw	a2,-32732(gp)
  40bb3c:	8f998310 	lw	t9,-31984(gp)
  40bb40:	0320f809 	jalr	t9
  40bb44:	24c6b71c 	addiu	a2,a2,-18660
  40bb48:	8e820000 	lw	v0,0(s4)
  40bb4c:	8fbc0020 	lw	gp,32(sp)
  40bb50:	2c420002 	sltiu	v0,v0,2
  40bb54:	14400017 	bnez	v0,40bbb4 <update_entry@@Base+0xa0c>
  40bb58:	00000000 	nop
  40bb5c:	8f998248 	lw	t9,-32184(gp)
  40bb60:	0320f809 	jalr	t9
  40bb64:	00000000 	nop
  40bb68:	24070086 	li	a3,134
  40bb6c:	8fbc0020 	lw	gp,32(sp)
  40bb70:	00402821 	move	a1,v0
  40bb74:	8f828024 	lw	v0,-32732(gp)
  40bb78:	8f848024 	lw	a0,-32732(gp)
  40bb7c:	8f868024 	lw	a2,-32732(gp)
  40bb80:	2442ccc4 	addiu	v0,v0,-13116
[31m  40bb84:	8f9980b4 	lw	t9,printf[0m
  40bb88:	2484b4d0 	addiu	a0,a0,-19248
  40bb8c:	24c6c7e0 	addiu	a2,a2,-14368
  40bb90:	0320f809 	jalr	t9
  40bb94:	afa20010 	sw	v0,16(sp)
  40bb98:	02402821 	move	a1,s2
  40bb9c:	8fbc0020 	lw	gp,32(sp)
  40bba0:	8f848024 	lw	a0,-32732(gp)
[31m  40bba4:	8f9980b4 	lw	t9,printf[0m
  40bba8:	0320f809 	jalr	t9
  40bbac:	2484ca00 	addiu	a0,a0,-13824
--
  40bc44:	8f968238 	lw	s6,-32200(gp)
  40bc48:	26b5c7e0 	addiu	s5,s5,-14368
  40bc4c:	26f7ca98 	addiu	s7,s7,-13672
  40bc50:	8f998260 	lw	t9,-32160(gp)
  40bc54:	24020fff 	li	v0,4095
  40bc58:	02202021 	move	a0,s1
  40bc5c:	0320f809 	jalr	t9
  40bc60:	00502823 	subu	a1,v0,s0
  40bc64:	8fbc0020 	lw	gp,32(sp)
  40bc68:	8f998248 	lw	t9,-32184(gp)
  40bc6c:	18400036 	blez	v0,40bd48 <update_entry@@Base+0xba0>
  40bc70:	02228821 	addu	s1,s1,v0
  40bc74:	8e830000 	lw	v1,0(s4)
  40bc78:	02028021 	addu	s0,s0,v0
  40bc7c:	2c620002 	sltiu	v0,v1,2
  40bc80:	14400012 	bnez	v0,40bccc <update_entry@@Base+0xb24>
  40bc84:	00000000 	nop
  40bc88:	0320f809 	jalr	t9
  40bc8c:	00000000 	nop
  40bc90:	02a03021 	move	a2,s5
  40bc94:	24070091 	li	a3,145
  40bc98:	8fbc0020 	lw	gp,32(sp)
  40bc9c:	00402821 	move	a1,v0
  40bca0:	afbe0010 	sw	s8,16(sp)
  40bca4:	8f848024 	lw	a0,-32732(gp)
[31m  40bca8:	8f9980b4 	lw	t9,printf[0m
  40bcac:	0320f809 	jalr	t9
  40bcb0:	2484b4d0 	addiu	a0,a0,-19248
  40bcb4:	02e02021 	move	a0,s7
  40bcb8:	8fbc0020 	lw	gp,32(sp)
[31m  40bcbc:	8f9980b4 	lw	t9,printf[0m
  40bcc0:	0320f809 	jalr	t9
  40bcc4:	02002821 	move	a1,s0
--
  40bd3c:	8f998248 	lw	t9,-32184(gp)
  40bd40:	1c40ffcc 	bgtz	v0,40bc74 <update_entry@@Base+0xacc>
  40bd44:	02228821 	addu	s1,s1,v0
  40bd48:	8f828018 	lw	v0,-32744(gp)
  40bd4c:	27b10028 	addiu	s1,sp,40
  40bd50:	8f998218 	lw	t9,-32232(gp)
  40bd54:	02308021 	addu	s0,s1,s0
  40bd58:	8c44ed00 	lw	a0,-4864(v0)
  40bd5c:	0320f809 	jalr	t9
  40bd60:	00000000 	nop
  40bd64:	8e820000 	lw	v0,0(s4)
  40bd68:	8fbc0020 	lw	gp,32(sp)
  40bd6c:	2c420002 	sltiu	v0,v0,2
  40bd70:	14400017 	bnez	v0,40bdd0 <update_entry@@Base+0xc28>
  40bd74:	a2000004 	sb	zero,4(s0)
  40bd78:	8f998248 	lw	t9,-32184(gp)
  40bd7c:	0320f809 	jalr	t9
  40bd80:	00000000 	nop
  40bd84:	24070096 	li	a3,150
  40bd88:	8fbc0020 	lw	gp,32(sp)
  40bd8c:	00402821 	move	a1,v0
  40bd90:	8f828024 	lw	v0,-32732(gp)
  40bd94:	8f848024 	lw	a0,-32732(gp)
  40bd98:	8f868024 	lw	a2,-32732(gp)
  40bd9c:	2442ccc4 	addiu	v0,v0,-13116
[31m  40bda0:	8f9980b4 	lw	t9,printf[0m
  40bda4:	2484b4d0 	addiu	a0,a0,-19248
  40bda8:	24c6c7e0 	addiu	a2,a2,-14368
  40bdac:	0320f809 	jalr	t9
  40bdb0:	afa20010 	sw	v0,16(sp)
  40bdb4:	02402821 	move	a1,s2
  40bdb8:	8fbc0020 	lw	gp,32(sp)
  40bdbc:	8f848024 	lw	a0,-32732(gp)
[31m  40bdc0:	8f9980b4 	lw	t9,printf[0m
  40bdc4:	0320f809 	jalr	t9
  40bdc8:	2484caa4 	addiu	a0,a0,-13660
--
  40be38:	8f858024 	lw	a1,-32732(gp)
  40be3c:	02203021 	move	a2,s1
  40be40:	8f9981f4 	lw	t9,-32268(gp)
  40be44:	02402021 	move	a0,s2
  40be48:	0320f809 	jalr	t9
  40be4c:	24a5cab8 	addiu	a1,a1,-13640
  40be50:	24030001 	li	v1,1
  40be54:	8fbc0020 	lw	gp,32(sp)
  40be58:	1043005f 	beq	v0,v1,40bfd8 <update_entry@@Base+0xe30>
  40be5c:	2402ffff 	li	v0,-1
  40be60:	afa20028 	sw	v0,40(sp)
  40be64:	8e820000 	lw	v0,0(s4)
  40be68:	2c420002 	sltiu	v0,v0,2
  40be6c:	14400016 	bnez	v0,40bec8 <update_entry@@Base+0xd20>
  40be70:	00000000 	nop
  40be74:	8f998248 	lw	t9,-32184(gp)
  40be78:	0320f809 	jalr	t9
  40be7c:	00000000 	nop
  40be80:	240700a0 	li	a3,160
  40be84:	8fbc0020 	lw	gp,32(sp)
  40be88:	00402821 	move	a1,v0
  40be8c:	8f828024 	lw	v0,-32732(gp)
  40be90:	8f848024 	lw	a0,-32732(gp)
  40be94:	8f868024 	lw	a2,-32732(gp)
  40be98:	2442ccc4 	addiu	v0,v0,-13116
[31m  40be9c:	8f9980b4 	lw	t9,printf[0m
  40bea0:	2484b4d0 	addiu	a0,a0,-19248
  40bea4:	24c6c7e0 	addiu	a2,a2,-14368
--
  40bf30:	27b010a8 	addiu	s0,sp,4264
  40bf34:	8fbf1054 	lw	ra,4180(sp)
  40bf38:	24020001 	li	v0,1
  40bf3c:	8fbe1050 	lw	s8,4176(sp)
  40bf40:	8fb7104c 	lw	s7,4172(sp)
  40bf44:	8fb61048 	lw	s6,4168(sp)
  40bf48:	8fb51044 	lw	s5,4164(sp)
  40bf4c:	8fb41040 	lw	s4,4160(sp)
  40bf50:	8fb3103c 	lw	s3,4156(sp)
  40bf54:	8fb21038 	lw	s2,4152(sp)
  40bf58:	8fb11034 	lw	s1,4148(sp)
  40bf5c:	8fb01030 	lw	s0,4144(sp)
  40bf60:	03e00008 	jr	ra
  40bf64:	27bd1058 	addiu	sp,sp,4184
  40bf68:	8f998248 	lw	t9,-32184(gp)
  40bf6c:	27b11088 	addiu	s1,sp,4232
  40bf70:	0320f809 	jalr	t9
  40bf74:	27b01090 	addiu	s0,sp,4240
  40bf78:	2407006e 	li	a3,110
  40bf7c:	8fbc0020 	lw	gp,32(sp)
  40bf80:	00402821 	move	a1,v0
  40bf84:	8f828024 	lw	v0,-32732(gp)
  40bf88:	8f848024 	lw	a0,-32732(gp)
  40bf8c:	8f868024 	lw	a2,-32732(gp)
  40bf90:	2442ccc4 	addiu	v0,v0,-13116
[31m  40bf94:	8f9980b4 	lw	t9,printf[0m
  40bf98:	2484b4d0 	addiu	a0,a0,-19248
  40bf9c:	24c6c7e0 	addiu	a2,a2,-14368
  40bfa0:	0320f809 	jalr	t9
  40bfa4:	afa20010 	sw	v0,16(sp)
  40bfa8:	02a02821 	move	a1,s5
  40bfac:	27a61058 	addiu	a2,sp,4184
  40bfb0:	8fbc0020 	lw	gp,32(sp)
  40bfb4:	02203821 	move	a3,s1
  40bfb8:	afb00010 	sw	s0,16(sp)
  40bfbc:	8f848024 	lw	a0,-32732(gp)
[31m  40bfc0:	8f9980b4 	lw	t9,printf[0m
  40bfc4:	0320f809 	jalr	t9
  40bfc8:	2484c960 	addiu	a0,a0,-13984
--
  40bff0:	1043ff9c 	beq	v0,v1,40be64 <update_entry@@Base+0xcbc>
  40bff4:	00000000 	nop
  40bff8:	8f82826c 	lw	v0,-32148(gp)
  40bffc:	02402021 	move	a0,s2
  40c000:	8f858024 	lw	a1,-32732(gp)
  40c004:	8f9981f4 	lw	t9,-32268(gp)
  40c008:	00403021 	move	a2,v0
  40c00c:	a0400000 	sb	zero,0(v0)
  40c010:	0320f809 	jalr	t9
  40c014:	24a5cbe8 	addiu	a1,a1,-13336
  40c018:	8e820000 	lw	v0,0(s4)
  40c01c:	8fbc0020 	lw	gp,32(sp)
  40c020:	2c420002 	sltiu	v0,v0,2
  40c024:	14400017 	bnez	v0,40c084 <update_entry@@Base+0xedc>
  40c028:	00000000 	nop
  40c02c:	8f998248 	lw	t9,-32184(gp)
  40c030:	0320f809 	jalr	t9
  40c034:	00000000 	nop
  40c038:	240700b7 	li	a3,183
  40c03c:	8fbc0020 	lw	gp,32(sp)
  40c040:	00402821 	move	a1,v0
  40c044:	8f828024 	lw	v0,-32732(gp)
  40c048:	8f848024 	lw	a0,-32732(gp)
  40c04c:	8f868024 	lw	a2,-32732(gp)
  40c050:	2442ccc4 	addiu	v0,v0,-13116
[31m  40c054:	8f9980b4 	lw	t9,printf[0m
  40c058:	2484b4d0 	addiu	a0,a0,-19248
  40c05c:	24c6c7e0 	addiu	a2,a2,-14368
  40c060:	0320f809 	jalr	t9
  40c064:	afa20010 	sw	v0,16(sp)
  40c068:	8fbc0020 	lw	gp,32(sp)
  40c06c:	8fa50028 	lw	a1,40(sp)
  40c070:	8f848024 	lw	a0,-32732(gp)
[31m  40c074:	8f9980b4 	lw	t9,printf[0m
  40c078:	0320f809 	jalr	t9
  40c07c:	2484cc04 	addiu	a0,a0,-13308
--
  40c0c0:	8f858024 	lw	a1,-32732(gp)
  40c0c4:	8f998168 	lw	t9,-32408(gp)
  40c0c8:	8fa60028 	lw	a2,40(sp)
  40c0cc:	0320f809 	jalr	t9
  40c0d0:	24a5cc04 	addiu	a1,a1,-13308
  40c0d4:	8fbc0020 	lw	gp,32(sp)
  40c0d8:	8e040000 	lw	a0,0(s0)
  40c0dc:	8f9981a4 	lw	t9,-32348(gp)
  40c0e0:	0320f809 	jalr	t9
  40c0e4:	00000000 	nop
  40c0e8:	8fbc0020 	lw	gp,32(sp)
  40c0ec:	8e820000 	lw	v0,0(s4)
  40c0f0:	2c420002 	sltiu	v0,v0,2
  40c0f4:	14400017 	bnez	v0,40c154 <update_entry@@Base+0xfac>
  40c0f8:	00000000 	nop
  40c0fc:	8f998248 	lw	t9,-32184(gp)
  40c100:	0320f809 	jalr	t9
  40c104:	00000000 	nop
  40c108:	240700b8 	li	a3,184
  40c10c:	8fbc0020 	lw	gp,32(sp)
  40c110:	00402821 	move	a1,v0
  40c114:	8f828024 	lw	v0,-32732(gp)
  40c118:	8f848024 	lw	a0,-32732(gp)
  40c11c:	8f868024 	lw	a2,-32732(gp)
  40c120:	2442ccc4 	addiu	v0,v0,-13116
[31m  40c124:	8f9980b4 	lw	t9,printf[0m
  40c128:	2484b4d0 	addiu	a0,a0,-19248
  40c12c:	24c6c7e0 	addiu	a2,a2,-14368
  40c130:	0320f809 	jalr	t9
  40c134:	afa20010 	sw	v0,16(sp)
  40c138:	8fbc0020 	lw	gp,32(sp)
  40c13c:	8f848024 	lw	a0,-32732(gp)
[31m  40c140:	8f9980b4 	lw	t9,printf[0m
  40c144:	8f85826c 	lw	a1,-32148(gp)
  40c148:	0320f809 	jalr	t9
--
  40c188:	8fbc0020 	lw	gp,32(sp)
  40c18c:	8e040000 	lw	a0,0(s0)
  40c190:	8f858024 	lw	a1,-32732(gp)
  40c194:	8f998168 	lw	t9,-32408(gp)
  40c198:	8f86826c 	lw	a2,-32148(gp)
  40c19c:	0320f809 	jalr	t9
  40c1a0:	24a5cc20 	addiu	a1,a1,-13280
  40c1a4:	8fbc0020 	lw	gp,32(sp)
  40c1a8:	8e040000 	lw	a0,0(s0)
  40c1ac:	1000fc5a 	b	40b318 <update_entry@@Base+0x170>
  40c1b0:	00000000 	nop
  40c1b4:	8e820000 	lw	v0,0(s4)
  40c1b8:	2c420002 	sltiu	v0,v0,2
  40c1bc:	14400016 	bnez	v0,40c218 <update_entry@@Base+0x1070>
  40c1c0:	00000000 	nop
  40c1c4:	8f998248 	lw	t9,-32184(gp)
  40c1c8:	0320f809 	jalr	t9
  40c1cc:	00000000 	nop
  40c1d0:	240700b0 	li	a3,176
  40c1d4:	8fbc0020 	lw	gp,32(sp)
  40c1d8:	00402821 	move	a1,v0
  40c1dc:	8f828024 	lw	v0,-32732(gp)
  40c1e0:	8f848024 	lw	a0,-32732(gp)
  40c1e4:	8f868024 	lw	a2,-32732(gp)
  40c1e8:	2442ccc4 	addiu	v0,v0,-13116
[31m  40c1ec:	8f9980b4 	lw	t9,printf[0m
  40c1f0:	2484b4d0 	addiu	a0,a0,-19248
  40c1f4:	24c6c7e0 	addiu	a2,a2,-14368
--
  40c2a8:	8fb01030 	lw	s0,4144(sp)
  40c2ac:	03e00008 	jr	ra
  40c2b0:	27bd1058 	addiu	sp,sp,4184
  40c2b4:	8f858024 	lw	a1,-32732(gp)
  40c2b8:	02402021 	move	a0,s2
  40c2bc:	8f998100 	lw	t9,-32512(gp)
  40c2c0:	0320f809 	jalr	t9
  40c2c4:	24a5cb50 	addiu	a1,a1,-13488
  40c2c8:	8fbc0020 	lw	gp,32(sp)
  40c2cc:	10400041 	beqz	v0,40c3d4 <update_entry@@Base+0x122c>
  40c2d0:	00000000 	nop
  40c2d4:	8e820000 	lw	v0,0(s4)
  40c2d8:	2c420002 	sltiu	v0,v0,2
  40c2dc:	14400016 	bnez	v0,40c338 <update_entry@@Base+0x1190>
  40c2e0:	00000000 	nop
  40c2e4:	8f998248 	lw	t9,-32184(gp)
  40c2e8:	0320f809 	jalr	t9
  40c2ec:	00000000 	nop
  40c2f0:	240700a6 	li	a3,166
  40c2f4:	8fbc0020 	lw	gp,32(sp)
  40c2f8:	00402821 	move	a1,v0
  40c2fc:	8f828024 	lw	v0,-32732(gp)
  40c300:	8f848024 	lw	a0,-32732(gp)
  40c304:	8f868024 	lw	a2,-32732(gp)
  40c308:	2442ccc4 	addiu	v0,v0,-13116
[31m  40c30c:	8f9980b4 	lw	t9,printf[0m
  40c310:	2484b4d0 	addiu	a0,a0,-19248
  40c314:	24c6c7e0 	addiu	a2,a2,-14368
--
  40c3a8:	8fbe1050 	lw	s8,4176(sp)
  40c3ac:	8fb7104c 	lw	s7,4172(sp)
  40c3b0:	8fb61048 	lw	s6,4168(sp)
  40c3b4:	8fb51044 	lw	s5,4164(sp)
  40c3b8:	8fb41040 	lw	s4,4160(sp)
  40c3bc:	8fb3103c 	lw	s3,4156(sp)
  40c3c0:	8fb21038 	lw	s2,4152(sp)
  40c3c4:	8fb11034 	lw	s1,4148(sp)
  40c3c8:	8fb01030 	lw	s0,4144(sp)
  40c3cc:	03e00008 	jr	ra
  40c3d0:	27bd1058 	addiu	sp,sp,4184
  40c3d4:	8e820000 	lw	v0,0(s4)
  40c3d8:	2c420002 	sltiu	v0,v0,2
  40c3dc:	14400016 	bnez	v0,40c438 <update_entry@@Base+0x1290>
  40c3e0:	00000000 	nop
  40c3e4:	8f998248 	lw	t9,-32184(gp)
  40c3e8:	0320f809 	jalr	t9
  40c3ec:	00000000 	nop
  40c3f0:	240700aa 	li	a3,170
  40c3f4:	8fbc0020 	lw	gp,32(sp)
  40c3f8:	00402821 	move	a1,v0
  40c3fc:	8f828024 	lw	v0,-32732(gp)
  40c400:	8f848024 	lw	a0,-32732(gp)
  40c404:	8f868024 	lw	a2,-32732(gp)
  40c408:	2442ccc4 	addiu	v0,v0,-13116
[31m  40c40c:	8f9980b4 	lw	t9,printf[0m
  40c410:	2484b4d0 	addiu	a0,a0,-19248
  40c414:	24c6c7e0 	addiu	a2,a2,-14368
--
  40c814:	afb40030 	sw	s4,48(sp)
  40c818:	afb3002c 	sw	s3,44(sp)
  40c81c:	afb20028 	sw	s2,40(sp)
  40c820:	afb10024 	sw	s1,36(sp)
  40c824:	afb00020 	sw	s0,32(sp)
  40c828:	afbc0018 	sw	gp,24(sp)
  40c82c:	00808821 	move	s1,a0
  40c830:	00a08021 	move	s0,a1
  40c834:	10800091 	beqz	a0,40ca7c <GetRun@@Base+0x27c>
  40c838:	00c0a021 	move	s4,a2
  40c83c:	8f93812c 	lw	s3,-32468(gp)
  40c840:	8e620000 	lw	v0,0(s3)
  40c844:	2c420002 	sltiu	v0,v0,2
  40c848:	14400017 	bnez	v0,40c8a8 <GetRun@@Base+0xa8>
  40c84c:	00000000 	nop
  40c850:	8f998248 	lw	t9,-32184(gp)
  40c854:	0320f809 	jalr	t9
  40c858:	00000000 	nop
  40c85c:	2407003b 	li	a3,59
  40c860:	8fbc0018 	lw	gp,24(sp)
  40c864:	00402821 	move	a1,v0
  40c868:	8f828024 	lw	v0,-32732(gp)
  40c86c:	8f848024 	lw	a0,-32732(gp)
  40c870:	8f868024 	lw	a2,-32732(gp)
  40c874:	2442cd70 	addiu	v0,v0,-12944
[31m  40c878:	8f9980b4 	lw	t9,printf[0m
  40c87c:	2484b4d0 	addiu	a0,a0,-19248
  40c880:	24c6ccf4 	addiu	a2,a2,-13068
  40c884:	0320f809 	jalr	t9
  40c888:	afa20010 	sw	v0,16(sp)
  40c88c:	02202821 	move	a1,s1
  40c890:	8fbc0018 	lw	gp,24(sp)
  40c894:	8f848024 	lw	a0,-32732(gp)
[31m  40c898:	8f9980b4 	lw	t9,printf[0m
  40c89c:	0320f809 	jalr	t9
  40c8a0:	2484ccfc 	addiu	a0,a0,-13060
--
  40c950:	8fbc0018 	lw	gp,24(sp)
  40c954:	8f9981fc 	lw	t9,-32260(gp)
  40c958:	0320f809 	jalr	t9
  40c95c:	02203021 	move	a2,s1
  40c960:	8fbc0018 	lw	gp,24(sp)
  40c964:	8f998334 	lw	t9,strlen
  40c968:	0320f809 	jalr	t9
  40c96c:	02002021 	move	a0,s0
  40c970:	02021021 	addu	v0,s0,v0
  40c974:	8fbc0018 	lw	gp,24(sp)
  40c978:	a040ffff 	sb	zero,-1(v0)
  40c97c:	8e620000 	lw	v0,0(s3)
  40c980:	2c420002 	sltiu	v0,v0,2
  40c984:	14400017 	bnez	v0,40c9e4 <GetRun@@Base+0x1e4>
  40c988:	00000000 	nop
  40c98c:	8f998248 	lw	t9,-32184(gp)
  40c990:	0320f809 	jalr	t9
  40c994:	00000000 	nop
  40c998:	24070048 	li	a3,72
  40c99c:	8fbc0018 	lw	gp,24(sp)
  40c9a0:	00402821 	move	a1,v0
  40c9a4:	8f828024 	lw	v0,-32732(gp)
  40c9a8:	8f848024 	lw	a0,-32732(gp)
  40c9ac:	8f868024 	lw	a2,-32732(gp)
  40c9b0:	2442cd70 	addiu	v0,v0,-12944
[31m  40c9b4:	8f9980b4 	lw	t9,printf[0m
  40c9b8:	2484b4d0 	addiu	a0,a0,-19248
  40c9bc:	24c6ccf4 	addiu	a2,a2,-13068
  40c9c0:	0320f809 	jalr	t9
  40c9c4:	afa20010 	sw	v0,16(sp)
  40c9c8:	02002821 	move	a1,s0
  40c9cc:	8fbc0018 	lw	gp,24(sp)
  40c9d0:	8f848024 	lw	a0,-32732(gp)
[31m  40c9d4:	8f9980b4 	lw	t9,printf[0m
  40c9d8:	0320f809 	jalr	t9
  40c9dc:	2484cd08 	addiu	a0,a0,-13048
--
  40cfdc:	24040002 	li	a0,2
  40cfe0:	8fbc0018 	lw	gp,24(sp)
  40cfe4:	04400067 	bltz	v0,40d184 <get_if_mac@@Base+0x1e4>
  40cfe8:	00408021 	move	s0,v0
  40cfec:	8f998044 	lw	t9,-32700(gp)
  40cff0:	27b30020 	addiu	s3,sp,32
  40cff4:	02402821 	move	a1,s2
  40cff8:	0320f809 	jalr	t9
  40cffc:	02602021 	move	a0,s3
  40d000:	8fbc0018 	lw	gp,24(sp)
  40d004:	8f82812c 	lw	v0,-32468(gp)
  40d008:	8c420000 	lw	v0,0(v0)
  40d00c:	2c420002 	sltiu	v0,v0,2
  40d010:	14400017 	bnez	v0,40d070 <get_if_mac@@Base+0xd0>
  40d014:	00000000 	nop
  40d018:	8f998248 	lw	t9,-32184(gp)
  40d01c:	0320f809 	jalr	t9
  40d020:	00000000 	nop
  40d024:	24070061 	li	a3,97
  40d028:	8fbc0018 	lw	gp,24(sp)
  40d02c:	00402821 	move	a1,v0
  40d030:	8f828024 	lw	v0,-32732(gp)
  40d034:	8f848024 	lw	a0,-32732(gp)
  40d038:	8f868024 	lw	a2,-32732(gp)
  40d03c:	2442ce00 	addiu	v0,v0,-12800
[31m  40d040:	8f9980b4 	lw	t9,printf[0m
  40d044:	2484b4d0 	addiu	a0,a0,-19248
  40d048:	24c6cdcc 	addiu	a2,a2,-12852
  40d04c:	0320f809 	jalr	t9
  40d050:	afa20010 	sw	v0,16(sp)
  40d054:	02402821 	move	a1,s2
  40d058:	8fbc0018 	lw	gp,24(sp)
  40d05c:	8f848024 	lw	a0,-32732(gp)
[31m  40d060:	8f9980b4 	lw	t9,printf[0m
  40d064:	0320f809 	jalr	t9
  40d068:	2484cdd4 	addiu	a0,a0,-12844
--
  40d1c8:	279c95cc 	addiu	gp,gp,-27188
  40d1cc:	0399e021 	addu	gp,gp,t9
  40d1d0:	27bdffa8 	addiu	sp,sp,-88
  40d1d4:	afbf0054 	sw	ra,84(sp)
  40d1d8:	afb40050 	sw	s4,80(sp)
  40d1dc:	afb3004c 	sw	s3,76(sp)
  40d1e0:	afb20048 	sw	s2,72(sp)
  40d1e4:	afb10044 	sw	s1,68(sp)
  40d1e8:	afb00040 	sw	s0,64(sp)
  40d1ec:	afbc0018 	sw	gp,24(sp)
  40d1f0:	8f93812c 	lw	s3,-32468(gp)
  40d1f4:	8e620000 	lw	v0,0(s3)
  40d1f8:	2c420002 	sltiu	v0,v0,2
  40d1fc:	14400017 	bnez	v0,40d25c <get_if_ip@@Base+0x98>
  40d200:	00808821 	move	s1,a0
  40d204:	8f998248 	lw	t9,-32184(gp)
  40d208:	0320f809 	jalr	t9
  40d20c:	00000000 	nop
  40d210:	2407001f 	li	a3,31
  40d214:	8fbc0018 	lw	gp,24(sp)
  40d218:	00402821 	move	a1,v0
  40d21c:	8f828024 	lw	v0,-32732(gp)
  40d220:	8f848024 	lw	a0,-32732(gp)
  40d224:	8f868024 	lw	a2,-32732(gp)
  40d228:	2442ce0c 	addiu	v0,v0,-12788
[31m  40d22c:	8f9980b4 	lw	t9,printf[0m
  40d230:	2484b4d0 	addiu	a0,a0,-19248
  40d234:	24c6cdcc 	addiu	a2,a2,-12852
  40d238:	0320f809 	jalr	t9
  40d23c:	afa20010 	sw	v0,16(sp)
  40d240:	02202821 	move	a1,s1
  40d244:	8fbc0018 	lw	gp,24(sp)
  40d248:	8f848024 	lw	a0,-32732(gp)
[31m  40d24c:	8f9980b4 	lw	t9,printf[0m
  40d250:	0320f809 	jalr	t9
  40d254:	2484cdd4 	addiu	a0,a0,-12844
--
  40d2d0:	0320f809 	jalr	t9
  40d2d4:	00003021 	move	a2,zero
  40d2d8:	8fbc0018 	lw	gp,24(sp)
  40d2dc:	0440005a 	bltz	v0,40d448 <get_if_ip@@Base+0x284>
  40d2e0:	00409021 	move	s2,v0
  40d2e4:	8f998044 	lw	t9,-32700(gp)
  40d2e8:	27b40020 	addiu	s4,sp,32
  40d2ec:	02202821 	move	a1,s1
  40d2f0:	0320f809 	jalr	t9
  40d2f4:	02802021 	move	a0,s4
  40d2f8:	8e620000 	lw	v0,0(s3)
  40d2fc:	8fbc0018 	lw	gp,24(sp)
  40d300:	2c420002 	sltiu	v0,v0,2
  40d304:	14400017 	bnez	v0,40d364 <get_if_ip@@Base+0x1a0>
  40d308:	00000000 	nop
  40d30c:	8f998248 	lw	t9,-32184(gp)
  40d310:	0320f809 	jalr	t9
  40d314:	00000000 	nop
  40d318:	24070029 	li	a3,41
  40d31c:	8fbc0018 	lw	gp,24(sp)
  40d320:	00402821 	move	a1,v0
  40d324:	8f828024 	lw	v0,-32732(gp)
  40d328:	8f848024 	lw	a0,-32732(gp)
  40d32c:	8f868024 	lw	a2,-32732(gp)
  40d330:	2442ce0c 	addiu	v0,v0,-12788
[31m  40d334:	8f9980b4 	lw	t9,printf[0m
  40d338:	2484b4d0 	addiu	a0,a0,-19248
  40d33c:	24c6cdcc 	addiu	a2,a2,-12852
  40d340:	0320f809 	jalr	t9
  40d344:	afa20010 	sw	v0,16(sp)
  40d348:	02202821 	move	a1,s1
  40d34c:	8fbc0018 	lw	gp,24(sp)
  40d350:	8f848024 	lw	a0,-32732(gp)
[31m  40d354:	8f9980b4 	lw	t9,printf[0m
  40d358:	0320f809 	jalr	t9
  40d35c:	2484cdd4 	addiu	a0,a0,-12844
--
  40d6f8:	3c1c0003 	lui	gp,0x3
  40d6fc:	279c9098 	addiu	gp,gp,-28520
  40d700:	0399e021 	addu	gp,gp,t9
  40d704:	27bdffd0 	addiu	sp,sp,-48
  40d708:	afbf002c 	sw	ra,44(sp)
  40d70c:	afb40028 	sw	s4,40(sp)
  40d710:	afb30024 	sw	s3,36(sp)
  40d714:	afb20020 	sw	s2,32(sp)
  40d718:	afb1001c 	sw	s1,28(sp)
  40d71c:	afb00018 	sw	s0,24(sp)
  40d720:	afbc0010 	sw	gp,16(sp)
  40d724:	00008021 	move	s0,zero
  40d728:	8f938078 	lw	s3,-32648(gp)
  40d72c:	24120080 	li	s2,128
  40d730:	8f948024 	lw	s4,-32732(gp)
  40d734:	02608821 	move	s1,s3
  40d738:	10000004 	b	40d74c <ConfAdd@@Base+0xf4>
  40d73c:	2694ce34 	addiu	s4,s4,-12748
  40d740:	26100001 	addiu	s0,s0,1
  40d744:	12120010 	beq	s0,s2,40d788 <ConfAdd@@Base+0x130>
  40d748:	00000000 	nop
  40d74c:	82220000 	lb	v0,0(s1)
  40d750:	1040fffb 	beqz	v0,40d740 <ConfAdd@@Base+0xe8>
  40d754:	26310080 	addiu	s1,s1,128
  40d758:	001031c0 	sll	a2,s0,0x7
[31m  40d75c:	8f9980b4 	lw	t9,printf[0m
  40d760:	001029c0 	sll	a1,s0,0x7
  40d764:	24c60040 	addiu	a2,a2,64
--
  40d834:	02002021 	move	a0,s0
  40d838:	8fbc0018 	lw	gp,24(sp)
  40d83c:	00409021 	move	s2,v0
  40d840:	8f858024 	lw	a1,-32732(gp)
  40d844:	8f998270 	lw	t9,-32144(gp)
  40d848:	0320f809 	jalr	t9
  40d84c:	24a5cd64 	addiu	a1,a1,-12956
  40d850:	8fbc0018 	lw	gp,24(sp)
  40d854:	12400101 	beqz	s2,40dc5c <file_copy@@Base+0x47c>
  40d858:	0040b021 	move	s6,v0
  40d85c:	8f97812c 	lw	s7,-32468(gp)
  40d860:	8ee20000 	lw	v0,0(s7)
  40d864:	2c420002 	sltiu	v0,v0,2
  40d868:	14400018 	bnez	v0,40d8cc <file_copy@@Base+0xec>
  40d86c:	00000000 	nop
  40d870:	8f998248 	lw	t9,-32184(gp)
  40d874:	0320f809 	jalr	t9
  40d878:	00000000 	nop
  40d87c:	240700e3 	li	a3,227
  40d880:	8fbc0018 	lw	gp,24(sp)
  40d884:	00402821 	move	a1,v0
  40d888:	8f828024 	lw	v0,-32732(gp)
  40d88c:	8f848024 	lw	a0,-32732(gp)
  40d890:	8f868024 	lw	a2,-32732(gp)
  40d894:	2442cf78 	addiu	v0,v0,-12424
[31m  40d898:	8f9980b4 	lw	t9,printf[0m
  40d89c:	2484b4d0 	addiu	a0,a0,-19248
  40d8a0:	24c6ce48 	addiu	a2,a2,-12728
  40d8a4:	0320f809 	jalr	t9
  40d8a8:	afa20010 	sw	v0,16(sp)
  40d8ac:	02202821 	move	a1,s1
  40d8b0:	8fbc0018 	lw	gp,24(sp)
  40d8b4:	02003021 	move	a2,s0
  40d8b8:	8f848024 	lw	a0,-32732(gp)
[31m  40d8bc:	8f9980b4 	lw	t9,printf[0m
  40d8c0:	0320f809 	jalr	t9
  40d8c4:	2484ce64 	addiu	a0,a0,-12700
--
  40d90c:	8e840000 	lw	a0,0(s4)
  40d910:	8f858024 	lw	a1,-32732(gp)
  40d914:	8f998168 	lw	t9,-32408(gp)
  40d918:	0320f809 	jalr	t9
  40d91c:	24a5ce64 	addiu	a1,a1,-12700
  40d920:	8fbc0018 	lw	gp,24(sp)
  40d924:	8e840000 	lw	a0,0(s4)
  40d928:	8f9981a4 	lw	t9,-32348(gp)
  40d92c:	0320f809 	jalr	t9
  40d930:	00000000 	nop
  40d934:	8fbc0018 	lw	gp,24(sp)
  40d938:	8ee20000 	lw	v0,0(s7)
  40d93c:	2c420002 	sltiu	v0,v0,2
  40d940:	14400018 	bnez	v0,40d9a4 <file_copy@@Base+0x1c4>
  40d944:	00000000 	nop
  40d948:	8f998248 	lw	t9,-32184(gp)
  40d94c:	0320f809 	jalr	t9
  40d950:	00000000 	nop
  40d954:	240700e4 	li	a3,228
  40d958:	8fbc0018 	lw	gp,24(sp)
  40d95c:	00402821 	move	a1,v0
  40d960:	8f828024 	lw	v0,-32732(gp)
  40d964:	8f848024 	lw	a0,-32732(gp)
  40d968:	8f868024 	lw	a2,-32732(gp)
  40d96c:	2442cf78 	addiu	v0,v0,-12424
[31m  40d970:	8f9980b4 	lw	t9,printf[0m
  40d974:	2484b4d0 	addiu	a0,a0,-19248
  40d978:	24c6ce48 	addiu	a2,a2,-12728
  40d97c:	0320f809 	jalr	t9
  40d980:	afa20010 	sw	v0,16(sp)
  40d984:	02402821 	move	a1,s2
  40d988:	8fbc0018 	lw	gp,24(sp)
  40d98c:	02c03021 	move	a2,s6
  40d990:	8f848024 	lw	a0,-32732(gp)
[31m  40d994:	8f9980b4 	lw	t9,printf[0m
  40d998:	0320f809 	jalr	t9
  40d99c:	2484ce78 	addiu	a0,a0,-12680
--
  40d9e4:	8e040000 	lw	a0,0(s0)
  40d9e8:	8f858024 	lw	a1,-32732(gp)
  40d9ec:	8f998168 	lw	t9,-32408(gp)
  40d9f0:	0320f809 	jalr	t9
  40d9f4:	24a5ce78 	addiu	a1,a1,-12680
  40d9f8:	8fbc0018 	lw	gp,24(sp)
  40d9fc:	8e040000 	lw	a0,0(s0)
  40da00:	8f9981a4 	lw	t9,-32348(gp)
  40da04:	0320f809 	jalr	t9
  40da08:	00000000 	nop
  40da0c:	8fbc0018 	lw	gp,24(sp)
  40da10:	8ee20000 	lw	v0,0(s7)
  40da14:	2c420002 	sltiu	v0,v0,2
  40da18:	14400018 	bnez	v0,40da7c <file_copy@@Base+0x29c>
  40da1c:	00000000 	nop
  40da20:	8f998248 	lw	t9,-32184(gp)
  40da24:	0320f809 	jalr	t9
  40da28:	00000000 	nop
  40da2c:	240700e5 	li	a3,229
  40da30:	8fbc0018 	lw	gp,24(sp)
  40da34:	00402821 	move	a1,v0
  40da38:	8f828024 	lw	v0,-32732(gp)
  40da3c:	8f848024 	lw	a0,-32732(gp)
  40da40:	8f868024 	lw	a2,-32732(gp)
  40da44:	2442cf78 	addiu	v0,v0,-12424
[31m  40da48:	8f9980b4 	lw	t9,printf[0m
  40da4c:	2484b4d0 	addiu	a0,a0,-19248
  40da50:	24c6ce48 	addiu	a2,a2,-12728
  40da54:	0320f809 	jalr	t9
  40da58:	afa20010 	sw	v0,16(sp)
  40da5c:	02402821 	move	a1,s2
  40da60:	8fbc0018 	lw	gp,24(sp)
  40da64:	02c03021 	move	a2,s6
  40da68:	8f848024 	lw	a0,-32732(gp)
[31m  40da6c:	8f9980b4 	lw	t9,printf[0m
  40da70:	0320f809 	jalr	t9
  40da74:	2484ce78 	addiu	a0,a0,-12680
--
  40dad0:	24a5ce78 	addiu	a1,a1,-12680
  40dad4:	8fbc0018 	lw	gp,24(sp)
  40dad8:	8e040000 	lw	a0,0(s0)
  40dadc:	8f9981a4 	lw	t9,-32348(gp)
  40dae0:	0320f809 	jalr	t9
  40dae4:	00000000 	nop
  40dae8:	8fbc0018 	lw	gp,24(sp)
  40daec:	8f938024 	lw	s3,-32732(gp)
  40daf0:	8f9e8024 	lw	s8,-32732(gp)
  40daf4:	2673ce48 	addiu	s3,s3,-12728
  40daf8:	8f958238 	lw	s5,-32200(gp)
  40dafc:	10000037 	b	40dbdc <file_copy@@Base+0x3fc>
  40db00:	27dece88 	addiu	s8,s8,-12664
  40db04:	8ee20000 	lw	v0,0(s7)
  40db08:	2c420002 	sltiu	v0,v0,2
  40db0c:	14400014 	bnez	v0,40db60 <file_copy@@Base+0x380>
  40db10:	00000000 	nop
  40db14:	0320f809 	jalr	t9
  40db18:	00000000 	nop
  40db1c:	02603021 	move	a2,s3
  40db20:	240700e9 	li	a3,233
  40db24:	8fbc0018 	lw	gp,24(sp)
  40db28:	00402821 	move	a1,v0
  40db2c:	8f828024 	lw	v0,-32732(gp)
  40db30:	8f848024 	lw	a0,-32732(gp)
[31m  40db34:	8f9980b4 	lw	t9,printf[0m
  40db38:	2442cf78 	addiu	v0,v0,-12424
  40db3c:	2484b4d0 	addiu	a0,a0,-19248
  40db40:	0320f809 	jalr	t9
  40db44:	afa20010 	sw	v0,16(sp)
  40db48:	03c02021 	move	a0,s8
  40db4c:	8fbc0018 	lw	gp,24(sp)
[31m  40db50:	8f9980b4 	lw	t9,printf[0m
  40db54:	0320f809 	jalr	t9
  40db58:	02002821 	move	a1,s0
--
  40dc34:	8fb50134 	lw	s5,308(sp)
  40dc38:	8fb40130 	lw	s4,304(sp)
  40dc3c:	8fb3012c 	lw	s3,300(sp)
  40dc40:	8fb20128 	lw	s2,296(sp)
  40dc44:	8fb10124 	lw	s1,292(sp)
  40dc48:	8fb00120 	lw	s0,288(sp)
  40dc4c:	03e00008 	jr	ra
  40dc50:	27bd0148 	addiu	sp,sp,328
  40dc54:	1000ffa5 	b	40daec <file_copy@@Base+0x30c>
  40dc58:	27b10020 	addiu	s1,sp,32
  40dc5c:	8f82812c 	lw	v0,-32468(gp)
  40dc60:	8c420000 	lw	v0,0(v0)
  40dc64:	2c420002 	sltiu	v0,v0,2
  40dc68:	14400017 	bnez	v0,40dcc8 <file_copy@@Base+0x4e8>
  40dc6c:	00000000 	nop
  40dc70:	8f998248 	lw	t9,-32184(gp)
  40dc74:	0320f809 	jalr	t9
  40dc78:	00000000 	nop
  40dc7c:	240700df 	li	a3,223
  40dc80:	8fbc0018 	lw	gp,24(sp)
  40dc84:	00402821 	move	a1,v0
  40dc88:	8f828024 	lw	v0,-32732(gp)
  40dc8c:	8f848024 	lw	a0,-32732(gp)
  40dc90:	8f868024 	lw	a2,-32732(gp)
  40dc94:	2442cf78 	addiu	v0,v0,-12424
[31m  40dc98:	8f9980b4 	lw	t9,printf[0m
  40dc9c:	2484b4d0 	addiu	a0,a0,-19248
  40dca0:	24c6ce48 	addiu	a2,a2,-12728
  40dca4:	0320f809 	jalr	t9
  40dca8:	afa20010 	sw	v0,16(sp)
  40dcac:	02202821 	move	a1,s1
  40dcb0:	8fbc0018 	lw	gp,24(sp)
  40dcb4:	8f848024 	lw	a0,-32732(gp)
[31m  40dcb8:	8f9980b4 	lw	t9,printf[0m
  40dcbc:	0320f809 	jalr	t9
  40dcc0:	2484ce50 	addiu	a0,a0,-12720
--
  40dda4:	8f958238 	lw	s5,-32200(gp)
  40dda8:	00008821 	move	s1,zero
  40ddac:	27dece94 	addiu	s8,s8,-12652
  40ddb0:	24170080 	li	s7,128
  40ddb4:	001281c0 	sll	s0,s2,0x7
  40ddb8:	02d08021 	addu	s0,s6,s0
  40ddbc:	82020000 	lb	v0,0(s0)
  40ddc0:	1040003f 	beqz	v0,40dec0 <ConfWrite@@Base+0x184>
  40ddc4:	00000000 	nop
  40ddc8:	8f83812c 	lw	v1,-32468(gp)
  40ddcc:	26130040 	addiu	s3,s0,64
  40ddd0:	8f998248 	lw	t9,-32184(gp)
  40ddd4:	8c620000 	lw	v0,0(v1)
  40ddd8:	2c420002 	sltiu	v0,v0,2
  40dddc:	14400016 	bnez	v0,40de38 <ConfWrite@@Base+0xfc>
  40dde0:	03c0a021 	move	s4,s8
  40dde4:	0320f809 	jalr	t9
  40dde8:	00000000 	nop
  40ddec:	24070065 	li	a3,101
  40ddf0:	8fbc0018 	lw	gp,24(sp)
  40ddf4:	00402821 	move	a1,v0
  40ddf8:	8f828024 	lw	v0,-32732(gp)
  40ddfc:	8f848024 	lw	a0,-32732(gp)
  40de00:	8f868024 	lw	a2,-32732(gp)
  40de04:	2442cf84 	addiu	v0,v0,-12412
[31m  40de08:	8f9980b4 	lw	t9,printf[0m
  40de0c:	2484b4d0 	addiu	a0,a0,-19248
  40de10:	24c6ce48 	addiu	a2,a2,-12728
  40de14:	0320f809 	jalr	t9
  40de18:	afa20010 	sw	v0,16(sp)
  40de1c:	03c02021 	move	a0,s8
  40de20:	8fbc0018 	lw	gp,24(sp)
  40de24:	02002821 	move	a1,s0
[31m  40de28:	8f9980b4 	lw	t9,printf[0m
  40de2c:	0320f809 	jalr	t9
  40de30:	02603021 	move	a2,s3
--
  40e104:	afb70144 	sw	s7,324(sp)
  40e108:	afb60140 	sw	s6,320(sp)
  40e10c:	afb5013c 	sw	s5,316(sp)
  40e110:	afb40138 	sw	s4,312(sp)
  40e114:	afb30134 	sw	s3,308(sp)
  40e118:	afb20130 	sw	s2,304(sp)
  40e11c:	afb1012c 	sw	s1,300(sp)
  40e120:	afb00128 	sw	s0,296(sp)
  40e124:	afbc0018 	sw	gp,24(sp)
  40e128:	8f9e812c 	lw	s8,-32468(gp)
  40e12c:	afa40150 	sw	a0,336(sp)
  40e130:	8fc20000 	lw	v0,0(s8)
  40e134:	2c420002 	sltiu	v0,v0,2
  40e138:	14400017 	bnez	v0,40e198 <ConfParse@@Base+0xac>
  40e13c:	00a08021 	move	s0,a1
  40e140:	8f998248 	lw	t9,-32184(gp)
  40e144:	0320f809 	jalr	t9
  40e148:	00000000 	nop
  40e14c:	2407002a 	li	a3,42
  40e150:	8fbc0018 	lw	gp,24(sp)
  40e154:	00402821 	move	a1,v0
  40e158:	8f828024 	lw	v0,-32732(gp)
  40e15c:	8f848024 	lw	a0,-32732(gp)
  40e160:	8f868024 	lw	a2,-32732(gp)
  40e164:	2442cf90 	addiu	v0,v0,-12400
[31m  40e168:	8f9980b4 	lw	t9,printf[0m
  40e16c:	2484b4d0 	addiu	a0,a0,-19248
  40e170:	24c6ce48 	addiu	a2,a2,-12728
  40e174:	0320f809 	jalr	t9
  40e178:	afa20010 	sw	v0,16(sp)
  40e17c:	02002821 	move	a1,s0
  40e180:	8fbc0018 	lw	gp,24(sp)
  40e184:	8f848024 	lw	a0,-32732(gp)
[31m  40e188:	8f9980b4 	lw	t9,printf[0m
  40e18c:	0320f809 	jalr	t9
  40e190:	2484ce9c 	addiu	a0,a0,-12644
--
  40e264:	02002021 	move	a0,s0
  40e268:	8fbc0018 	lw	gp,24(sp)
  40e26c:	02802821 	move	a1,s4
  40e270:	8f9981f4 	lw	t9,-32268(gp)
  40e274:	10400049 	beqz	v0,40e39c <ConfParse@@Base+0x2b0>
  40e278:	02203021 	move	a2,s1
  40e27c:	0320f809 	jalr	t9
  40e280:	02403821 	move	a3,s2
  40e284:	8fbc0018 	lw	gp,24(sp)
  40e288:	1455fff1 	bne	v0,s5,40e250 <ConfParse@@Base+0x164>
  40e28c:	00000000 	nop
  40e290:	8fc20000 	lw	v0,0(s8)
  40e294:	2c420002 	sltiu	v0,v0,2
  40e298:	14400019 	bnez	v0,40e300 <ConfParse@@Base+0x214>
  40e29c:	00000000 	nop
  40e2a0:	8f998248 	lw	t9,-32184(gp)
  40e2a4:	0320f809 	jalr	t9
  40e2a8:	00000000 	nop
  40e2ac:	2407003d 	li	a3,61
  40e2b0:	8fbc0018 	lw	gp,24(sp)
  40e2b4:	00402821 	move	a1,v0
  40e2b8:	8f838024 	lw	v1,-32732(gp)
  40e2bc:	8f848024 	lw	a0,-32732(gp)
  40e2c0:	8f868024 	lw	a2,-32732(gp)
  40e2c4:	2463cf90 	addiu	v1,v1,-12400
[31m  40e2c8:	8f9980b4 	lw	t9,printf[0m
  40e2cc:	2484b4d0 	addiu	a0,a0,-19248
  40e2d0:	afa30010 	sw	v1,16(sp)
  40e2d4:	0320f809 	jalr	t9
  40e2d8:	24c6ce48 	addiu	a2,a2,-12728
  40e2dc:	02c02821 	move	a1,s6
  40e2e0:	8fbc0018 	lw	gp,24(sp)
  40e2e4:	02203021 	move	a2,s1
  40e2e8:	02403821 	move	a3,s2
  40e2ec:	8f848024 	lw	a0,-32732(gp)
[31m  40e2f0:	8f9980b4 	lw	t9,printf[0m
  40e2f4:	0320f809 	jalr	t9
  40e2f8:	2484cee0 	addiu	a0,a0,-12576
--
  40e3c8:	8fbe0148 	lw	s8,328(sp)
  40e3cc:	8fb70144 	lw	s7,324(sp)
  40e3d0:	8fb60140 	lw	s6,320(sp)
  40e3d4:	8fb5013c 	lw	s5,316(sp)
  40e3d8:	8fb40138 	lw	s4,312(sp)
  40e3dc:	8fb30134 	lw	s3,308(sp)
  40e3e0:	8fb20130 	lw	s2,304(sp)
  40e3e4:	8fb1012c 	lw	s1,300(sp)
  40e3e8:	8fb00128 	lw	s0,296(sp)
  40e3ec:	03e00008 	jr	ra
  40e3f0:	27bd0150 	addiu	sp,sp,336
  40e3f4:	8fc20000 	lw	v0,0(s8)
  40e3f8:	2c420002 	sltiu	v0,v0,2
  40e3fc:	14400017 	bnez	v0,40e45c <ConfParse@@Base+0x370>
  40e400:	00000000 	nop
  40e404:	8f998248 	lw	t9,-32184(gp)
  40e408:	0320f809 	jalr	t9
  40e40c:	00000000 	nop
  40e410:	2407002f 	li	a3,47
  40e414:	8fbc0018 	lw	gp,24(sp)
  40e418:	00402821 	move	a1,v0
  40e41c:	8f828024 	lw	v0,-32732(gp)
  40e420:	8f848024 	lw	a0,-32732(gp)
  40e424:	8f868024 	lw	a2,-32732(gp)
  40e428:	2442cf90 	addiu	v0,v0,-12400
[31m  40e42c:	8f9980b4 	lw	t9,printf[0m
  40e430:	2484b4d0 	addiu	a0,a0,-19248
  40e434:	24c6ce48 	addiu	a2,a2,-12728
  40e438:	0320f809 	jalr	t9
  40e43c:	afa20010 	sw	v0,16(sp)
  40e440:	02002821 	move	a1,s0
  40e444:	8fbc0018 	lw	gp,24(sp)
  40e448:	8f848024 	lw	a0,-32732(gp)
[31m  40e44c:	8f9980b4 	lw	t9,printf[0m
  40e450:	0320f809 	jalr	t9
  40e454:	2484cea8 	addiu	a0,a0,-12632
--
  40e498:	8e240000 	lw	a0,0(s1)
  40e49c:	8f858024 	lw	a1,-32732(gp)
  40e4a0:	8f998168 	lw	t9,-32408(gp)
  40e4a4:	0320f809 	jalr	t9
  40e4a8:	24a5cea8 	addiu	a1,a1,-12632
  40e4ac:	8fbc0018 	lw	gp,24(sp)
  40e4b0:	8e240000 	lw	a0,0(s1)
  40e4b4:	8f9981a4 	lw	t9,-32348(gp)
  40e4b8:	0320f809 	jalr	t9
  40e4bc:	00000000 	nop
  40e4c0:	8fbc0018 	lw	gp,24(sp)
  40e4c4:	8fc20000 	lw	v0,0(s8)
  40e4c8:	2c420002 	sltiu	v0,v0,2
  40e4cc:	14400022 	bnez	v0,40e558 <ConfParse@@Base+0x46c>
  40e4d0:	00000000 	nop
  40e4d4:	8f998248 	lw	t9,-32184(gp)
  40e4d8:	0320f809 	jalr	t9
  40e4dc:	00000000 	nop
  40e4e0:	24070030 	li	a3,48
  40e4e4:	8fbc0018 	lw	gp,24(sp)
  40e4e8:	00402821 	move	a1,v0
  40e4ec:	8f828024 	lw	v0,-32732(gp)
  40e4f0:	8f848024 	lw	a0,-32732(gp)
  40e4f4:	8f868024 	lw	a2,-32732(gp)
  40e4f8:	2442cf90 	addiu	v0,v0,-12400
[31m  40e4fc:	8f9980b4 	lw	t9,printf[0m
  40e500:	2484b4d0 	addiu	a0,a0,-19248
  40e504:	24c6ce48 	addiu	a2,a2,-12728
  40e508:	0320f809 	jalr	t9
  40e50c:	afa20010 	sw	v0,16(sp)
  40e510:	8fbc0018 	lw	gp,24(sp)
  40e514:	8f9983ec 	lw	t9,-31764(gp)
  40e518:	0320f809 	jalr	t9
  40e51c:	00000000 	nop
  40e520:	8fbc0018 	lw	gp,24(sp)
  40e524:	8c440000 	lw	a0,0(v0)
  40e528:	8f9980bc 	lw	t9,-32580(gp)
  40e52c:	0320f809 	jalr	t9
  40e530:	00000000 	nop
  40e534:	8fbc0018 	lw	gp,24(sp)
  40e538:	00403021 	move	a2,v0
  40e53c:	8f848024 	lw	a0,-32732(gp)
  40e540:	8f858024 	lw	a1,-32732(gp)
[31m  40e544:	8f9980b4 	lw	t9,printf[0m
  40e548:	2484c440 	addiu	a0,a0,-15296
  40e54c:	0320f809 	jalr	t9
--
  40e5cc:	24a5c440 	addiu	a1,a1,-15296
  40e5d0:	0320f809 	jalr	t9
  40e5d4:	24c6ceb8 	addiu	a2,a2,-12616
  40e5d8:	8fbc0018 	lw	gp,24(sp)
  40e5dc:	8e040000 	lw	a0,0(s0)
  40e5e0:	8f9981a4 	lw	t9,-32348(gp)
  40e5e4:	0320f809 	jalr	t9
  40e5e8:	00000000 	nop
  40e5ec:	8fbc0018 	lw	gp,24(sp)
  40e5f0:	1000ff0b 	b	40e220 <ConfParse@@Base+0x134>
  40e5f4:	00000000 	nop
  40e5f8:	8fc20000 	lw	v0,0(s8)
  40e5fc:	2c420002 	sltiu	v0,v0,2
  40e600:	1440001d 	bnez	v0,40e678 <ConfParse@@Base+0x58c>
  40e604:	00000000 	nop
  40e608:	8f998248 	lw	t9,-32184(gp)
  40e60c:	0320f809 	jalr	t9
  40e610:	00000000 	nop
  40e614:	24070041 	li	a3,65
  40e618:	8fbc0018 	lw	gp,24(sp)
  40e61c:	00402821 	move	a1,v0
  40e620:	8f828024 	lw	v0,-32732(gp)
  40e624:	8f848024 	lw	a0,-32732(gp)
  40e628:	8f868024 	lw	a2,-32732(gp)
  40e62c:	2442cf90 	addiu	v0,v0,-12400
[31m  40e630:	8f9980b4 	lw	t9,printf[0m
  40e634:	2484b4d0 	addiu	a0,a0,-19248
  40e638:	24c6ce48 	addiu	a2,a2,-12728
  40e63c:	0320f809 	jalr	t9
  40e640:	afa20010 	sw	v0,16(sp)
  40e644:	8fbc0018 	lw	gp,24(sp)
  40e648:	8fa40120 	lw	a0,288(sp)
  40e64c:	8f998334 	lw	t9,strlen
  40e650:	0320f809 	jalr	t9
  40e654:	00000000 	nop
  40e658:	24060040 	li	a2,64
  40e65c:	8fbc0018 	lw	gp,24(sp)
  40e660:	00402821 	move	a1,v0
  40e664:	8f848024 	lw	a0,-32732(gp)
[31m  40e668:	8f9980b4 	lw	t9,printf[0m
  40e66c:	0320f809 	jalr	t9
  40e670:	2484cefc 	addiu	a0,a0,-12548
--
  40e710:	8fbe0148 	lw	s8,328(sp)
  40e714:	8fb70144 	lw	s7,324(sp)
  40e718:	8fb60140 	lw	s6,320(sp)
  40e71c:	8fb5013c 	lw	s5,316(sp)
  40e720:	8fb40138 	lw	s4,312(sp)
  40e724:	8fb30134 	lw	s3,308(sp)
  40e728:	8fb20130 	lw	s2,304(sp)
  40e72c:	8fb1012c 	lw	s1,300(sp)
  40e730:	8fb00128 	lw	s0,296(sp)
  40e734:	03e00008 	jr	ra
  40e738:	27bd0150 	addiu	sp,sp,336
  40e73c:	8fc20000 	lw	v0,0(s8)
  40e740:	2c420002 	sltiu	v0,v0,2
  40e744:	14400018 	bnez	v0,40e7a8 <ConfParse@@Base+0x6bc>
  40e748:	00000000 	nop
  40e74c:	8f998248 	lw	t9,-32184(gp)
  40e750:	0320f809 	jalr	t9
  40e754:	00000000 	nop
  40e758:	24070035 	li	a3,53
  40e75c:	8fbc0018 	lw	gp,24(sp)
  40e760:	00402821 	move	a1,v0
  40e764:	8f828024 	lw	v0,-32732(gp)
  40e768:	8f848024 	lw	a0,-32732(gp)
  40e76c:	8f868024 	lw	a2,-32732(gp)
  40e770:	2442cf90 	addiu	v0,v0,-12400
[31m  40e774:	8f9980b4 	lw	t9,printf[0m
  40e778:	2484b4d0 	addiu	a0,a0,-19248
  40e77c:	24c6ce48 	addiu	a2,a2,-12728
  40e780:	0320f809 	jalr	t9
  40e784:	afa20010 	sw	v0,16(sp)
  40e788:	02603021 	move	a2,s3
  40e78c:	8fbc0018 	lw	gp,24(sp)
  40e790:	8fa50150 	lw	a1,336(sp)
  40e794:	8f848024 	lw	a0,-32732(gp)
[31m  40e798:	8f9980b4 	lw	t9,printf[0m
  40e79c:	0320f809 	jalr	t9
  40e7a0:	2484cec0 	addiu	a0,a0,-12608
--
  40e928:	8f9981ec 	lw	t9,-32276(gp)
  40e92c:	24060040 	li	a2,64
  40e930:	0320f809 	jalr	t9
  40e934:	02c02821 	move	a1,s6
  40e938:	8fbc0018 	lw	gp,24(sp)
  40e93c:	8f99836c 	lw	t9,-31892(gp)
  40e940:	02802021 	move	a0,s4
  40e944:	0320f809 	jalr	t9
  40e948:	02202821 	move	a1,s1
  40e94c:	8fbc0018 	lw	gp,24(sp)
  40e950:	8f82812c 	lw	v0,-32468(gp)
  40e954:	8c420000 	lw	v0,0(v0)
  40e958:	2c420002 	sltiu	v0,v0,2
  40e95c:	14400018 	bnez	v0,40e9c0 <ConfUpdate@@Base+0x1a4>
  40e960:	00000000 	nop
  40e964:	8f998248 	lw	t9,-32184(gp)
  40e968:	0320f809 	jalr	t9
  40e96c:	00000000 	nop
  40e970:	24070122 	li	a3,290
  40e974:	8fbc0018 	lw	gp,24(sp)
  40e978:	00402821 	move	a1,v0
  40e97c:	8f828024 	lw	v0,-32732(gp)
  40e980:	8f848024 	lw	a0,-32732(gp)
  40e984:	8f868024 	lw	a2,-32732(gp)
  40e988:	2442cf6c 	addiu	v0,v0,-12436
[31m  40e98c:	8f9980b4 	lw	t9,printf[0m
  40e990:	2484b4d0 	addiu	a0,a0,-19248
  40e994:	24c6ce48 	addiu	a2,a2,-12728
  40e998:	0320f809 	jalr	t9
  40e99c:	afa20010 	sw	v0,16(sp)
  40e9a0:	02202821 	move	a1,s1
  40e9a4:	8fbc0018 	lw	gp,24(sp)
  40e9a8:	02603021 	move	a2,s3
  40e9ac:	8f848024 	lw	a0,-32732(gp)
[31m  40e9b0:	8f9980b4 	lw	t9,printf[0m
  40e9b4:	0320f809 	jalr	t9
  40e9b8:	2484cf48 	addiu	a0,a0,-12472
--
  40eb9c:	24060040 	li	a2,64
  40eba0:	8f9981ec 	lw	t9,-32276(gp)
  40eba4:	00402021 	move	a0,v0
  40eba8:	0320f809 	jalr	t9
  40ebac:	02a02821 	move	a1,s5
  40ebb0:	8fbc0018 	lw	gp,24(sp)
  40ebb4:	8f9982d0 	lw	t9,-32048(gp)
  40ebb8:	0320f809 	jalr	t9
  40ebbc:	02002021 	move	a0,s0
  40ebc0:	8fbc0018 	lw	gp,24(sp)
  40ebc4:	8f82812c 	lw	v0,-32468(gp)
  40ebc8:	8c420000 	lw	v0,0(v0)
  40ebcc:	2c420002 	sltiu	v0,v0,2
  40ebd0:	14400018 	bnez	v0,40ec34 <conf_read@@Base+0x1ac>
  40ebd4:	00000000 	nop
  40ebd8:	8f998248 	lw	t9,-32184(gp)
  40ebdc:	0320f809 	jalr	t9
  40ebe0:	00000000 	nop
  40ebe4:	24070148 	li	a3,328
  40ebe8:	8fbc0018 	lw	gp,24(sp)
  40ebec:	00402821 	move	a1,v0
  40ebf0:	8f828024 	lw	v0,-32732(gp)
  40ebf4:	8f848024 	lw	a0,-32732(gp)
  40ebf8:	8f868024 	lw	a2,-32732(gp)
  40ebfc:	2442cf60 	addiu	v0,v0,-12448
[31m  40ec00:	8f9980b4 	lw	t9,printf[0m
  40ec04:	2484b4d0 	addiu	a0,a0,-19248
  40ec08:	24c6ce48 	addiu	a2,a2,-12728
  40ec0c:	0320f809 	jalr	t9
  40ec10:	afa20010 	sw	v0,16(sp)
  40ec14:	02002821 	move	a1,s0
  40ec18:	8fbc0018 	lw	gp,24(sp)
  40ec1c:	02203021 	move	a2,s1
  40ec20:	8f848024 	lw	a0,-32732(gp)
[31m  40ec24:	8f9980b4 	lw	t9,printf[0m
  40ec28:	0320f809 	jalr	t9
  40ec2c:	2484cf48 	addiu	a0,a0,-12472
--
  40ee20:	0320f809 	jalr	t9
  40ee24:	afa20014 	sw	v0,20(sp)
  40ee28:	02202021 	move	a0,s1
  40ee2c:	8fbc0018 	lw	gp,24(sp)
  40ee30:	8f998334 	lw	t9,strlen
  40ee34:	0320f809 	jalr	t9
  40ee38:	00408821 	move	s1,v0
  40ee3c:	8fbc0018 	lw	gp,24(sp)
  40ee40:	1222005c 	beq	s1,v0,40efb4 <conf_read@@Base+0x52c>
  40ee44:	00001021 	move	v0,zero
  40ee48:	8f82812c 	lw	v0,-32468(gp)
  40ee4c:	8c420000 	lw	v0,0(v0)
  40ee50:	2c420002 	sltiu	v0,v0,2
  40ee54:	14400016 	bnez	v0,40eeb0 <conf_read@@Base+0x428>
  40ee58:	00000000 	nop
  40ee5c:	8f998248 	lw	t9,-32184(gp)
  40ee60:	0320f809 	jalr	t9
  40ee64:	00000000 	nop
  40ee68:	2407002d 	li	a3,45
  40ee6c:	8fbc0018 	lw	gp,24(sp)
  40ee70:	00402821 	move	a1,v0
  40ee74:	8f828024 	lw	v0,-32732(gp)
  40ee78:	8f848024 	lw	a0,-32732(gp)
  40ee7c:	8f868024 	lw	a2,-32732(gp)
  40ee80:	2442cff0 	addiu	v0,v0,-12304
[31m  40ee84:	8f9980b4 	lw	t9,printf[0m
  40ee88:	2484b4d0 	addiu	a0,a0,-19248
  40ee8c:	24c6cfb8 	addiu	a2,a2,-12360
--
  40ef78:	8f9282f8 	lw	s2,-32008(gp)
  40ef7c:	24020002 	li	v0,2
  40ef80:	02802021 	move	a0,s4
  40ef84:	8f998160 	lw	t9,-32416(gp)
  40ef88:	ae400000 	sw	zero,0(s2)
  40ef8c:	ae400004 	sw	zero,4(s2)
  40ef90:	a6420000 	sh	v0,0(s2)
  40ef94:	ae400008 	sw	zero,8(s2)
  40ef98:	0320f809 	jalr	t9
  40ef9c:	ae40000c 	sw	zero,12(s2)
  40efa0:	8fbc0018 	lw	gp,24(sp)
  40efa4:	8e150000 	lw	s5,0(s0)
  40efa8:	ae420004 	sw	v0,4(s2)
  40efac:	1000ff91 	b	40edf4 <conf_read@@Base+0x36c>
  40efb0:	a6530002 	sh	s3,2(s2)
  40efb4:	8fbf003c 	lw	ra,60(sp)
  40efb8:	8fb50038 	lw	s5,56(sp)
  40efbc:	8fb40034 	lw	s4,52(sp)
  40efc0:	8fb30030 	lw	s3,48(sp)
  40efc4:	8fb2002c 	lw	s2,44(sp)
  40efc8:	8fb10028 	lw	s1,40(sp)
  40efcc:	8fb00024 	lw	s0,36(sp)
  40efd0:	03e00008 	jr	ra
  40efd4:	27bd0040 	addiu	sp,sp,64
  40efd8:	8f848024 	lw	a0,-32732(gp)
[31m  40efdc:	8f9980b4 	lw	t9,printf[0m
  40efe0:	0320f809 	jalr	t9
  40efe4:	2484cfa0 	addiu	a0,a0,-12384
--
  40f5cc:	8fbc0018 	lw	gp,24(sp)
  40f5d0:	04400008 	bltz	v0,40f5f4 <settimeouts@@Base+0xa8>
  40f5d4:	00000000 	nop
  40f5d8:	8fbf003c 	lw	ra,60(sp)
  40f5dc:	8fb30038 	lw	s3,56(sp)
  40f5e0:	8fb20034 	lw	s2,52(sp)
  40f5e4:	8fb10030 	lw	s1,48(sp)
  40f5e8:	8fb0002c 	lw	s0,44(sp)
  40f5ec:	03e00008 	jr	ra
  40f5f0:	27bd0040 	addiu	sp,sp,64
  40f5f4:	8f82812c 	lw	v0,-32468(gp)
  40f5f8:	8c420000 	lw	v0,0(v0)
  40f5fc:	2c420002 	sltiu	v0,v0,2
  40f600:	14400022 	bnez	v0,40f68c <settimeouts@@Base+0x140>
  40f604:	00000000 	nop
  40f608:	8f998248 	lw	t9,-32184(gp)
  40f60c:	0320f809 	jalr	t9
  40f610:	00000000 	nop
  40f614:	240703f1 	li	a3,1009
  40f618:	8fbc0018 	lw	gp,24(sp)
  40f61c:	00402821 	move	a1,v0
  40f620:	8f828024 	lw	v0,-32732(gp)
  40f624:	8f848024 	lw	a0,-32732(gp)
  40f628:	8f868024 	lw	a2,-32732(gp)
  40f62c:	2442d470 	addiu	v0,v0,-11152
[31m  40f630:	8f9980b4 	lw	t9,printf[0m
  40f634:	2484b4d0 	addiu	a0,a0,-19248
  40f638:	24c6d008 	addiu	a2,a2,-12280
  40f63c:	0320f809 	jalr	t9
  40f640:	afa20010 	sw	v0,16(sp)
  40f644:	8fbc0018 	lw	gp,24(sp)
  40f648:	8f9983ec 	lw	t9,-31764(gp)
  40f64c:	0320f809 	jalr	t9
  40f650:	00000000 	nop
  40f654:	8fbc0018 	lw	gp,24(sp)
  40f658:	8c440000 	lw	a0,0(v0)
  40f65c:	8f9980bc 	lw	t9,-32580(gp)
  40f660:	0320f809 	jalr	t9
  40f664:	00000000 	nop
  40f668:	8fbc0018 	lw	gp,24(sp)
  40f66c:	00403021 	move	a2,v0
  40f670:	8f848024 	lw	a0,-32732(gp)
  40f674:	8f858024 	lw	a1,-32732(gp)
[31m  40f678:	8f9980b4 	lw	t9,printf[0m
  40f67c:	2484c440 	addiu	a0,a0,-15296
  40f680:	0320f809 	jalr	t9
--
  40f714:	8f9981a4 	lw	t9,-32348(gp)
  40f718:	0320f809 	jalr	t9
  40f71c:	00000000 	nop
  40f720:	8fbf003c 	lw	ra,60(sp)
  40f724:	8fb30038 	lw	s3,56(sp)
  40f728:	8fb20034 	lw	s2,52(sp)
  40f72c:	8fb10030 	lw	s1,48(sp)
  40f730:	8fb0002c 	lw	s0,44(sp)
  40f734:	03e00008 	jr	ra
  40f738:	27bd0040 	addiu	sp,sp,64
  40f73c:	8f82812c 	lw	v0,-32468(gp)
  40f740:	8c420000 	lw	v0,0(v0)
  40f744:	2c420002 	sltiu	v0,v0,2
  40f748:	14400022 	bnez	v0,40f7d4 <settimeouts@@Base+0x288>
  40f74c:	00000000 	nop
  40f750:	8f998248 	lw	t9,-32184(gp)
  40f754:	0320f809 	jalr	t9
  40f758:	00000000 	nop
  40f75c:	240703ec 	li	a3,1004
  40f760:	8fbc0018 	lw	gp,24(sp)
  40f764:	00402821 	move	a1,v0
  40f768:	8f828024 	lw	v0,-32732(gp)
  40f76c:	8f848024 	lw	a0,-32732(gp)
  40f770:	8f868024 	lw	a2,-32732(gp)
  40f774:	2442d470 	addiu	v0,v0,-11152
[31m  40f778:	8f9980b4 	lw	t9,printf[0m
  40f77c:	2484b4d0 	addiu	a0,a0,-19248
  40f780:	24c6d008 	addiu	a2,a2,-12280
  40f784:	0320f809 	jalr	t9
  40f788:	afa20010 	sw	v0,16(sp)
  40f78c:	8fbc0018 	lw	gp,24(sp)
  40f790:	8f9983ec 	lw	t9,-31764(gp)
  40f794:	0320f809 	jalr	t9
  40f798:	00000000 	nop
  40f79c:	8fbc0018 	lw	gp,24(sp)
  40f7a0:	8c440000 	lw	a0,0(v0)
  40f7a4:	8f9980bc 	lw	t9,-32580(gp)
  40f7a8:	0320f809 	jalr	t9
  40f7ac:	00000000 	nop
  40f7b0:	8fbc0018 	lw	gp,24(sp)
  40f7b4:	00403021 	move	a2,v0
  40f7b8:	8f848024 	lw	a0,-32732(gp)
  40f7bc:	8f858024 	lw	a1,-32732(gp)
[31m  40f7c0:	8f9980b4 	lw	t9,printf[0m
  40f7c4:	2484c440 	addiu	a0,a0,-15296
  40f7c8:	0320f809 	jalr	t9
--
  40f8c4:	8f9981f4 	lw	t9,-32268(gp)
  40f8c8:	02003021 	move	a2,s0
  40f8cc:	8f9e812c 	lw	s8,-32468(gp)
  40f8d0:	24a5d048 	addiu	a1,a1,-12216
  40f8d4:	afa73a24 	sw	a3,14884(sp)
  40f8d8:	00403821 	move	a3,v0
  40f8dc:	afa239d0 	sw	v0,14800(sp)
  40f8e0:	afa00020 	sw	zero,32(sp)
  40f8e4:	0320f809 	jalr	t9
  40f8e8:	a7a00024 	sh	zero,36(sp)
  40f8ec:	8fc20000 	lw	v0,0(s8)
  40f8f0:	8fbc0018 	lw	gp,24(sp)
  40f8f4:	2c420002 	sltiu	v0,v0,2
  40f8f8:	14400018 	bnez	v0,40f95c <https_proxy_post_timeout@@Base+0xe8>
  40f8fc:	00000000 	nop
  40f900:	8f998248 	lw	t9,-32184(gp)
  40f904:	0320f809 	jalr	t9
  40f908:	00000000 	nop
  40f90c:	2407018b 	li	a3,395
  40f910:	8fbc0018 	lw	gp,24(sp)
  40f914:	00402821 	move	a1,v0
  40f918:	8f828024 	lw	v0,-32732(gp)
  40f91c:	8f848024 	lw	a0,-32732(gp)
  40f920:	8f868024 	lw	a2,-32732(gp)
  40f924:	2442d4b4 	addiu	v0,v0,-11084
[31m  40f928:	8f9980b4 	lw	t9,printf[0m
  40f92c:	2484b4d0 	addiu	a0,a0,-19248
  40f930:	24c6d008 	addiu	a2,a2,-12280
  40f934:	0320f809 	jalr	t9
  40f938:	afa20010 	sw	v0,16(sp)
  40f93c:	02002821 	move	a1,s0
  40f940:	8fbc0018 	lw	gp,24(sp)
  40f944:	8fa639d0 	lw	a2,14800(sp)
  40f948:	8f848024 	lw	a0,-32732(gp)
[31m  40f94c:	8f9980b4 	lw	t9,printf[0m
  40f950:	0320f809 	jalr	t9
  40f954:	2484d058 	addiu	a0,a0,-12200
--
  40fad4:	24062800 	li	a2,10240
  40fad8:	02403821 	move	a3,s2
  40fadc:	8fbc0018 	lw	gp,24(sp)
  40fae0:	02202021 	move	a0,s1
  40fae4:	8fa63a1c 	lw	a2,14876(sp)
  40fae8:	8f858024 	lw	a1,-32732(gp)
  40faec:	8f99814c 	lw	t9,-32436(gp)
  40faf0:	afa60010 	sw	a2,16(sp)
  40faf4:	0320f809 	jalr	t9
  40faf8:	24a5d0f0 	addiu	a1,a1,-12048
  40fafc:	8fc20000 	lw	v0,0(s8)
  40fb00:	8fbc0018 	lw	gp,24(sp)
  40fb04:	2c420002 	sltiu	v0,v0,2
  40fb08:	14400017 	bnez	v0,40fb68 <https_proxy_post_timeout@@Base+0x2f4>
  40fb0c:	00000000 	nop
  40fb10:	8f998248 	lw	t9,-32184(gp)
  40fb14:	0320f809 	jalr	t9
  40fb18:	00000000 	nop
  40fb1c:	240701c0 	li	a3,448
  40fb20:	8fbc0018 	lw	gp,24(sp)
  40fb24:	00402821 	move	a1,v0
  40fb28:	8f828024 	lw	v0,-32732(gp)
  40fb2c:	8f848024 	lw	a0,-32732(gp)
  40fb30:	8f868024 	lw	a2,-32732(gp)
  40fb34:	2442d4b4 	addiu	v0,v0,-11084
[31m  40fb38:	8f9980b4 	lw	t9,printf[0m
  40fb3c:	2484b4d0 	addiu	a0,a0,-19248
  40fb40:	24c6d008 	addiu	a2,a2,-12280
  40fb44:	0320f809 	jalr	t9
  40fb48:	afa20010 	sw	v0,16(sp)
  40fb4c:	02202821 	move	a1,s1
  40fb50:	8fbc0018 	lw	gp,24(sp)
  40fb54:	8f848024 	lw	a0,-32732(gp)
[31m  40fb58:	8f9980b4 	lw	t9,printf[0m
  40fb5c:	0320f809 	jalr	t9
  40fb60:	2484d148 	addiu	a0,a0,-11960
--
  40fcc4:	0320f809 	jalr	t9
  40fcc8:	00000000 	nop
  40fccc:	24062800 	li	a2,10240
  40fcd0:	02202821 	move	a1,s1
  40fcd4:	8fbc0018 	lw	gp,24(sp)
  40fcd8:	8fa439c8 	lw	a0,14792(sp)
  40fcdc:	8f998338 	lw	t9,-31944(gp)
  40fce0:	0320f809 	jalr	t9
  40fce4:	00003821 	move	a3,zero
  40fce8:	00409021 	move	s2,v0
  40fcec:	8fc20000 	lw	v0,0(s8)
  40fcf0:	8fbc0018 	lw	gp,24(sp)
  40fcf4:	2c420002 	sltiu	v0,v0,2
  40fcf8:	8f998248 	lw	t9,-32184(gp)
  40fcfc:	14400017 	bnez	v0,40fd5c <https_proxy_post_timeout@@Base+0x4e8>
  40fd00:	00000000 	nop
  40fd04:	0320f809 	jalr	t9
  40fd08:	00000000 	nop
  40fd0c:	240701d5 	li	a3,469
  40fd10:	8fbc0018 	lw	gp,24(sp)
  40fd14:	00402821 	move	a1,v0
  40fd18:	8f838024 	lw	v1,-32732(gp)
  40fd1c:	8f848024 	lw	a0,-32732(gp)
  40fd20:	8f868024 	lw	a2,-32732(gp)
  40fd24:	2463d4b4 	addiu	v1,v1,-11084
[31m  40fd28:	8f9980b4 	lw	t9,printf[0m
  40fd2c:	2484b4d0 	addiu	a0,a0,-19248
  40fd30:	afa30010 	sw	v1,16(sp)
  40fd34:	0320f809 	jalr	t9
  40fd38:	24c6d008 	addiu	a2,a2,-12280
  40fd3c:	02402821 	move	a1,s2
  40fd40:	8fbc0018 	lw	gp,24(sp)
  40fd44:	02203021 	move	a2,s1
  40fd48:	8f848024 	lw	a0,-32732(gp)
[31m  40fd4c:	8f9980b4 	lw	t9,printf[0m
  40fd50:	0320f809 	jalr	t9
  40fd54:	2484d154 	addiu	a0,a0,-11948
--
  40feb8:	afa239c8 	sw	v0,14792(sp)
  40febc:	8f998268 	lw	t9,-32152(gp)
  40fec0:	8fa439c8 	lw	a0,14792(sp)
  40fec4:	0320f809 	jalr	t9
  40fec8:	02a02821 	move	a1,s5
  40fecc:	8fbc0018 	lw	gp,24(sp)
  40fed0:	8fa439c8 	lw	a0,14792(sp)
  40fed4:	8f998430 	lw	t9,-31696(gp)
  40fed8:	0320f809 	jalr	t9
  40fedc:	00000000 	nop
  40fee0:	8fc30000 	lw	v1,0(s8)
  40fee4:	8fbc0018 	lw	gp,24(sp)
  40fee8:	2c630002 	sltiu	v1,v1,2
  40feec:	14600017 	bnez	v1,40ff4c <https_proxy_post_timeout@@Base+0x6d8>
  40fef0:	afa239d4 	sw	v0,14804(sp)
  40fef4:	8f998248 	lw	t9,-32184(gp)
  40fef8:	0320f809 	jalr	t9
  40fefc:	00000000 	nop
  40ff00:	24070208 	li	a3,520
  40ff04:	8fbc0018 	lw	gp,24(sp)
  40ff08:	00402821 	move	a1,v0
  40ff0c:	8f828024 	lw	v0,-32732(gp)
  40ff10:	8f848024 	lw	a0,-32732(gp)
  40ff14:	8f868024 	lw	a2,-32732(gp)
  40ff18:	2442d4b4 	addiu	v0,v0,-11084
[31m  40ff1c:	8f9980b4 	lw	t9,printf[0m
  40ff20:	2484b4d0 	addiu	a0,a0,-19248
  40ff24:	24c6d008 	addiu	a2,a2,-12280
  40ff28:	0320f809 	jalr	t9
  40ff2c:	afa20010 	sw	v0,16(sp)
  40ff30:	8fbc0018 	lw	gp,24(sp)
  40ff34:	8fa539d4 	lw	a1,14804(sp)
  40ff38:	8f848024 	lw	a0,-32732(gp)
[31m  40ff3c:	8f9980b4 	lw	t9,printf[0m
  40ff40:	0320f809 	jalr	t9
  40ff44:	2484d1d0 	addiu	a0,a0,-11824
--
  40ffa0:	24a5d1d0 	addiu	a1,a1,-11824
  40ffa4:	8fbc0018 	lw	gp,24(sp)
  40ffa8:	8fa339ec 	lw	v1,14828(sp)
  40ffac:	8f9981a4 	lw	t9,-32348(gp)
  40ffb0:	8c640000 	lw	a0,0(v1)
  40ffb4:	0320f809 	jalr	t9
  40ffb8:	00000000 	nop
  40ffbc:	8fbc0018 	lw	gp,24(sp)
  40ffc0:	8fa339d4 	lw	v1,14804(sp)
  40ffc4:	1860033e 	blez	v1,410cc0 <https_proxy_post_timeout@@Base+0x144c>
  40ffc8:	00000000 	nop
  40ffcc:	8fc20000 	lw	v0,0(s8)
  40ffd0:	2c420002 	sltiu	v0,v0,2
  40ffd4:	14400016 	bnez	v0,410030 <https_proxy_post_timeout@@Base+0x7bc>
  40ffd8:	00000000 	nop
  40ffdc:	8f998248 	lw	t9,-32184(gp)
  40ffe0:	0320f809 	jalr	t9
  40ffe4:	00000000 	nop
  40ffe8:	2407020b 	li	a3,523
  40ffec:	8fbc0018 	lw	gp,24(sp)
  40fff0:	00402821 	move	a1,v0
  40fff4:	8f828024 	lw	v0,-32732(gp)
  40fff8:	8f848024 	lw	a0,-32732(gp)
  40fffc:	8f868024 	lw	a2,-32732(gp)
  410000:	2442d4b4 	addiu	v0,v0,-11084
[31m  410004:	8f9980b4 	lw	t9,printf[0m
  410008:	2484b4d0 	addiu	a0,a0,-19248
  41000c:	24c6d008 	addiu	a2,a2,-12280
--
  410098:	8fbc0018 	lw	gp,24(sp)
  41009c:	8f9981a0 	lw	t9,-32352(gp)
  4100a0:	27a201c0 	addiu	v0,sp,448
  4100a4:	02202021 	move	a0,s1
  4100a8:	00002821 	move	a1,zero
  4100ac:	24062800 	li	a2,10240
  4100b0:	0320f809 	jalr	t9
  4100b4:	afa239d4 	sw	v0,14804(sp)
  4100b8:	8fbc0018 	lw	gp,24(sp)
  4100bc:	8fa339d0 	lw	v1,14800(sp)
  4100c0:	8fa439e4 	lw	a0,14820(sp)
  4100c4:	8f858024 	lw	a1,-32732(gp)
  4100c8:	00643821 	addu	a3,v1,a0
  4100cc:	27a311c0 	addiu	v1,sp,4544
  4100d0:	02202021 	move	a0,s1
  4100d4:	8fa63a1c 	lw	a2,14876(sp)
  4100d8:	8f99814c 	lw	t9,-32436(gp)
  4100dc:	afa339ec 	sw	v1,14828(sp)
  4100e0:	afa739e8 	sw	a3,14824(sp)
  4100e4:	8fb239d4 	lw	s2,14804(sp)
  4100e8:	0320f809 	jalr	t9
  4100ec:	24a5d22c 	addiu	a1,a1,-11732
  4100f0:	02202821 	move	a1,s1
  4100f4:	8fbc0018 	lw	gp,24(sp)
  4100f8:	8f848024 	lw	a0,-32732(gp)
[31m  4100fc:	8f9980b4 	lw	t9,printf[0m
  410100:	0320f809 	jalr	t9
  410104:	2484bcac 	addiu	a0,a0,-17236
--
  410200:	00000000 	nop
  410204:	12c0003e 	beqz	s6,410300 <https_proxy_post_timeout@@Base+0xa8c>
  410208:	24510004 	addiu	s1,v0,4
  41020c:	24050001 	li	a1,1
  410210:	02c03821 	move	a3,s6
  410214:	8fa239d4 	lw	v0,14804(sp)
  410218:	02202021 	move	a0,s1
  41021c:	8f9983e0 	lw	t9,-31776(gp)
  410220:	0320f809 	jalr	t9
  410224:	02223023 	subu	a2,s1,v0
  410228:	8fc20000 	lw	v0,0(s8)
  41022c:	8fbc0018 	lw	gp,24(sp)
  410230:	2c420002 	sltiu	v0,v0,2
  410234:	14400017 	bnez	v0,410294 <https_proxy_post_timeout@@Base+0xa20>
  410238:	00000000 	nop
  41023c:	8f998248 	lw	t9,-32184(gp)
  410240:	0320f809 	jalr	t9
  410244:	00000000 	nop
  410248:	24070236 	li	a3,566
  41024c:	8fbc0018 	lw	gp,24(sp)
  410250:	00402821 	move	a1,v0
  410254:	8f838024 	lw	v1,-32732(gp)
  410258:	8f848024 	lw	a0,-32732(gp)
  41025c:	8f868024 	lw	a2,-32732(gp)
  410260:	2463d4b4 	addiu	v1,v1,-11084
[31m  410264:	8f9980b4 	lw	t9,printf[0m
  410268:	2484b4d0 	addiu	a0,a0,-19248
  41026c:	afa30010 	sw	v1,16(sp)
  410270:	0320f809 	jalr	t9
  410274:	24c6d008 	addiu	a2,a2,-12280
  410278:	02202821 	move	a1,s1
  41027c:	8fbc0018 	lw	gp,24(sp)
  410280:	8f848024 	lw	a0,-32732(gp)
[31m  410284:	8f9980b4 	lw	t9,printf[0m
  410288:	0320f809 	jalr	t9
  41028c:	2484d258 	addiu	a0,a0,-11688
--
  410334:	0040b021 	move	s6,v0
  410338:	100000c9 	b	410660 <https_proxy_post_timeout@@Base+0xdec>
  41033c:	2410ffff 	li	s0,-1
  410340:	12c0003f 	beqz	s6,410440 <https_proxy_post_timeout@@Base+0xbcc>
  410344:	24050001 	li	a1,1
  410348:	8f9983e0 	lw	t9,-31776(gp)
  41034c:	00403021 	move	a2,v0
  410350:	02402021 	move	a0,s2
  410354:	0320f809 	jalr	t9
  410358:	02c03821 	move	a3,s6
  41035c:	8fc20000 	lw	v0,0(s8)
  410360:	8fbc0018 	lw	gp,24(sp)
  410364:	2c420002 	sltiu	v0,v0,2
  410368:	14400017 	bnez	v0,4103c8 <https_proxy_post_timeout@@Base+0xb54>
  41036c:	00000000 	nop
  410370:	8f998248 	lw	t9,-32184(gp)
  410374:	0320f809 	jalr	t9
  410378:	00000000 	nop
  41037c:	24070245 	li	a3,581
  410380:	8fbc0018 	lw	gp,24(sp)
  410384:	00402821 	move	a1,v0
  410388:	8f828024 	lw	v0,-32732(gp)
  41038c:	8f848024 	lw	a0,-32732(gp)
  410390:	8f868024 	lw	a2,-32732(gp)
  410394:	2442d4b4 	addiu	v0,v0,-11084
[31m  410398:	8f9980b4 	lw	t9,printf[0m
  41039c:	2484b4d0 	addiu	a0,a0,-19248
  4103a0:	24c6d008 	addiu	a2,a2,-12280
  4103a4:	0320f809 	jalr	t9
  4103a8:	afa20010 	sw	v0,16(sp)
  4103ac:	02402821 	move	a1,s2
  4103b0:	8fbc0018 	lw	gp,24(sp)
  4103b4:	8f848024 	lw	a0,-32732(gp)
[31m  4103b8:	8f9980b4 	lw	t9,printf[0m
  4103bc:	0320f809 	jalr	t9
  4103c0:	2484d258 	addiu	a0,a0,-11688
--
  41042c:	0320f809 	jalr	t9
  410430:	02209021 	move	s2,s1
  410434:	8fbc0018 	lw	gp,24(sp)
  410438:	1000ff46 	b	410154 <https_proxy_post_timeout@@Base+0x8e0>
  41043c:	02601021 	move	v0,s3
  410440:	02408821 	move	s1,s2
  410444:	1000ff42 	b	410150 <https_proxy_post_timeout@@Base+0x8dc>
  410448:	02209021 	move	s2,s1
  41044c:	8fb139d4 	lw	s1,14804(sp)
  410450:	1000ff3f 	b	410150 <https_proxy_post_timeout@@Base+0x8dc>
  410454:	02209021 	move	s2,s1
  410458:	8fc20000 	lw	v0,0(s8)
  41045c:	2c420002 	sltiu	v0,v0,2
  410460:	14400016 	bnez	v0,4104bc <https_proxy_post_timeout@@Base+0xc48>
  410464:	00000000 	nop
  410468:	8f998248 	lw	t9,-32184(gp)
  41046c:	0320f809 	jalr	t9
  410470:	00000000 	nop
  410474:	2407023b 	li	a3,571
  410478:	8fbc0018 	lw	gp,24(sp)
  41047c:	00402821 	move	a1,v0
  410480:	8f828024 	lw	v0,-32732(gp)
  410484:	8f848024 	lw	a0,-32732(gp)
  410488:	8f868024 	lw	a2,-32732(gp)
  41048c:	2442d4b4 	addiu	v0,v0,-11084
[31m  410490:	8f9980b4 	lw	t9,printf[0m
  410494:	2484b4d0 	addiu	a0,a0,-19248
  410498:	24c6d008 	addiu	a2,a2,-12280
--
  4104f0:	24050001 	li	a1,1
  4104f4:	8fbc0018 	lw	gp,24(sp)
  4104f8:	2406001b 	li	a2,27
  4104fc:	8f828238 	lw	v0,-32200(gp)
  410500:	8f848024 	lw	a0,-32732(gp)
  410504:	8c470000 	lw	a3,0(v0)
  410508:	8f9983e0 	lw	t9,-31776(gp)
  41050c:	0320f809 	jalr	t9
  410510:	2484d280 	addiu	a0,a0,-11648
  410514:	1000ffc1 	b	41041c <https_proxy_post_timeout@@Base+0xba8>
  410518:	00000000 	nop
  41051c:	8fc20000 	lw	v0,0(s8)
  410520:	2c420002 	sltiu	v0,v0,2
  410524:	14400022 	bnez	v0,4105b0 <https_proxy_post_timeout@@Base+0xd3c>
  410528:	00000000 	nop
  41052c:	8f998248 	lw	t9,-32184(gp)
  410530:	0320f809 	jalr	t9
  410534:	00000000 	nop
  410538:	240701b8 	li	a3,440
  41053c:	8fbc0018 	lw	gp,24(sp)
  410540:	00402821 	move	a1,v0
  410544:	8f828024 	lw	v0,-32732(gp)
  410548:	8f848024 	lw	a0,-32732(gp)
  41054c:	8f868024 	lw	a2,-32732(gp)
  410550:	2442d4b4 	addiu	v0,v0,-11084
[31m  410554:	8f9980b4 	lw	t9,printf[0m
  410558:	2484b4d0 	addiu	a0,a0,-19248
  41055c:	24c6d008 	addiu	a2,a2,-12280
  410560:	0320f809 	jalr	t9
  410564:	afa20010 	sw	v0,16(sp)
  410568:	8fbc0018 	lw	gp,24(sp)
  41056c:	8f9983ec 	lw	t9,-31764(gp)
  410570:	0320f809 	jalr	t9
  410574:	00000000 	nop
  410578:	8fbc0018 	lw	gp,24(sp)
  41057c:	8c440000 	lw	a0,0(v0)
  410580:	8f9980bc 	lw	t9,-32580(gp)
  410584:	0320f809 	jalr	t9
  410588:	00000000 	nop
  41058c:	8fbc0018 	lw	gp,24(sp)
  410590:	00403021 	move	a2,v0
  410594:	8f848024 	lw	a0,-32732(gp)
  410598:	8f858024 	lw	a1,-32732(gp)
[31m  41059c:	8f9980b4 	lw	t9,printf[0m
  4105a0:	2484c440 	addiu	a0,a0,-15296
  4105a4:	0320f809 	jalr	t9
--
  410738:	0320f809 	jalr	t9
  41073c:	00000000 	nop
  410740:	8fbc0018 	lw	gp,24(sp)
  410744:	8f82824c 	lw	v0,-32180(gp)
  410748:	8f998408 	lw	t9,-31736(gp)
  41074c:	8c440000 	lw	a0,0(v0)
  410750:	0320f809 	jalr	t9
  410754:	00000000 	nop
  410758:	8fbc0018 	lw	gp,24(sp)
  41075c:	1000ffdb 	b	4106cc <https_proxy_post_timeout@@Base+0xe58>
  410760:	00000000 	nop
  410764:	8fc20000 	lw	v0,0(s8)
  410768:	2c420002 	sltiu	v0,v0,2
  41076c:	14400017 	bnez	v0,4107cc <https_proxy_post_timeout@@Base+0xf58>
  410770:	00000000 	nop
  410774:	8f998248 	lw	t9,-32184(gp)
  410778:	0320f809 	jalr	t9
  41077c:	00000000 	nop
  410780:	240701af 	li	a3,431
  410784:	8fbc0018 	lw	gp,24(sp)
  410788:	00402821 	move	a1,v0
  41078c:	8f828024 	lw	v0,-32732(gp)
  410790:	8f848024 	lw	a0,-32732(gp)
  410794:	8f868024 	lw	a2,-32732(gp)
  410798:	2442d4b4 	addiu	v0,v0,-11084
[31m  41079c:	8f9980b4 	lw	t9,printf[0m
  4107a0:	2484b4d0 	addiu	a0,a0,-19248
  4107a4:	24c6d008 	addiu	a2,a2,-12280
  4107a8:	0320f809 	jalr	t9
  4107ac:	afa20010 	sw	v0,16(sp)
  4107b0:	8fbc0018 	lw	gp,24(sp)
  4107b4:	8fa50034 	lw	a1,52(sp)
  4107b8:	8f848024 	lw	a0,-32732(gp)
[31m  4107bc:	8f9980b4 	lw	t9,printf[0m
  4107c0:	0320f809 	jalr	t9
  4107c4:	2484d0d4 	addiu	a0,a0,-12076
--
  4107f8:	0320f809 	jalr	t9
  4107fc:	24c6d008 	addiu	a2,a2,-12280
  410800:	8fbc0018 	lw	gp,24(sp)
  410804:	8e040000 	lw	a0,0(s0)
  410808:	8f858024 	lw	a1,-32732(gp)
  41080c:	8fa60034 	lw	a2,52(sp)
  410810:	8f998168 	lw	t9,-32408(gp)
  410814:	0320f809 	jalr	t9
  410818:	24a5d0d4 	addiu	a1,a1,-12076
  41081c:	1000ff84 	b	410630 <https_proxy_post_timeout@@Base+0xdbc>
  410820:	00000000 	nop
  410824:	8fc20000 	lw	v0,0(s8)
  410828:	2c420002 	sltiu	v0,v0,2
  41082c:	14400016 	bnez	v0,410888 <https_proxy_post_timeout@@Base+0x1014>
  410830:	00000000 	nop
  410834:	8f998248 	lw	t9,-32184(gp)
  410838:	0320f809 	jalr	t9
  41083c:	00000000 	nop
  410840:	240701f4 	li	a3,500
  410844:	8fbc0018 	lw	gp,24(sp)
  410848:	00402821 	move	a1,v0
  41084c:	8f828024 	lw	v0,-32732(gp)
  410850:	8f848024 	lw	a0,-32732(gp)
  410854:	8f868024 	lw	a2,-32732(gp)
  410858:	2442d4b4 	addiu	v0,v0,-11084
[31m  41085c:	8f9980b4 	lw	t9,printf[0m
  410860:	2484b4d0 	addiu	a0,a0,-19248
  410864:	24c6d008 	addiu	a2,a2,-12280
--
  4108d0:	8f9983e0 	lw	t9,-31776(gp)
  4108d4:	0320f809 	jalr	t9
  4108d8:	2484d174 	addiu	a0,a0,-11916
  4108dc:	8fbc0018 	lw	gp,24(sp)
  4108e0:	8e040000 	lw	a0,0(s0)
  4108e4:	8f9981a4 	lw	t9,-32348(gp)
  4108e8:	0320f809 	jalr	t9
  4108ec:	2410ffff 	li	s0,-1
  4108f0:	8fbc0018 	lw	gp,24(sp)
  4108f4:	1000ff5b 	b	410664 <https_proxy_post_timeout@@Base+0xdf0>
  4108f8:	2402ffff 	li	v0,-1
  4108fc:	8fc20000 	lw	v0,0(s8)
  410900:	2c420002 	sltiu	v0,v0,2
  410904:	14400020 	bnez	v0,410988 <https_proxy_post_timeout@@Base+0x1114>
  410908:	00000000 	nop
  41090c:	8f998248 	lw	t9,-32184(gp)
  410910:	0320f809 	jalr	t9
  410914:	00000000 	nop
  410918:	2407019b 	li	a3,411
  41091c:	8fbc0018 	lw	gp,24(sp)
  410920:	00402821 	move	a1,v0
  410924:	8f828024 	lw	v0,-32732(gp)
  410928:	8f848024 	lw	a0,-32732(gp)
  41092c:	8f868024 	lw	a2,-32732(gp)
  410930:	2442d4b4 	addiu	v0,v0,-11084
[31m  410934:	8f9980b4 	lw	t9,printf[0m
  410938:	2484b4d0 	addiu	a0,a0,-19248
  41093c:	24c6d008 	addiu	a2,a2,-12280
  410940:	0320f809 	jalr	t9
  410944:	afa20010 	sw	v0,16(sp)
  410948:	8fbc0018 	lw	gp,24(sp)
  41094c:	8f9983ec 	lw	t9,-31764(gp)
  410950:	0320f809 	jalr	t9
  410954:	00000000 	nop
  410958:	8fbc0018 	lw	gp,24(sp)
  41095c:	8c440000 	lw	a0,0(v0)
  410960:	8f9980bc 	lw	t9,-32580(gp)
  410964:	0320f809 	jalr	t9
  410968:	00000000 	nop
  41096c:	8fbc0018 	lw	gp,24(sp)
  410970:	00402821 	move	a1,v0
  410974:	8f848024 	lw	a0,-32732(gp)
[31m  410978:	8f9980b4 	lw	t9,printf[0m
  41097c:	0320f809 	jalr	t9
  410980:	2484d094 	addiu	a0,a0,-12140
--
  4109e0:	0320f809 	jalr	t9
  4109e4:	00000000 	nop
  4109e8:	02202021 	move	a0,s1
  4109ec:	8fbc0018 	lw	gp,24(sp)
  4109f0:	00403021 	move	a2,v0
  4109f4:	8f858024 	lw	a1,-32732(gp)
  4109f8:	8f998168 	lw	t9,-32408(gp)
  4109fc:	0320f809 	jalr	t9
  410a00:	24a5d094 	addiu	a1,a1,-12140
  410a04:	1000ffb5 	b	4108dc <https_proxy_post_timeout@@Base+0x1068>
  410a08:	00000000 	nop
  410a0c:	8fc20000 	lw	v0,0(s8)
  410a10:	2c420002 	sltiu	v0,v0,2
  410a14:	14400022 	bnez	v0,410aa0 <https_proxy_post_timeout@@Base+0x122c>
  410a18:	00000000 	nop
  410a1c:	8f998248 	lw	t9,-32184(gp)
  410a20:	0320f809 	jalr	t9
  410a24:	00000000 	nop
  410a28:	24070195 	li	a3,405
  410a2c:	8fbc0018 	lw	gp,24(sp)
  410a30:	00402821 	move	a1,v0
  410a34:	8f828024 	lw	v0,-32732(gp)
  410a38:	8f848024 	lw	a0,-32732(gp)
  410a3c:	8f868024 	lw	a2,-32732(gp)
  410a40:	2442d4b4 	addiu	v0,v0,-11084
[31m  410a44:	8f9980b4 	lw	t9,printf[0m
  410a48:	2484b4d0 	addiu	a0,a0,-19248
  410a4c:	24c6d008 	addiu	a2,a2,-12280
  410a50:	0320f809 	jalr	t9
  410a54:	afa20010 	sw	v0,16(sp)
  410a58:	8fbc0018 	lw	gp,24(sp)
  410a5c:	8f9983ec 	lw	t9,-31764(gp)
  410a60:	0320f809 	jalr	t9
  410a64:	00000000 	nop
  410a68:	8fbc0018 	lw	gp,24(sp)
  410a6c:	8c440000 	lw	a0,0(v0)
  410a70:	8f9980bc 	lw	t9,-32580(gp)
  410a74:	0320f809 	jalr	t9
  410a78:	00000000 	nop
  410a7c:	8fbc0018 	lw	gp,24(sp)
  410a80:	00403021 	move	a2,v0
  410a84:	8f848024 	lw	a0,-32732(gp)
  410a88:	8f858024 	lw	a1,-32732(gp)
[31m  410a8c:	8f9980b4 	lw	t9,printf[0m
  410a90:	2484c440 	addiu	a0,a0,-15296
  410a94:	0320f809 	jalr	t9
--
  410b00:	02202021 	move	a0,s1
  410b04:	8fbc0018 	lw	gp,24(sp)
  410b08:	00403821 	move	a3,v0
  410b0c:	8f858024 	lw	a1,-32732(gp)
  410b10:	8f868024 	lw	a2,-32732(gp)
  410b14:	8f998168 	lw	t9,-32408(gp)
  410b18:	24a5c440 	addiu	a1,a1,-15296
  410b1c:	0320f809 	jalr	t9
  410b20:	24c6c8a0 	addiu	a2,a2,-14176
  410b24:	1000ff6d 	b	4108dc <https_proxy_post_timeout@@Base+0x1068>
  410b28:	00000000 	nop
  410b2c:	8fc20000 	lw	v0,0(s8)
  410b30:	2c420002 	sltiu	v0,v0,2
  410b34:	14400020 	bnez	v0,410bb8 <https_proxy_post_timeout@@Base+0x1344>
  410b38:	00000000 	nop
  410b3c:	8f998248 	lw	t9,-32184(gp)
  410b40:	0320f809 	jalr	t9
  410b44:	00000000 	nop
  410b48:	240701a2 	li	a3,418
  410b4c:	8fbc0018 	lw	gp,24(sp)
  410b50:	00402821 	move	a1,v0
  410b54:	8f828024 	lw	v0,-32732(gp)
  410b58:	8f848024 	lw	a0,-32732(gp)
  410b5c:	8f868024 	lw	a2,-32732(gp)
  410b60:	2442d4b4 	addiu	v0,v0,-11084
[31m  410b64:	8f9980b4 	lw	t9,printf[0m
  410b68:	2484b4d0 	addiu	a0,a0,-19248
  410b6c:	24c6d008 	addiu	a2,a2,-12280
  410b70:	0320f809 	jalr	t9
  410b74:	afa20010 	sw	v0,16(sp)
  410b78:	8fbc0018 	lw	gp,24(sp)
  410b7c:	8f9983ec 	lw	t9,-31764(gp)
  410b80:	0320f809 	jalr	t9
  410b84:	00000000 	nop
  410b88:	8fbc0018 	lw	gp,24(sp)
  410b8c:	8c440000 	lw	a0,0(v0)
  410b90:	8f9980bc 	lw	t9,-32580(gp)
  410b94:	0320f809 	jalr	t9
  410b98:	00000000 	nop
  410b9c:	8fbc0018 	lw	gp,24(sp)
  410ba0:	00402821 	move	a1,v0
  410ba4:	8f848024 	lw	a0,-32732(gp)
[31m  410ba8:	8f9980b4 	lw	t9,printf[0m
  410bac:	0320f809 	jalr	t9
  410bb0:	2484d0b4 	addiu	a0,a0,-12108
--
  410c10:	0320f809 	jalr	t9
  410c14:	00000000 	nop
  410c18:	02202021 	move	a0,s1
  410c1c:	8fbc0018 	lw	gp,24(sp)
  410c20:	00403021 	move	a2,v0
  410c24:	8f858024 	lw	a1,-32732(gp)
  410c28:	8f998168 	lw	t9,-32408(gp)
  410c2c:	0320f809 	jalr	t9
  410c30:	24a5d0b4 	addiu	a1,a1,-12108
  410c34:	1000ff29 	b	4108dc <https_proxy_post_timeout@@Base+0x1068>
  410c38:	00000000 	nop
  410c3c:	8fc20000 	lw	v0,0(s8)
  410c40:	2c420002 	sltiu	v0,v0,2
  410c44:	14400017 	bnez	v0,410ca4 <https_proxy_post_timeout@@Base+0x1430>
  410c48:	00000000 	nop
  410c4c:	8f998248 	lw	t9,-32184(gp)
  410c50:	0320f809 	jalr	t9
  410c54:	00000000 	nop
  410c58:	2407018f 	li	a3,399
  410c5c:	8fbc0018 	lw	gp,24(sp)
  410c60:	00402821 	move	a1,v0
  410c64:	8f828024 	lw	v0,-32732(gp)
  410c68:	8f848024 	lw	a0,-32732(gp)
  410c6c:	8f868024 	lw	a2,-32732(gp)
  410c70:	2442d4b4 	addiu	v0,v0,-11084
[31m  410c74:	8f9980b4 	lw	t9,printf[0m
  410c78:	2484b4d0 	addiu	a0,a0,-19248
  410c7c:	24c6d008 	addiu	a2,a2,-12280
  410c80:	0320f809 	jalr	t9
  410c84:	afa20010 	sw	v0,16(sp)
  410c88:	02002821 	move	a1,s0
  410c8c:	8fbc0018 	lw	gp,24(sp)
  410c90:	8f848024 	lw	a0,-32732(gp)
[31m  410c94:	8f9980b4 	lw	t9,printf[0m
  410c98:	0320f809 	jalr	t9
  410c9c:	2484d078 	addiu	a0,a0,-12168
  410ca0:	8fbc0018 	lw	gp,24(sp)
  410ca4:	8ee40000 	lw	a0,0(s7)
  410ca8:	8f918238 	lw	s1,-32200(gp)
  410cac:	1480003c 	bnez	a0,410da0 <https_proxy_post_timeout@@Base+0x152c>
  410cb0:	2407018f 	li	a3,399
  410cb4:	0000b021 	move	s6,zero
  410cb8:	1000fe68 	b	41065c <https_proxy_post_timeout@@Base+0xde8>
  410cbc:	2415ffff 	li	s5,-1
  410cc0:	8fc20000 	lw	v0,0(s8)
  410cc4:	2c420002 	sltiu	v0,v0,2
  410cc8:	14400016 	bnez	v0,410d24 <https_proxy_post_timeout@@Base+0x14b0>
  410ccc:	00000000 	nop
  410cd0:	8f998248 	lw	t9,-32184(gp)
  410cd4:	0320f809 	jalr	t9
  410cd8:	00000000 	nop
  410cdc:	2407020f 	li	a3,527
  410ce0:	8fbc0018 	lw	gp,24(sp)
  410ce4:	00402821 	move	a1,v0
  410ce8:	8f828024 	lw	v0,-32732(gp)
  410cec:	8f848024 	lw	a0,-32732(gp)
  410cf0:	8f868024 	lw	a2,-32732(gp)
  410cf4:	2442d4b4 	addiu	v0,v0,-11084
[31m  410cf8:	8f9980b4 	lw	t9,printf[0m
  410cfc:	2484b4d0 	addiu	a0,a0,-19248
  410d00:	24c6d008 	addiu	a2,a2,-12280
--
  410ddc:	8f998168 	lw	t9,-32408(gp)
  410de0:	0320f809 	jalr	t9
  410de4:	24a5d078 	addiu	a1,a1,-12168
  410de8:	8fbc0018 	lw	gp,24(sp)
  410dec:	8e240000 	lw	a0,0(s1)
  410df0:	8f9981a4 	lw	t9,-32348(gp)
  410df4:	0320f809 	jalr	t9
  410df8:	2410ffff 	li	s0,-1
  410dfc:	8fbc0018 	lw	gp,24(sp)
  410e00:	1000fe18 	b	410664 <https_proxy_post_timeout@@Base+0xdf0>
  410e04:	2402ffff 	li	v0,-1
  410e08:	8fc20000 	lw	v0,0(s8)
  410e0c:	2c420002 	sltiu	v0,v0,2
  410e10:	14400016 	bnez	v0,410e6c <https_proxy_post_timeout@@Base+0x15f8>
  410e14:	00000000 	nop
  410e18:	8f998248 	lw	t9,-32184(gp)
  410e1c:	0320f809 	jalr	t9
  410e20:	00000000 	nop
  410e24:	24070202 	li	a3,514
  410e28:	8fbc0018 	lw	gp,24(sp)
  410e2c:	00402821 	move	a1,v0
  410e30:	8f828024 	lw	v0,-32732(gp)
  410e34:	8f848024 	lw	a0,-32732(gp)
  410e38:	8f868024 	lw	a2,-32732(gp)
  410e3c:	2442d4b4 	addiu	v0,v0,-11084
[31m  410e40:	8f9980b4 	lw	t9,printf[0m
  410e44:	2484b4d0 	addiu	a0,a0,-19248
  410e48:	24c6d008 	addiu	a2,a2,-12280
--
  410ec0:	8fbc0018 	lw	gp,24(sp)
  410ec4:	8e040000 	lw	a0,0(s0)
  410ec8:	8f9981a4 	lw	t9,-32348(gp)
  410ecc:	0320f809 	jalr	t9
  410ed0:	00000000 	nop
  410ed4:	8fbc0018 	lw	gp,24(sp)
  410ed8:	8fa439e0 	lw	a0,14816(sp)
  410edc:	1080fddf 	beqz	a0,41065c <https_proxy_post_timeout@@Base+0xde8>
  410ee0:	2410ffff 	li	s0,-1
  410ee4:	1000fe08 	b	410708 <https_proxy_post_timeout@@Base+0xe94>
  410ee8:	00000000 	nop
  410eec:	8fc20000 	lw	v0,0(s8)
  410ef0:	2c420002 	sltiu	v0,v0,2
  410ef4:	14400016 	bnez	v0,410f50 <https_proxy_post_timeout@@Base+0x16dc>
  410ef8:	00000000 	nop
  410efc:	8f998248 	lw	t9,-32184(gp)
  410f00:	0320f809 	jalr	t9
  410f04:	00000000 	nop
  410f08:	240701fb 	li	a3,507
  410f0c:	8fbc0018 	lw	gp,24(sp)
  410f10:	00402821 	move	a1,v0
  410f14:	8f828024 	lw	v0,-32732(gp)
  410f18:	8f848024 	lw	a0,-32732(gp)
  410f1c:	8f868024 	lw	a2,-32732(gp)
  410f20:	2442d4b4 	addiu	v0,v0,-11084
[31m  410f24:	8f9980b4 	lw	t9,printf[0m
  410f28:	2484b4d0 	addiu	a0,a0,-19248
  410f2c:	24c6d008 	addiu	a2,a2,-12280
--
  4110a8:	afb72a58 	sw	s7,10840(sp)
  4110ac:	afb62a54 	sw	s6,10836(sp)
  4110b0:	afb52a50 	sw	s5,10832(sp)
  4110b4:	afb42a4c 	sw	s4,10828(sp)
  4110b8:	afb32a48 	sw	s3,10824(sp)
  4110bc:	afb22a44 	sw	s2,10820(sp)
  4110c0:	afb12a40 	sw	s1,10816(sp)
  4110c4:	afb02a3c 	sw	s0,10812(sp)
  4110c8:	afbc0018 	sw	gp,24(sp)
  4110cc:	8f94812c 	lw	s4,-32468(gp)
  4110d0:	00809021 	move	s2,a0
  4110d4:	8e820000 	lw	v0,0(s4)
  4110d8:	2c420002 	sltiu	v0,v0,2
  4110dc:	14400018 	bnez	v0,411140 <write_buffer@@Base+0x194>
  4110e0:	00a09821 	move	s3,a1
  4110e4:	8f998248 	lw	t9,-32184(gp)
  4110e8:	0320f809 	jalr	t9
  4110ec:	00000000 	nop
  4110f0:	24070385 	li	a3,901
  4110f4:	8fbc0018 	lw	gp,24(sp)
  4110f8:	00402821 	move	a1,v0
  4110fc:	8f828024 	lw	v0,-32732(gp)
  411100:	8f848024 	lw	a0,-32732(gp)
  411104:	8f868024 	lw	a2,-32732(gp)
  411108:	2442d47c 	addiu	v0,v0,-11140
[31m  41110c:	8f9980b4 	lw	t9,printf[0m
  411110:	2484b4d0 	addiu	a0,a0,-19248
  411114:	24c6d008 	addiu	a2,a2,-12280
  411118:	0320f809 	jalr	t9
  41111c:	afa20010 	sw	v0,16(sp)
  411120:	02402821 	move	a1,s2
  411124:	8fbc0018 	lw	gp,24(sp)
  411128:	02603021 	move	a2,s3
  41112c:	8f848024 	lw	a0,-32732(gp)
[31m  411130:	8f9980b4 	lw	t9,printf[0m
  411134:	0320f809 	jalr	t9
  411138:	2484d29c 	addiu	a0,a0,-11620
--
  4111b4:	02402021 	move	a0,s2
  4111b8:	8f9983a8 	lw	t9,-31832(gp)
  4111bc:	27b50134 	addiu	s5,sp,308
  4111c0:	02202821 	move	a1,s1
  4111c4:	afa20010 	sw	v0,16(sp)
  4111c8:	27a20020 	addiu	v0,sp,32
  4111cc:	02a03821 	move	a3,s5
  4111d0:	24060100 	li	a2,256
  4111d4:	0320f809 	jalr	t9
  4111d8:	afa20014 	sw	v0,20(sp)
  4111dc:	8e820000 	lw	v0,0(s4)
  4111e0:	8fbc0018 	lw	gp,24(sp)
  4111e4:	2c420002 	sltiu	v0,v0,2
  4111e8:	14400019 	bnez	v0,411250 <write_buffer@@Base+0x2a4>
  4111ec:	00000000 	nop
  4111f0:	8f998248 	lw	t9,-32184(gp)
  4111f4:	0320f809 	jalr	t9
  4111f8:	00000000 	nop
  4111fc:	24070387 	li	a3,903
  411200:	8fbc0018 	lw	gp,24(sp)
  411204:	00402821 	move	a1,v0
  411208:	8f828024 	lw	v0,-32732(gp)
  41120c:	8f848024 	lw	a0,-32732(gp)
  411210:	8f868024 	lw	a2,-32732(gp)
  411214:	2442d47c 	addiu	v0,v0,-11140
[31m  411218:	8f9980b4 	lw	t9,printf[0m
  41121c:	2484b4d0 	addiu	a0,a0,-19248
  411220:	24c6d008 	addiu	a2,a2,-12280
  411224:	0320f809 	jalr	t9
  411228:	afa20010 	sw	v0,16(sp)
  41122c:	02202821 	move	a1,s1
  411230:	8fbc0018 	lw	gp,24(sp)
  411234:	02a03821 	move	a3,s5
  411238:	97a60020 	lhu	a2,32(sp)
  41123c:	8f848024 	lw	a0,-32732(gp)
[31m  411240:	8f9980b4 	lw	t9,printf[0m
  411244:	0320f809 	jalr	t9
  411248:	2484d2b0 	addiu	a0,a0,-11600
--
  4112ac:	8ec40000 	lw	a0,0(s6)
  4112b0:	8f9981a4 	lw	t9,-32348(gp)
  4112b4:	0320f809 	jalr	t9
  4112b8:	00000000 	nop
  4112bc:	8fbc0018 	lw	gp,24(sp)
  4112c0:	8f99840c 	lw	t9,-31732(gp)
  4112c4:	0320f809 	jalr	t9
  4112c8:	02202021 	move	a0,s1
  4112cc:	8fbc0018 	lw	gp,24(sp)
  4112d0:	10400189 	beqz	v0,4118f8 <write_buffer@@Base+0x94c>
  4112d4:	0040b021 	move	s6,v0
  4112d8:	8e820000 	lw	v0,0(s4)
  4112dc:	2c420002 	sltiu	v0,v0,2
  4112e0:	14400019 	bnez	v0,411348 <write_buffer@@Base+0x39c>
  4112e4:	00000000 	nop
  4112e8:	8f998248 	lw	t9,-32184(gp)
  4112ec:	0320f809 	jalr	t9
  4112f0:	00000000 	nop
  4112f4:	24070390 	li	a3,912
  4112f8:	8fbc0018 	lw	gp,24(sp)
  4112fc:	00402821 	move	a1,v0
  411300:	8f828024 	lw	v0,-32732(gp)
  411304:	8f848024 	lw	a0,-32732(gp)
  411308:	8f868024 	lw	a2,-32732(gp)
  41130c:	2442d47c 	addiu	v0,v0,-11140
[31m  411310:	8f9980b4 	lw	t9,printf[0m
  411314:	2484b4d0 	addiu	a0,a0,-19248
  411318:	24c6d008 	addiu	a2,a2,-12280
  41131c:	0320f809 	jalr	t9
  411320:	afa20010 	sw	v0,16(sp)
  411324:	02402821 	move	a1,s2
  411328:	8fbc0018 	lw	gp,24(sp)
  41132c:	02203021 	move	a2,s1
  411330:	02603821 	move	a3,s3
  411334:	8f848024 	lw	a0,-32732(gp)
[31m  411338:	8f9980b4 	lw	t9,printf[0m
  41133c:	0320f809 	jalr	t9
  411340:	2484d2d4 	addiu	a0,a0,-11564
--
  411590:	8fbf2a5c 	lw	ra,10844(sp)
  411594:	8fb72a58 	lw	s7,10840(sp)
  411598:	8fb62a54 	lw	s6,10836(sp)
  41159c:	8fb52a50 	lw	s5,10832(sp)
  4115a0:	8fb42a4c 	lw	s4,10828(sp)
  4115a4:	8fb32a48 	lw	s3,10824(sp)
  4115a8:	8fb22a44 	lw	s2,10820(sp)
  4115ac:	8fb12a40 	lw	s1,10816(sp)
  4115b0:	8fb02a3c 	lw	s0,10812(sp)
  4115b4:	03e00008 	jr	ra
  4115b8:	27bd2a60 	addiu	sp,sp,10848
  4115bc:	8e820000 	lw	v0,0(s4)
  4115c0:	2c420002 	sltiu	v0,v0,2
  4115c4:	14400017 	bnez	v0,411624 <write_buffer@@Base+0x678>
  4115c8:	00000000 	nop
  4115cc:	8f998248 	lw	t9,-32184(gp)
  4115d0:	0320f809 	jalr	t9
  4115d4:	00000000 	nop
  4115d8:	240703a5 	li	a3,933
  4115dc:	8fbc0018 	lw	gp,24(sp)
  4115e0:	00402821 	move	a1,v0
  4115e4:	8f828024 	lw	v0,-32732(gp)
  4115e8:	8f848024 	lw	a0,-32732(gp)
  4115ec:	8f868024 	lw	a2,-32732(gp)
  4115f0:	2442d47c 	addiu	v0,v0,-11140
[31m  4115f4:	8f9980b4 	lw	t9,printf[0m
  4115f8:	2484b4d0 	addiu	a0,a0,-19248
  4115fc:	24c6d008 	addiu	a2,a2,-12280
  411600:	0320f809 	jalr	t9
  411604:	afa20010 	sw	v0,16(sp)
  411608:	8fbc0018 	lw	gp,24(sp)
  41160c:	8fa50028 	lw	a1,40(sp)
  411610:	8f848024 	lw	a0,-32732(gp)
[31m  411614:	8f9980b4 	lw	t9,printf[0m
  411618:	0320f809 	jalr	t9
  41161c:	2484d0d4 	addiu	a0,a0,-12076
  411620:	8fbc0018 	lw	gp,24(sp)
  411624:	8e040000 	lw	a0,0(s0)
  411628:	8f908238 	lw	s0,-32200(gp)
  41162c:	14800054 	bnez	a0,411780 <write_buffer@@Base+0x7d4>
  411630:	240703a5 	li	a3,933
  411634:	1000ffd6 	b	411590 <write_buffer@@Base+0x5e4>
  411638:	2402ffff 	li	v0,-1
  41163c:	8e820000 	lw	v0,0(s4)
  411640:	2c420002 	sltiu	v0,v0,2
  411644:	14400022 	bnez	v0,4116d0 <write_buffer@@Base+0x724>
  411648:	00000000 	nop
  41164c:	8f998248 	lw	t9,-32184(gp)
  411650:	0320f809 	jalr	t9
  411654:	00000000 	nop
  411658:	240703ac 	li	a3,940
  41165c:	8fbc0018 	lw	gp,24(sp)
  411660:	00402821 	move	a1,v0
  411664:	8f828024 	lw	v0,-32732(gp)
  411668:	8f848024 	lw	a0,-32732(gp)
  41166c:	8f868024 	lw	a2,-32732(gp)
  411670:	2442d47c 	addiu	v0,v0,-11140
[31m  411674:	8f9980b4 	lw	t9,printf[0m
  411678:	2484b4d0 	addiu	a0,a0,-19248
  41167c:	24c6d008 	addiu	a2,a2,-12280
  411680:	0320f809 	jalr	t9
  411684:	afa20010 	sw	v0,16(sp)
  411688:	8fbc0018 	lw	gp,24(sp)
  41168c:	8f9983ec 	lw	t9,-31764(gp)
  411690:	0320f809 	jalr	t9
  411694:	00000000 	nop
  411698:	8fbc0018 	lw	gp,24(sp)
  41169c:	8c440000 	lw	a0,0(v0)
  4116a0:	8f9980bc 	lw	t9,-32580(gp)
  4116a4:	0320f809 	jalr	t9
  4116a8:	00000000 	nop
  4116ac:	8fbc0018 	lw	gp,24(sp)
  4116b0:	00403021 	move	a2,v0
  4116b4:	8f848024 	lw	a0,-32732(gp)
  4116b8:	8f858024 	lw	a1,-32732(gp)
[31m  4116bc:	8f9980b4 	lw	t9,printf[0m
  4116c0:	2484c440 	addiu	a0,a0,-15296
  4116c4:	0320f809 	jalr	t9
--
  4117b0:	8fa60028 	lw	a2,40(sp)
  4117b4:	8f998168 	lw	t9,-32408(gp)
  4117b8:	0320f809 	jalr	t9
  4117bc:	24a5d0d4 	addiu	a1,a1,-12076
  4117c0:	8fbc0018 	lw	gp,24(sp)
  4117c4:	8e040000 	lw	a0,0(s0)
  4117c8:	8f9981a4 	lw	t9,-32348(gp)
  4117cc:	0320f809 	jalr	t9
  4117d0:	00000000 	nop
  4117d4:	1000ff6e 	b	411590 <write_buffer@@Base+0x5e4>
  4117d8:	2402ffff 	li	v0,-1
  4117dc:	8e820000 	lw	v0,0(s4)
  4117e0:	2c420002 	sltiu	v0,v0,2
  4117e4:	14400022 	bnez	v0,411870 <write_buffer@@Base+0x8c4>
  4117e8:	00000000 	nop
  4117ec:	8f998248 	lw	t9,-32184(gp)
  4117f0:	0320f809 	jalr	t9
  4117f4:	00000000 	nop
  4117f8:	24070396 	li	a3,918
  4117fc:	8fbc0018 	lw	gp,24(sp)
  411800:	00402821 	move	a1,v0
  411804:	8f828024 	lw	v0,-32732(gp)
  411808:	8f848024 	lw	a0,-32732(gp)
  41180c:	8f868024 	lw	a2,-32732(gp)
  411810:	2442d47c 	addiu	v0,v0,-11140
[31m  411814:	8f9980b4 	lw	t9,printf[0m
  411818:	2484b4d0 	addiu	a0,a0,-19248
  41181c:	24c6d008 	addiu	a2,a2,-12280
  411820:	0320f809 	jalr	t9
  411824:	afa20010 	sw	v0,16(sp)
  411828:	8fbc0018 	lw	gp,24(sp)
  41182c:	8f9983ec 	lw	t9,-31764(gp)
  411830:	0320f809 	jalr	t9
  411834:	00000000 	nop
  411838:	8fbc0018 	lw	gp,24(sp)
  41183c:	8c440000 	lw	a0,0(v0)
  411840:	8f9980bc 	lw	t9,-32580(gp)
  411844:	0320f809 	jalr	t9
  411848:	00000000 	nop
  41184c:	8fbc0018 	lw	gp,24(sp)
  411850:	00403021 	move	a2,v0
  411854:	8f848024 	lw	a0,-32732(gp)
  411858:	8f858024 	lw	a1,-32732(gp)
[31m  41185c:	8f9980b4 	lw	t9,printf[0m
  411860:	2484c440 	addiu	a0,a0,-15296
  411864:	0320f809 	jalr	t9
--
  4118cc:	02202021 	move	a0,s1
  4118d0:	8fbc0018 	lw	gp,24(sp)
  4118d4:	00403821 	move	a3,v0
  4118d8:	8f858024 	lw	a1,-32732(gp)
  4118dc:	8f868024 	lw	a2,-32732(gp)
  4118e0:	8f998168 	lw	t9,-32408(gp)
  4118e4:	24a5c440 	addiu	a1,a1,-15296
  4118e8:	0320f809 	jalr	t9
  4118ec:	24c6c8a0 	addiu	a2,a2,-14176
  4118f0:	1000ffb3 	b	4117c0 <write_buffer@@Base+0x814>
  4118f4:	00000000 	nop
  4118f8:	8e820000 	lw	v0,0(s4)
  4118fc:	2c420002 	sltiu	v0,v0,2
  411900:	14400017 	bnez	v0,411960 <write_buffer@@Base+0x9b4>
  411904:	00000000 	nop
  411908:	8f998248 	lw	t9,-32184(gp)
  41190c:	0320f809 	jalr	t9
  411910:	00000000 	nop
  411914:	2407038c 	li	a3,908
  411918:	8fbc0018 	lw	gp,24(sp)
  41191c:	00402821 	move	a1,v0
  411920:	8f828024 	lw	v0,-32732(gp)
  411924:	8f848024 	lw	a0,-32732(gp)
  411928:	8f868024 	lw	a2,-32732(gp)
  41192c:	2442d47c 	addiu	v0,v0,-11140
[31m  411930:	8f9980b4 	lw	t9,printf[0m
  411934:	2484b4d0 	addiu	a0,a0,-19248
  411938:	24c6d008 	addiu	a2,a2,-12280
  41193c:	0320f809 	jalr	t9
  411940:	afa20010 	sw	v0,16(sp)
  411944:	02202821 	move	a1,s1
  411948:	8fbc0018 	lw	gp,24(sp)
  41194c:	8f848024 	lw	a0,-32732(gp)
[31m  411950:	8f9980b4 	lw	t9,printf[0m
  411954:	0320f809 	jalr	t9
  411958:	2484d078 	addiu	a0,a0,-12168
--
  411a08:	00c0b021 	move	s6,a2
  411a0c:	8f95812c 	lw	s5,-32468(gp)
  411a10:	00e0a021 	move	s4,a3
  411a14:	24a5d048 	addiu	a1,a1,-12216
  411a18:	afa25138 	sw	v0,20792(sp)
  411a1c:	02203021 	move	a2,s1
  411a20:	afa00020 	sw	zero,32(sp)
  411a24:	00403821 	move	a3,v0
  411a28:	0320f809 	jalr	t9
  411a2c:	a7a00024 	sh	zero,36(sp)
  411a30:	8ea20000 	lw	v0,0(s5)
  411a34:	8fbc0018 	lw	gp,24(sp)
  411a38:	2c420002 	sltiu	v0,v0,2
  411a3c:	14400018 	bnez	v0,411aa0 <http_proxy_post_timeout@@Base+0xe8>
  411a40:	00000000 	nop
  411a44:	8f998248 	lw	t9,-32184(gp)
  411a48:	0320f809 	jalr	t9
  411a4c:	00000000 	nop
  411a50:	2407027a 	li	a3,634
  411a54:	8fbc0018 	lw	gp,24(sp)
  411a58:	00402821 	move	a1,v0
  411a5c:	8f828024 	lw	v0,-32732(gp)
  411a60:	8f848024 	lw	a0,-32732(gp)
  411a64:	8f868024 	lw	a2,-32732(gp)
  411a68:	2442d49c 	addiu	v0,v0,-11108
[31m  411a6c:	8f9980b4 	lw	t9,printf[0m
  411a70:	2484b4d0 	addiu	a0,a0,-19248
  411a74:	24c6d008 	addiu	a2,a2,-12280
  411a78:	0320f809 	jalr	t9
  411a7c:	afa20010 	sw	v0,16(sp)
  411a80:	02202821 	move	a1,s1
  411a84:	8fbc0018 	lw	gp,24(sp)
  411a88:	8fa65138 	lw	a2,20792(sp)
  411a8c:	8f848024 	lw	a0,-32732(gp)
[31m  411a90:	8f9980b4 	lw	t9,printf[0m
  411a94:	0320f809 	jalr	t9
  411a98:	2484d058 	addiu	a0,a0,-12200
--
  411c28:	02002821 	move	a1,s0
  411c2c:	8f9981ec 	lw	t9,-32276(gp)
  411c30:	0320f809 	jalr	t9
  411c34:	27b10138 	addiu	s1,sp,312
  411c38:	02202021 	move	a0,s1
  411c3c:	00002821 	move	a1,zero
  411c40:	8fbc0018 	lw	gp,24(sp)
  411c44:	8f9981a0 	lw	t9,-32352(gp)
  411c48:	0320f809 	jalr	t9
  411c4c:	24062800 	li	a2,10240
  411c50:	8ea20000 	lw	v0,0(s5)
  411c54:	8fbc0018 	lw	gp,24(sp)
  411c58:	2c420002 	sltiu	v0,v0,2
  411c5c:	14400017 	bnez	v0,411cbc <http_proxy_post_timeout@@Base+0x304>
  411c60:	00000000 	nop
  411c64:	8f998248 	lw	t9,-32184(gp)
  411c68:	0320f809 	jalr	t9
  411c6c:	00000000 	nop
  411c70:	240702b5 	li	a3,693
  411c74:	8fbc0018 	lw	gp,24(sp)
  411c78:	00402821 	move	a1,v0
  411c7c:	8f828024 	lw	v0,-32732(gp)
  411c80:	8f848024 	lw	a0,-32732(gp)
  411c84:	8f868024 	lw	a2,-32732(gp)
  411c88:	2442d49c 	addiu	v0,v0,-11108
[31m  411c8c:	8f9980b4 	lw	t9,printf[0m
  411c90:	2484b4d0 	addiu	a0,a0,-19248
  411c94:	24c6d008 	addiu	a2,a2,-12280
  411c98:	0320f809 	jalr	t9
  411c9c:	afa20010 	sw	v0,16(sp)
  411ca0:	02002821 	move	a1,s0
  411ca4:	8fbc0018 	lw	gp,24(sp)
  411ca8:	8f848024 	lw	a0,-32732(gp)
[31m  411cac:	8f9980b4 	lw	t9,printf[0m
  411cb0:	0320f809 	jalr	t9
  411cb4:	2484d310 	addiu	a0,a0,-11504
--
  411db0:	0320f809 	jalr	t9
  411db4:	24062800 	li	a2,10240
  411db8:	02402021 	move	a0,s2
  411dbc:	24062800 	li	a2,10240
  411dc0:	8fbc0018 	lw	gp,24(sp)
  411dc4:	02202821 	move	a1,s1
  411dc8:	8f998338 	lw	t9,-31944(gp)
  411dcc:	0320f809 	jalr	t9
  411dd0:	00003821 	move	a3,zero
  411dd4:	8fbc0018 	lw	gp,24(sp)
  411dd8:	18400074 	blez	v0,411fac <http_proxy_post_timeout@@Base+0x5f4>
  411ddc:	00408021 	move	s0,v0
  411de0:	8ea20000 	lw	v0,0(s5)
  411de4:	2c420002 	sltiu	v0,v0,2
  411de8:	14400014 	bnez	v0,411e3c <http_proxy_post_timeout@@Base+0x484>
  411dec:	00000000 	nop
  411df0:	8f998248 	lw	t9,-32184(gp)
  411df4:	0320f809 	jalr	t9
  411df8:	00000000 	nop
  411dfc:	240702d2 	li	a3,722
  411e00:	02c03021 	move	a2,s6
  411e04:	8fbc0018 	lw	gp,24(sp)
  411e08:	00402821 	move	a1,v0
  411e0c:	afb70010 	sw	s7,16(sp)
  411e10:	8f848024 	lw	a0,-32732(gp)
[31m  411e14:	8f9980b4 	lw	t9,printf[0m
  411e18:	0320f809 	jalr	t9
  411e1c:	2484b4d0 	addiu	a0,a0,-19248
  411e20:	02002821 	move	a1,s0
  411e24:	8fbc0018 	lw	gp,24(sp)
  411e28:	8f848024 	lw	a0,-32732(gp)
[31m  411e2c:	8f9980b4 	lw	t9,printf[0m
  411e30:	0320f809 	jalr	t9
  411e34:	2484d318 	addiu	a0,a0,-11496
--
  411e68:	8fbc0018 	lw	gp,24(sp)
  411e6c:	8e840000 	lw	a0,0(s4)
  411e70:	8f858024 	lw	a1,-32732(gp)
  411e74:	8f998168 	lw	t9,-32408(gp)
  411e78:	0320f809 	jalr	t9
  411e7c:	24a5d318 	addiu	a1,a1,-11496
  411e80:	8fbc0018 	lw	gp,24(sp)
  411e84:	8e840000 	lw	a0,0(s4)
  411e88:	8f9981a4 	lw	t9,-32348(gp)
  411e8c:	0320f809 	jalr	t9
  411e90:	00000000 	nop
  411e94:	8fbc0018 	lw	gp,24(sp)
  411e98:	8ea20000 	lw	v0,0(s5)
  411e9c:	2c420002 	sltiu	v0,v0,2
  411ea0:	14400014 	bnez	v0,411ef4 <http_proxy_post_timeout@@Base+0x53c>
  411ea4:	00000000 	nop
  411ea8:	8f998248 	lw	t9,-32184(gp)
  411eac:	0320f809 	jalr	t9
  411eb0:	00000000 	nop
  411eb4:	240702d3 	li	a3,723
  411eb8:	02c03021 	move	a2,s6
  411ebc:	8fbc0018 	lw	gp,24(sp)
  411ec0:	00402821 	move	a1,v0
  411ec4:	afb70010 	sw	s7,16(sp)
  411ec8:	8f848024 	lw	a0,-32732(gp)
[31m  411ecc:	8f9980b4 	lw	t9,printf[0m
  411ed0:	0320f809 	jalr	t9
  411ed4:	2484b4d0 	addiu	a0,a0,-19248
  411ed8:	02202821 	move	a1,s1
  411edc:	8fbc0018 	lw	gp,24(sp)
  411ee0:	8f848024 	lw	a0,-32732(gp)
[31m  411ee4:	8f9980b4 	lw	t9,printf[0m
  411ee8:	0320f809 	jalr	t9
  411eec:	2484d328 	addiu	a0,a0,-11480
--
  411fd8:	8fbe5160 	lw	s8,20832(sp)
  411fdc:	8fb7515c 	lw	s7,20828(sp)
  411fe0:	8fb65158 	lw	s6,20824(sp)
  411fe4:	8fb55154 	lw	s5,20820(sp)
  411fe8:	8fb45150 	lw	s4,20816(sp)
  411fec:	8fb3514c 	lw	s3,20812(sp)
  411ff0:	8fb25148 	lw	s2,20808(sp)
  411ff4:	8fb15144 	lw	s1,20804(sp)
  411ff8:	8fb05140 	lw	s0,20800(sp)
  411ffc:	03e00008 	jr	ra
  412000:	27bd5168 	addiu	sp,sp,20840
  412004:	8ea20000 	lw	v0,0(s5)
  412008:	2c420002 	sltiu	v0,v0,2
  41200c:	14400020 	bnez	v0,412090 <http_proxy_post_timeout@@Base+0x6d8>
  412010:	00000000 	nop
  412014:	8f998248 	lw	t9,-32184(gp)
  412018:	0320f809 	jalr	t9
  41201c:	00000000 	nop
  412020:	24070292 	li	a3,658
  412024:	8fbc0018 	lw	gp,24(sp)
  412028:	00402821 	move	a1,v0
  41202c:	8f828024 	lw	v0,-32732(gp)
  412030:	8f848024 	lw	a0,-32732(gp)
  412034:	8f868024 	lw	a2,-32732(gp)
  412038:	2442d49c 	addiu	v0,v0,-11108
[31m  41203c:	8f9980b4 	lw	t9,printf[0m
  412040:	2484b4d0 	addiu	a0,a0,-19248
  412044:	24c6d008 	addiu	a2,a2,-12280
  412048:	0320f809 	jalr	t9
  41204c:	afa20010 	sw	v0,16(sp)
  412050:	8fbc0018 	lw	gp,24(sp)
  412054:	8f9983ec 	lw	t9,-31764(gp)
  412058:	0320f809 	jalr	t9
  41205c:	00000000 	nop
  412060:	8fbc0018 	lw	gp,24(sp)
  412064:	8c440000 	lw	a0,0(v0)
  412068:	8f9980bc 	lw	t9,-32580(gp)
  41206c:	0320f809 	jalr	t9
  412070:	00000000 	nop
  412074:	8fbc0018 	lw	gp,24(sp)
  412078:	00402821 	move	a1,v0
  41207c:	8f848024 	lw	a0,-32732(gp)
[31m  412080:	8f9980b4 	lw	t9,printf[0m
  412084:	0320f809 	jalr	t9
  412088:	2484d0b4 	addiu	a0,a0,-12108
--
  412138:	8fbe5160 	lw	s8,20832(sp)
  41213c:	8fb7515c 	lw	s7,20828(sp)
  412140:	8fb65158 	lw	s6,20824(sp)
  412144:	8fb55154 	lw	s5,20820(sp)
  412148:	8fb45150 	lw	s4,20816(sp)
  41214c:	8fb3514c 	lw	s3,20812(sp)
  412150:	8fb25148 	lw	s2,20808(sp)
  412154:	8fb15144 	lw	s1,20804(sp)
  412158:	8fb05140 	lw	s0,20800(sp)
  41215c:	03e00008 	jr	ra
  412160:	27bd5168 	addiu	sp,sp,20840
  412164:	8ea20000 	lw	v0,0(s5)
  412168:	2c420002 	sltiu	v0,v0,2
  41216c:	14400017 	bnez	v0,4121cc <http_proxy_post_timeout@@Base+0x814>
  412170:	00000000 	nop
  412174:	8f998248 	lw	t9,-32184(gp)
  412178:	0320f809 	jalr	t9
  41217c:	00000000 	nop
  412180:	240702a1 	li	a3,673
  412184:	8fbc0018 	lw	gp,24(sp)
  412188:	00402821 	move	a1,v0
  41218c:	8f828024 	lw	v0,-32732(gp)
  412190:	8f848024 	lw	a0,-32732(gp)
  412194:	8f868024 	lw	a2,-32732(gp)
  412198:	2442d49c 	addiu	v0,v0,-11108
[31m  41219c:	8f9980b4 	lw	t9,printf[0m
  4121a0:	2484b4d0 	addiu	a0,a0,-19248
  4121a4:	24c6d008 	addiu	a2,a2,-12280
  4121a8:	0320f809 	jalr	t9
  4121ac:	afa20010 	sw	v0,16(sp)
  4121b0:	8fbc0018 	lw	gp,24(sp)
  4121b4:	8fa5002c 	lw	a1,44(sp)
  4121b8:	8f848024 	lw	a0,-32732(gp)
[31m  4121bc:	8f9980b4 	lw	t9,printf[0m
  4121c0:	0320f809 	jalr	t9
  4121c4:	2484d0d4 	addiu	a0,a0,-12076
--
  4121f0:	24a5b4f4 	addiu	a1,a1,-19212
  4121f4:	24c6d008 	addiu	a2,a2,-12280
  4121f8:	0320f809 	jalr	t9
  4121fc:	afa20010 	sw	v0,16(sp)
  412200:	8fbc0018 	lw	gp,24(sp)
  412204:	8e040000 	lw	a0,0(s0)
  412208:	8f858024 	lw	a1,-32732(gp)
  41220c:	8fa6002c 	lw	a2,44(sp)
  412210:	8f998168 	lw	t9,-32408(gp)
  412214:	1000ffbb 	b	412104 <http_proxy_post_timeout@@Base+0x74c>
  412218:	24a5d0d4 	addiu	a1,a1,-12076
  41221c:	8ea20000 	lw	v0,0(s5)
  412220:	2c420002 	sltiu	v0,v0,2
  412224:	14400022 	bnez	v0,4122b0 <http_proxy_post_timeout@@Base+0x8f8>
  412228:	00000000 	nop
  41222c:	8f998248 	lw	t9,-32184(gp)
  412230:	0320f809 	jalr	t9
  412234:	00000000 	nop
  412238:	240702a9 	li	a3,681
  41223c:	8fbc0018 	lw	gp,24(sp)
  412240:	00402821 	move	a1,v0
  412244:	8f828024 	lw	v0,-32732(gp)
  412248:	8f848024 	lw	a0,-32732(gp)
  41224c:	8f868024 	lw	a2,-32732(gp)
  412250:	2442d49c 	addiu	v0,v0,-11108
[31m  412254:	8f9980b4 	lw	t9,printf[0m
  412258:	2484b4d0 	addiu	a0,a0,-19248
  41225c:	24c6d008 	addiu	a2,a2,-12280
  412260:	0320f809 	jalr	t9
  412264:	afa20010 	sw	v0,16(sp)
  412268:	8fbc0018 	lw	gp,24(sp)
  41226c:	8f9983ec 	lw	t9,-31764(gp)
  412270:	0320f809 	jalr	t9
  412274:	00000000 	nop
  412278:	8fbc0018 	lw	gp,24(sp)
  41227c:	8c440000 	lw	a0,0(v0)
  412280:	8f9980bc 	lw	t9,-32580(gp)
  412284:	0320f809 	jalr	t9
  412288:	00000000 	nop
  41228c:	8fbc0018 	lw	gp,24(sp)
  412290:	00403021 	move	a2,v0
  412294:	8f848024 	lw	a0,-32732(gp)
  412298:	8f858024 	lw	a1,-32732(gp)
[31m  41229c:	8f9980b4 	lw	t9,printf[0m
  4122a0:	2484c440 	addiu	a0,a0,-15296
  4122a4:	0320f809 	jalr	t9
--
  412334:	00000000 	nop
  412338:	8f858024 	lw	a1,-32732(gp)
  41233c:	02c02021 	move	a0,s6
  412340:	8f998270 	lw	t9,-32144(gp)
  412344:	0320f809 	jalr	t9
  412348:	24a5cd64 	addiu	a1,a1,-12956
  41234c:	8fbc0018 	lw	gp,24(sp)
  412350:	1440fe8f 	bnez	v0,411d90 <http_proxy_post_timeout@@Base+0x3d8>
  412354:	0040f021 	move	s8,v0
  412358:	1000ff1e 	b	411fd4 <http_proxy_post_timeout@@Base+0x61c>
  41235c:	2402ffff 	li	v0,-1
  412360:	8ea20000 	lw	v0,0(s5)
  412364:	2c420002 	sltiu	v0,v0,2
  412368:	14400022 	bnez	v0,4123f4 <http_proxy_post_timeout@@Base+0xa3c>
  41236c:	00000000 	nop
  412370:	8f998248 	lw	t9,-32184(gp)
  412374:	0320f809 	jalr	t9
  412378:	00000000 	nop
  41237c:	24070284 	li	a3,644
  412380:	8fbc0018 	lw	gp,24(sp)
  412384:	00402821 	move	a1,v0
  412388:	8f828024 	lw	v0,-32732(gp)
  41238c:	8f848024 	lw	a0,-32732(gp)
  412390:	8f868024 	lw	a2,-32732(gp)
  412394:	2442d49c 	addiu	v0,v0,-11108
[31m  412398:	8f9980b4 	lw	t9,printf[0m
  41239c:	2484b4d0 	addiu	a0,a0,-19248
  4123a0:	24c6d008 	addiu	a2,a2,-12280
  4123a4:	0320f809 	jalr	t9
  4123a8:	afa20010 	sw	v0,16(sp)
  4123ac:	8fbc0018 	lw	gp,24(sp)
  4123b0:	8f9983ec 	lw	t9,-31764(gp)
  4123b4:	0320f809 	jalr	t9
  4123b8:	00000000 	nop
  4123bc:	8fbc0018 	lw	gp,24(sp)
  4123c0:	8c440000 	lw	a0,0(v0)
  4123c4:	8f9980bc 	lw	t9,-32580(gp)
  4123c8:	0320f809 	jalr	t9
  4123cc:	00000000 	nop
  4123d0:	8fbc0018 	lw	gp,24(sp)
  4123d4:	00403021 	move	a2,v0
  4123d8:	8f848024 	lw	a0,-32732(gp)
  4123dc:	8f858024 	lw	a1,-32732(gp)
[31m  4123e0:	8f9980b4 	lw	t9,printf[0m
  4123e4:	2484c440 	addiu	a0,a0,-15296
  4123e8:	0320f809 	jalr	t9
--
  412464:	8f998168 	lw	t9,-32408(gp)
  412468:	24a5c440 	addiu	a1,a1,-15296
  41246c:	0320f809 	jalr	t9
  412470:	24c6c8a0 	addiu	a2,a2,-14176
  412474:	8fbc0018 	lw	gp,24(sp)
  412478:	8e040000 	lw	a0,0(s0)
  41247c:	8f9981a4 	lw	t9,-32348(gp)
  412480:	0320f809 	jalr	t9
  412484:	00000000 	nop
  412488:	1000fed2 	b	411fd4 <http_proxy_post_timeout@@Base+0x61c>
  41248c:	2402ffff 	li	v0,-1
  412490:	8ea20000 	lw	v0,0(s5)
  412494:	2c420002 	sltiu	v0,v0,2
  412498:	14400020 	bnez	v0,41251c <http_proxy_post_timeout@@Base+0xb64>
  41249c:	00000000 	nop
  4124a0:	8f998248 	lw	t9,-32184(gp)
  4124a4:	0320f809 	jalr	t9
  4124a8:	00000000 	nop
  4124ac:	2407028a 	li	a3,650
  4124b0:	8fbc0018 	lw	gp,24(sp)
  4124b4:	00402821 	move	a1,v0
  4124b8:	8f828024 	lw	v0,-32732(gp)
  4124bc:	8f848024 	lw	a0,-32732(gp)
  4124c0:	8f868024 	lw	a2,-32732(gp)
  4124c4:	2442d49c 	addiu	v0,v0,-11108
[31m  4124c8:	8f9980b4 	lw	t9,printf[0m
  4124cc:	2484b4d0 	addiu	a0,a0,-19248
  4124d0:	24c6d008 	addiu	a2,a2,-12280
  4124d4:	0320f809 	jalr	t9
  4124d8:	afa20010 	sw	v0,16(sp)
  4124dc:	8fbc0018 	lw	gp,24(sp)
  4124e0:	8f9983ec 	lw	t9,-31764(gp)
  4124e4:	0320f809 	jalr	t9
  4124e8:	00000000 	nop
  4124ec:	8fbc0018 	lw	gp,24(sp)
  4124f0:	8c440000 	lw	a0,0(v0)
  4124f4:	8f9980bc 	lw	t9,-32580(gp)
  4124f8:	0320f809 	jalr	t9
  4124fc:	00000000 	nop
  412500:	8fbc0018 	lw	gp,24(sp)
  412504:	00402821 	move	a1,v0
  412508:	8f848024 	lw	a0,-32732(gp)
[31m  41250c:	8f9980b4 	lw	t9,printf[0m
  412510:	0320f809 	jalr	t9
  412514:	2484d094 	addiu	a0,a0,-12140
--
  412570:	0320f809 	jalr	t9
  412574:	00000000 	nop
  412578:	02202021 	move	a0,s1
  41257c:	8fbc0018 	lw	gp,24(sp)
  412580:	00403021 	move	a2,v0
  412584:	8f858024 	lw	a1,-32732(gp)
  412588:	8f998168 	lw	t9,-32408(gp)
  41258c:	0320f809 	jalr	t9
  412590:	24a5d094 	addiu	a1,a1,-12140
  412594:	1000fedd 	b	41210c <http_proxy_post_timeout@@Base+0x754>
  412598:	00000000 	nop
  41259c:	8ea20000 	lw	v0,0(s5)
  4125a0:	2c420002 	sltiu	v0,v0,2
  4125a4:	14400017 	bnez	v0,412604 <http_proxy_post_timeout@@Base+0xc4c>
  4125a8:	00000000 	nop
  4125ac:	8f998248 	lw	t9,-32184(gp)
  4125b0:	0320f809 	jalr	t9
  4125b4:	00000000 	nop
  4125b8:	2407027e 	li	a3,638
  4125bc:	8fbc0018 	lw	gp,24(sp)
  4125c0:	00402821 	move	a1,v0
  4125c4:	8f828024 	lw	v0,-32732(gp)
  4125c8:	8f848024 	lw	a0,-32732(gp)
  4125cc:	8f868024 	lw	a2,-32732(gp)
  4125d0:	2442d49c 	addiu	v0,v0,-11108
[31m  4125d4:	8f9980b4 	lw	t9,printf[0m
  4125d8:	2484b4d0 	addiu	a0,a0,-19248
  4125dc:	24c6d008 	addiu	a2,a2,-12280
  4125e0:	0320f809 	jalr	t9
  4125e4:	afa20010 	sw	v0,16(sp)
  4125e8:	02202821 	move	a1,s1
  4125ec:	8fbc0018 	lw	gp,24(sp)
  4125f0:	8f848024 	lw	a0,-32732(gp)
[31m  4125f4:	8f9980b4 	lw	t9,printf[0m
  4125f8:	0320f809 	jalr	t9
  4125fc:	2484d078 	addiu	a0,a0,-12168
--
  41270c:	afb45260 	sw	s4,21088(sp)
  412710:	afb3525c 	sw	s3,21084(sp)
  412714:	afb25258 	sw	s2,21080(sp)
  412718:	afb15254 	sw	s1,21076(sp)
  41271c:	afb05250 	sw	s0,21072(sp)
  412720:	afbc0028 	sw	gp,40(sp)
  412724:	8f95812c 	lw	s5,-32468(gp)
  412728:	00808821 	move	s1,a0
  41272c:	00a0b021 	move	s6,a1
  412730:	8fb75288 	lw	s7,21128(sp)
  412734:	8ea20000 	lw	v0,0(s5)
  412738:	00c09821 	move	s3,a2
  41273c:	2c420002 	sltiu	v0,v0,2
  412740:	1440001a 	bnez	v0,4127ac <http_Encode@@Base+0x150>
  412744:	00e0f021 	move	s8,a3
  412748:	8f998248 	lw	t9,-32184(gp)
  41274c:	0320f809 	jalr	t9
  412750:	00000000 	nop
  412754:	240702f9 	li	a3,761
  412758:	8fbc0028 	lw	gp,40(sp)
  41275c:	00402821 	move	a1,v0
  412760:	8f828024 	lw	v0,-32732(gp)
  412764:	8f848024 	lw	a0,-32732(gp)
  412768:	8f868024 	lw	a2,-32732(gp)
  41276c:	2442d488 	addiu	v0,v0,-11128
[31m  412770:	8f9980b4 	lw	t9,printf[0m
  412774:	2484b4d0 	addiu	a0,a0,-19248
  412778:	24c6d008 	addiu	a2,a2,-12280
  41277c:	0320f809 	jalr	t9
  412780:	afa20010 	sw	v0,16(sp)
  412784:	02202821 	move	a1,s1
  412788:	8fbc0028 	lw	gp,40(sp)
  41278c:	02c03021 	move	a2,s6
  412790:	02603821 	move	a3,s3
  412794:	afb70010 	sw	s7,16(sp)
  412798:	8f848024 	lw	a0,-32732(gp)
[31m  41279c:	8f9980b4 	lw	t9,printf[0m
  4127a0:	0320f809 	jalr	t9
  4127a4:	2484d334 	addiu	a0,a0,-11468
--
  412828:	02202021 	move	a0,s1
  41282c:	8f9983a8 	lw	t9,-31832(gp)
  412830:	27b40144 	addiu	s4,sp,324
  412834:	02402821 	move	a1,s2
  412838:	afa20010 	sw	v0,16(sp)
  41283c:	27a20030 	addiu	v0,sp,48
  412840:	02803821 	move	a3,s4
  412844:	24060100 	li	a2,256
  412848:	0320f809 	jalr	t9
  41284c:	afa20014 	sw	v0,20(sp)
  412850:	8ea20000 	lw	v0,0(s5)
  412854:	8fbc0028 	lw	gp,40(sp)
  412858:	2c420002 	sltiu	v0,v0,2
  41285c:	14400019 	bnez	v0,4128c4 <http_Encode@@Base+0x268>
  412860:	00000000 	nop
  412864:	8f998248 	lw	t9,-32184(gp)
  412868:	0320f809 	jalr	t9
  41286c:	00000000 	nop
  412870:	240702fb 	li	a3,763
  412874:	8fbc0028 	lw	gp,40(sp)
  412878:	00402821 	move	a1,v0
  41287c:	8f828024 	lw	v0,-32732(gp)
  412880:	8f848024 	lw	a0,-32732(gp)
  412884:	8f868024 	lw	a2,-32732(gp)
  412888:	2442d488 	addiu	v0,v0,-11128
[31m  41288c:	8f9980b4 	lw	t9,printf[0m
  412890:	2484b4d0 	addiu	a0,a0,-19248
  412894:	24c6d008 	addiu	a2,a2,-12280
  412898:	0320f809 	jalr	t9
  41289c:	afa20010 	sw	v0,16(sp)
  4128a0:	02402821 	move	a1,s2
  4128a4:	8fbc0028 	lw	gp,40(sp)
  4128a8:	02803821 	move	a3,s4
  4128ac:	97a60030 	lhu	a2,48(sp)
  4128b0:	8f848024 	lw	a0,-32732(gp)
[31m  4128b4:	8f9980b4 	lw	t9,printf[0m
  4128b8:	0320f809 	jalr	t9
  4128bc:	2484d2b0 	addiu	a0,a0,-11600
--
  412bf8:	8fbe5270 	lw	s8,21104(sp)
  412bfc:	8fb7526c 	lw	s7,21100(sp)
  412c00:	8fb65268 	lw	s6,21096(sp)
  412c04:	8fb55264 	lw	s5,21092(sp)
  412c08:	8fb45260 	lw	s4,21088(sp)
  412c0c:	8fb3525c 	lw	s3,21084(sp)
  412c10:	8fb25258 	lw	s2,21080(sp)
  412c14:	8fb15254 	lw	s1,21076(sp)
  412c18:	8fb05250 	lw	s0,21072(sp)
  412c1c:	03e00008 	jr	ra
  412c20:	27bd5278 	addiu	sp,sp,21112
  412c24:	8ea20000 	lw	v0,0(s5)
  412c28:	2c420002 	sltiu	v0,v0,2
  412c2c:	14400020 	bnez	v0,412cb0 <http_Encode@@Base+0x654>
  412c30:	00000000 	nop
  412c34:	8f998248 	lw	t9,-32184(gp)
  412c38:	0320f809 	jalr	t9
  412c3c:	00000000 	nop
  412c40:	24070314 	li	a3,788
  412c44:	8fbc0028 	lw	gp,40(sp)
  412c48:	00402821 	move	a1,v0
  412c4c:	8f828024 	lw	v0,-32732(gp)
  412c50:	8f848024 	lw	a0,-32732(gp)
  412c54:	8f868024 	lw	a2,-32732(gp)
  412c58:	2442d488 	addiu	v0,v0,-11128
[31m  412c5c:	8f9980b4 	lw	t9,printf[0m
  412c60:	2484b4d0 	addiu	a0,a0,-19248
  412c64:	24c6d008 	addiu	a2,a2,-12280
  412c68:	0320f809 	jalr	t9
  412c6c:	afa20010 	sw	v0,16(sp)
  412c70:	8fbc0028 	lw	gp,40(sp)
  412c74:	8f9983ec 	lw	t9,-31764(gp)
  412c78:	0320f809 	jalr	t9
  412c7c:	00000000 	nop
  412c80:	8fbc0028 	lw	gp,40(sp)
  412c84:	8c440000 	lw	a0,0(v0)
  412c88:	8f9980bc 	lw	t9,-32580(gp)
  412c8c:	0320f809 	jalr	t9
  412c90:	00000000 	nop
  412c94:	8fbc0028 	lw	gp,40(sp)
  412c98:	00402821 	move	a1,v0
  412c9c:	8f848024 	lw	a0,-32732(gp)
[31m  412ca0:	8f9980b4 	lw	t9,printf[0m
  412ca4:	0320f809 	jalr	t9
  412ca8:	2484d0b4 	addiu	a0,a0,-12108
--
  412d8c:	02c02021 	move	a0,s6
  412d90:	02c02021 	move	a0,s6
  412d94:	24072800 	li	a3,10240
  412d98:	8fbc0028 	lw	gp,40(sp)
  412d9c:	00402821 	move	a1,v0
  412da0:	8f998224 	lw	t9,-32220(gp)
  412da4:	0320f809 	jalr	t9
  412da8:	02a03021 	move	a2,s5
  412dac:	8fbc0028 	lw	gp,40(sp)
  412db0:	1000ff2b 	b	412a60 <http_Encode@@Base+0x404>
  412db4:	27b00244 	addiu	s0,sp,580
  412db8:	8ea20000 	lw	v0,0(s5)
  412dbc:	2c420002 	sltiu	v0,v0,2
  412dc0:	14400017 	bnez	v0,412e20 <http_Encode@@Base+0x7c4>
  412dc4:	00000000 	nop
  412dc8:	8f998248 	lw	t9,-32184(gp)
  412dcc:	0320f809 	jalr	t9
  412dd0:	00000000 	nop
  412dd4:	24070323 	li	a3,803
  412dd8:	8fbc0028 	lw	gp,40(sp)
  412ddc:	00402821 	move	a1,v0
  412de0:	8f828024 	lw	v0,-32732(gp)
  412de4:	8f848024 	lw	a0,-32732(gp)
  412de8:	8f868024 	lw	a2,-32732(gp)
  412dec:	2442d488 	addiu	v0,v0,-11128
[31m  412df0:	8f9980b4 	lw	t9,printf[0m
  412df4:	2484b4d0 	addiu	a0,a0,-19248
  412df8:	24c6d008 	addiu	a2,a2,-12280
  412dfc:	0320f809 	jalr	t9
  412e00:	afa20010 	sw	v0,16(sp)
  412e04:	8fbc0028 	lw	gp,40(sp)
  412e08:	8fa50038 	lw	a1,56(sp)
  412e0c:	8f848024 	lw	a0,-32732(gp)
[31m  412e10:	8f9980b4 	lw	t9,printf[0m
  412e14:	0320f809 	jalr	t9
  412e18:	2484d0d4 	addiu	a0,a0,-12076
--
  412e44:	24a5b4f4 	addiu	a1,a1,-19212
  412e48:	24c6d008 	addiu	a2,a2,-12280
  412e4c:	0320f809 	jalr	t9
  412e50:	afa20010 	sw	v0,16(sp)
  412e54:	8fbc0028 	lw	gp,40(sp)
  412e58:	8e040000 	lw	a0,0(s0)
  412e5c:	8f858024 	lw	a1,-32732(gp)
  412e60:	8fa60038 	lw	a2,56(sp)
  412e64:	8f998168 	lw	t9,-32408(gp)
  412e68:	1000ffae 	b	412d24 <http_Encode@@Base+0x6c8>
  412e6c:	24a5d0d4 	addiu	a1,a1,-12076
  412e70:	8ea20000 	lw	v0,0(s5)
  412e74:	2c420002 	sltiu	v0,v0,2
  412e78:	14400022 	bnez	v0,412f04 <http_Encode@@Base+0x8a8>
  412e7c:	00000000 	nop
  412e80:	8f998248 	lw	t9,-32184(gp)
  412e84:	0320f809 	jalr	t9
  412e88:	00000000 	nop
  412e8c:	2407032b 	li	a3,811
  412e90:	8fbc0028 	lw	gp,40(sp)
  412e94:	00402821 	move	a1,v0
  412e98:	8f828024 	lw	v0,-32732(gp)
  412e9c:	8f848024 	lw	a0,-32732(gp)
  412ea0:	8f868024 	lw	a2,-32732(gp)
  412ea4:	2442d488 	addiu	v0,v0,-11128
[31m  412ea8:	8f9980b4 	lw	t9,printf[0m
  412eac:	2484b4d0 	addiu	a0,a0,-19248
  412eb0:	24c6d008 	addiu	a2,a2,-12280
  412eb4:	0320f809 	jalr	t9
  412eb8:	afa20010 	sw	v0,16(sp)
  412ebc:	8fbc0028 	lw	gp,40(sp)
  412ec0:	8f9983ec 	lw	t9,-31764(gp)
  412ec4:	0320f809 	jalr	t9
  412ec8:	00000000 	nop
  412ecc:	8fbc0028 	lw	gp,40(sp)
  412ed0:	8c440000 	lw	a0,0(v0)
  412ed4:	8f9980bc 	lw	t9,-32580(gp)
  412ed8:	0320f809 	jalr	t9
  412edc:	00000000 	nop
  412ee0:	8fbc0028 	lw	gp,40(sp)
  412ee4:	00403021 	move	a2,v0
  412ee8:	8f848024 	lw	a0,-32732(gp)
  412eec:	8f858024 	lw	a1,-32732(gp)
[31m  412ef0:	8f9980b4 	lw	t9,printf[0m
  412ef4:	2484c440 	addiu	a0,a0,-15296
  412ef8:	0320f809 	jalr	t9
--
  412f88:	00000000 	nop
  412f8c:	8f858024 	lw	a1,-32732(gp)
  412f90:	02602021 	move	a0,s3
  412f94:	8f998270 	lw	t9,-32144(gp)
  412f98:	0320f809 	jalr	t9
  412f9c:	24a5cd64 	addiu	a1,a1,-12956
  412fa0:	8fbc0028 	lw	gp,40(sp)
  412fa4:	1440fee1 	bnez	v0,412b2c <http_Encode@@Base+0x4d0>
  412fa8:	00409021 	move	s2,v0
  412fac:	1000ff11 	b	412bf4 <http_Encode@@Base+0x598>
  412fb0:	2402ffff 	li	v0,-1
  412fb4:	8ea20000 	lw	v0,0(s5)
  412fb8:	2c420002 	sltiu	v0,v0,2
  412fbc:	14400022 	bnez	v0,413048 <http_Encode@@Base+0x9ec>
  412fc0:	00000000 	nop
  412fc4:	8f998248 	lw	t9,-32184(gp)
  412fc8:	0320f809 	jalr	t9
  412fcc:	00000000 	nop
  412fd0:	24070306 	li	a3,774
  412fd4:	8fbc0028 	lw	gp,40(sp)
  412fd8:	00402821 	move	a1,v0
  412fdc:	8f828024 	lw	v0,-32732(gp)
  412fe0:	8f848024 	lw	a0,-32732(gp)
  412fe4:	8f868024 	lw	a2,-32732(gp)
  412fe8:	2442d488 	addiu	v0,v0,-11128
[31m  412fec:	8f9980b4 	lw	t9,printf[0m
  412ff0:	2484b4d0 	addiu	a0,a0,-19248
  412ff4:	24c6d008 	addiu	a2,a2,-12280
  412ff8:	0320f809 	jalr	t9
  412ffc:	afa20010 	sw	v0,16(sp)
  413000:	8fbc0028 	lw	gp,40(sp)
  413004:	8f9983ec 	lw	t9,-31764(gp)
  413008:	0320f809 	jalr	t9
  41300c:	00000000 	nop
  413010:	8fbc0028 	lw	gp,40(sp)
  413014:	8c440000 	lw	a0,0(v0)
  413018:	8f9980bc 	lw	t9,-32580(gp)
  41301c:	0320f809 	jalr	t9
  413020:	00000000 	nop
  413024:	8fbc0028 	lw	gp,40(sp)
  413028:	00403021 	move	a2,v0
  41302c:	8f848024 	lw	a0,-32732(gp)
  413030:	8f858024 	lw	a1,-32732(gp)
[31m  413034:	8f9980b4 	lw	t9,printf[0m
  413038:	2484c440 	addiu	a0,a0,-15296
  41303c:	0320f809 	jalr	t9
--
  4130b8:	8f998168 	lw	t9,-32408(gp)
  4130bc:	24a5c440 	addiu	a1,a1,-15296
  4130c0:	0320f809 	jalr	t9
  4130c4:	24c6c8a0 	addiu	a2,a2,-14176
  4130c8:	8fbc0028 	lw	gp,40(sp)
  4130cc:	8e040000 	lw	a0,0(s0)
  4130d0:	8f9981a4 	lw	t9,-32348(gp)
  4130d4:	0320f809 	jalr	t9
  4130d8:	00000000 	nop
  4130dc:	1000fec5 	b	412bf4 <http_Encode@@Base+0x598>
  4130e0:	2402ffff 	li	v0,-1
  4130e4:	8ea20000 	lw	v0,0(s5)
  4130e8:	2c420002 	sltiu	v0,v0,2
  4130ec:	14400020 	bnez	v0,413170 <http_Encode@@Base+0xb14>
  4130f0:	00000000 	nop
  4130f4:	8f998248 	lw	t9,-32184(gp)
  4130f8:	0320f809 	jalr	t9
  4130fc:	00000000 	nop
  413100:	2407030c 	li	a3,780
  413104:	8fbc0028 	lw	gp,40(sp)
  413108:	00402821 	move	a1,v0
  41310c:	8f828024 	lw	v0,-32732(gp)
  413110:	8f848024 	lw	a0,-32732(gp)
  413114:	8f868024 	lw	a2,-32732(gp)
  413118:	2442d488 	addiu	v0,v0,-11128
[31m  41311c:	8f9980b4 	lw	t9,printf[0m
  413120:	2484b4d0 	addiu	a0,a0,-19248
  413124:	24c6d008 	addiu	a2,a2,-12280
  413128:	0320f809 	jalr	t9
  41312c:	afa20010 	sw	v0,16(sp)
  413130:	8fbc0028 	lw	gp,40(sp)
  413134:	8f9983ec 	lw	t9,-31764(gp)
  413138:	0320f809 	jalr	t9
  41313c:	00000000 	nop
  413140:	8fbc0028 	lw	gp,40(sp)
  413144:	8c440000 	lw	a0,0(v0)
  413148:	8f9980bc 	lw	t9,-32580(gp)
  41314c:	0320f809 	jalr	t9
  413150:	00000000 	nop
  413154:	8fbc0028 	lw	gp,40(sp)
  413158:	00402821 	move	a1,v0
  41315c:	8f848024 	lw	a0,-32732(gp)
[31m  413160:	8f9980b4 	lw	t9,printf[0m
  413164:	0320f809 	jalr	t9
  413168:	2484d094 	addiu	a0,a0,-12140
--
  4131c4:	0320f809 	jalr	t9
  4131c8:	00000000 	nop
  4131cc:	02402021 	move	a0,s2
  4131d0:	8fbc0028 	lw	gp,40(sp)
  4131d4:	00403021 	move	a2,v0
  4131d8:	8f858024 	lw	a1,-32732(gp)
  4131dc:	8f998168 	lw	t9,-32408(gp)
  4131e0:	0320f809 	jalr	t9
  4131e4:	24a5d094 	addiu	a1,a1,-12140
  4131e8:	1000fed0 	b	412d2c <http_Encode@@Base+0x6d0>
  4131ec:	00000000 	nop
  4131f0:	8ea20000 	lw	v0,0(s5)
  4131f4:	2c420002 	sltiu	v0,v0,2
  4131f8:	14400017 	bnez	v0,413258 <http_Encode@@Base+0xbfc>
  4131fc:	00000000 	nop
  413200:	8f998248 	lw	t9,-32184(gp)
  413204:	0320f809 	jalr	t9
  413208:	00000000 	nop
  41320c:	24070300 	li	a3,768
  413210:	8fbc0028 	lw	gp,40(sp)
  413214:	00402821 	move	a1,v0
  413218:	8f828024 	lw	v0,-32732(gp)
  41321c:	8f848024 	lw	a0,-32732(gp)
  413220:	8f868024 	lw	a2,-32732(gp)
  413224:	2442d488 	addiu	v0,v0,-11128
[31m  413228:	8f9980b4 	lw	t9,printf[0m
  41322c:	2484b4d0 	addiu	a0,a0,-19248
  413230:	24c6d008 	addiu	a2,a2,-12280
  413234:	0320f809 	jalr	t9
  413238:	afa20010 	sw	v0,16(sp)
  41323c:	02402821 	move	a1,s2
  413240:	8fbc0028 	lw	gp,40(sp)
  413244:	8f848024 	lw	a0,-32732(gp)
[31m  413248:	8f9980b4 	lw	t9,printf[0m
  41324c:	0320f809 	jalr	t9
  413250:	2484d078 	addiu	a0,a0,-12168
--
  4132d0:	afb5525c 	sw	s5,21084(sp)
  4132d4:	afb45258 	sw	s4,21080(sp)
  4132d8:	afb35254 	sw	s3,21076(sp)
  4132dc:	afb25250 	sw	s2,21072(sp)
  4132e0:	afb1524c 	sw	s1,21068(sp)
  4132e4:	afb05248 	sw	s0,21064(sp)
  4132e8:	afbc0028 	sw	gp,40(sp)
  4132ec:	8f96812c 	lw	s6,-32468(gp)
  4132f0:	00808021 	move	s0,a0
  4132f4:	00a0a021 	move	s4,a1
  4132f8:	afa7527c 	sw	a3,21116(sp)
  4132fc:	8ec20000 	lw	v0,0(s6)
  413300:	2c420002 	sltiu	v0,v0,2
  413304:	1440001b 	bnez	v0,413374 <http_Encode@@Base+0xd18>
  413308:	00c0a821 	move	s5,a2
  41330c:	8f998248 	lw	t9,-32184(gp)
  413310:	0320f809 	jalr	t9
  413314:	00000000 	nop
  413318:	2407009e 	li	a3,158
  41331c:	8fbc0028 	lw	gp,40(sp)
  413320:	00402821 	move	a1,v0
  413324:	8f828024 	lw	v0,-32732(gp)
  413328:	8f848024 	lw	a0,-32732(gp)
  41332c:	8f868024 	lw	a2,-32732(gp)
  413330:	2442d4d0 	addiu	v0,v0,-11056
[31m  413334:	8f9980b4 	lw	t9,printf[0m
  413338:	2484b4d0 	addiu	a0,a0,-19248
  41333c:	24c6d008 	addiu	a2,a2,-12280
  413340:	0320f809 	jalr	t9
  413344:	afa20010 	sw	v0,16(sp)
  413348:	02002821 	move	a1,s0
  41334c:	8fbc0028 	lw	gp,40(sp)
  413350:	02803021 	move	a2,s4
  413354:	8fa2527c 	lw	v0,21116(sp)
  413358:	02a03821 	move	a3,s5
  41335c:	8f848024 	lw	a0,-32732(gp)
[31m  413360:	8f9980b4 	lw	t9,printf[0m
  413364:	afa20010 	sw	v0,16(sp)
  413368:	0320f809 	jalr	t9
--
  4133f4:	02002021 	move	a0,s0
  4133f8:	8f9983a8 	lw	t9,-31832(gp)
  4133fc:	27b70144 	addiu	s7,sp,324
  413400:	02602821 	move	a1,s3
  413404:	afa20010 	sw	v0,16(sp)
  413408:	27a20030 	addiu	v0,sp,48
  41340c:	02e03821 	move	a3,s7
  413410:	24060100 	li	a2,256
  413414:	0320f809 	jalr	t9
  413418:	afa20014 	sw	v0,20(sp)
  41341c:	8ec20000 	lw	v0,0(s6)
  413420:	8fbc0028 	lw	gp,40(sp)
  413424:	2c420002 	sltiu	v0,v0,2
  413428:	14400019 	bnez	v0,413490 <http_Encode@@Base+0xe34>
  41342c:	00000000 	nop
  413430:	8f998248 	lw	t9,-32184(gp)
  413434:	0320f809 	jalr	t9
  413438:	00000000 	nop
  41343c:	240700a0 	li	a3,160
  413440:	8fbc0028 	lw	gp,40(sp)
  413444:	00402821 	move	a1,v0
  413448:	8f828024 	lw	v0,-32732(gp)
  41344c:	8f848024 	lw	a0,-32732(gp)
  413450:	8f868024 	lw	a2,-32732(gp)
  413454:	2442d4d0 	addiu	v0,v0,-11056
[31m  413458:	8f9980b4 	lw	t9,printf[0m
  41345c:	2484b4d0 	addiu	a0,a0,-19248
  413460:	24c6d008 	addiu	a2,a2,-12280
  413464:	0320f809 	jalr	t9
  413468:	afa20010 	sw	v0,16(sp)
  41346c:	02602821 	move	a1,s3
  413470:	8fbc0028 	lw	gp,40(sp)
  413474:	02e03821 	move	a3,s7
  413478:	97a60030 	lhu	a2,48(sp)
  41347c:	8f848024 	lw	a0,-32732(gp)
[31m  413480:	8f9980b4 	lw	t9,printf[0m
  413484:	0320f809 	jalr	t9
  413488:	2484d2b0 	addiu	a0,a0,-11600
--
  413618:	240627ff 	li	a2,10239
  41361c:	0320f809 	jalr	t9
  413620:	02802821 	move	a1,s4
  413624:	8fbc0028 	lw	gp,40(sp)
  413628:	8f9981a0 	lw	t9,-32352(gp)
  41362c:	27b00244 	addiu	s0,sp,580
  413630:	02002021 	move	a0,s0
  413634:	00002821 	move	a1,zero
  413638:	0320f809 	jalr	t9
  41363c:	24062800 	li	a2,10240
  413640:	8ec20000 	lw	v0,0(s6)
  413644:	8fbc0028 	lw	gp,40(sp)
  413648:	2c420002 	sltiu	v0,v0,2
  41364c:	1440001b 	bnez	v0,4136bc <http_Encode@@Base+0x1060>
  413650:	00000000 	nop
  413654:	8f998248 	lw	t9,-32184(gp)
  413658:	0320f809 	jalr	t9
  41365c:	00000000 	nop
  413660:	240700e9 	li	a3,233
  413664:	8fbc0028 	lw	gp,40(sp)
  413668:	00402821 	move	a1,v0
  41366c:	8f828024 	lw	v0,-32732(gp)
  413670:	8f848024 	lw	a0,-32732(gp)
  413674:	8f868024 	lw	a2,-32732(gp)
  413678:	2442d4d0 	addiu	v0,v0,-11056
[31m  41367c:	8f9980b4 	lw	t9,printf[0m
  413680:	2484b4d0 	addiu	a0,a0,-19248
  413684:	24c6d008 	addiu	a2,a2,-12280
  413688:	0320f809 	jalr	t9
  41368c:	afa20010 	sw	v0,16(sp)
  413690:	8fbc0028 	lw	gp,40(sp)
  413694:	8f998334 	lw	t9,strlen
  413698:	0320f809 	jalr	t9
  41369c:	02802021 	move	a0,s4
  4136a0:	8fbc0028 	lw	gp,40(sp)
  4136a4:	00402821 	move	a1,v0
  4136a8:	8f848024 	lw	a0,-32732(gp)
[31m  4136ac:	8f9980b4 	lw	t9,printf[0m
  4136b0:	0320f809 	jalr	t9
  4136b4:	2484d450 	addiu	a0,a0,-11184
--
  413944:	8fbe5268 	lw	s8,21096(sp)
  413948:	8fb75264 	lw	s7,21092(sp)
  41394c:	8fb65260 	lw	s6,21088(sp)
  413950:	8fb5525c 	lw	s5,21084(sp)
  413954:	8fb45258 	lw	s4,21080(sp)
  413958:	8fb35254 	lw	s3,21076(sp)
  41395c:	8fb25250 	lw	s2,21072(sp)
  413960:	8fb1524c 	lw	s1,21068(sp)
  413964:	8fb05248 	lw	s0,21064(sp)
  413968:	03e00008 	jr	ra
  41396c:	27bd5270 	addiu	sp,sp,21104
  413970:	8ec20000 	lw	v0,0(s6)
  413974:	2c420002 	sltiu	v0,v0,2
  413978:	14400017 	bnez	v0,4139d8 <http_Encode@@Base+0x137c>
  41397c:	00000000 	nop
  413980:	8f998248 	lw	t9,-32184(gp)
  413984:	0320f809 	jalr	t9
  413988:	00000000 	nop
  41398c:	240700d0 	li	a3,208
  413990:	8fbc0028 	lw	gp,40(sp)
  413994:	00402821 	move	a1,v0
  413998:	8f828024 	lw	v0,-32732(gp)
  41399c:	8f848024 	lw	a0,-32732(gp)
  4139a0:	8f868024 	lw	a2,-32732(gp)
  4139a4:	2442d4d0 	addiu	v0,v0,-11056
[31m  4139a8:	8f9980b4 	lw	t9,printf[0m
  4139ac:	2484b4d0 	addiu	a0,a0,-19248
  4139b0:	24c6d008 	addiu	a2,a2,-12280
  4139b4:	0320f809 	jalr	t9
  4139b8:	afa20010 	sw	v0,16(sp)
  4139bc:	8fbc0028 	lw	gp,40(sp)
  4139c0:	8fa50038 	lw	a1,56(sp)
  4139c4:	8f848024 	lw	a0,-32732(gp)
[31m  4139c8:	8f9980b4 	lw	t9,printf[0m
  4139cc:	0320f809 	jalr	t9
  4139d0:	2484d0d4 	addiu	a0,a0,-12076
--
  413a54:	8fbe5268 	lw	s8,21096(sp)
  413a58:	8fb75264 	lw	s7,21092(sp)
  413a5c:	8fb65260 	lw	s6,21088(sp)
  413a60:	8fb5525c 	lw	s5,21084(sp)
  413a64:	8fb45258 	lw	s4,21080(sp)
  413a68:	8fb35254 	lw	s3,21076(sp)
  413a6c:	8fb25250 	lw	s2,21072(sp)
  413a70:	8fb1524c 	lw	s1,21068(sp)
  413a74:	8fb05248 	lw	s0,21064(sp)
  413a78:	03e00008 	jr	ra
  413a7c:	27bd5270 	addiu	sp,sp,21104
  413a80:	8ec20000 	lw	v0,0(s6)
  413a84:	2c420002 	sltiu	v0,v0,2
  413a88:	14400022 	bnez	v0,413b14 <http_Encode@@Base+0x14b8>
  413a8c:	00000000 	nop
  413a90:	8f998248 	lw	t9,-32184(gp)
  413a94:	0320f809 	jalr	t9
  413a98:	00000000 	nop
  413a9c:	240700d8 	li	a3,216
  413aa0:	8fbc0028 	lw	gp,40(sp)
  413aa4:	00402821 	move	a1,v0
  413aa8:	8f828024 	lw	v0,-32732(gp)
  413aac:	8f848024 	lw	a0,-32732(gp)
  413ab0:	8f868024 	lw	a2,-32732(gp)
  413ab4:	2442d4d0 	addiu	v0,v0,-11056
[31m  413ab8:	8f9980b4 	lw	t9,printf[0m
  413abc:	2484b4d0 	addiu	a0,a0,-19248
  413ac0:	24c6d008 	addiu	a2,a2,-12280
  413ac4:	0320f809 	jalr	t9
  413ac8:	afa20010 	sw	v0,16(sp)
  413acc:	8fbc0028 	lw	gp,40(sp)
  413ad0:	8f9983ec 	lw	t9,-31764(gp)
  413ad4:	0320f809 	jalr	t9
  413ad8:	00000000 	nop
  413adc:	8fbc0028 	lw	gp,40(sp)
  413ae0:	8c440000 	lw	a0,0(v0)
  413ae4:	8f9980bc 	lw	t9,-32580(gp)
  413ae8:	0320f809 	jalr	t9
  413aec:	00000000 	nop
  413af0:	8fbc0028 	lw	gp,40(sp)
  413af4:	00403021 	move	a2,v0
  413af8:	8f848024 	lw	a0,-32732(gp)
  413afc:	8f858024 	lw	a1,-32732(gp)
[31m  413b00:	8f9980b4 	lw	t9,printf[0m
  413b04:	2484c440 	addiu	a0,a0,-15296
  413b08:	0320f809 	jalr	t9
--
  413cbc:	8fbc0028 	lw	gp,40(sp)
  413cc0:	8e240000 	lw	a0,0(s1)
  413cc4:	8f9981a4 	lw	t9,-32348(gp)
  413cc8:	0320f809 	jalr	t9
  413ccc:	00000000 	nop
  413cd0:	8fbc0028 	lw	gp,40(sp)
  413cd4:	8f99839c 	lw	t9,-31844(gp)
  413cd8:	0320f809 	jalr	t9
  413cdc:	2604d3f8 	addiu	a0,s0,-11272
  413ce0:	1000fefe 	b	4138dc <http_Encode@@Base+0x1280>
  413ce4:	2402ffff 	li	v0,-1
  413ce8:	8ec20000 	lw	v0,0(s6)
  413cec:	2c420002 	sltiu	v0,v0,2
  413cf0:	14400020 	bnez	v0,413d74 <http_Encode@@Base+0x1718>
  413cf4:	00000000 	nop
  413cf8:	8f998248 	lw	t9,-32184(gp)
  413cfc:	0320f809 	jalr	t9
  413d00:	00000000 	nop
  413d04:	240700b5 	li	a3,181
  413d08:	8fbc0028 	lw	gp,40(sp)
  413d0c:	00402821 	move	a1,v0
  413d10:	8f828024 	lw	v0,-32732(gp)
  413d14:	8f848024 	lw	a0,-32732(gp)
  413d18:	8f868024 	lw	a2,-32732(gp)
  413d1c:	2442d4d0 	addiu	v0,v0,-11056
[31m  413d20:	8f9980b4 	lw	t9,printf[0m
  413d24:	2484b4d0 	addiu	a0,a0,-19248
  413d28:	24c6d008 	addiu	a2,a2,-12280
  413d2c:	0320f809 	jalr	t9
  413d30:	afa20010 	sw	v0,16(sp)
  413d34:	8fbc0028 	lw	gp,40(sp)
  413d38:	8f9983ec 	lw	t9,-31764(gp)
  413d3c:	0320f809 	jalr	t9
  413d40:	00000000 	nop
  413d44:	8fbc0028 	lw	gp,40(sp)
  413d48:	8c440000 	lw	a0,0(v0)
  413d4c:	8f9980bc 	lw	t9,-32580(gp)
  413d50:	0320f809 	jalr	t9
  413d54:	00000000 	nop
  413d58:	8fbc0028 	lw	gp,40(sp)
  413d5c:	00402821 	move	a1,v0
  413d60:	8f848024 	lw	a0,-32732(gp)
[31m  413d64:	8f9980b4 	lw	t9,printf[0m
  413d68:	0320f809 	jalr	t9
  413d6c:	2484d094 	addiu	a0,a0,-12140
--
  413e00:	8fbc0028 	lw	gp,40(sp)
  413e04:	8f998218 	lw	t9,-32232(gp)
  413e08:	0320f809 	jalr	t9
  413e0c:	02202021 	move	a0,s1
  413e10:	8fbc0028 	lw	gp,40(sp)
  413e14:	8f848024 	lw	a0,-32732(gp)
  413e18:	8f99839c 	lw	t9,-31844(gp)
  413e1c:	0320f809 	jalr	t9
  413e20:	2484d404 	addiu	a0,a0,-11260
  413e24:	1000fead 	b	4138dc <http_Encode@@Base+0x1280>
  413e28:	2402ffff 	li	v0,-1
  413e2c:	8ec20000 	lw	v0,0(s6)
  413e30:	2c420002 	sltiu	v0,v0,2
  413e34:	14400020 	bnez	v0,413eb8 <http_Encode@@Base+0x185c>
  413e38:	00000000 	nop
  413e3c:	8f998248 	lw	t9,-32184(gp)
  413e40:	0320f809 	jalr	t9
  413e44:	00000000 	nop
  413e48:	240700bf 	li	a3,191
  413e4c:	8fbc0028 	lw	gp,40(sp)
  413e50:	00402821 	move	a1,v0
  413e54:	8f828024 	lw	v0,-32732(gp)
  413e58:	8f848024 	lw	a0,-32732(gp)
  413e5c:	8f868024 	lw	a2,-32732(gp)
  413e60:	2442d4d0 	addiu	v0,v0,-11056
[31m  413e64:	8f9980b4 	lw	t9,printf[0m
  413e68:	2484b4d0 	addiu	a0,a0,-19248
  413e6c:	24c6d008 	addiu	a2,a2,-12280
  413e70:	0320f809 	jalr	t9
  413e74:	afa20010 	sw	v0,16(sp)
  413e78:	8fbc0028 	lw	gp,40(sp)
  413e7c:	8f9983ec 	lw	t9,-31764(gp)
  413e80:	0320f809 	jalr	t9
  413e84:	00000000 	nop
  413e88:	8fbc0028 	lw	gp,40(sp)
  413e8c:	8c440000 	lw	a0,0(v0)
  413e90:	8f9980bc 	lw	t9,-32580(gp)
  413e94:	0320f809 	jalr	t9
  413e98:	00000000 	nop
  413e9c:	8fbc0028 	lw	gp,40(sp)
  413ea0:	00402821 	move	a1,v0
  413ea4:	8f848024 	lw	a0,-32732(gp)
[31m  413ea8:	8f9980b4 	lw	t9,printf[0m
  413eac:	0320f809 	jalr	t9
  413eb0:	2484d0b4 	addiu	a0,a0,-12108
--
  413f20:	8f858024 	lw	a1,-32732(gp)
  413f24:	8f998168 	lw	t9,-32408(gp)
  413f28:	0320f809 	jalr	t9
  413f2c:	24a5d0b4 	addiu	a1,a1,-12108
  413f30:	8fbc0028 	lw	gp,40(sp)
  413f34:	8e040000 	lw	a0,0(s0)
  413f38:	8f9981a4 	lw	t9,-32348(gp)
  413f3c:	0320f809 	jalr	t9
  413f40:	00000000 	nop
  413f44:	8fbc0028 	lw	gp,40(sp)
  413f48:	8f848024 	lw	a0,-32732(gp)
  413f4c:	8f99839c 	lw	t9,-31844(gp)
  413f50:	1000ff19 	b	413bb8 <http_Encode@@Base+0x155c>
  413f54:	2484d420 	addiu	a0,a0,-11232
  413f58:	8f998248 	lw	t9,-32184(gp)
  413f5c:	8f908024 	lw	s0,-32732(gp)
  413f60:	0320f809 	jalr	t9
  413f64:	00000000 	nop
  413f68:	240700ad 	li	a3,173
  413f6c:	8fbc0028 	lw	gp,40(sp)
  413f70:	00402821 	move	a1,v0
  413f74:	8f828024 	lw	v0,-32732(gp)
  413f78:	8f848024 	lw	a0,-32732(gp)
  413f7c:	8f868024 	lw	a2,-32732(gp)
  413f80:	2442d4d0 	addiu	v0,v0,-11056
[31m  413f84:	8f9980b4 	lw	t9,printf[0m
  413f88:	2484b4d0 	addiu	a0,a0,-19248
  413f8c:	24c6d008 	addiu	a2,a2,-12280
  413f90:	0320f809 	jalr	t9
  413f94:	afa20010 	sw	v0,16(sp)
  413f98:	8fbc0028 	lw	gp,40(sp)
  413f9c:	8f9983ec 	lw	t9,-31764(gp)
  413fa0:	0320f809 	jalr	t9
  413fa4:	00000000 	nop
  413fa8:	8fbc0028 	lw	gp,40(sp)
  413fac:	8c440000 	lw	a0,0(v0)
  413fb0:	8f9980bc 	lw	t9,-32580(gp)
  413fb4:	0320f809 	jalr	t9
  413fb8:	00000000 	nop
  413fbc:	2605d3f8 	addiu	a1,s0,-11272
  413fc0:	8fbc0028 	lw	gp,40(sp)
  413fc4:	00403021 	move	a2,v0
  413fc8:	8f848024 	lw	a0,-32732(gp)
[31m  413fcc:	8f9980b4 	lw	t9,printf[0m
  413fd0:	0320f809 	jalr	t9
  413fd4:	2484c440 	addiu	a0,a0,-15296
  413fd8:	8fbc0028 	lw	gp,40(sp)
  413fdc:	1000ff18 	b	413c40 <http_Encode@@Base+0x15e4>
  413fe0:	00000000 	nop
  413fe4:	8ec20000 	lw	v0,0(s6)
  413fe8:	2c420002 	sltiu	v0,v0,2
  413fec:	14400017 	bnez	v0,41404c <http_Encode@@Base+0x19f0>
  413ff0:	00000000 	nop
  413ff4:	8f998248 	lw	t9,-32184(gp)
  413ff8:	0320f809 	jalr	t9
  413ffc:	00000000 	nop
  414000:	240700a5 	li	a3,165
  414004:	8fbc0028 	lw	gp,40(sp)
  414008:	00402821 	move	a1,v0
  41400c:	8f828024 	lw	v0,-32732(gp)
  414010:	8f848024 	lw	a0,-32732(gp)
  414014:	8f868024 	lw	a2,-32732(gp)
  414018:	2442d4d0 	addiu	v0,v0,-11056
[31m  41401c:	8f9980b4 	lw	t9,printf[0m
  414020:	2484b4d0 	addiu	a0,a0,-19248
  414024:	24c6d008 	addiu	a2,a2,-12280
  414028:	0320f809 	jalr	t9
  41402c:	afa20010 	sw	v0,16(sp)
  414030:	02602821 	move	a1,s3
  414034:	8fbc0028 	lw	gp,40(sp)
  414038:	8f848024 	lw	a0,-32732(gp)
[31m  41403c:	8f9980b4 	lw	t9,printf[0m
  414040:	0320f809 	jalr	t9
  414044:	2484d078 	addiu	a0,a0,-12168
--
  4141cc:	2652d4f8 	addiu	s2,s2,-11016
  4141d0:	2694d504 	addiu	s4,s4,-11004
  4141d4:	afb90128 	sw	t9,296(sp)
  4141d8:	8f858024 	lw	a1,-32732(gp)
  4141dc:	02e02021 	move	a0,s7
  4141e0:	8f99809c 	lw	t9,-32612(gp)
  4141e4:	02003021 	move	a2,s0
  4141e8:	0320f809 	jalr	t9
  4141ec:	24a5d4f0 	addiu	a1,a1,-11024
  4141f0:	8fbc0018 	lw	gp,24(sp)
  4141f4:	1455007b 	bne	v0,s5,4143e4 <interface@@Base+0x2b4>
  4141f8:	00000000 	nop
  4141fc:	8ec20000 	lw	v0,0(s6)
  414200:	2c420002 	sltiu	v0,v0,2
  414204:	14400013 	bnez	v0,414254 <interface@@Base+0x124>
  414208:	00000000 	nop
  41420c:	8f998248 	lw	t9,-32184(gp)
  414210:	0320f809 	jalr	t9
  414214:	00000000 	nop
  414218:	2407001e 	li	a3,30
  41421c:	02403021 	move	a2,s2
  414220:	8fbc0018 	lw	gp,24(sp)
  414224:	00402821 	move	a1,v0
  414228:	afb30010 	sw	s3,16(sp)
  41422c:	8f848024 	lw	a0,-32732(gp)
[31m  414230:	8f9980b4 	lw	t9,printf[0m
  414234:	0320f809 	jalr	t9
  414238:	2484b4d0 	addiu	a0,a0,-19248
  41423c:	02802021 	move	a0,s4
  414240:	8fbc0018 	lw	gp,24(sp)
[31m  414244:	8f9980b4 	lw	t9,printf[0m
  414248:	0320f809 	jalr	t9
  41424c:	02002821 	move	a1,s0
--
  4142b4:	2405003a 	li	a1,58
  4142b8:	8fbc0018 	lw	gp,24(sp)
  4142bc:	1040ffc6 	beqz	v0,4141d8 <interface@@Base+0xa8>
  4142c0:	02002021 	move	a0,s0
  4142c4:	8f858024 	lw	a1,-32732(gp)
  4142c8:	8f9981f4 	lw	t9,-32268(gp)
  4142cc:	8fa60128 	lw	a2,296(sp)
  4142d0:	0320f809 	jalr	t9
  4142d4:	24a5d510 	addiu	a1,a1,-10992
  4142d8:	8fbc0018 	lw	gp,24(sp)
  4142dc:	1455ffbe 	bne	v0,s5,4141d8 <interface@@Base+0xa8>
  4142e0:	00000000 	nop
  4142e4:	8ec20000 	lw	v0,0(s6)
  4142e8:	2c420002 	sltiu	v0,v0,2
  4142ec:	14400014 	bnez	v0,414340 <interface@@Base+0x210>
  4142f0:	00000000 	nop
  4142f4:	8f998248 	lw	t9,-32184(gp)
  4142f8:	0320f809 	jalr	t9
  4142fc:	00000000 	nop
  414300:	24070022 	li	a3,34
  414304:	02403021 	move	a2,s2
  414308:	8fbc0018 	lw	gp,24(sp)
  41430c:	00402821 	move	a1,v0
  414310:	afb30010 	sw	s3,16(sp)
  414314:	8f848024 	lw	a0,-32732(gp)
[31m  414318:	8f9980b4 	lw	t9,printf[0m
  41431c:	0320f809 	jalr	t9
  414320:	2484b4d0 	addiu	a0,a0,-19248
  414324:	8fbc0018 	lw	gp,24(sp)
  414328:	8fa50128 	lw	a1,296(sp)
  41432c:	8f848024 	lw	a0,-32732(gp)
[31m  414330:	8f9980b4 	lw	t9,printf[0m
  414334:	0320f809 	jalr	t9
  414338:	2484d518 	addiu	a0,a0,-10984
--
  41697c:	afb40688 	sw	s4,1672(sp)
  416980:	afb30684 	sw	s3,1668(sp)
  416984:	afb20680 	sw	s2,1664(sp)
  416988:	afb1067c 	sw	s1,1660(sp)
  41698c:	afb00678 	sw	s0,1656(sp)
  416990:	afbc0018 	sw	gp,24(sp)
  416994:	24020001 	li	v0,1
  416998:	8f94812c 	lw	s4,-32468(gp)
  41699c:	afa20020 	sw	v0,32(sp)
  4169a0:	8e820000 	lw	v0,0(s4)
  4169a4:	afa406a0 	sw	a0,1696(sp)
  4169a8:	2c420002 	sltiu	v0,v0,2
  4169ac:	afa506a4 	sw	a1,1700(sp)
  4169b0:	14400019 	bnez	v0,416a18 <upnpDiscover@@Base+0xc0>
  4169b4:	afa606a8 	sw	a2,1704(sp)
  4169b8:	8f998248 	lw	t9,-32184(gp)
  4169bc:	0320f809 	jalr	t9
  4169c0:	00000000 	nop
  4169c4:	2407017c 	li	a3,380
  4169c8:	8fbc0018 	lw	gp,24(sp)
  4169cc:	00402821 	move	a1,v0
  4169d0:	8f828024 	lw	v0,-32732(gp)
  4169d4:	8f848024 	lw	a0,-32732(gp)
  4169d8:	8f868024 	lw	a2,-32732(gp)
  4169dc:	2442da30 	addiu	v0,v0,-9680
[31m  4169e0:	8f9980b4 	lw	t9,printf[0m
  4169e4:	2484b4d0 	addiu	a0,a0,-19248
  4169e8:	24c6d5f4 	addiu	a2,a2,-10764
  4169ec:	0320f809 	jalr	t9
  4169f0:	afa20010 	sw	v0,16(sp)
  4169f4:	8fbc0018 	lw	gp,24(sp)
  4169f8:	8fa506a0 	lw	a1,1696(sp)
  4169fc:	8f848024 	lw	a0,-32732(gp)
[31m  416a00:	8f9980b4 	lw	t9,printf[0m
  416a04:	8fa606a4 	lw	a2,1700(sp)
  416a08:	8fa706a8 	lw	a3,1704(sp)
--
  416ab4:	8f9e8024 	lw	s8,-32732(gp)
  416ab8:	26f7da30 	addiu	s7,s7,-9680
  416abc:	8f958238 	lw	s5,-32200(gp)
  416ac0:	2631d5f4 	addiu	s1,s1,-10764
  416ac4:	afa2064c 	sw	v0,1612(sp)
  416ac8:	27ded648 	addiu	s8,s8,-10680
  416acc:	8f99825c 	lw	t9,-32164(gp)
  416ad0:	8fa506a8 	lw	a1,1704(sp)
  416ad4:	0320f809 	jalr	t9
  416ad8:	02002021 	move	a0,s0
  416adc:	00409021 	move	s2,v0
  416ae0:	8e820000 	lw	v0,0(s4)
  416ae4:	8fbc0018 	lw	gp,24(sp)
  416ae8:	2c420002 	sltiu	v0,v0,2
  416aec:	8f998248 	lw	t9,-32184(gp)
  416af0:	14400013 	bnez	v0,416b40 <upnpDiscover@@Base+0x1e8>
  416af4:	00000000 	nop
  416af8:	0320f809 	jalr	t9
  416afc:	00000000 	nop
  416b00:	24070186 	li	a3,390
  416b04:	02203021 	move	a2,s1
  416b08:	8fbc0018 	lw	gp,24(sp)
  416b0c:	00402821 	move	a1,v0
  416b10:	afb70010 	sw	s7,16(sp)
  416b14:	8f848024 	lw	a0,-32732(gp)
[31m  416b18:	8f9980b4 	lw	t9,printf[0m
  416b1c:	0320f809 	jalr	t9
  416b20:	2484b4d0 	addiu	a0,a0,-19248
  416b24:	02c02821 	move	a1,s6
  416b28:	8fbc0018 	lw	gp,24(sp)
  416b2c:	03c02021 	move	a0,s8
[31m  416b30:	8f9980b4 	lw	t9,printf[0m
  416b34:	0320f809 	jalr	t9
  416b38:	02403021 	move	a2,s2
--
  416d20:	02002021 	move	a0,s0
  416d24:	8f868024 	lw	a2,-32732(gp)
  416d28:	00031080 	sll	v0,v1,0x2
  416d2c:	8f838018 	lw	v1,-32744(gp)
  416d30:	8f998310 	lw	t9,-31984(gp)
  416d34:	2463e1e0 	addiu	v1,v1,-7712
  416d38:	00431021 	addu	v0,v0,v1
  416d3c:	8c470000 	lw	a3,0(v0)
  416d40:	0320f809 	jalr	t9
  416d44:	24c6da40 	addiu	a2,a2,-9664
  416d48:	8e830000 	lw	v1,0(s4)
  416d4c:	8fbc0018 	lw	gp,24(sp)
  416d50:	2c630002 	sltiu	v1,v1,2
  416d54:	14600017 	bnez	v1,416db4 <upnpDiscover@@Base+0x45c>
  416d58:	00408821 	move	s1,v0
  416d5c:	8f998248 	lw	t9,-32184(gp)
  416d60:	0320f809 	jalr	t9
  416d64:	00000000 	nop
  416d68:	240701e7 	li	a3,487
  416d6c:	8fbc0018 	lw	gp,24(sp)
  416d70:	00402821 	move	a1,v0
  416d74:	8f828024 	lw	v0,-32732(gp)
  416d78:	8f848024 	lw	a0,-32732(gp)
  416d7c:	8f868024 	lw	a2,-32732(gp)
  416d80:	2442da30 	addiu	v0,v0,-9680
[31m  416d84:	8f9980b4 	lw	t9,printf[0m
  416d88:	2484b4d0 	addiu	a0,a0,-19248
  416d8c:	24c6d5f4 	addiu	a2,a2,-10764
  416d90:	0320f809 	jalr	t9
  416d94:	afa20010 	sw	v0,16(sp)
  416d98:	02002821 	move	a1,s0
  416d9c:	8fbc0018 	lw	gp,24(sp)
  416da0:	8f848024 	lw	a0,-32732(gp)
[31m  416da4:	8f9980b4 	lw	t9,printf[0m
  416da8:	0320f809 	jalr	t9
  416dac:	2484d700 	addiu	a0,a0,-10496
--
  416e60:	8f998284 	lw	t9,-32124(gp)
  416e64:	24060600 	li	a2,1536
  416e68:	8fa40654 	lw	a0,1620(sp)
  416e6c:	8fa706a0 	lw	a3,1696(sp)
  416e70:	0320f809 	jalr	t9
  416e74:	02002821 	move	a1,s0
  416e78:	8fbc0018 	lw	gp,24(sp)
  416e7c:	04400141 	bltz	v0,417384 <upnpDiscover@@Base+0xa2c>
  416e80:	00408821 	move	s1,v0
  416e84:	1040ff99 	beqz	v0,416cec <upnpDiscover@@Base+0x394>
  416e88:	00000000 	nop
  416e8c:	8e820000 	lw	v0,0(s4)
  416e90:	2c420002 	sltiu	v0,v0,2
  416e94:	14400018 	bnez	v0,416ef8 <upnpDiscover@@Base+0x5a0>
  416e98:	00000000 	nop
  416e9c:	8f998248 	lw	t9,-32184(gp)
  416ea0:	0320f809 	jalr	t9
  416ea4:	00000000 	nop
  416ea8:	24070206 	li	a3,518
  416eac:	8fbc0018 	lw	gp,24(sp)
  416eb0:	00402821 	move	a1,v0
  416eb4:	8f828024 	lw	v0,-32732(gp)
  416eb8:	8f848024 	lw	a0,-32732(gp)
  416ebc:	8f868024 	lw	a2,-32732(gp)
  416ec0:	2442da30 	addiu	v0,v0,-9680
[31m  416ec4:	8f9980b4 	lw	t9,printf[0m
  416ec8:	2484b4d0 	addiu	a0,a0,-19248
  416ecc:	24c6d5f4 	addiu	a2,a2,-10764
  416ed0:	0320f809 	jalr	t9
  416ed4:	afa20010 	sw	v0,16(sp)
  416ed8:	02202821 	move	a1,s1
  416edc:	8fbc0018 	lw	gp,24(sp)
  416ee0:	02003021 	move	a2,s0
  416ee4:	8f848024 	lw	a0,-32732(gp)
[31m  416ee8:	8f9980b4 	lw	t9,printf[0m
  416eec:	0320f809 	jalr	t9
  416ef0:	2484d7c4 	addiu	a0,a0,-10300
--
  417154:	afa90674 	sw	t1,1652(sp)
  417158:	8fbc0018 	lw	gp,24(sp)
  41715c:	8fa3066c 	lw	v1,1644(sp)
  417160:	8fa70668 	lw	a3,1640(sp)
  417164:	8fa80670 	lw	t0,1648(sp)
  417168:	8fa90674 	lw	t1,1652(sp)
  41716c:	1440ffef 	bnez	v0,41712c <upnpDiscover@@Base+0x7d4>
  417170:	02d7b823 	subu	s7,s6,s7
  417174:	afb20658 	sw	s2,1624(sp)
  417178:	03c09021 	move	s2,s8
  41717c:	1000ffb6 	b	417058 <upnpDiscover@@Base+0x700>
  417180:	afb70650 	sw	s7,1616(sp)
  417184:	8e820000 	lw	v0,0(s4)
  417188:	8f998248 	lw	t9,-32184(gp)
  41718c:	2c420002 	sltiu	v0,v0,2
  417190:	14400012 	bnez	v0,4171dc <upnpDiscover@@Base+0x884>
  417194:	00000000 	nop
  417198:	0320f809 	jalr	t9
  41719c:	00000000 	nop
  4171a0:	02203021 	move	a2,s1
  4171a4:	2407018d 	li	a3,397
  4171a8:	8fbc0018 	lw	gp,24(sp)
  4171ac:	00402821 	move	a1,v0
  4171b0:	afb70010 	sw	s7,16(sp)
  4171b4:	8f848024 	lw	a0,-32732(gp)
[31m  4171b8:	8f9980b4 	lw	t9,printf[0m
  4171bc:	0320f809 	jalr	t9
  4171c0:	2484b4d0 	addiu	a0,a0,-19248
--
  417244:	8c500000 	lw	s0,0(v0)
  417248:	24420004 	addiu	v0,v0,4
  41724c:	1600fe1f 	bnez	s0,416acc <upnpDiscover@@Base+0x174>
  417250:	afa2064c 	sw	v0,1612(sp)
  417254:	1000fe5a 	b	416bc0 <upnpDiscover@@Base+0x268>
  417258:	00000000 	nop
  41725c:	8f848024 	lw	a0,-32732(gp)
  417260:	8f998180 	lw	t9,-32384(gp)
  417264:	0320f809 	jalr	t9
  417268:	2484d6e0 	addiu	a0,a0,-10528
  41726c:	8e820000 	lw	v0,0(s4)
  417270:	8fbc0018 	lw	gp,24(sp)
  417274:	2c420002 	sltiu	v0,v0,2
  417278:	14400016 	bnez	v0,4172d4 <upnpDiscover@@Base+0x97c>
  41727c:	00000000 	nop
  417280:	8f998248 	lw	t9,-32184(gp)
  417284:	0320f809 	jalr	t9
  417288:	00000000 	nop
  41728c:	240701da 	li	a3,474
  417290:	8fbc0018 	lw	gp,24(sp)
  417294:	00402821 	move	a1,v0
  417298:	8f828024 	lw	v0,-32732(gp)
  41729c:	8f848024 	lw	a0,-32732(gp)
  4172a0:	8f868024 	lw	a2,-32732(gp)
  4172a4:	2442da30 	addiu	v0,v0,-9680
[31m  4172a8:	8f9980b4 	lw	t9,printf[0m
  4172ac:	2484b4d0 	addiu	a0,a0,-19248
  4172b0:	24c6d5f4 	addiu	a2,a2,-10764
--
  41735c:	8fb70694 	lw	s7,1684(sp)
  417360:	8fb60690 	lw	s6,1680(sp)
  417364:	8fb5068c 	lw	s5,1676(sp)
  417368:	8fb40688 	lw	s4,1672(sp)
  41736c:	8fb30684 	lw	s3,1668(sp)
  417370:	8fb20680 	lw	s2,1664(sp)
  417374:	8fb1067c 	lw	s1,1660(sp)
  417378:	8fb00678 	lw	s0,1656(sp)
  41737c:	03e00008 	jr	ra
  417380:	27bd06a0 	addiu	sp,sp,1696
  417384:	8e820000 	lw	v0,0(s4)
  417388:	8fb2065c 	lw	s2,1628(sp)
  41738c:	2c420002 	sltiu	v0,v0,2
  417390:	14400016 	bnez	v0,4173ec <upnpDiscover@@Base+0xa94>
  417394:	00000000 	nop
  417398:	8f998248 	lw	t9,-32184(gp)
  41739c:	0320f809 	jalr	t9
  4173a0:	00000000 	nop
  4173a4:	240701f5 	li	a3,501
  4173a8:	8fbc0018 	lw	gp,24(sp)
  4173ac:	00402821 	move	a1,v0
  4173b0:	8f828024 	lw	v0,-32732(gp)
  4173b4:	8f848024 	lw	a0,-32732(gp)
  4173b8:	8f868024 	lw	a2,-32732(gp)
  4173bc:	2442da30 	addiu	v0,v0,-9680
[31m  4173c0:	8f9980b4 	lw	t9,printf[0m
  4173c4:	2484b4d0 	addiu	a0,a0,-19248
  4173c8:	24c6d5f4 	addiu	a2,a2,-10764
--
  417478:	8fb70694 	lw	s7,1684(sp)
  41747c:	8fb60690 	lw	s6,1680(sp)
  417480:	8fb5068c 	lw	s5,1676(sp)
  417484:	8fb40688 	lw	s4,1672(sp)
  417488:	8fb30684 	lw	s3,1668(sp)
  41748c:	8fb20680 	lw	s2,1664(sp)
  417490:	8fb1067c 	lw	s1,1660(sp)
  417494:	8fb00678 	lw	s0,1656(sp)
  417498:	03e00008 	jr	ra
  41749c:	27bd06a0 	addiu	sp,sp,1696
  4174a0:	8e820000 	lw	v0,0(s4)
  4174a4:	8fb2065c 	lw	s2,1628(sp)
  4174a8:	2c420002 	sltiu	v0,v0,2
  4174ac:	14400016 	bnez	v0,417508 <upnpDiscover@@Base+0xbb0>
  4174b0:	00000000 	nop
  4174b4:	8f998248 	lw	t9,-32184(gp)
  4174b8:	0320f809 	jalr	t9
  4174bc:	00000000 	nop
  4174c0:	240701fc 	li	a3,508
  4174c4:	8fbc0018 	lw	gp,24(sp)
  4174c8:	00402821 	move	a1,v0
  4174cc:	8f828024 	lw	v0,-32732(gp)
  4174d0:	8f848024 	lw	a0,-32732(gp)
  4174d4:	8f868024 	lw	a2,-32732(gp)
  4174d8:	2442da30 	addiu	v0,v0,-9680
[31m  4174dc:	8f9980b4 	lw	t9,printf[0m
  4174e0:	2484b4d0 	addiu	a0,a0,-19248
  4174e4:	24c6d5f4 	addiu	a2,a2,-10764
--
  417574:	00000000 	nop
  417578:	8f828024 	lw	v0,-32732(gp)
  41757c:	2442d630 	addiu	v0,v0,-10704
  417580:	1000fd45 	b	416a98 <upnpDiscover@@Base+0x140>
  417584:	afa206a8 	sw	v0,1704(sp)
  417588:	8f848024 	lw	a0,-32732(gp)
  41758c:	8f998180 	lw	t9,-32384(gp)
  417590:	8fb2065c 	lw	s2,1628(sp)
  417594:	0320f809 	jalr	t9
  417598:	2484d70c 	addiu	a0,a0,-10484
  41759c:	8e820000 	lw	v0,0(s4)
  4175a0:	8fbc0018 	lw	gp,24(sp)
  4175a4:	2c420002 	sltiu	v0,v0,2
  4175a8:	14400016 	bnez	v0,417604 <upnpDiscover@@Base+0xcac>
  4175ac:	00000000 	nop
  4175b0:	8f998248 	lw	t9,-32184(gp)
  4175b4:	0320f809 	jalr	t9
  4175b8:	00000000 	nop
  4175bc:	240701ec 	li	a3,492
  4175c0:	8fbc0018 	lw	gp,24(sp)
  4175c4:	00402821 	move	a1,v0
  4175c8:	8f828024 	lw	v0,-32732(gp)
  4175cc:	8f848024 	lw	a0,-32732(gp)
  4175d0:	8f868024 	lw	a2,-32732(gp)
  4175d4:	2442da30 	addiu	v0,v0,-9680
[31m  4175d8:	8f9980b4 	lw	t9,printf[0m
  4175dc:	2484b4d0 	addiu	a0,a0,-19248
  4175e0:	24c6d5f4 	addiu	a2,a2,-10764
--
  419468:	afb708bc 	sw	s7,2236(sp)
  41946c:	afb608b8 	sw	s6,2232(sp)
  419470:	afb508b4 	sw	s5,2228(sp)
  419474:	afb408b0 	sw	s4,2224(sp)
  419478:	afb308ac 	sw	s3,2220(sp)
  41947c:	afb208a8 	sw	s2,2216(sp)
  419480:	afb108a4 	sw	s1,2212(sp)
  419484:	afb008a0 	sw	s0,2208(sp)
  419488:	afbc0018 	sw	gp,24(sp)
  41948c:	8f94812c 	lw	s4,-32468(gp)
  419490:	00808821 	move	s1,a0
  419494:	8e820000 	lw	v0,0(s4)
  419498:	2c420002 	sltiu	v0,v0,2
  41949c:	14400018 	bnez	v0,419500 <getDevicesFromMiniSSDPD@@Base+0xb0>
  4194a0:	00a09821 	move	s3,a1
  4194a4:	8f998248 	lw	t9,-32184(gp)
  4194a8:	0320f809 	jalr	t9
  4194ac:	00000000 	nop
  4194b0:	2407002e 	li	a3,46
  4194b4:	8fbc0018 	lw	gp,24(sp)
  4194b8:	00402821 	move	a1,v0
  4194bc:	8f828024 	lw	v0,-32732(gp)
  4194c0:	8f848024 	lw	a0,-32732(gp)
  4194c4:	8f868024 	lw	a2,-32732(gp)
  4194c8:	2442de60 	addiu	v0,v0,-8608
[31m  4194cc:	8f9980b4 	lw	t9,printf[0m
  4194d0:	2484b4d0 	addiu	a0,a0,-19248
  4194d4:	24c6ddb8 	addiu	a2,a2,-8776
  4194d8:	0320f809 	jalr	t9
  4194dc:	afa20010 	sw	v0,16(sp)
  4194e0:	02202821 	move	a1,s1
  4194e4:	8fbc0018 	lw	gp,24(sp)
  4194e8:	02603021 	move	a2,s3
  4194ec:	8f848024 	lw	a0,-32732(gp)
[31m  4194f0:	8f9980b4 	lw	t9,printf[0m
  4194f4:	0320f809 	jalr	t9
  4194f8:	2484ddc4 	addiu	a0,a0,-8764
--
  419644:	02202821 	move	a1,s1
  419648:	8fbc0018 	lw	gp,24(sp)
  41964c:	044000a8 	bltz	v0,4198f0 <getDevicesFromMiniSSDPD@@Base+0x4a0>
  419650:	02002021 	move	a0,s0
  419654:	8f998304 	lw	t9,-31996(gp)
  419658:	24060800 	li	a2,2048
  41965c:	0320f809 	jalr	t9
  419660:	02202821 	move	a1,s1
  419664:	8fbc0018 	lw	gp,24(sp)
  419668:	1840012e 	blez	v0,419b24 <getDevicesFromMiniSSDPD@@Base+0x6d4>
  41966c:	00000000 	nop
  419670:	8e820000 	lw	v0,0(s4)
  419674:	2c420002 	sltiu	v0,v0,2
  419678:	14400015 	bnez	v0,4196d0 <getDevicesFromMiniSSDPD@@Base+0x280>
  41967c:	00000000 	nop
  419680:	8f998248 	lw	t9,-32184(gp)
  419684:	0320f809 	jalr	t9
  419688:	00000000 	nop
  41968c:	24070067 	li	a3,103
  419690:	8fbc0018 	lw	gp,24(sp)
  419694:	00402821 	move	a1,v0
  419698:	8f828024 	lw	v0,-32732(gp)
  41969c:	8f848024 	lw	a0,-32732(gp)
  4196a0:	8f868024 	lw	a2,-32732(gp)
  4196a4:	2442de60 	addiu	v0,v0,-8608
[31m  4196a8:	8f9980b4 	lw	t9,printf[0m
  4196ac:	2484b4d0 	addiu	a0,a0,-19248
  4196b0:	24c6ddb8 	addiu	a2,a2,-8776
--
  4198c4:	8fbe08c0 	lw	s8,2240(sp)
  4198c8:	8fb708bc 	lw	s7,2236(sp)
  4198cc:	8fb608b8 	lw	s6,2232(sp)
  4198d0:	8fb508b4 	lw	s5,2228(sp)
  4198d4:	8fb408b0 	lw	s4,2224(sp)
  4198d8:	8fb308ac 	lw	s3,2220(sp)
  4198dc:	8fb208a8 	lw	s2,2216(sp)
  4198e0:	8fb108a4 	lw	s1,2212(sp)
  4198e4:	8fb008a0 	lw	s0,2208(sp)
  4198e8:	03e00008 	jr	ra
  4198ec:	27bd08c8 	addiu	sp,sp,2248
  4198f0:	8e820000 	lw	v0,0(s4)
  4198f4:	2c420002 	sltiu	v0,v0,2
  4198f8:	14400016 	bnez	v0,419954 <getDevicesFromMiniSSDPD@@Base+0x504>
  4198fc:	00000000 	nop
  419900:	8f998248 	lw	t9,-32184(gp)
  419904:	0320f809 	jalr	t9
  419908:	00000000 	nop
  41990c:	24070059 	li	a3,89
  419910:	8fbc0018 	lw	gp,24(sp)
  419914:	00402821 	move	a1,v0
  419918:	8f828024 	lw	v0,-32732(gp)
  41991c:	8f848024 	lw	a0,-32732(gp)
  419920:	8f868024 	lw	a2,-32732(gp)
  419924:	2442de60 	addiu	v0,v0,-8608
[31m  419928:	8f9980b4 	lw	t9,printf[0m
  41992c:	2484b4d0 	addiu	a0,a0,-19248
  419930:	24c6ddb8 	addiu	a2,a2,-8776
  419934:	0320f809 	jalr	t9
  419938:	afa20010 	sw	v0,16(sp)
  41993c:	8fbc0018 	lw	gp,24(sp)
  419940:	8f848024 	lw	a0,-32732(gp)
[31m  419944:	8f9980b4 	lw	t9,printf[0m
  419948:	0320f809 	jalr	t9
  41994c:	2484de08 	addiu	a0,a0,-8696
--
  419a10:	03e00008 	jr	ra
  419a14:	27bd08c8 	addiu	sp,sp,2248
  419a18:	8f848024 	lw	a0,-32732(gp)
  419a1c:	00001821 	move	v1,zero
  419a20:	8f998180 	lw	t9,-32384(gp)
  419a24:	afa30894 	sw	v1,2196(sp)
  419a28:	0320f809 	jalr	t9
  419a2c:	2484dde0 	addiu	a0,a0,-8736
  419a30:	8fa30894 	lw	v1,2196(sp)
  419a34:	1000ffa1 	b	4198bc <getDevicesFromMiniSSDPD@@Base+0x46c>
  419a38:	00000000 	nop
  419a3c:	8e820000 	lw	v0,0(s4)
  419a40:	2c420002 	sltiu	v0,v0,2
  419a44:	14400017 	bnez	v0,419aa4 <getDevicesFromMiniSSDPD@@Base+0x654>
  419a48:	00000000 	nop
  419a4c:	8f998248 	lw	t9,-32184(gp)
  419a50:	0320f809 	jalr	t9
  419a54:	00000000 	nop
  419a58:	2407004d 	li	a3,77
  419a5c:	8fbc0018 	lw	gp,24(sp)
  419a60:	00402821 	move	a1,v0
  419a64:	8f828024 	lw	v0,-32732(gp)
  419a68:	8f848024 	lw	a0,-32732(gp)
  419a6c:	8f868024 	lw	a2,-32732(gp)
  419a70:	2442de60 	addiu	v0,v0,-8608
[31m  419a74:	8f9980b4 	lw	t9,printf[0m
  419a78:	2484b4d0 	addiu	a0,a0,-19248
  419a7c:	24c6ddb8 	addiu	a2,a2,-8776
  419a80:	0320f809 	jalr	t9
  419a84:	afa20010 	sw	v0,16(sp)
  419a88:	02602821 	move	a1,s3
  419a8c:	8fbc0018 	lw	gp,24(sp)
  419a90:	8f848024 	lw	a0,-32732(gp)
[31m  419a94:	8f9980b4 	lw	t9,printf[0m
  419a98:	0320f809 	jalr	t9
  419a9c:	2484ddf0 	addiu	a0,a0,-8720
--
  419af8:	8e240000 	lw	a0,0(s1)
  419afc:	8f9981a4 	lw	t9,-32348(gp)
  419b00:	0320f809 	jalr	t9
  419b04:	00000000 	nop
  419b08:	8fbc0018 	lw	gp,24(sp)
  419b0c:	8f998218 	lw	t9,-32232(gp)
  419b10:	02002021 	move	a0,s0
  419b14:	1000ff66 	b	4198b0 <getDevicesFromMiniSSDPD@@Base+0x460>
  419b18:	00001821 	move	v1,zero
  419b1c:	1000ff62 	b	4198a8 <getDevicesFromMiniSSDPD@@Base+0x458>
  419b20:	00001821 	move	v1,zero
  419b24:	8e820000 	lw	v0,0(s4)
  419b28:	2c420002 	sltiu	v0,v0,2
  419b2c:	14400016 	bnez	v0,419b88 <getDevicesFromMiniSSDPD@@Base+0x738>
  419b30:	00000000 	nop
  419b34:	8f998248 	lw	t9,-32184(gp)
  419b38:	0320f809 	jalr	t9
  419b3c:	00000000 	nop
  419b40:	24070062 	li	a3,98
  419b44:	8fbc0018 	lw	gp,24(sp)
  419b48:	00402821 	move	a1,v0
  419b4c:	8f828024 	lw	v0,-32732(gp)
  419b50:	8f848024 	lw	a0,-32732(gp)
  419b54:	8f868024 	lw	a2,-32732(gp)
  419b58:	2442de60 	addiu	v0,v0,-8608
[31m  419b5c:	8f9980b4 	lw	t9,printf[0m
  419b60:	2484b4d0 	addiu	a0,a0,-19248
  419b64:	24c6ddb8 	addiu	a2,a2,-8776
  419b68:	0320f809 	jalr	t9
  419b6c:	afa20010 	sw	v0,16(sp)
  419b70:	8fbc0018 	lw	gp,24(sp)
  419b74:	8f848024 	lw	a0,-32732(gp)
[31m  419b78:	8f9980b4 	lw	t9,printf[0m
  419b7c:	0320f809 	jalr	t9
  419b80:	2484de30 	addiu	a0,a0,-8656
--
  41a318:	3c1c0002 	lui	gp,0x2
  41a31c:	279cc478 	addiu	gp,gp,-15240
  41a320:	0399e021 	addu	gp,gp,t9
  41a324:	8c830000 	lw	v1,0(a0)
  41a328:	8c85000c 	lw	a1,12(a0)
  41a32c:	8f998098 	lw	t9,-32616(gp)
  41a330:	ac830008 	sw	v1,8(a0)
  41a334:	00651821 	addu	v1,v1,a1
  41a338:	ac830004 	sw	v1,4(a0)
  41a33c:	03200008 	jr	t9
  41a340:	00000000 	nop
	...
  41a350:	3c1c0002 	lui	gp,0x2
  41a354:	279cc440 	addiu	gp,gp,-15296
  41a358:	0399e021 	addu	gp,gp,t9
  41a35c:	27bdffd0 	addiu	sp,sp,-48
  41a360:	afbf002c 	sw	ra,44(sp)
  41a364:	afb30028 	sw	s3,40(sp)
  41a368:	afb20024 	sw	s2,36(sp)
  41a36c:	afb10020 	sw	s1,32(sp)
  41a370:	afb0001c 	sw	s0,28(sp)
  41a374:	afbc0010 	sw	gp,16(sp)
  41a378:	00808021 	move	s0,a0
  41a37c:	24850080 	addiu	a1,a0,128
  41a380:	8f848024 	lw	a0,-32732(gp)
[31m  41a384:	8f9980b4 	lw	t9,printf[0m
  41a388:	0320f809 	jalr	t9
  41a38c:	2484dfec 	addiu	a0,a0,-8212
  41a390:	8fbc0010 	lw	gp,16(sp)
  41a394:	8f848024 	lw	a0,-32732(gp)
  41a398:	8f9980a4 	lw	t9,-32604(gp)
  41a39c:	0320f809 	jalr	t9
  41a3a0:	2484dffc 	addiu	a0,a0,-8196
  41a3a4:	26050284 	addiu	a1,s0,644
  41a3a8:	8fbc0010 	lw	gp,16(sp)
  41a3ac:	8f848024 	lw	a0,-32732(gp)
[31m  41a3b0:	8f9980b4 	lw	t9,printf[0m
  41a3b4:	0320f809 	jalr	t9
  41a3b8:	2484e024 	addiu	a0,a0,-8156
  41a3bc:	26050104 	addiu	a1,s0,260
  41a3c0:	8fbc0010 	lw	gp,16(sp)
  41a3c4:	8f938024 	lw	s3,-32732(gp)
[31m  41a3c8:	8f9980b4 	lw	t9,printf[0m
  41a3cc:	2673e038 	addiu	s3,s3,-8136
  41a3d0:	0320f809 	jalr	t9
  41a3d4:	02602021 	move	a0,s3
  41a3d8:	26050184 	addiu	a1,s0,388
  41a3dc:	8fbc0010 	lw	gp,16(sp)
  41a3e0:	8f928024 	lw	s2,-32732(gp)
[31m  41a3e4:	8f9980b4 	lw	t9,printf[0m
  41a3e8:	2652e04c 	addiu	s2,s2,-8116
  41a3ec:	0320f809 	jalr	t9
  41a3f0:	02402021 	move	a0,s2
  41a3f4:	26050204 	addiu	a1,s0,516
  41a3f8:	8fbc0010 	lw	gp,16(sp)
  41a3fc:	8f918024 	lw	s1,-32732(gp)
[31m  41a400:	8f9980b4 	lw	t9,printf[0m
  41a404:	2631e060 	addiu	s1,s1,-8096
  41a408:	0320f809 	jalr	t9
  41a40c:	02202021 	move	a0,s1
  41a410:	8fbc0010 	lw	gp,16(sp)
  41a414:	8f848024 	lw	a0,-32732(gp)
  41a418:	8f9980a4 	lw	t9,-32604(gp)
  41a41c:	0320f809 	jalr	t9
  41a420:	2484e070 	addiu	a0,a0,-8080
  41a424:	26050484 	addiu	a1,s0,1156
  41a428:	8fbc0010 	lw	gp,16(sp)
  41a42c:	8f848024 	lw	a0,-32732(gp)
[31m  41a430:	8f9980b4 	lw	t9,printf[0m
  41a434:	0320f809 	jalr	t9
  41a438:	2484e0a0 	addiu	a0,a0,-8032
  41a43c:	02602021 	move	a0,s3
  41a440:	8fbc0010 	lw	gp,16(sp)
[31m  41a444:	8f9980b4 	lw	t9,printf[0m
  41a448:	0320f809 	jalr	t9
  41a44c:	26050304 	addiu	a1,s0,772
  41a450:	02402021 	move	a0,s2
  41a454:	8fbc0010 	lw	gp,16(sp)
[31m  41a458:	8f9980b4 	lw	t9,printf[0m
  41a45c:	0320f809 	jalr	t9
  41a460:	26050384 	addiu	a1,s0,900
  41a464:	02202021 	move	a0,s1
  41a468:	26050404 	addiu	a1,s0,1028
  41a46c:	8fbc0010 	lw	gp,16(sp)
  41a470:	8fbf002c 	lw	ra,44(sp)
[31m  41a474:	8f9980b4 	lw	t9,printf[0m
  41a478:	8fb30028 	lw	s3,40(sp)
  41a47c:	8fb20024 	lw	s2,36(sp)

[0m
[[0;33m*[0m] Function [0;33mprintf[0m used [0;33m364[0m times [0;33mupnpc-ddns[0m

