[[0;33m*[0m] Binary protection state of [0;33miwconfig[0m

  	RELRO          CANARY            NX           PIE          RPATH        RUNPATH      SYMBOLS      
  	[31mNo RELRO[0m       [31mNo Canary found[0m   [31mNX disabled[0m  [31mNo PIE[0m       [32mNo RPATH[0m     [32mNo RUNPATH[0m   [32mNo Symbols[0m

[0m
[[0;33m*[0m] Function [0;33msprintf[0m tear down of [0;33miwconfig[0m

  405af0:	26529c10 	addiu	s2,s2,-25584
  405af4:	8f948028 	lw	s4,-32728(gp)
  405af8:	10000011 	b	405b40 <iw_print_key+0x13c>
  405afc:	2694914c 	addiu	s4,s4,-28340
  405b00:	14400008 	bnez	v0,405b24 <iw_print_key+0x120>
  405b04:	02002021 	move	a0,s0
  405b08:	8f9981a8 	lw	t9,-32344(gp)
  405b0c:	00000000 	nop
  405b10:	0320f809 	jalr	t9
  405b14:	02802821 	move	a1,s4
  405b18:	8fbc0010 	lw	gp,16(sp)
  405b1c:	26150001 	addiu	s5,s0,1
  405b20:	02a08021 	move	s0,s5
  405b24:	8f9981a8 	lw	t9,-32344(gp)
  405b28:	02002021 	move	a0,s0
  405b2c:	0320f809 	jalr	t9
  405b30:	02402821 	move	a1,s2
  405b34:	8fbc0010 	lw	gp,16(sp)
  405b38:	26100002 	addiu	s0,s0,2
  405b3c:	26310001 	addiu	s1,s1,1
  405b40:	1633ffef 	bne	s1,s3,405b00 <iw_print_key+0xfc>
  405b44:	32220001 	andi	v0,s1,0x1
  405b48:	10000022 	b	405bd4 <iw_print_key+0x1d0>
  405b4c:	00000000 	nop
  405b50:	8f948028 	lw	s4,-32728(gp)
[31m  405b54:	8f998128 	lw	t9,sprintf[0m
  405b58:	90c60000 	lbu	a2,0(a2)
  405b5c:	26859c14 	addiu	a1,s4,-25580
  405b60:	0320f809 	jalr	t9
  405b64:	26100002 	addiu	s0,s0,2
  405b68:	8fbc0010 	lw	gp,16(sp)
  405b6c:	24120001 	li	s2,1
  405b70:	26949c14 	addiu	s4,s4,-25580
  405b74:	8f958028 	lw	s5,-32728(gp)
  405b78:	10000013 	b	405bc8 <iw_print_key+0x1c4>
  405b7c:	26b5914c 	addiu	s5,s5,-28340
  405b80:	14400009 	bnez	v0,405ba8 <iw_print_key+0x1a4>
  405b84:	02321021 	addu	v0,s1,s2
  405b88:	8f9981a8 	lw	t9,-32344(gp)
  405b8c:	02002021 	move	a0,s0
  405b90:	0320f809 	jalr	t9
  405b94:	02a02821 	move	a1,s5
  405b98:	8fbc0010 	lw	gp,16(sp)
  405b9c:	26160001 	addiu	s6,s0,1
  405ba0:	02c08021 	move	s0,s6
  405ba4:	02321021 	addu	v0,s1,s2
[31m  405ba8:	8f998128 	lw	t9,sprintf[0m
  405bac:	90460000 	lbu	a2,0(v0)
  405bb0:	02002021 	move	a0,s0
--
  40685c:	8fb10040 	lw	s1,64(sp)
  406860:	8fb0003c 	lw	s0,60(sp)
  406864:	03e00008 	jr	ra
  406868:	27bd0048 	addiu	sp,sp,72
  40686c:	3c1c0002 	lui	gp,0x2
  406870:	279cc184 	addiu	gp,gp,-15996
  406874:	0399e021 	addu	gp,gp,t9
  406878:	24020003 	li	v0,3
  40687c:	00a20018 	mult	a1,v0
  406880:	27bdffc8 	addiu	sp,sp,-56
  406884:	afbc0010 	sw	gp,16(sp)
  406888:	afb20024 	sw	s2,36(sp)
  40688c:	afb10020 	sw	s1,32(sp)
  406890:	afb0001c 	sw	s0,28(sp)
  406894:	afbf0034 	sw	ra,52(sp)
  406898:	afb50030 	sw	s5,48(sp)
  40689c:	afb4002c 	sw	s4,44(sp)
  4068a0:	afb30028 	sw	s3,40(sp)
  4068a4:	00808821 	move	s1,a0
  4068a8:	00a09021 	move	s2,a1
  4068ac:	00001012 	mflo	v0
  4068b0:	00e2382a 	slt	a3,a3,v0
  4068b4:	14e0001a 	bnez	a3,406920 <iw_check_if_addr_type+0x158>
  4068b8:	00c08021 	move	s0,a2
  4068bc:	8f858028 	lw	a1,-32728(gp)
[31m  4068c0:	8f998128 	lw	t9,sprintf[0m
  4068c4:	00c02021 	move	a0,a2
  4068c8:	92260000 	lbu	a2,0(s1)
  4068cc:	24a59df4 	addiu	a1,a1,-25100
  4068d0:	0320f809 	jalr	t9
  4068d4:	26140002 	addiu	s4,s0,2
  4068d8:	8fbc0010 	lw	gp,16(sp)
  4068dc:	24130001 	li	s3,1
  4068e0:	8f958028 	lw	s5,-32728(gp)
  4068e4:	10000009 	b	40690c <iw_check_if_addr_type+0x144>
  4068e8:	26b59e14 	addiu	s5,s5,-25068
[31m  4068ec:	8f998128 	lw	t9,sprintf[0m
  4068f0:	90460000 	lbu	a2,0(v0)
  4068f4:	02802021 	move	a0,s4
--
  40691c:	00000000 	nop
  406920:	00008021 	move	s0,zero
  406924:	8fbf0034 	lw	ra,52(sp)
  406928:	02001021 	move	v0,s0
  40692c:	8fb50030 	lw	s5,48(sp)
  406930:	8fb4002c 	lw	s4,44(sp)
  406934:	8fb30028 	lw	s3,40(sp)
  406938:	8fb20024 	lw	s2,36(sp)
  40693c:	8fb10020 	lw	s1,32(sp)
  406940:	8fb0001c 	lw	s0,28(sp)
  406944:	03e00008 	jr	ra
  406948:	27bd0038 	addiu	sp,sp,56

0040694c <iw_ether_ntop>:
  40694c:	3c1c0002 	lui	gp,0x2
  406950:	279cc0a4 	addiu	gp,gp,-16220
  406954:	0399e021 	addu	gp,gp,t9
  406958:	27bdffd0 	addiu	sp,sp,-48
  40695c:	afbc0020 	sw	gp,32(sp)
  406960:	afbf002c 	sw	ra,44(sp)
  406964:	90820002 	lbu	v0,2(a0)
  406968:	90860000 	lbu	a2,0(a0)
  40696c:	90870001 	lbu	a3,1(a0)
  406970:	afa20010 	sw	v0,16(sp)
  406974:	90820003 	lbu	v0,3(a0)
[31m  406978:	8f998128 	lw	t9,sprintf[0m
  40697c:	afa20014 	sw	v0,20(sp)
  406980:	90820004 	lbu	v0,4(a0)

[0m
[[0;33m*[0m] Function [0;33msprintf[0m used [0;33m5[0m times [0;33miwconfig[0m

