[[0;33m*[0m] Binary protection state of [0;33mubidetach[0m

  	RELRO          CANARY            NX           PIE          RPATH        RUNPATH      SYMBOLS      
  	[31mNo RELRO[0m       [31mNo Canary found[0m   [31mNX disabled[0m  [31mNo PIE[0m       [32mNo RPATH[0m     [32mNo RUNPATH[0m   [31mSymbols[0m

[0m
[[0;33m*[0m] Function [0;33mfprintf[0m tear down of [0;33mubidetach[0m

  400acc:	27bd0068 	addiu	sp,sp,104
  400ad0:	02821021 	addu	v0,s4,v0
  400ad4:	8c420000 	lw	v0,0(v0)
  400ad8:	00000000 	nop
  400adc:	00400008 	jr	v0
  400ae0:	00000000 	nop
  400ae4:	8ec30000 	lw	v1,0(s6)
  400ae8:	26a23ba4 	addiu	v0,s5,15268
  400aec:	08100291 	j	400a44 <main+0x54>
  400af0:	ac43000c 	sw	v1,12(v0)
  400af4:	8ec40000 	lw	a0,0(s6)
  400af8:	8f9780f4 	lw	s7,-32524(gp)
  400afc:	0c100484 	jal	401210 <simple_strtoul>
  400b00:	27a50020 	addiu	a1,sp,32
  400b04:	26a33ba4 	addiu	v1,s5,15268
  400b08:	8fbc0018 	lw	gp,24(sp)
  400b0c:	ac620004 	sw	v0,4(v1)
  400b10:	8fa30020 	lw	v1,32(sp)
  400b14:	00000000 	nop
  400b18:	14600003 	bnez	v1,400b28 <main+0x138>
  400b1c:	00000000 	nop
  400b20:	0441ffc8 	bgez	v0,400a44 <main+0x54>
  400b24:	00000000 	nop
  400b28:	8f8280a4 	lw	v0,-32604(gp)
  400b2c:	3c050040 	lui	a1,0x40
[31m  400b30:	8f9980e8 	lw	t9,fprintf[0m
  400b34:	8ee70000 	lw	a3,0(s7)
  400b38:	8c440000 	lw	a0,0(v0)
--
  400b70:	0320f809 	jalr	t9
  400b74:	24a53208 	addiu	a1,a1,12808
  400b78:	8fbc0018 	lw	gp,24(sp)
  400b7c:	3c040040 	lui	a0,0x40
  400b80:	8f9980fc 	lw	t9,-32516(gp)
  400b84:	00000000 	nop
  400b88:	0320f809 	jalr	t9
  400b8c:	248433d0 	addiu	a0,a0,13264
  400b90:	8fbc0018 	lw	gp,24(sp)
  400b94:	00000000 	nop
  400b98:	8f998098 	lw	t9,-32616(gp)
  400b9c:	00000000 	nop
  400ba0:	0320f809 	jalr	t9
  400ba4:	00002021 	move	a0,zero
  400ba8:	8ec40000 	lw	a0,0(s6)
  400bac:	8f9780f4 	lw	s7,-32524(gp)
  400bb0:	0c100484 	jal	401210 <simple_strtoul>
  400bb4:	27a50020 	addiu	a1,sp,32
  400bb8:	8fa30020 	lw	v1,32(sp)
  400bbc:	8fbc0018 	lw	gp,24(sp)
  400bc0:	14600003 	bnez	v1,400bd0 <main+0x1e0>
  400bc4:	aea23ba4 	sw	v0,15268(s5)
  400bc8:	0441ff9e 	bgez	v0,400a44 <main+0x54>
  400bcc:	00000000 	nop
  400bd0:	8f8280a4 	lw	v0,-32604(gp)
[31m  400bd4:	8f9980e8 	lw	t9,fprintf[0m
  400bd8:	8ee70000 	lw	a3,0(s7)
  400bdc:	8c440000 	lw	a0,0(v0)
  400be0:	3c050040 	lui	a1,0x40
  400be4:	24a52d98 	addiu	a1,a1,11672
  400be8:	3c060040 	lui	a2,0x40
  400bec:	0320f809 	jalr	t9
  400bf0:	24c62d78 	addiu	a2,a2,11640
  400bf4:	081002a9 	j	400aa4 <main+0xb4>
  400bf8:	2402ffff 	li	v0,-1
  400bfc:	8f998118 	lw	t9,-32488(gp)
  400c00:	3c040040 	lui	a0,0x40
  400c04:	3c050040 	lui	a1,0x40
  400c08:	3c060040 	lui	a2,0x40
  400c0c:	24842df8 	addiu	a0,a0,11768
  400c10:	24a52d78 	addiu	a1,a1,11640
  400c14:	0320f809 	jalr	t9
  400c18:	24c62e00 	addiu	a2,a2,11776
  400c1c:	8fbc0018 	lw	gp,24(sp)
  400c20:	00000000 	nop
  400c24:	8f998098 	lw	t9,-32616(gp)
  400c28:	00000000 	nop
  400c2c:	0320f809 	jalr	t9
  400c30:	00002021 	move	a0,zero
  400c34:	8f8280a4 	lw	v0,-32604(gp)
[31m  400c38:	8f9980e8 	lw	t9,fprintf[0m
  400c3c:	3c050040 	lui	a1,0x40
  400c40:	8c440000 	lw	a0,0(v0)
--
  400c54:	081002a9 	j	400aa4 <main+0xb4>
  400c58:	2402ffff 	li	v0,-1
  400c5c:	8f8280e0 	lw	v0,-32544(gp)
  400c60:	00000000 	nop
  400c64:	8c420000 	lw	v0,0(v0)
  400c68:	00000000 	nop
  400c6c:	12020016 	beq	s0,v0,400cc8 <main+0x2d8>
  400c70:	2610ffff 	addiu	s0,s0,-1
  400c74:	145000f1 	bne	v0,s0,40103c <main+0x64c>
  400c78:	3c120041 	lui	s2,0x41
  400c7c:	00021080 	sll	v0,v0,0x2
  400c80:	02228821 	addu	s1,s1,v0
  400c84:	8e220000 	lw	v0,0(s1)
  400c88:	26513ba4 	addiu	s1,s2,15268
  400c8c:	ae220008 	sw	v0,8(s1)
  400c90:	8e230004 	lw	v1,4(s1)
  400c94:	2402ffff 	li	v0,-1
  400c98:	10620011 	beq	v1,v0,400ce0 <main+0x2f0>
  400c9c:	3c040041 	lui	a0,0x41
  400ca0:	8c833ba4 	lw	v1,15268(a0)
  400ca4:	00000000 	nop
  400ca8:	106200a6 	beq	v1,v0,400f44 <main+0x554>
  400cac:	00000000 	nop
  400cb0:	8f8280a4 	lw	v0,-32604(gp)
  400cb4:	3c050040 	lui	a1,0x40
[31m  400cb8:	8f9980e8 	lw	t9,fprintf[0m
  400cbc:	8c440000 	lw	a0,0(v0)
  400cc0:	08100312 	j	400c48 <main+0x258>
--
  400d70:	00000000 	nop
  400d74:	8f998034 	lw	t9,-32716(gp)
  400d78:	00000000 	nop
  400d7c:	04110418 	bal	401de0 <libubi_close>
  400d80:	02002021 	move	a0,s0
  400d84:	081002a9 	j	400aa4 <main+0xb4>
  400d88:	00001021 	move	v0,zero
  400d8c:	8e26000c 	lw	a2,12(s1)
  400d90:	00000000 	nop
  400d94:	10c00057 	beqz	a2,400ef4 <main+0x504>
  400d98:	00000000 	nop
  400d9c:	8f998038 	lw	t9,-32712(gp)
  400da0:	8e250008 	lw	a1,8(s1)
  400da4:	04110711 	bal	4029ec <ubi_detach>
  400da8:	02002021 	move	a0,s0
  400dac:	8fbc0018 	lw	gp,24(sp)
  400db0:	1040fff0 	beqz	v0,400d74 <main+0x384>
  400db4:	00000000 	nop
  400db8:	8f99809c 	lw	t9,-32612(gp)
  400dbc:	8f9280a4 	lw	s2,-32604(gp)
  400dc0:	0320f809 	jalr	t9
  400dc4:	00000000 	nop
  400dc8:	8fbc0018 	lw	gp,24(sp)
  400dcc:	8e27000c 	lw	a3,12(s1)
  400dd0:	8e440000 	lw	a0,0(s2)
[31m  400dd4:	8f9980e8 	lw	t9,fprintf[0m
  400dd8:	8c510000 	lw	s1,0(v0)
  400ddc:	3c050040 	lui	a1,0x40
  400de0:	24a53068 	addiu	a1,a1,12392
  400de4:	3c060040 	lui	a2,0x40
  400de8:	0320f809 	jalr	t9
  400dec:	24c62d78 	addiu	a2,a2,11640
  400df0:	8fbc0018 	lw	gp,24(sp)
  400df4:	00000000 	nop
  400df8:	8f998114 	lw	t9,-32492(gp)
  400dfc:	8e520000 	lw	s2,0(s2)
  400e00:	0320f809 	jalr	t9
  400e04:	02202021 	move	a0,s1
  400e08:	8fbc0018 	lw	gp,24(sp)
  400e0c:	3c050040 	lui	a1,0x40
  400e10:	3c070040 	lui	a3,0x40
[31m  400e14:	8f9980e8 	lw	t9,fprintf[0m
  400e18:	afb10010 	sw	s1,16(sp)
  400e1c:	afa20014 	sw	v0,20(sp)
  400e20:	02402021 	move	a0,s2
  400e24:	24a52fc0 	addiu	a1,a1,12224
  400e28:	2406000b 	li	a2,11
  400e2c:	0320f809 	jalr	t9
  400e30:	24e72df4 	addiu	a3,a3,11764
  400e34:	8fbc0018 	lw	gp,24(sp)
  400e38:	00000000 	nop
  400e3c:	8f998034 	lw	t9,-32716(gp)
  400e40:	00000000 	nop
  400e44:	041103e6 	bal	401de0 <libubi_close>
  400e48:	02002021 	move	a0,s0
  400e4c:	081002a9 	j	400aa4 <main+0xb4>
  400e50:	2402ffff 	li	v0,-1
  400e54:	8f99809c 	lw	t9,-32612(gp)
  400e58:	00000000 	nop
  400e5c:	0320f809 	jalr	t9
  400e60:	00000000 	nop
  400e64:	8c500000 	lw	s0,0(v0)
  400e68:	8fbc0018 	lw	gp,24(sp)
  400e6c:	16000006 	bnez	s0,400e88 <main+0x498>
  400e70:	3c050040 	lui	a1,0x40
  400e74:	8f8280a4 	lw	v0,-32604(gp)
[31m  400e78:	8f9980e8 	lw	t9,fprintf[0m
  400e7c:	8c440000 	lw	a0,0(v0)
  400e80:	08100312 	j	400c48 <main+0x258>
  400e84:	24a52f70 	addiu	a1,a1,12144
  400e88:	8f9180a4 	lw	s1,-32604(gp)
[31m  400e8c:	8f9980e8 	lw	t9,fprintf[0m
  400e90:	3c050040 	lui	a1,0x40
  400e94:	8e240000 	lw	a0,0(s1)
  400e98:	3c060040 	lui	a2,0x40
  400e9c:	24a52fa0 	addiu	a1,a1,12192
  400ea0:	0320f809 	jalr	t9
  400ea4:	24c62d78 	addiu	a2,a2,11640
  400ea8:	8fbc0018 	lw	gp,24(sp)
  400eac:	8e310000 	lw	s1,0(s1)
  400eb0:	8f998114 	lw	t9,-32492(gp)
  400eb4:	00000000 	nop
  400eb8:	0320f809 	jalr	t9
  400ebc:	02002021 	move	a0,s0
  400ec0:	8fbc0018 	lw	gp,24(sp)
  400ec4:	3c050040 	lui	a1,0x40
  400ec8:	3c070040 	lui	a3,0x40
[31m  400ecc:	8f9980e8 	lw	t9,fprintf[0m
  400ed0:	afb00010 	sw	s0,16(sp)
  400ed4:	afa20014 	sw	v0,20(sp)
  400ed8:	02202021 	move	a0,s1
  400edc:	24a52fc0 	addiu	a1,a1,12224
  400ee0:	2406000b 	li	a2,11
  400ee4:	0320f809 	jalr	t9
  400ee8:	24e72df4 	addiu	a3,a3,11764
  400eec:	081002a9 	j	400aa4 <main+0xb4>
  400ef0:	2402ffff 	li	v0,-1
  400ef4:	8f99803c 	lw	t9,-32708(gp)
  400ef8:	8e250008 	lw	a1,8(s1)
  400efc:	8e260004 	lw	a2,4(s1)
  400f00:	04110690 	bal	402944 <ubi_detach_mtd>
  400f04:	02002021 	move	a0,s0
  400f08:	8fbc0018 	lw	gp,24(sp)
  400f0c:	1040ff99 	beqz	v0,400d74 <main+0x384>
  400f10:	00000000 	nop
  400f14:	8f99809c 	lw	t9,-32612(gp)
  400f18:	8f9280a4 	lw	s2,-32604(gp)
  400f1c:	0320f809 	jalr	t9
  400f20:	00000000 	nop
  400f24:	8fbc0018 	lw	gp,24(sp)
  400f28:	3c050040 	lui	a1,0x40
  400f2c:	8e270004 	lw	a3,4(s1)
  400f30:	8e440000 	lw	a0,0(s2)
[31m  400f34:	8f9980e8 	lw	t9,fprintf[0m
  400f38:	8c510000 	lw	s1,0(v0)
  400f3c:	08100379 	j	400de4 <main+0x3f4>
  400f40:	24a53088 	addiu	a1,a1,12424
  400f44:	8e22000c 	lw	v0,12(s1)
  400f48:	00000000 	nop
  400f4c:	1040ff6c 	beqz	v0,400d00 <main+0x310>
  400f50:	3c050040 	lui	a1,0x40
  400f54:	8f8280a4 	lw	v0,-32604(gp)
[31m  400f58:	8f9980e8 	lw	t9,fprintf[0m
  400f5c:	8c440000 	lw	a0,0(v0)
  400f60:	08100312 	j	400c48 <main+0x258>
  400f64:	24a52f28 	addiu	a1,a1,12072
  400f68:	8f99809c 	lw	t9,-32612(gp)
  400f6c:	8f9280a4 	lw	s2,-32604(gp)
  400f70:	0320f809 	jalr	t9
  400f74:	00000000 	nop
  400f78:	8fbc0018 	lw	gp,24(sp)
  400f7c:	8e440000 	lw	a0,0(s2)
  400f80:	3c050040 	lui	a1,0x40
[31m  400f84:	8f9980e8 	lw	t9,fprintf[0m
  400f88:	3c060040 	lui	a2,0x40
  400f8c:	24a52fd4 	addiu	a1,a1,12244
  400f90:	8c510000 	lw	s1,0(v0)
  400f94:	0320f809 	jalr	t9
  400f98:	24c62d78 	addiu	a2,a2,11640
  400f9c:	8fbc0018 	lw	gp,24(sp)
  400fa0:	0810037d 	j	400df4 <main+0x404>
  400fa4:	00000000 	nop
  400fa8:	8f99809c 	lw	t9,-32612(gp)
  400fac:	8f9280a4 	lw	s2,-32604(gp)
  400fb0:	0320f809 	jalr	t9
  400fb4:	00000000 	nop
  400fb8:	8fbc0018 	lw	gp,24(sp)
  400fbc:	3c030041 	lui	v1,0x41
  400fc0:	8c673ba4 	lw	a3,15268(v1)
[31m  400fc4:	8f9980e8 	lw	t9,fprintf[0m
  400fc8:	8e440000 	lw	a0,0(s2)
  400fcc:	3c050040 	lui	a1,0x40
  400fd0:	3c060040 	lui	a2,0x40
  400fd4:	24a53044 	addiu	a1,a1,12356
  400fd8:	8c510000 	lw	s1,0(v0)
  400fdc:	0320f809 	jalr	t9
  400fe0:	24c62d78 	addiu	a2,a2,11640
  400fe4:	8fbc0018 	lw	gp,24(sp)
  400fe8:	0810037d 	j	400df4 <main+0x404>
  400fec:	00000000 	nop
  400ff0:	8e22000c 	lw	v0,12(s1)
  400ff4:	00000000 	nop
  400ff8:	1440ff41 	bnez	v0,400d00 <main+0x310>
  400ffc:	3c050040 	lui	a1,0x40
  401000:	8f8280a4 	lw	v0,-32604(gp)
[31m  401004:	8f9980e8 	lw	t9,fprintf[0m
  401008:	8c440000 	lw	a0,0(v0)
  40100c:	08100312 	j	400c48 <main+0x258>
  401010:	24a52e9c 	addiu	a1,a1,11932
  401014:	8f8280a4 	lw	v0,-32604(gp)
[31m  401018:	8f9980e8 	lw	t9,fprintf[0m
  40101c:	3c050040 	lui	a1,0x40
  401020:	8c440000 	lw	a0,0(v0)
  401024:	24a52ffc 	addiu	a1,a1,12284
  401028:	0320f809 	jalr	t9
  40102c:	24c62d78 	addiu	a2,a2,11640
  401030:	8fbc0018 	lw	gp,24(sp)
  401034:	0810038f 	j	400e3c <main+0x44c>
  401038:	00000000 	nop
  40103c:	8f8280a4 	lw	v0,-32604(gp)
  401040:	3c050040 	lui	a1,0x40
[31m  401044:	8f9980e8 	lw	t9,fprintf[0m
  401048:	8c440000 	lw	a0,0(v0)
  40104c:	08100312 	j	400c48 <main+0x258>
--
  40121c:	27bdffc8 	addiu	sp,sp,-56
  401220:	afb20030 	sw	s2,48(sp)
  401224:	afb1002c 	sw	s1,44(sp)
  401228:	afb00028 	sw	s0,40(sp)
  40122c:	afbc0018 	sw	gp,24(sp)
  401230:	afbf0034 	sw	ra,52(sp)
  401234:	00a08021 	move	s0,a1
  401238:	00003021 	move	a2,zero
  40123c:	27a50020 	addiu	a1,sp,32
  401240:	0320f809 	jalr	t9
  401244:	00809021 	move	s2,a0
  401248:	8fbc0018 	lw	gp,24(sp)
  40124c:	12000018 	beqz	s0,4012b0 <simple_strtoul+0xa0>
  401250:	00408821 	move	s1,v0
  401254:	82420000 	lb	v0,0(s2)
  401258:	00000000 	nop
  40125c:	10400007 	beqz	v0,40127c <simple_strtoul+0x6c>
  401260:	00000000 	nop
  401264:	8fa20020 	lw	v0,32(sp)
  401268:	00000000 	nop
  40126c:	80420000 	lb	v0,0(v0)
  401270:	00000000 	nop
  401274:	1040000e 	beqz	v0,4012b0 <simple_strtoul+0xa0>
  401278:	00000000 	nop
  40127c:	8f8280a4 	lw	v0,-32604(gp)
[31m  401280:	8f9980e8 	lw	t9,fprintf[0m
  401284:	3c050040 	lui	a1,0x40
  401288:	8c440000 	lw	a0,0(v0)
--
  401338:	14a40033 	bne	a1,a0,401408 <mtd_node_to_num+0x13c>
  40133c:	00000000 	nop
  401340:	00022500 	sll	a0,v0,0x14
  401344:	00031302 	srl	v0,v1,0xc
  401348:	00821025 	or	v0,a0,v0
  40134c:	2404ff00 	li	a0,-256
  401350:	306300ff 	andi	v1,v1,0xff
  401354:	00441024 	and	v0,v0,a0
  401358:	00431025 	or	v0,v0,v1
  40135c:	00021fc2 	srl	v1,v0,0x1f
  401360:	00621021 	addu	v0,v1,v0
  401364:	00021043 	sra	v0,v0,0x1
  401368:	8fbf00cc 	lw	ra,204(sp)
  40136c:	8fb200c8 	lw	s2,200(sp)
  401370:	8fb100c4 	lw	s1,196(sp)
  401374:	8fb000c0 	lw	s0,192(sp)
  401378:	03e00008 	jr	ra
  40137c:	27bd00d0 	addiu	sp,sp,208
  401380:	8f99809c 	lw	t9,-32612(gp)
  401384:	8f9180a4 	lw	s1,-32604(gp)
  401388:	0320f809 	jalr	t9
  40138c:	24100016 	li	s0,22
  401390:	8fbc0018 	lw	gp,24(sp)
  401394:	8e240000 	lw	a0,0(s1)
  401398:	3c050040 	lui	a1,0x40
[31m  40139c:	8f9980e8 	lw	t9,fprintf[0m
  4013a0:	24a5353c 	addiu	a1,a1,13628
  4013a4:	3c060040 	lui	a2,0x40
  4013a8:	24c63534 	addiu	a2,a2,13620
  4013ac:	02403821 	move	a3,s2
  4013b0:	0320f809 	jalr	t9
  4013b4:	ac500000 	sw	s0,0(v0)
  4013b8:	8fbc0018 	lw	gp,24(sp)
  4013bc:	8e310000 	lw	s1,0(s1)
  4013c0:	24040016 	li	a0,22
  4013c4:	8f998114 	lw	t9,-32492(gp)
  4013c8:	00000000 	nop
  4013cc:	0320f809 	jalr	t9
  4013d0:	00000000 	nop
  4013d4:	8fbc0018 	lw	gp,24(sp)
  4013d8:	3c050040 	lui	a1,0x40
  4013dc:	3c070040 	lui	a3,0x40
[31m  4013e0:	8f9980e8 	lw	t9,fprintf[0m
  4013e4:	afb00010 	sw	s0,16(sp)
  4013e8:	afa20014 	sw	v0,20(sp)
  4013ec:	02202021 	move	a0,s1
  4013f0:	24a52fc0 	addiu	a1,a1,12224
  4013f4:	24060008 	li	a2,8
  4013f8:	0320f809 	jalr	t9
  4013fc:	24e72df4 	addiu	a3,a3,11764
  401400:	081004da 	j	401368 <mtd_node_to_num+0x9c>
  401404:	2402ffff 	li	v0,-1
  401408:	8f99809c 	lw	t9,-32612(gp)
  40140c:	8f9180a4 	lw	s1,-32604(gp)
  401410:	0320f809 	jalr	t9
  401414:	24100016 	li	s0,22
  401418:	8fbc0018 	lw	gp,24(sp)
  40141c:	3c050040 	lui	a1,0x40
  401420:	8e240000 	lw	a0,0(s1)
[31m  401424:	8f9980e8 	lw	t9,fprintf[0m
  401428:	081004e9 	j	4013a4 <mtd_node_to_num+0xd8>
  40142c:	24a53568 	addiu	a1,a1,13672
  401430:	8f99809c 	lw	t9,-32612(gp)
  401434:	8f9180a4 	lw	s1,-32604(gp)
  401438:	0320f809 	jalr	t9
  40143c:	00000000 	nop
  401440:	8fbc0018 	lw	gp,24(sp)
  401444:	8e240000 	lw	a0,0(s1)
  401448:	3c050040 	lui	a1,0x40
[31m  40144c:	8f9980e8 	lw	t9,fprintf[0m
  401450:	3c060040 	lui	a2,0x40
  401454:	24a53514 	addiu	a1,a1,13588
--
  401510:	24060001 	li	a2,1
  401514:	24030001 	li	v1,1
  401518:	8fbc0018 	lw	gp,24(sp)
  40151c:	10430059 	beq	v0,v1,401684 <read_data+0x208>
  401520:	00000000 	nop
  401524:	14400012 	bnez	v0,401570 <read_data+0xf4>
  401528:	3c050040 	lui	a1,0x40
  40152c:	8f998084 	lw	t9,-32636(gp)
  401530:	00000000 	nop
  401534:	0320f809 	jalr	t9
  401538:	02202021 	move	a0,s1
  40153c:	8fbc0018 	lw	gp,24(sp)
  401540:	1440002f 	bnez	v0,401600 <read_data+0x184>
  401544:	00000000 	nop
  401548:	8fbf0044 	lw	ra,68(sp)
  40154c:	02001021 	move	v0,s0
  401550:	8fb50040 	lw	s5,64(sp)
  401554:	8fb4003c 	lw	s4,60(sp)
  401558:	8fb30038 	lw	s3,56(sp)
  40155c:	8fb20034 	lw	s2,52(sp)
  401560:	8fb10030 	lw	s1,48(sp)
  401564:	8fb0002c 	lw	s0,44(sp)
  401568:	03e00008 	jr	ra
  40156c:	27bd0048 	addiu	sp,sp,72
  401570:	8f8280a4 	lw	v0,-32604(gp)
[31m  401574:	8f9980e8 	lw	t9,fprintf[0m
  401578:	8c440000 	lw	a0,0(v0)
  40157c:	3c060040 	lui	a2,0x40
  401580:	24a535dc 	addiu	a1,a1,13788
  401584:	24c63534 	addiu	a2,a2,13620
  401588:	02a03821 	move	a3,s5
  40158c:	0320f809 	jalr	t9
  401590:	afb20010 	sw	s2,16(sp)
  401594:	8fbc0018 	lw	gp,24(sp)
  401598:	00000000 	nop
  40159c:	8f99809c 	lw	t9,-32612(gp)
  4015a0:	00000000 	nop
  4015a4:	0320f809 	jalr	t9
  4015a8:	00000000 	nop
  4015ac:	24030016 	li	v1,22
  4015b0:	8fbc0018 	lw	gp,24(sp)
  4015b4:	ac430000 	sw	v1,0(v0)
  4015b8:	8f998084 	lw	t9,-32636(gp)
  4015bc:	02202021 	move	a0,s1
  4015c0:	0320f809 	jalr	t9
  4015c4:	2410ffff 	li	s0,-1
  4015c8:	08100552 	j	401548 <read_data+0xcc>
  4015cc:	00000000 	nop
  4015d0:	8f8280a4 	lw	v0,-32604(gp)
[31m  4015d4:	8f9980e8 	lw	t9,fprintf[0m
  4015d8:	3c050040 	lui	a1,0x40
  4015dc:	8c440000 	lw	a0,0(v0)
  4015e0:	3c060040 	lui	a2,0x40
  4015e4:	24a535b0 	addiu	a1,a1,13744
  4015e8:	24c63534 	addiu	a2,a2,13620
  4015ec:	0320f809 	jalr	t9
  4015f0:	02a03821 	move	a3,s5
  4015f4:	8fbc0018 	lw	gp,24(sp)
  4015f8:	08100566 	j	401598 <read_data+0x11c>
  4015fc:	00000000 	nop
  401600:	8f99809c 	lw	t9,-32612(gp)
  401604:	8f9280a4 	lw	s2,-32604(gp)
  401608:	0320f809 	jalr	t9
  40160c:	2410ffff 	li	s0,-1
  401610:	8fbc0018 	lw	gp,24(sp)
  401614:	8e440000 	lw	a0,0(s2)
  401618:	3c050040 	lui	a1,0x40
[31m  40161c:	8f9980e8 	lw	t9,fprintf[0m
  401620:	3c060040 	lui	a2,0x40
  401624:	24a53618 	addiu	a1,a1,13848
  401628:	24c63534 	addiu	a2,a2,13620
  40162c:	8c510000 	lw	s1,0(v0)
  401630:	0320f809 	jalr	t9
  401634:	02a03821 	move	a3,s5
  401638:	8fbc0018 	lw	gp,24(sp)
  40163c:	8e520000 	lw	s2,0(s2)
  401640:	8f998114 	lw	t9,-32492(gp)
  401644:	00000000 	nop
  401648:	0320f809 	jalr	t9
  40164c:	02202021 	move	a0,s1
  401650:	8fbc0018 	lw	gp,24(sp)
  401654:	3c050040 	lui	a1,0x40
  401658:	3c070040 	lui	a3,0x40
[31m  40165c:	8f9980e8 	lw	t9,fprintf[0m
  401660:	afb10010 	sw	s1,16(sp)
  401664:	afa20014 	sw	v0,20(sp)
  401668:	02402021 	move	a0,s2
  40166c:	24a52fc0 	addiu	a1,a1,12224
  401670:	24060008 	li	a2,8
  401674:	0320f809 	jalr	t9
  401678:	24e72df4 	addiu	a3,a3,11764
  40167c:	08100552 	j	401548 <read_data+0xcc>
  401680:	00000000 	nop
  401684:	8f99809c 	lw	t9,-32612(gp)
  401688:	8f9280a4 	lw	s2,-32604(gp)
  40168c:	0320f809 	jalr	t9
  401690:	00000000 	nop
  401694:	8fbc0018 	lw	gp,24(sp)
  401698:	8e440000 	lw	a0,0(s2)
  40169c:	3c050040 	lui	a1,0x40
[31m  4016a0:	8f9980e8 	lw	t9,fprintf[0m
  4016a4:	3c060040 	lui	a2,0x40
  4016a8:	24a53590 	addiu	a1,a1,13712
  4016ac:	24c63534 	addiu	a2,a2,13620
  4016b0:	8c500000 	lw	s0,0(v0)
  4016b4:	0320f809 	jalr	t9
  4016b8:	02a03821 	move	a3,s5
  4016bc:	8fbc0018 	lw	gp,24(sp)
  4016c0:	8e520000 	lw	s2,0(s2)
  4016c4:	8f998114 	lw	t9,-32492(gp)
  4016c8:	00000000 	nop
  4016cc:	0320f809 	jalr	t9
  4016d0:	02002021 	move	a0,s0
  4016d4:	8fbc0018 	lw	gp,24(sp)
  4016d8:	3c050040 	lui	a1,0x40
  4016dc:	3c070040 	lui	a3,0x40
[31m  4016e0:	8f9980e8 	lw	t9,fprintf[0m
  4016e4:	afb00010 	sw	s0,16(sp)
  4016e8:	afa20014 	sw	v0,20(sp)
--
  4017a0:	02203021 	move	a2,s1
  4017a4:	24030001 	li	v1,1
  4017a8:	8fbc0020 	lw	gp,32(sp)
  4017ac:	14430014 	bne	v0,v1,401800 <read_positive_ll+0xf4>
  4017b0:	3c050040 	lui	a1,0x40
  4017b4:	8e220004 	lw	v0,4(s1)
  4017b8:	8e230000 	lw	v1,0(s1)
  4017bc:	04400054 	bltz	v0,401910 <read_positive_ll+0x204>
  4017c0:	3c050040 	lui	a1,0x40
  4017c4:	8f998084 	lw	t9,-32636(gp)
  4017c8:	00000000 	nop
  4017cc:	0320f809 	jalr	t9
  4017d0:	02002021 	move	a0,s0
  4017d4:	8fbc0020 	lw	gp,32(sp)
  4017d8:	1440002c 	bnez	v0,40188c <read_positive_ll+0x180>
  4017dc:	00001821 	move	v1,zero
  4017e0:	8fbf0074 	lw	ra,116(sp)
  4017e4:	00601021 	move	v0,v1
  4017e8:	8fb30070 	lw	s3,112(sp)
  4017ec:	8fb2006c 	lw	s2,108(sp)
  4017f0:	8fb10068 	lw	s1,104(sp)
  4017f4:	8fb00064 	lw	s0,100(sp)
  4017f8:	03e00008 	jr	ra
  4017fc:	27bd0078 	addiu	sp,sp,120
  401800:	8f8280a4 	lw	v0,-32604(gp)
[31m  401804:	8f9980e8 	lw	t9,fprintf[0m
  401808:	8c440000 	lw	a0,0(v0)
  40180c:	3c060040 	lui	a2,0x40
  401810:	24a53644 	addiu	a1,a1,13892
  401814:	24c63534 	addiu	a2,a2,13620
  401818:	0320f809 	jalr	t9
  40181c:	02603821 	move	a3,s3
  401820:	8fbc0020 	lw	gp,32(sp)
  401824:	00000000 	nop
  401828:	8f99809c 	lw	t9,-32612(gp)
  40182c:	00000000 	nop
  401830:	0320f809 	jalr	t9
  401834:	00000000 	nop
  401838:	24030016 	li	v1,22
  40183c:	8fbc0020 	lw	gp,32(sp)
  401840:	ac430000 	sw	v1,0(v0)
  401844:	8f998084 	lw	t9,-32636(gp)
  401848:	00000000 	nop
  40184c:	0320f809 	jalr	t9
  401850:	02002021 	move	a0,s0
  401854:	081005f8 	j	4017e0 <read_positive_ll+0xd4>
  401858:	2403ffff 	li	v1,-1
  40185c:	8f8280a4 	lw	v0,-32604(gp)
[31m  401860:	8f9980e8 	lw	t9,fprintf[0m
  401864:	3c050040 	lui	a1,0x40
  401868:	8c440000 	lw	a0,0(v0)
  40186c:	3c060040 	lui	a2,0x40
  401870:	24a535b0 	addiu	a1,a1,13744
  401874:	24c63534 	addiu	a2,a2,13620
  401878:	0320f809 	jalr	t9
  40187c:	02603821 	move	a3,s3
  401880:	8fbc0020 	lw	gp,32(sp)
  401884:	08100609 	j	401824 <read_positive_ll+0x118>
  401888:	00000000 	nop
  40188c:	8f99809c 	lw	t9,-32612(gp)
  401890:	8f9180a4 	lw	s1,-32604(gp)
  401894:	0320f809 	jalr	t9
  401898:	00000000 	nop
  40189c:	8fbc0020 	lw	gp,32(sp)
  4018a0:	8e240000 	lw	a0,0(s1)
  4018a4:	3c050040 	lui	a1,0x40
[31m  4018a8:	8f9980e8 	lw	t9,fprintf[0m
  4018ac:	3c060040 	lui	a2,0x40
  4018b0:	24a53618 	addiu	a1,a1,13848
  4018b4:	24c63534 	addiu	a2,a2,13620
  4018b8:	8c500000 	lw	s0,0(v0)
  4018bc:	0320f809 	jalr	t9
  4018c0:	02603821 	move	a3,s3
  4018c4:	8fbc0020 	lw	gp,32(sp)
  4018c8:	8e310000 	lw	s1,0(s1)
  4018cc:	8f998114 	lw	t9,-32492(gp)
  4018d0:	00000000 	nop
  4018d4:	0320f809 	jalr	t9
  4018d8:	02002021 	move	a0,s0
  4018dc:	8fbc0020 	lw	gp,32(sp)
  4018e0:	3c050040 	lui	a1,0x40
  4018e4:	3c070040 	lui	a3,0x40
[31m  4018e8:	8f9980e8 	lw	t9,fprintf[0m
  4018ec:	afb00010 	sw	s0,16(sp)
  4018f0:	afa20014 	sw	v0,20(sp)
  4018f4:	02202021 	move	a0,s1
  4018f8:	24a52fc0 	addiu	a1,a1,12224
  4018fc:	24060008 	li	a2,8
  401900:	0320f809 	jalr	t9
  401904:	24e72df4 	addiu	a3,a3,11764
  401908:	081005f8 	j	4017e0 <read_positive_ll+0xd4>
  40190c:	2403ffff 	li	v1,-1
  401910:	8f8480a4 	lw	a0,-32604(gp)
[31m  401914:	8f9980e8 	lw	t9,fprintf[0m
  401918:	8c840000 	lw	a0,0(a0)
  40191c:	3c060040 	lui	a2,0x40
  401920:	24a53670 	addiu	a1,a1,13936
  401924:	24c63534 	addiu	a2,a2,13620
  401928:	afa30010 	sw	v1,16(sp)
  40192c:	afa20014 	sw	v0,20(sp)
  401930:	0320f809 	jalr	t9
  401934:	afb30018 	sw	s3,24(sp)
  401938:	8fbc0020 	lw	gp,32(sp)
  40193c:	08100609 	j	401824 <read_positive_ll+0x118>
  401940:	00000000 	nop
  401944:	8f99809c 	lw	t9,-32612(gp)
  401948:	8f9280a4 	lw	s2,-32604(gp)
  40194c:	0320f809 	jalr	t9
  401950:	00000000 	nop
  401954:	8fbc0020 	lw	gp,32(sp)
  401958:	8e440000 	lw	a0,0(s2)
  40195c:	3c050040 	lui	a1,0x40
[31m  401960:	8f9980e8 	lw	t9,fprintf[0m
  401964:	3c060040 	lui	a2,0x40
  401968:	24a53590 	addiu	a1,a1,13712
  40196c:	24c63534 	addiu	a2,a2,13620
  401970:	8c510000 	lw	s1,0(v0)
  401974:	0320f809 	jalr	t9
  401978:	02603821 	move	a3,s3
  40197c:	8fbc0020 	lw	gp,32(sp)
  401980:	8e520000 	lw	s2,0(s2)
  401984:	8f998114 	lw	t9,-32492(gp)
  401988:	00000000 	nop
  40198c:	0320f809 	jalr	t9
  401990:	02202021 	move	a0,s1
  401994:	8fbc0020 	lw	gp,32(sp)
  401998:	3c050040 	lui	a1,0x40
  40199c:	3c070040 	lui	a3,0x40
[31m  4019a0:	8f9980e8 	lw	t9,fprintf[0m
  4019a4:	afb10010 	sw	s1,16(sp)
  4019a8:	afa20014 	sw	v0,20(sp)
--
  4019e8:	afbc0020 	sw	gp,32(sp)
  4019ec:	afbf003c 	sw	ra,60(sp)
  4019f0:	0c1005c3 	jal	40170c <read_positive_ll>
  4019f4:	00808021 	move	s0,a0
  4019f8:	8fbc0020 	lw	gp,32(sp)
  4019fc:	14400009 	bnez	v0,401a24 <read_positive_int+0x58>
  401a00:	2403ffff 	li	v1,-1
  401a04:	8fa2002c 	lw	v0,44(sp)
  401a08:	8fa30028 	lw	v1,40(sp)
  401a0c:	1c40000e 	bgtz	v0,401a48 <read_positive_int+0x7c>
  401a10:	00000000 	nop
  401a14:	10400009 	beqz	v0,401a3c <read_positive_int+0x70>
  401a18:	3c048000 	lui	a0,0x8000
  401a1c:	ae230000 	sw	v1,0(s1)
  401a20:	00001821 	move	v1,zero
  401a24:	8fbf003c 	lw	ra,60(sp)
  401a28:	00601021 	move	v0,v1
  401a2c:	8fb10038 	lw	s1,56(sp)
  401a30:	8fb00034 	lw	s0,52(sp)
  401a34:	03e00008 	jr	ra
  401a38:	27bd0040 	addiu	sp,sp,64
  401a3c:	0064202b 	sltu	a0,v1,a0
  401a40:	1480fff6 	bnez	a0,401a1c <read_positive_int+0x50>
  401a44:	00000000 	nop
  401a48:	8f8480a4 	lw	a0,-32604(gp)
[31m  401a4c:	8f9980e8 	lw	t9,fprintf[0m
  401a50:	3c050040 	lui	a1,0x40
  401a54:	8c840000 	lw	a0,0(a0)
--
  401bd4:	10830003 	beq	a0,v1,401be4 <mkpath+0xac>
  401bd8:	00000000 	nop
  401bdc:	a0430000 	sb	v1,0(v0)
  401be0:	26310001 	addiu	s1,s1,1
  401be4:	8f998100 	lw	t9,-32512(gp)
  401be8:	02112021 	addu	a0,s0,s1
  401bec:	02602821 	move	a1,s3
  401bf0:	0320f809 	jalr	t9
  401bf4:	26460001 	addiu	a2,s2,1
  401bf8:	8fbf003c 	lw	ra,60(sp)
  401bfc:	02001021 	move	v0,s0
  401c00:	8fb40038 	lw	s4,56(sp)
  401c04:	8fb30034 	lw	s3,52(sp)
  401c08:	8fb20030 	lw	s2,48(sp)
  401c0c:	8fb1002c 	lw	s1,44(sp)
  401c10:	8fb00028 	lw	s0,40(sp)
  401c14:	03e00008 	jr	ra
  401c18:	27bd0040 	addiu	sp,sp,64
  401c1c:	8f99809c 	lw	t9,-32612(gp)
  401c20:	8f9280a4 	lw	s2,-32604(gp)
  401c24:	0320f809 	jalr	t9
  401c28:	00000000 	nop
  401c2c:	8fbc0018 	lw	gp,24(sp)
  401c30:	8e440000 	lw	a0,0(s2)
  401c34:	3c050040 	lui	a1,0x40
[31m  401c38:	8f9980e8 	lw	t9,fprintf[0m
  401c3c:	3c060040 	lui	a2,0x40
  401c40:	24a536d8 	addiu	a1,a1,14040
  401c44:	24c63534 	addiu	a2,a2,13620
  401c48:	8c510000 	lw	s1,0(v0)
  401c4c:	0320f809 	jalr	t9
  401c50:	02803821 	move	a3,s4
  401c54:	8fbc0018 	lw	gp,24(sp)
  401c58:	8e520000 	lw	s2,0(s2)
  401c5c:	8f998114 	lw	t9,-32492(gp)
  401c60:	00000000 	nop
  401c64:	0320f809 	jalr	t9
  401c68:	02202021 	move	a0,s1
  401c6c:	8fbc0018 	lw	gp,24(sp)
  401c70:	3c050040 	lui	a1,0x40
  401c74:	3c070040 	lui	a3,0x40
[31m  401c78:	8f9980e8 	lw	t9,fprintf[0m
  401c7c:	afb10010 	sw	s1,16(sp)
  401c80:	afa20014 	sw	v0,20(sp)
--
  401d00:	8fbc0018 	lw	gp,24(sp)
  401d04:	1443000f 	bne	v0,v1,401d44 <read_major+0xa4>
  401d08:	00000000 	nop
  401d0c:	8e020000 	lw	v0,0(s0)
  401d10:	00000000 	nop
  401d14:	0440001d 	bltz	v0,401d8c <read_major+0xec>
  401d18:	00000000 	nop
  401d1c:	8e230000 	lw	v1,0(s1)
  401d20:	00000000 	nop
  401d24:	04600019 	bltz	v1,401d8c <read_major+0xec>
  401d28:	00001021 	move	v0,zero
  401d2c:	8fbf0064 	lw	ra,100(sp)
  401d30:	8fb20060 	lw	s2,96(sp)
  401d34:	8fb1005c 	lw	s1,92(sp)
  401d38:	8fb00058 	lw	s0,88(sp)
  401d3c:	03e00008 	jr	ra
  401d40:	27bd0068 	addiu	sp,sp,104
  401d44:	8f99809c 	lw	t9,-32612(gp)
  401d48:	00000000 	nop
  401d4c:	0320f809 	jalr	t9
  401d50:	00000000 	nop
  401d54:	8fbc0018 	lw	gp,24(sp)
  401d58:	3c050040 	lui	a1,0x40
  401d5c:	3c060040 	lui	a2,0x40
  401d60:	8f8380a4 	lw	v1,-32604(gp)
[31m  401d64:	8f9980e8 	lw	t9,fprintf[0m
  401d68:	24a53728 	addiu	a1,a1,14120
  401d6c:	8c640000 	lw	a0,0(v1)
  401d70:	24030016 	li	v1,22
  401d74:	ac430000 	sw	v1,0(v0)
  401d78:	24c63534 	addiu	a2,a2,13620
  401d7c:	0320f809 	jalr	t9
  401d80:	02403821 	move	a3,s2
  401d84:	0810074b 	j	401d2c <read_major+0x8c>
  401d88:	2402ffff 	li	v0,-1
  401d8c:	8f99809c 	lw	t9,-32612(gp)
  401d90:	00000000 	nop
  401d94:	0320f809 	jalr	t9
  401d98:	00000000 	nop
  401d9c:	8fbc0018 	lw	gp,24(sp)
  401da0:	24030016 	li	v1,22
  401da4:	ac430000 	sw	v1,0(v0)
  401da8:	8f8280a4 	lw	v0,-32604(gp)
  401dac:	8e070000 	lw	a3,0(s0)
[31m  401db0:	8f9980e8 	lw	t9,fprintf[0m
  401db4:	8c440000 	lw	a0,0(v0)
  401db8:	8e220000 	lw	v0,0(s1)
--
  4022cc:	10400020 	beqz	v0,402350 <libubi_open+0x2fc>
  4022d0:	ae020058 	sw	v0,88(s0)
  4022d4:	8e040040 	lw	a0,64(s0)
  4022d8:	3c050040 	lui	a1,0x40
  4022dc:	0c1006ce 	jal	401b38 <mkpath>
  4022e0:	24a53894 	addiu	a1,a1,14484
  4022e4:	1040001a 	beqz	v0,402350 <libubi_open+0x2fc>
  4022e8:	ae02005c 	sw	v0,92(s0)
  4022ec:	8e040040 	lw	a0,64(s0)
  4022f0:	3c050040 	lui	a1,0x40
  4022f4:	0c1006ce 	jal	401b38 <mkpath>
  4022f8:	24a538a0 	addiu	a1,a1,14496
  4022fc:	10400014 	beqz	v0,402350 <libubi_open+0x2fc>
  402300:	ae020060 	sw	v0,96(s0)
  402304:	8e040014 	lw	a0,20(s0)
  402308:	0c100673 	jal	4019cc <read_positive_int>
  40230c:	27a50020 	addiu	a1,sp,32
  402310:	8fbc0018 	lw	gp,24(sp)
  402314:	1440000e 	bnez	v0,402350 <libubi_open+0x2fc>
  402318:	24030001 	li	v1,1
  40231c:	8fa20020 	lw	v0,32(sp)
  402320:	00000000 	nop
  402324:	1043000d 	beq	v0,v1,40235c <libubi_open+0x308>
  402328:	3c050040 	lui	a1,0x40
  40232c:	8f8380a4 	lw	v1,-32604(gp)
[31m  402330:	8f9980e8 	lw	t9,fprintf[0m
  402334:	8c640000 	lw	a0,0(v1)
  402338:	3c060040 	lui	a2,0x40
--
  402348:	0320f809 	jalr	t9
  40234c:	24070001 	li	a3,1
  402350:	02002021 	move	a0,s0
  402354:	0c100778 	jal	401de0 <libubi_close>
  402358:	00008021 	move	s0,zero
  40235c:	8fbf0034 	lw	ra,52(sp)
  402360:	02001021 	move	v0,s0
  402364:	8fb20030 	lw	s2,48(sp)
  402368:	8fb1002c 	lw	s1,44(sp)
  40236c:	8fb00028 	lw	s0,40(sp)
  402370:	03e00008 	jr	ra
  402374:	27bd0038 	addiu	sp,sp,56
  402378:	8f99809c 	lw	t9,-32612(gp)
  40237c:	00000000 	nop
  402380:	0320f809 	jalr	t9
  402384:	00000000 	nop
  402388:	081008d4 	j	402350 <libubi_open+0x2fc>
  40238c:	ac400000 	sw	zero,0(v0)
  402390:	8f99809c 	lw	t9,-32612(gp)
  402394:	8f9280a4 	lw	s2,-32604(gp)
  402398:	0320f809 	jalr	t9
  40239c:	00000000 	nop
  4023a0:	8fbc0018 	lw	gp,24(sp)
  4023a4:	8e07000c 	lw	a3,12(s0)
  4023a8:	8e440000 	lw	a0,0(s2)
[31m  4023ac:	8f9980e8 	lw	t9,fprintf[0m
  4023b0:	3c050040 	lui	a1,0x40
  4023b4:	3c060040 	lui	a2,0x40
  4023b8:	24a53618 	addiu	a1,a1,13848
  4023bc:	8c510000 	lw	s1,0(v0)
  4023c0:	0320f809 	jalr	t9
  4023c4:	24c63534 	addiu	a2,a2,13620
  4023c8:	8fbc0018 	lw	gp,24(sp)
  4023cc:	8e520000 	lw	s2,0(s2)
  4023d0:	8f998114 	lw	t9,-32492(gp)
  4023d4:	00000000 	nop
  4023d8:	0320f809 	jalr	t9
  4023dc:	02202021 	move	a0,s1
  4023e0:	8fbc0018 	lw	gp,24(sp)
  4023e4:	3c050040 	lui	a1,0x40
  4023e8:	3c070040 	lui	a3,0x40
[31m  4023ec:	8f9980e8 	lw	t9,fprintf[0m
  4023f0:	afb10010 	sw	s1,16(sp)
  4023f4:	afa20014 	sw	v0,20(sp)
--
  402468:	02002021 	move	a0,s0
  40246c:	24a56f41 	addiu	a1,a1,28481
  402470:	0320f809 	jalr	t9
  402474:	27a60040 	addiu	a2,sp,64
  402478:	8fbc0018 	lw	gp,24(sp)
  40247c:	02002021 	move	a0,s0
  402480:	8f998084 	lw	t9,-32636(gp)
  402484:	00000000 	nop
  402488:	0320f809 	jalr	t9
  40248c:	00408021 	move	s0,v0
  402490:	8fbf0034 	lw	ra,52(sp)
  402494:	02001021 	move	v0,s0
  402498:	8fb30030 	lw	s3,48(sp)
  40249c:	8fb2002c 	lw	s2,44(sp)
  4024a0:	8fb10028 	lw	s1,40(sp)
  4024a4:	8fb00024 	lw	s0,36(sp)
  4024a8:	03e00008 	jr	ra
  4024ac:	27bd0038 	addiu	sp,sp,56
  4024b0:	8f99809c 	lw	t9,-32612(gp)
  4024b4:	8f9280a4 	lw	s2,-32604(gp)
  4024b8:	0320f809 	jalr	t9
  4024bc:	2410ffff 	li	s0,-1
  4024c0:	8fbc0018 	lw	gp,24(sp)
  4024c4:	8e440000 	lw	a0,0(s2)
  4024c8:	3c050040 	lui	a1,0x40
[31m  4024cc:	8f9980e8 	lw	t9,fprintf[0m
  4024d0:	3c060040 	lui	a2,0x40
  4024d4:	24a53700 	addiu	a1,a1,14080
  4024d8:	24c63534 	addiu	a2,a2,13620
  4024dc:	8c510000 	lw	s1,0(v0)
  4024e0:	0320f809 	jalr	t9
  4024e4:	02603821 	move	a3,s3
  4024e8:	8fbc0018 	lw	gp,24(sp)
  4024ec:	8e520000 	lw	s2,0(s2)
  4024f0:	8f998114 	lw	t9,-32492(gp)
  4024f4:	00000000 	nop
  4024f8:	0320f809 	jalr	t9
  4024fc:	02202021 	move	a0,s1
  402500:	8fbc0018 	lw	gp,24(sp)
  402504:	3c050040 	lui	a1,0x40
  402508:	3c070040 	lui	a3,0x40
[31m  40250c:	8f9980e8 	lw	t9,fprintf[0m
  402510:	afb10010 	sw	s1,16(sp)
  402514:	afa20014 	sw	v0,20(sp)
--
  40262c:	27a60020 	addiu	a2,sp,32
  402630:	8f9980cc 	lw	t9,-32564(gp)
  402634:	10400015 	beqz	v0,40268c <ubi_get_info+0x158>
  402638:	27a70024 	addiu	a3,sp,36
  40263c:	0320f809 	jalr	t9
  402640:	00000000 	nop
  402644:	8fbc0018 	lw	gp,24(sp)
  402648:	1455ffe9 	bne	v0,s5,4025f0 <ubi_get_info+0xbc>
  40264c:	00000000 	nop
  402650:	8e840000 	lw	a0,0(s4)
  402654:	8fa20020 	lw	v0,32(sp)
  402658:	8e830008 	lw	v1,8(s4)
  40265c:	24840001 	addiu	a0,a0,1
  402660:	0062182a 	slt	v1,v1,v0
  402664:	10600002 	beqz	v1,402670 <ubi_get_info+0x13c>
  402668:	ae840000 	sw	a0,0(s4)
  40266c:	ae820008 	sw	v0,8(s4)
  402670:	8e830004 	lw	v1,4(s4)
  402674:	00000000 	nop
  402678:	0043182a 	slt	v1,v0,v1
  40267c:	1060ffdc 	beqz	v1,4025f0 <ubi_get_info+0xbc>
  402680:	00000000 	nop
  402684:	0810097c 	j	4025f0 <ubi_get_info+0xbc>
  402688:	ae820004 	sw	v0,4(s4)
  40268c:	8f8280a4 	lw	v0,-32604(gp)
[31m  402690:	8f9980e8 	lw	t9,fprintf[0m
  402694:	8ec7000c 	lw	a3,12(s6)
  402698:	8c440000 	lw	a0,0(v0)
--
  4026fc:	8e500000 	lw	s0,0(s2)
  402700:	00000000 	nop
  402704:	16000031 	bnez	s0,4027cc <ubi_get_info+0x298>
  402708:	3c050040 	lui	a1,0x40
  40270c:	8f998090 	lw	t9,-32624(gp)
  402710:	00000000 	nop
  402714:	0320f809 	jalr	t9
  402718:	02202021 	move	a0,s1
  40271c:	8fbc0018 	lw	gp,24(sp)
  402720:	1440000e 	bnez	v0,40275c <ubi_get_info+0x228>
  402724:	3c050040 	lui	a1,0x40
  402728:	8e830004 	lw	v1,4(s4)
  40272c:	3c027fff 	lui	v0,0x7fff
  402730:	3442ffff 	ori	v0,v0,0xffff
  402734:	10620007 	beq	v1,v0,402754 <ubi_get_info+0x220>
  402738:	00000000 	nop
  40273c:	8ec40014 	lw	a0,20(s6)
  402740:	0c100673 	jal	4019cc <read_positive_int>
  402744:	2685000c 	addiu	a1,s4,12
  402748:	2c420001 	sltiu	v0,v0,1
  40274c:	081009b5 	j	4026d4 <ubi_get_info+0x1a0>
  402750:	2442ffff 	addiu	v0,v0,-1
  402754:	081009cf 	j	40273c <ubi_get_info+0x208>
  402758:	ae800004 	sw	zero,4(s4)
  40275c:	8f9180a4 	lw	s1,-32604(gp)
[31m  402760:	8f9980e8 	lw	t9,fprintf[0m
  402764:	8ec7000c 	lw	a3,12(s6)
  402768:	8e240000 	lw	a0,0(s1)
  40276c:	3c060040 	lui	a2,0x40
  402770:	24a53954 	addiu	a1,a1,14676
  402774:	8e500000 	lw	s0,0(s2)
  402778:	0320f809 	jalr	t9
  40277c:	24c63534 	addiu	a2,a2,13620
  402780:	8fbc0018 	lw	gp,24(sp)
  402784:	8e310000 	lw	s1,0(s1)
  402788:	8f998114 	lw	t9,-32492(gp)
  40278c:	00000000 	nop
  402790:	0320f809 	jalr	t9
  402794:	02002021 	move	a0,s0
  402798:	8fbc0018 	lw	gp,24(sp)
  40279c:	3c050040 	lui	a1,0x40
  4027a0:	3c070040 	lui	a3,0x40
[31m  4027a4:	8f9980e8 	lw	t9,fprintf[0m
  4027a8:	afb00010 	sw	s0,16(sp)
  4027ac:	afa20014 	sw	v0,20(sp)
  4027b0:	02202021 	move	a0,s1
  4027b4:	24a52fc0 	addiu	a1,a1,12224
  4027b8:	24060008 	li	a2,8
  4027bc:	0320f809 	jalr	t9
  4027c0:	24e72df4 	addiu	a3,a3,11764
  4027c4:	081009b5 	j	4026d4 <ubi_get_info+0x1a0>
  4027c8:	2402ffff 	li	v0,-1
  4027cc:	8f9280a4 	lw	s2,-32604(gp)
[31m  4027d0:	8f9980e8 	lw	t9,fprintf[0m
  4027d4:	8ec7000c 	lw	a3,12(s6)
  4027d8:	8e440000 	lw	a0,0(s2)
  4027dc:	3c060040 	lui	a2,0x40
  4027e0:	24a53930 	addiu	a1,a1,14640
  4027e4:	0320f809 	jalr	t9
  4027e8:	24c63534 	addiu	a2,a2,13620
  4027ec:	8fbc0018 	lw	gp,24(sp)
  4027f0:	8e520000 	lw	s2,0(s2)
  4027f4:	8f998114 	lw	t9,-32492(gp)
  4027f8:	00000000 	nop
  4027fc:	0320f809 	jalr	t9
  402800:	02002021 	move	a0,s0
  402804:	8fbc0018 	lw	gp,24(sp)
  402808:	3c050040 	lui	a1,0x40
  40280c:	3c070040 	lui	a3,0x40
[31m  402810:	8f9980e8 	lw	t9,fprintf[0m
  402814:	afb00010 	sw	s0,16(sp)
  402818:	afa20014 	sw	v0,20(sp)

[0m
[[0;33m*[0m] Function [0;33mfprintf[0m used [0;33m49[0m times [0;33mubidetach[0m

