[0m
[[0;33m*[0m] Function [0;33mstrcpy[0m tear down of [0;33mrtspd[0m

  403b24:	8fbf0024 	lw	ra,36(sp)
  403b28:	8fb00020 	lw	s0,32(sp)
  403b2c:	03e00008 	jr	ra
  403b30:	27bd0028 	addiu	sp,sp,40
  403b34:	27bdffc8 	addiu	sp,sp,-56
  403b38:	afbf0034 	sw	ra,52(sp)
  403b3c:	afb10030 	sw	s1,48(sp)
  403b40:	afb0002c 	sw	s0,44(sp)
  403b44:	3c1c0044 	lui	gp,0x44
  403b48:	279cb140 	addiu	gp,gp,-20160
  403b4c:	afbc0010 	sw	gp,16(sp)
  403b50:	00002821 	move	a1,zero
  403b54:	27b00018 	addiu	s0,sp,24
  403b58:	00808821 	move	s1,a0
  403b5c:	8f99822c 	lw	t9,-32212(gp)
  403b60:	0320f809 	jalr	t9
  403b64:	02002021 	move	a0,s0
  403b68:	02002021 	move	a0,s0
  403b6c:	8fbc0010 	lw	gp,16(sp)
  403b70:	8f998338 	lw	t9,-31944(gp)
  403b74:	0320f809 	jalr	t9
  403b78:	2405000c 	li	a1,12
  403b7c:	02202021 	move	a0,s1
  403b80:	8fbc0010 	lw	gp,16(sp)
  403b84:	00402821 	move	a1,v0
[31m  403b88:	8f9984b4 	lw	t9,strcpy[0m
  403b8c:	0320f809 	jalr	t9
  403b90:	00408021 	move	s0,v0
--
  403ca8:	8f99848c 	lw	t9,-31604(gp)
  403cac:	0320f809 	jalr	t9
  403cb0:	0040b821 	move	s7,v0
  403cb4:	8fbc0018 	lw	gp,24(sp)
  403cb8:	8f9983c0 	lw	t9,-31808(gp)
  403cbc:	0320f809 	jalr	t9
  403cc0:	26440001 	addiu	a0,s2,1
  403cc4:	02a02821 	move	a1,s5
  403cc8:	8fbc0018 	lw	gp,24(sp)
  403ccc:	00408821 	move	s1,v0
  403cd0:	00402021 	move	a0,v0
  403cd4:	8fa2009c 	lw	v0,156(sp)
  403cd8:	8e060008 	lw	a2,8(s0)
  403cdc:	8e070014 	lw	a3,20(s0)
  403ce0:	8f998184 	lw	t9,-32380(gp)
  403ce4:	0320f809 	jalr	t9
  403ce8:	afa20010 	sw	v0,16(sp)
  403cec:	02402821 	move	a1,s2
  403cf0:	8fbc0018 	lw	gp,24(sp)
  403cf4:	8f998338 	lw	t9,-31944(gp)
  403cf8:	0320f809 	jalr	t9
  403cfc:	02202021 	move	a0,s1
  403d00:	02c02021 	move	a0,s6
  403d04:	8fbc0018 	lw	gp,24(sp)
  403d08:	00402821 	move	a1,v0
[31m  403d0c:	8f9984b4 	lw	t9,strcpy[0m
  403d10:	0320f809 	jalr	t9
  403d14:	00409021 	move	s2,v0
--
  403d2c:	8f998044 	lw	t9,-32700(gp)
  403d30:	0320f809 	jalr	t9
  403d34:	02202021 	move	a0,s1
  403d38:	8fbc0018 	lw	gp,24(sp)
  403d3c:	8fa30068 	lw	v1,104(sp)
  403d40:	8f9983c0 	lw	t9,-31808(gp)
  403d44:	0320f809 	jalr	t9
  403d48:	24640002 	addiu	a0,v1,2
  403d4c:	3c050042 	lui	a1,0x42
  403d50:	8fbc0018 	lw	gp,24(sp)
  403d54:	24a5be90 	addiu	a1,a1,-16752
  403d58:	00402021 	move	a0,v0
  403d5c:	8fa60098 	lw	a2,152(sp)
  403d60:	8e07001c 	lw	a3,28(s0)
  403d64:	8f998184 	lw	t9,-32380(gp)
  403d68:	0320f809 	jalr	t9
  403d6c:	00408821 	move	s1,v0
  403d70:	03c02821 	move	a1,s8
  403d74:	8fbc0018 	lw	gp,24(sp)
  403d78:	8f998338 	lw	t9,-31944(gp)
  403d7c:	0320f809 	jalr	t9
  403d80:	02202021 	move	a0,s1
  403d84:	02802021 	move	a0,s4
  403d88:	8fbc0018 	lw	gp,24(sp)
  403d8c:	00402821 	move	a1,v0
[31m  403d90:	8f9984b4 	lw	t9,strcpy[0m
  403d94:	0320f809 	jalr	t9
  403d98:	00409021 	move	s2,v0
--
  4043d8:	24a5bfa8 	addiu	a1,a1,-16472
  4043dc:	0320f809 	jalr	t9
  4043e0:	27a60034 	addiu	a2,sp,52
  4043e4:	24030193 	li	v1,403
  4043e8:	8fbc0028 	lw	gp,40(sp)
  4043ec:	10430140 	beq	v0,v1,4048f0 <ResponseSetStatus@@Base+0x1074>
  4043f0:	00000000 	nop
  4043f4:	8fa20034 	lw	v0,52(sp)
  4043f8:	1040012d 	beqz	v0,4048b0 <ResponseSetStatus@@Base+0x1034>
  4043fc:	27b5003c 	addiu	s5,sp,60
  404400:	27b300bc 	addiu	s3,sp,188
  404404:	8f9982d8 	lw	t9,-32040(gp)
  404408:	0320f809 	jalr	t9
  40440c:	02a02021 	move	a0,s5
  404410:	02a02821 	move	a1,s5
  404414:	8fbc0028 	lw	gp,40(sp)
  404418:	8f9980dc 	lw	t9,-32548(gp)
  40441c:	0320f809 	jalr	t9
  404420:	2604003c 	addiu	a0,s0,60
  404424:	8fbc0028 	lw	gp,40(sp)
  404428:	8f998228 	lw	t9,-32216(gp)
  40442c:	0320f809 	jalr	t9
  404430:	02a02021 	move	a0,s5
  404434:	02602021 	move	a0,s3
  404438:	8fbc0028 	lw	gp,40(sp)
[31m  40443c:	8f9984b4 	lw	t9,strcpy[0m
  404440:	0320f809 	jalr	t9
  404444:	00402821 	move	a1,v0
--
  40985c:	02001021 	move	v0,s0
  409860:	ae03001c 	sw	v1,28(s0)
  409864:	8fbf001c 	lw	ra,28(sp)
  409868:	8fb00018 	lw	s0,24(sp)
  40986c:	03e00008 	jr	ra
  409870:	27bd0020 	addiu	sp,sp,32
	...

00409880 <get_ipaddr@@Base>:
  409880:	27bdfef8 	addiu	sp,sp,-264
  409884:	afbf0104 	sw	ra,260(sp)
  409888:	afb00100 	sw	s0,256(sp)
  40988c:	3c1c0044 	lui	gp,0x44
  409890:	279cb140 	addiu	gp,gp,-20160
  409894:	afbc0010 	sw	gp,16(sp)
  409898:	3c020042 	lui	v0,0x42
  40989c:	8c42d000 	lw	v0,-12288(v0)
  4098a0:	00808021 	move	s0,a0
  4098a4:	27a50018 	addiu	a1,sp,24
  4098a8:	8f99827c 	lw	t9,-32132(gp)
  4098ac:	27a4007c 	addiu	a0,sp,124
  4098b0:	0320f809 	jalr	t9
  4098b4:	afa2007c 	sw	v0,124(sp)
  4098b8:	02002021 	move	a0,s0
  4098bc:	8fbc0010 	lw	gp,16(sp)
[31m  4098c0:	8f9984b4 	lw	t9,strcpy[0m
  4098c4:	0320f809 	jalr	t9
  4098c8:	27a5003b 	addiu	a1,sp,59
--
  40c8dc:	8f998234 	lw	t9,-32204(gp)
  40c8e0:	0320f809 	jalr	t9
  40c8e4:	00000000 	nop
  40c8e8:	8fbc0040 	lw	gp,64(sp)
  40c8ec:	ae620118 	sw	v0,280(s3)
  40c8f0:	8f99837c 	lw	t9,-31876(gp)
  40c8f4:	3c050042 	lui	a1,0x42
  40c8f8:	02603021 	move	a2,s3
  40c8fc:	8e270018 	lw	a3,24(s1)
  40c900:	24a5d61c 	addiu	a1,a1,-10724
  40c904:	afb00010 	sw	s0,16(sp)
  40c908:	0320f809 	jalr	t9
  40c90c:	26e4d5c8 	addiu	a0,s7,-10808
  40c910:	24030001 	li	v1,1
  40c914:	8e620100 	lw	v0,256(s3)
  40c918:	8fbc0040 	lw	gp,64(sp)
  40c91c:	104300d3 	beq	v0,v1,40cc6c <Setup@@Base+0x6ec>
  40c920:	00000000 	nop
  40c924:	14400004 	bnez	v0,40c938 <Setup@@Base+0x3b8>
  40c928:	00000000 	nop
  40c92c:	8e021138 	lw	v0,4408(s0)
  40c930:	1040011d 	beqz	v0,40cda8 <Setup@@Base+0x828>
  40c934:	3c040042 	lui	a0,0x42
  40c938:	ae6011c4 	sw	zero,4548(s3)
  40c93c:	261e00fc 	addiu	s8,s0,252
[31m  40c940:	8f9984b4 	lw	t9,strcpy[0m
  40c944:	8e050050 	lw	a1,80(s0)
  40c948:	0320f809 	jalr	t9
--
  40e780:	ae823750 	sw	v0,14160(s4)

0040e784 <HttpTunnelCreateNew@@Base>:
  40e784:	27bdffd8 	addiu	sp,sp,-40
  40e788:	afbf0024 	sw	ra,36(sp)
  40e78c:	afb20020 	sw	s2,32(sp)
  40e790:	afb1001c 	sw	s1,28(sp)
  40e794:	afb00018 	sw	s0,24(sp)
  40e798:	3c1c0044 	lui	gp,0x44
  40e79c:	279cb140 	addiu	gp,gp,-20160
  40e7a0:	afbc0010 	sw	gp,16(sp)
  40e7a4:	8f9983c0 	lw	t9,-31808(gp)
  40e7a8:	00809021 	move	s2,a0
  40e7ac:	24040090 	li	a0,144
  40e7b0:	0320f809 	jalr	t9
  40e7b4:	00a08821 	move	s1,a1
  40e7b8:	00002821 	move	a1,zero
  40e7bc:	8fbc0010 	lw	gp,16(sp)
  40e7c0:	24060090 	li	a2,144
  40e7c4:	00402021 	move	a0,v0
  40e7c8:	8f99820c 	lw	t9,-32244(gp)
  40e7cc:	0320f809 	jalr	t9
  40e7d0:	00408021 	move	s0,v0
  40e7d4:	02402821 	move	a1,s2
  40e7d8:	8fbc0010 	lw	gp,16(sp)
[31m  40e7dc:	8f9984b4 	lw	t9,strcpy[0m
  40e7e0:	0320f809 	jalr	t9
  40e7e4:	2604000c 	addiu	a0,s0,12
--
  40f38c:	02402021 	move	a0,s2
  40f390:	0320f809 	jalr	t9
  40f394:	afa30418 	sw	v1,1048(sp)
  40f398:	00142080 	sll	a0,s4,0x2
  40f39c:	8fa50450 	lw	a1,1104(sp)
  40f3a0:	8fbc0010 	lw	gp,16(sp)
  40f3a4:	00a42021 	addu	a0,a1,a0
  40f3a8:	ac820000 	sw	v0,0(a0)
  40f3ac:	8fa30418 	lw	v1,1048(sp)
  40f3b0:	1000ffd1 	b	40f2f8 <ConfigRead@@Base+0xd8>
  40f3b4:	26940001 	addiu	s4,s4,1
  40f3b8:	1000ffe0 	b	40f33c <ConfigRead@@Base+0x11c>
  40f3bc:	02a01821 	move	v1,s5

0040f3c0 <myatof@@Base>:
  40f3c0:	27bdff50 	addiu	sp,sp,-176
  40f3c4:	afbf00ac 	sw	ra,172(sp)
  40f3c8:	afb400a8 	sw	s4,168(sp)
  40f3cc:	afb300a4 	sw	s3,164(sp)
  40f3d0:	afb200a0 	sw	s2,160(sp)
  40f3d4:	afb1009c 	sw	s1,156(sp)
  40f3d8:	afb00098 	sw	s0,152(sp)
  40f3dc:	3c1c0044 	lui	gp,0x44
  40f3e0:	279cb140 	addiu	gp,gp,-20160
  40f3e4:	afbc0010 	sw	gp,16(sp)
[31m  40f3e8:	8f9984b4 	lw	t9,strcpy[0m
  40f3ec:	27b00018 	addiu	s0,sp,24
  40f3f0:	00802821 	move	a1,a0
--
00410454 <get_active_iff@@Base>:
  410454:	27bddf20 	addiu	sp,sp,-8416
  410458:	afbf20dc 	sw	ra,8412(sp)
  41045c:	afbe20d8 	sw	s8,8408(sp)
  410460:	afb720d4 	sw	s7,8404(sp)
  410464:	afb620d0 	sw	s6,8400(sp)
  410468:	afb520cc 	sw	s5,8396(sp)
  41046c:	afb420c8 	sw	s4,8392(sp)
  410470:	afb320c4 	sw	s3,8388(sp)
  410474:	afb220c0 	sw	s2,8384(sp)
  410478:	afb120bc 	sw	s1,8380(sp)
  41047c:	afb020b8 	sw	s0,8376(sp)
  410480:	3c1c0044 	lui	gp,0x44
  410484:	279cb140 	addiu	gp,gp,-20160
  410488:	afbc0020 	sw	gp,32(sp)
  41048c:	24060063 	li	a2,99
  410490:	00a0b821 	move	s7,a1
  410494:	8f99820c 	lw	t9,-32244(gp)
  410498:	00002821 	move	a1,zero
  41049c:	afa420e0 	sw	a0,8416(sp)
  4104a0:	02e02021 	move	a0,s7
  4104a4:	0320f809 	jalr	t9
  4104a8:	27b20080 	addiu	s2,sp,128
  4104ac:	8fbc0020 	lw	gp,32(sp)
  4104b0:	8fa520e0 	lw	a1,8416(sp)
[31m  4104b4:	8f9984b4 	lw	t9,strcpy[0m
  4104b8:	0320f809 	jalr	t9
  4104bc:	02e02021 	move	a0,s7
  4104c0:	02402021 	move	a0,s2
  4104c4:	8fbc0020 	lw	gp,32(sp)
  4104c8:	02e02821 	move	a1,s7
  4104cc:	afa00080 	sw	zero,128(sp)
[31m  4104d0:	8f9984b4 	lw	t9,strcpy[0m
  4104d4:	ae400004 	sw	zero,4(s2)
  4104d8:	ae400008 	sw	zero,8(s2)
--
  410560:	02202021 	move	a0,s1
  410564:	34058912 	li	a1,0x8912
  410568:	8fbc0020 	lw	gp,32(sp)
  41056c:	02a03021 	move	a2,s5
  410570:	00408021 	move	s0,v0
  410574:	8f9984a8 	lw	t9,-31576(gp)
  410578:	1440ffea 	bnez	v0,410524 <get_active_iff@@Base+0xd0>
  41057c:	afa2002c 	sw	v0,44(sp)
  410580:	8f998054 	lw	t9,-32684(gp)
  410584:	02202021 	move	a0,s1
  410588:	0320f809 	jalr	t9
  41058c:	2412ffff 	li	s2,-1
  410590:	02401021 	move	v0,s2
  410594:	8fbf20dc 	lw	ra,8412(sp)
  410598:	8fbe20d8 	lw	s8,8408(sp)
  41059c:	8fb720d4 	lw	s7,8404(sp)
  4105a0:	8fb620d0 	lw	s6,8400(sp)
  4105a4:	8fb520cc 	lw	s5,8396(sp)
  4105a8:	8fb420c8 	lw	s4,8392(sp)
  4105ac:	8fb320c4 	lw	s3,8388(sp)
  4105b0:	8fb220c0 	lw	s2,8384(sp)
  4105b4:	8fb120bc 	lw	s1,8380(sp)
  4105b8:	8fb020b8 	lw	s0,8376(sp)
  4105bc:	03e00008 	jr	ra
  4105c0:	27bd20e0 	addiu	sp,sp,8416
[31m  4105c4:	8f9984b4 	lw	t9,strcpy[0m
  4105c8:	8fa520e0 	lw	a1,8416(sp)
  4105cc:	afa320b4 	sw	v1,8372(sp)
--
  410790:	ae6b0004 	sw	t3,4(s3)
  410794:	ae6a0008 	sw	t2,8(s3)
  410798:	ae69000c 	sw	t1,12(s3)
  41079c:	ae680010 	sw	t0,16(s3)
  4107a0:	ae670014 	sw	a3,20(s3)
  4107a4:	ae620018 	sw	v0,24(s3)
  4107a8:	0320f809 	jalr	t9
  4107ac:	ae63001c 	sw	v1,28(s3)
  4107b0:	8fbc0020 	lw	gp,32(sp)
  4107b4:	10400003 	beqz	v0,4107c4 <get_active_iff@@Base+0x370>
  4107b8:	02601821 	move	v1,s3
  4107bc:	1000ffd3 	b	41070c <get_active_iff@@Base+0x2b8>
  4107c0:	26b50020 	addiu	s5,s5,32
  4107c4:	8f998284 	lw	t9,-32124(gp)
  4107c8:	24060010 	li	a2,16
  4107cc:	8fa420a0 	lw	a0,8352(sp)
  4107d0:	0320f809 	jalr	t9
  4107d4:	02602821 	move	a1,s3
  4107d8:	8fbc0020 	lw	gp,32(sp)
  4107dc:	8fc40004 	lw	a0,4(s8)
  4107e0:	8f9981e0 	lw	t9,-32288(gp)
  4107e4:	0320f809 	jalr	t9
  4107e8:	00000000 	nop
  4107ec:	02e02021 	move	a0,s7
  4107f0:	8fbc0020 	lw	gp,32(sp)
[31m  4107f4:	8f9984b4 	lw	t9,strcpy[0m
  4107f8:	0320f809 	jalr	t9
  4107fc:	00402821 	move	a1,v0
  410800:	02202021 	move	a0,s1
  410804:	34058919 	li	a1,0x8919
  410808:	8fbc0020 	lw	gp,32(sp)
  41080c:	8f9984a8 	lw	t9,-31576(gp)
  410810:	0320f809 	jalr	t9
  410814:	02603021 	move	a2,s3
  410818:	8fbc0020 	lw	gp,32(sp)
  41081c:	0440ff96 	bltz	v0,410678 <get_active_iff@@Base+0x224>
  410820:	00000000 	nop
  410824:	8fc20004 	lw	v0,4(s8)
  410828:	8f9981e0 	lw	t9,-32288(gp)
  41082c:	00402021 	move	a0,v0
  410830:	0320f809 	jalr	t9
  410834:	afa20044 	sw	v0,68(sp)
  410838:	8fbc0020 	lw	gp,32(sp)
  41083c:	8fa420a4 	lw	a0,8356(sp)
[31m  410840:	8f9984b4 	lw	t9,strcpy[0m
  410844:	0320f809 	jalr	t9
  410848:	00402821 	move	a1,v0
  41084c:	02202021 	move	a0,s1
  410850:	3405891b 	li	a1,0x891b
  410854:	8fbc0020 	lw	gp,32(sp)
  410858:	8f9984a8 	lw	t9,-31576(gp)
  41085c:	0320f809 	jalr	t9
  410860:	02603021 	move	a2,s3
  410864:	8fbc0020 	lw	gp,32(sp)
  410868:	0440ff83 	bltz	v0,410678 <get_active_iff@@Base+0x224>
  41086c:	00000000 	nop
  410870:	8fc20004 	lw	v0,4(s8)
  410874:	8f9981e0 	lw	t9,-32288(gp)
  410878:	00402021 	move	a0,v0
  41087c:	0320f809 	jalr	t9
  410880:	afa20034 	sw	v0,52(sp)
  410884:	8fbc0020 	lw	gp,32(sp)
  410888:	8fa420a8 	lw	a0,8360(sp)
[31m  41088c:	8f9984b4 	lw	t9,strcpy[0m
  410890:	0320f809 	jalr	t9
  410894:	00402821 	move	a1,v0
  410898:	8fa520ac 	lw	a1,8364(sp)
  41089c:	0c1040af 	jal	4102bc <set_TOS_ip_prec@@Base+0x9c4>
  4108a0:	02602021 	move	a0,s3
  4108a4:	8fbc0020 	lw	gp,32(sp)
  4108a8:	1840000e 	blez	v0,4108e4 <get_active_iff@@Base+0x490>
  4108ac:	3c020042 	lui	v0,0x42
  4108b0:	8f9981e0 	lw	t9,-32288(gp)
  4108b4:	8fa40054 	lw	a0,84(sp)
  4108b8:	0320f809 	jalr	t9
  4108bc:	26b50020 	addiu	s5,s5,32
  4108c0:	02c02021 	move	a0,s6
  4108c4:	8fbc0020 	lw	gp,32(sp)
[31m  4108c8:	8f9984b4 	lw	t9,strcpy[0m
  4108cc:	0320f809 	jalr	t9
  4108d0:	00402821 	move	a1,v0
--
  4112a4:	10a00035 	beqz	a1,41137c <DStringTrim@@Base+0x17c>
  4112a8:	00009821 	move	s3,zero
  4112ac:	10000006 	b	4112c8 <DStringTrim@@Base+0xc8>
  4112b0:	00008821 	move	s1,zero
  4112b4:	00852821 	addu	a1,a0,a1
  4112b8:	94a20000 	lhu	v0,0(a1)
  4112bc:	30420020 	andi	v0,v0,0x20
  4112c0:	10400007 	beqz	v0,4112e0 <DStringTrim@@Base+0xe0>
  4112c4:	00000000 	nop
  4112c8:	26310001 	addiu	s1,s1,1
  4112cc:	02511021 	addu	v0,s2,s1
  4112d0:	02209821 	move	s3,s1
  4112d4:	80420000 	lb	v0,0(v0)
  4112d8:	1440fff6 	bnez	v0,4112b4 <DStringTrim@@Base+0xb4>
  4112dc:	00022840 	sll	a1,v0,0x1
  4112e0:	24630001 	addiu	v1,v1,1
  4112e4:	00711823 	subu	v1,v1,s1
  4112e8:	8f9983c0 	lw	t9,-31808(gp)
  4112ec:	00602021 	move	a0,v1
  4112f0:	0320f809 	jalr	t9
  4112f4:	ae030008 	sw	v1,8(s0)
  4112f8:	8fbc0010 	lw	gp,16(sp)
  4112fc:	00402021 	move	a0,v0
  411300:	8e050000 	lw	a1,0(s0)
  411304:	00409021 	move	s2,v0
[31m  411308:	8f9984b4 	lw	t9,strcpy[0m
  41130c:	0320f809 	jalr	t9
  411310:	00b32821 	addu	a1,a1,s3
--
  412340:	2442c2e0 	addiu	v0,v0,-15648
  412344:	ae020000 	sw	v0,0(s0)
  412348:	02001021 	move	v0,s0
  41234c:	8fbf001c 	lw	ra,28(sp)
  412350:	8fb00018 	lw	s0,24(sp)
  412354:	03e00008 	jr	ra
  412358:	27bd0020 	addiu	sp,sp,32

0041235c <HTTP_xsessioncookie@@Base>:
  41235c:	27bdffe0 	addiu	sp,sp,-32
  412360:	afbf001c 	sw	ra,28(sp)
  412364:	afb00018 	sw	s0,24(sp)
  412368:	3c1c0044 	lui	gp,0x44
  41236c:	279cb140 	addiu	gp,gp,-20160
  412370:	afbc0010 	sw	gp,16(sp)
  412374:	8f99814c 	lw	t9,-32436(gp)
  412378:	00a08021 	move	s0,a1
  41237c:	3c050042 	lui	a1,0x42
  412380:	8c84004c 	lw	a0,76(a0)
  412384:	0320f809 	jalr	t9
  412388:	24a5dee4 	addiu	a1,a1,-8476
  41238c:	8fbc0010 	lw	gp,16(sp)
  412390:	10400007 	beqz	v0,4123b0 <HTTP_xsessioncookie@@Base+0x54>
  412394:	00000000 	nop
  412398:	8c420004 	lw	v0,4(v0)
[31m  41239c:	8f9984b4 	lw	t9,strcpy[0m
  4123a0:	8c450004 	lw	a1,4(v0)
  4123a4:	0320f809 	jalr	t9
--
  413950:	02601021 	move	v0,s3
  413954:	8e440000 	lw	a0,0(s2)
  413958:	8e430004 	lw	v1,4(s2)
  41395c:	a8440000 	swl	a0,0(v0)
  413960:	b8440003 	swr	a0,3(v0)
  413964:	a8430004 	swl	v1,4(v0)
  413968:	8e440008 	lw	a0,8(s2)
  41396c:	b8430007 	swr	v1,7(v0)
  413970:	a8440008 	swl	a0,8(v0)
  413974:	8e43000c 	lw	v1,12(s2)
  413978:	26520010 	addiu	s2,s2,16
  41397c:	b844000b 	swr	a0,11(v0)
  413980:	a843000c 	swl	v1,12(v0)
  413984:	b843000f 	swr	v1,15(v0)
  413988:	1645fff2 	bne	s2,a1,413954 <HTTP_Authorization@@Base+0x3c4>
  41398c:	24420010 	addiu	v0,v0,16
  413990:	02601021 	move	v0,s3
  413994:	8fbf006c 	lw	ra,108(sp)
  413998:	8fb40068 	lw	s4,104(sp)
  41399c:	8fb30064 	lw	s3,100(sp)
  4139a0:	8fb20060 	lw	s2,96(sp)
  4139a4:	8fb1005c 	lw	s1,92(sp)
  4139a8:	8fb00058 	lw	s0,88(sp)
  4139ac:	03e00008 	jr	ra
  4139b0:	27bd0070 	addiu	sp,sp,112
[31m  4139b4:	8f9984b4 	lw	t9,strcpy[0m
  4139b8:	0320f809 	jalr	t9
  4139bc:	27a40038 	addiu	a0,sp,56

[0m
[[0;33m*[0m] Function [0;33mstrcpy[0m used [0;33m18[0m times [0;33mrtspd[0m

