[0m
[[0;33m*[0m] Function [0;33mstrcpy[0m tear down of [0;33mhnap_push_service[0m

  4023e4:	14800005 	bnez	a0,4023fc <main@@Base+0x788>
  4023e8:	00408021 	move	s0,v0
  4023ec:	16000010 	bnez	s0,402430 <main@@Base+0x7bc>
  4023f0:	00002821 	move	a1,zero
  4023f4:	10000004 	b	402408 <main@@Base+0x794>
  4023f8:	00000000 	nop
  4023fc:	24630001 	addiu	v1,v1,1
  402400:	1465fff7 	bne	v1,a1,4023e0 <main@@Base+0x76c>
  402404:	00461021 	addu	v0,v0,a2
  402408:	8f82809c 	lw	v0,-32612(gp)
  40240c:	8c440000 	lw	a0,0(v0)
  402410:	3c050041 	lui	a1,0x41
  402414:	24a54968 	addiu	a1,a1,18792
  402418:	3c060041 	lui	a2,0x41
  40241c:	8f998154 	lw	t9,-32428(gp)
  402420:	0320f809 	jalr	t9
  402424:	24c64b04 	addiu	a2,a2,19204
  402428:	10000029 	b	4024d0 <main@@Base+0x85c>
  40242c:	2402ffff 	li	v0,-1
  402430:	02002021 	move	a0,s0
  402434:	8f9980d4 	lw	t9,-32556(gp)
  402438:	0320f809 	jalr	t9
  40243c:	3406844f 	li	a2,0x844f
  402440:	8fbc0020 	lw	gp,32(sp)
  402444:	26040026 	addiu	a0,s0,38
[31m  402448:	8f998220 	lw	t9,strcpy[0m
  40244c:	0320f809 	jalr	t9
  402450:	02202821 	move	a1,s1
--
  403358:	24060200 	li	a2,512
  40335c:	8fbc0010 	lw	gp,16(sp)
  403360:	3c030005 	lui	v1,0x5
  403364:	3463585c 	ori	v1,v1,0x585c
  403368:	007d1821 	addu	v1,v1,sp
  40336c:	8c640000 	lw	a0,0(v1)
  403370:	3c050041 	lui	a1,0x41
  403374:	24a54c34 	addiu	a1,a1,19508
  403378:	02003021 	move	a2,s0
  40337c:	8f998118 	lw	t9,-32488(gp)
  403380:	0320f809 	jalr	t9
  403384:	24070200 	li	a3,512
  403388:	8fbc0010 	lw	gp,16(sp)
  40338c:	14400011 	bnez	v0,4033d4 <ReviewPolicyFromFile@@Base+0x42c>
  403390:	24020556 	li	v0,1366
  403394:	24040556 	li	a0,1366
  403398:	3c020005 	lui	v0,0x5
  40339c:	34425860 	ori	v0,v0,0x5860
  4033a0:	005d1021 	addu	v0,v0,sp
  4033a4:	8c420000 	lw	v0,0(v0)
  4033a8:	00440018 	mult	v0,a0
  4033ac:	00002012 	mflo	a0
  4033b0:	24840001 	addiu	a0,a0,1
  4033b4:	000420c0 	sll	a0,a0,0x3
  4033b8:	02442021 	addu	a0,s2,a0
[31m  4033bc:	8f998220 	lw	t9,strcpy[0m
  4033c0:	0320f809 	jalr	t9
  4033c4:	02002821 	move	a1,s0
--
  403410:	0320f809 	jalr	t9
  403414:	24060200 	li	a2,512
  403418:	8fbc0010 	lw	gp,16(sp)
  40341c:	3c020005 	lui	v0,0x5
  403420:	3442585c 	ori	v0,v0,0x585c
  403424:	005d1021 	addu	v0,v0,sp
  403428:	8c440000 	lw	a0,0(v0)
  40342c:	3c050041 	lui	a1,0x41
  403430:	24a54c40 	addiu	a1,a1,19520
  403434:	02003021 	move	a2,s0
  403438:	8f998118 	lw	t9,-32488(gp)
  40343c:	0320f809 	jalr	t9
  403440:	24070200 	li	a3,512
  403444:	8fbc0010 	lw	gp,16(sp)
  403448:	14400010 	bnez	v0,40348c <ReviewPolicyFromFile@@Base+0x4e4>
  40344c:	24022ab0 	li	v0,10928
  403450:	24042ab0 	li	a0,10928
  403454:	3c020005 	lui	v0,0x5
  403458:	34425860 	ori	v0,v0,0x5860
  40345c:	005d1021 	addu	v0,v0,sp
  403460:	8c420000 	lw	v0,0(v0)
  403464:	00440018 	mult	v0,a0
  403468:	00002012 	mflo	a0
  40346c:	02442021 	addu	a0,s2,a0
  403470:	24840029 	addiu	a0,a0,41
[31m  403474:	8f998220 	lw	t9,strcpy[0m
  403478:	0320f809 	jalr	t9
  40347c:	02002821 	move	a1,s0
--
  40366c:	8fbc0010 	lw	gp,16(sp)
  403670:	00409021 	move	s2,v0
  403674:	02002021 	move	a0,s0
  403678:	00002821 	move	a1,zero
  40367c:	8f9980d4 	lw	t9,-32556(gp)
  403680:	0320f809 	jalr	t9
  403684:	24060200 	li	a2,512
  403688:	8fbc0010 	lw	gp,16(sp)
  40368c:	02402021 	move	a0,s2
  403690:	03c02821 	move	a1,s8
  403694:	02003021 	move	a2,s0
  403698:	8f998118 	lw	t9,-32488(gp)
  40369c:	0320f809 	jalr	t9
  4036a0:	24070200 	li	a3,512
  4036a4:	8fbc0010 	lw	gp,16(sp)
  4036a8:	1440000f 	bnez	v0,4036e8 <ReviewPolicyFromFile@@Base+0x740>
  4036ac:	001118c0 	sll	v1,s1,0x3
  4036b0:	001120c0 	sll	a0,s1,0x3
  4036b4:	00111140 	sll	v0,s1,0x5
  4036b8:	00822021 	addu	a0,a0,v0
  4036bc:	00912021 	addu	a0,a0,s1
  4036c0:	00042080 	sll	a0,a0,0x2
  4036c4:	00942021 	addu	a0,a0,s4
  4036c8:	24840070 	addiu	a0,a0,112
  4036cc:	02642021 	addu	a0,s3,a0
[31m  4036d0:	8f998220 	lw	t9,strcpy[0m
  4036d4:	0320f809 	jalr	t9
  4036d8:	02002821 	move	a1,s0
--
  403770:	00002821 	move	a1,zero
  403774:	8f9980d4 	lw	t9,-32556(gp)
  403778:	0320f809 	jalr	t9
  40377c:	24060200 	li	a2,512
  403780:	8fbc0010 	lw	gp,16(sp)
  403784:	02402021 	move	a0,s2
  403788:	3c030005 	lui	v1,0x5
  40378c:	34635834 	ori	v1,v1,0x5834
  403790:	007d1821 	addu	v1,v1,sp
  403794:	8c650000 	lw	a1,0(v1)
  403798:	02003021 	move	a2,s0
  40379c:	8f998118 	lw	t9,-32488(gp)
  4037a0:	0320f809 	jalr	t9
  4037a4:	24070200 	li	a3,512
  4037a8:	8fbc0010 	lw	gp,16(sp)
  4037ac:	1440000f 	bnez	v0,4037ec <ReviewPolicyFromFile@@Base+0x844>
  4037b0:	001118c0 	sll	v1,s1,0x3
  4037b4:	001120c0 	sll	a0,s1,0x3
  4037b8:	00111140 	sll	v0,s1,0x5
  4037bc:	00822021 	addu	a0,a0,v0
  4037c0:	00912021 	addu	a0,a0,s1
  4037c4:	00042080 	sll	a0,a0,0x2
  4037c8:	00942021 	addu	a0,a0,s4
  4037cc:	24840088 	addiu	a0,a0,136
  4037d0:	02642021 	addu	a0,s3,a0
[31m  4037d4:	8f998220 	lw	t9,strcpy[0m
  4037d8:	0320f809 	jalr	t9
  4037dc:	02002821 	move	a1,s0
--
  403810:	00002821 	move	a1,zero
  403814:	8f9980d4 	lw	t9,-32556(gp)
  403818:	0320f809 	jalr	t9
  40381c:	24060200 	li	a2,512
  403820:	8fbc0010 	lw	gp,16(sp)
  403824:	02402021 	move	a0,s2
  403828:	3c020005 	lui	v0,0x5
  40382c:	34425838 	ori	v0,v0,0x5838
  403830:	005d1021 	addu	v0,v0,sp
  403834:	8c450000 	lw	a1,0(v0)
  403838:	02003021 	move	a2,s0
  40383c:	8f998118 	lw	t9,-32488(gp)
  403840:	0320f809 	jalr	t9
  403844:	24070200 	li	a3,512
  403848:	8fbc0010 	lw	gp,16(sp)
  40384c:	1440000f 	bnez	v0,40388c <ReviewPolicyFromFile@@Base+0x8e4>
  403850:	001118c0 	sll	v1,s1,0x3
  403854:	001120c0 	sll	a0,s1,0x3
  403858:	00111140 	sll	v0,s1,0x5
  40385c:	00822021 	addu	a0,a0,v0
  403860:	00912021 	addu	a0,a0,s1
  403864:	00042080 	sll	a0,a0,0x2
  403868:	00942021 	addu	a0,a0,s4
  40386c:	02642021 	addu	a0,s3,a0
  403870:	248400a9 	addiu	a0,a0,169
[31m  403874:	8f998220 	lw	t9,strcpy[0m
  403878:	0320f809 	jalr	t9
  40387c:	02002821 	move	a1,s0
--
  403914:	00002821 	move	a1,zero
  403918:	8f9980d4 	lw	t9,-32556(gp)
  40391c:	0320f809 	jalr	t9
  403920:	24060200 	li	a2,512
  403924:	8fbc0010 	lw	gp,16(sp)
  403928:	02402021 	move	a0,s2
  40392c:	3c020005 	lui	v0,0x5
  403930:	3442584c 	ori	v0,v0,0x584c
  403934:	005d1021 	addu	v0,v0,sp
  403938:	8c450000 	lw	a1,0(v0)
  40393c:	02003021 	move	a2,s0
  403940:	8f998118 	lw	t9,-32488(gp)
  403944:	0320f809 	jalr	t9
  403948:	24070200 	li	a3,512
  40394c:	8fbc0010 	lw	gp,16(sp)
  403950:	1440000f 	bnez	v0,403990 <ReviewPolicyFromFile@@Base+0x9e8>
  403954:	001118c0 	sll	v1,s1,0x3
  403958:	001120c0 	sll	a0,s1,0x3
  40395c:	00111140 	sll	v0,s1,0x5
  403960:	00822021 	addu	a0,a0,v0
  403964:	00912021 	addu	a0,a0,s1
  403968:	00042080 	sll	a0,a0,0x2
  40396c:	00942021 	addu	a0,a0,s4
  403970:	248400d0 	addiu	a0,a0,208
  403974:	02642021 	addu	a0,s3,a0
[31m  403978:	8f998220 	lw	t9,strcpy[0m
  40397c:	0320f809 	jalr	t9
  403980:	02002821 	move	a1,s0
--
  403afc:	8c640000 	lw	a0,0(v1)
  403b00:	8f99812c 	lw	t9,-32468(gp)
  403b04:	0320f809 	jalr	t9
  403b08:	02202821 	move	a1,s1
  403b0c:	8fbc0010 	lw	gp,16(sp)
  403b10:	00409021 	move	s2,v0
  403b14:	02002021 	move	a0,s0
  403b18:	00002821 	move	a1,zero
  403b1c:	8f9980d4 	lw	t9,-32556(gp)
  403b20:	0320f809 	jalr	t9
  403b24:	24060200 	li	a2,512
  403b28:	8fbc0010 	lw	gp,16(sp)
  403b2c:	02402021 	move	a0,s2
  403b30:	03c02821 	move	a1,s8
  403b34:	02003021 	move	a2,s0
  403b38:	8f998118 	lw	t9,-32488(gp)
  403b3c:	0320f809 	jalr	t9
  403b40:	24070200 	li	a3,512
  403b44:	8fbc0010 	lw	gp,16(sp)
  403b48:	1440000b 	bnez	v0,403b78 <ReviewPolicyFromFile@@Base+0xbd0>
  403b4c:	02350018 	mult	s1,s5
  403b50:	00002012 	mflo	a0
  403b54:	00962021 	addu	a0,a0,s6
  403b58:	248414f0 	addiu	a0,a0,5360
  403b5c:	02642021 	addu	a0,s3,a0
[31m  403b60:	8f998220 	lw	t9,strcpy[0m
  403b64:	0320f809 	jalr	t9
  403b68:	02002821 	move	a1,s0
--
  403be4:	10000002 	b	403bf0 <ReviewPolicyFromFile@@Base+0xc48>
  403be8:	ae82ff70 	sw	v0,-144(s4)
  403bec:	ae80ff70 	sw	zero,-144(s4)
  403bf0:	02002021 	move	a0,s0
  403bf4:	00002821 	move	a1,zero
  403bf8:	8f9980d4 	lw	t9,-32556(gp)
  403bfc:	0320f809 	jalr	t9
  403c00:	24060200 	li	a2,512
  403c04:	8fbc0010 	lw	gp,16(sp)
  403c08:	02402021 	move	a0,s2
  403c0c:	3c030005 	lui	v1,0x5
  403c10:	34635834 	ori	v1,v1,0x5834
  403c14:	007d1821 	addu	v1,v1,sp
  403c18:	8c650000 	lw	a1,0(v1)
  403c1c:	02003021 	move	a2,s0
  403c20:	8f998118 	lw	t9,-32488(gp)
  403c24:	0320f809 	jalr	t9
  403c28:	24070200 	li	a3,512
  403c2c:	8fbc0010 	lw	gp,16(sp)
  403c30:	1440000b 	bnez	v0,403c60 <ReviewPolicyFromFile@@Base+0xcb8>
  403c34:	02350018 	mult	s1,s5
  403c38:	00002012 	mflo	a0
  403c3c:	00962021 	addu	a0,a0,s6
  403c40:	24841508 	addiu	a0,a0,5384
  403c44:	02642021 	addu	a0,s3,a0
[31m  403c48:	8f998220 	lw	t9,strcpy[0m
  403c4c:	0320f809 	jalr	t9
  403c50:	02002821 	move	a1,s0
--
  403c68:	02621021 	addu	v0,s3,v0
  403c6c:	92e3631c 	lbu	v1,25372(s7)
  403c70:	a0431508 	sb	v1,5384(v0)
  403c74:	02002021 	move	a0,s0
  403c78:	00002821 	move	a1,zero
  403c7c:	8f9980d4 	lw	t9,-32556(gp)
  403c80:	0320f809 	jalr	t9
  403c84:	24060200 	li	a2,512
  403c88:	8fbc0010 	lw	gp,16(sp)
  403c8c:	02402021 	move	a0,s2
  403c90:	3c020005 	lui	v0,0x5
  403c94:	34425838 	ori	v0,v0,0x5838
  403c98:	005d1021 	addu	v0,v0,sp
  403c9c:	8c450000 	lw	a1,0(v0)
  403ca0:	02003021 	move	a2,s0
  403ca4:	8f998118 	lw	t9,-32488(gp)
  403ca8:	0320f809 	jalr	t9
  403cac:	24070200 	li	a3,512
  403cb0:	8fbc0010 	lw	gp,16(sp)
  403cb4:	1440000b 	bnez	v0,403ce4 <ReviewPolicyFromFile@@Base+0xd3c>
  403cb8:	02350018 	mult	s1,s5
  403cbc:	00002012 	mflo	a0
  403cc0:	00962021 	addu	a0,a0,s6
  403cc4:	02642021 	addu	a0,s3,a0
  403cc8:	24841529 	addiu	a0,a0,5417
[31m  403ccc:	8f998220 	lw	t9,strcpy[0m
  403cd0:	0320f809 	jalr	t9
  403cd4:	02002821 	move	a1,s0
--
  403d50:	10000002 	b	403d5c <ReviewPolicyFromFile@@Base+0xdb4>
  403d54:	ae82ffb8 	sw	v0,-72(s4)
  403d58:	ae80ffb8 	sw	zero,-72(s4)
  403d5c:	02002021 	move	a0,s0
  403d60:	00002821 	move	a1,zero
  403d64:	8f9980d4 	lw	t9,-32556(gp)
  403d68:	0320f809 	jalr	t9
  403d6c:	24060200 	li	a2,512
  403d70:	8fbc0010 	lw	gp,16(sp)
  403d74:	02402021 	move	a0,s2
  403d78:	3c030005 	lui	v1,0x5
  403d7c:	34635854 	ori	v1,v1,0x5854
  403d80:	007d1821 	addu	v1,v1,sp
  403d84:	8c650000 	lw	a1,0(v1)
  403d88:	02003021 	move	a2,s0
  403d8c:	8f998118 	lw	t9,-32488(gp)
  403d90:	0320f809 	jalr	t9
  403d94:	24070200 	li	a3,512
  403d98:	8fbc0010 	lw	gp,16(sp)
  403d9c:	1440000b 	bnez	v0,403dcc <ReviewPolicyFromFile@@Base+0xe24>
  403da0:	02350018 	mult	s1,s5
  403da4:	00002012 	mflo	a0
  403da8:	00962021 	addu	a0,a0,s6
  403dac:	24841550 	addiu	a0,a0,5456
  403db0:	02642021 	addu	a0,s3,a0
[31m  403db4:	8f998220 	lw	t9,strcpy[0m
  403db8:	0320f809 	jalr	t9
  403dbc:	02002821 	move	a1,s0
--
  403ea0:	0320f809 	jalr	t9
  403ea4:	24060200 	li	a2,512
  403ea8:	8fbc0010 	lw	gp,16(sp)
  403eac:	3c030005 	lui	v1,0x5
  403eb0:	3463585c 	ori	v1,v1,0x585c
  403eb4:	007d1821 	addu	v1,v1,sp
  403eb8:	8c640000 	lw	a0,0(v1)
  403ebc:	3c050041 	lui	a1,0x41
  403ec0:	24a54cec 	addiu	a1,a1,19692
  403ec4:	02003021 	move	a2,s0
  403ec8:	8f998118 	lw	t9,-32488(gp)
  403ecc:	0320f809 	jalr	t9
  403ed0:	24070200 	li	a3,512
  403ed4:	8fbc0010 	lw	gp,16(sp)
  403ed8:	14400010 	bnez	v0,403f1c <ReviewPolicyFromFile@@Base+0xf74>
  403edc:	3c030005 	lui	v1,0x5
  403ee0:	24042ab0 	li	a0,10928
  403ee4:	3c020005 	lui	v0,0x5
  403ee8:	34425860 	ori	v0,v0,0x5860
  403eec:	005d1021 	addu	v0,v0,sp
  403ef0:	8c420000 	lw	v0,0(v0)
  403ef4:	00440018 	mult	v0,a0
  403ef8:	00002012 	mflo	a0
  403efc:	24842a78 	addiu	a0,a0,10872
  403f00:	02442021 	addu	a0,s2,a0
[31m  403f04:	8f998220 	lw	t9,strcpy[0m
  403f08:	0320f809 	jalr	t9
  403f0c:	02002821 	move	a1,s0
--
  407138:	00a08821 	move	s1,a1
  40713c:	00c09821 	move	s3,a2
  407140:	afa00018 	sw	zero,24(sp)
  407144:	afa0001c 	sw	zero,28(sp)
  407148:	afa00020 	sw	zero,32(sp)
  40714c:	afa00024 	sw	zero,36(sp)
  407150:	afa00028 	sw	zero,40(sp)
  407154:	afa0002c 	sw	zero,44(sp)
  407158:	afa00030 	sw	zero,48(sp)
  40715c:	afa00034 	sw	zero,52(sp)
  407160:	a3a00038 	sb	zero,56(sp)
  407164:	27b0003c 	addiu	s0,sp,60
  407168:	ae000000 	sw	zero,0(s0)
  40716c:	ae000004 	sw	zero,4(s0)
  407170:	ae000008 	sw	zero,8(s0)
  407174:	ae00000c 	sw	zero,12(s0)
  407178:	a2000010 	sb	zero,16(s0)
  40717c:	27b40050 	addiu	s4,sp,80
  407180:	02802021 	move	a0,s4
  407184:	00002821 	move	a1,zero
  407188:	8f9980d4 	lw	t9,-32556(gp)
  40718c:	0320f809 	jalr	t9
  407190:	24060081 	li	a2,129
  407194:	8fbc0010 	lw	gp,16(sp)
  407198:	27a40018 	addiu	a0,sp,24
[31m  40719c:	8f998220 	lw	t9,strcpy[0m
  4071a0:	0320f809 	jalr	t9
  4071a4:	02402821 	move	a1,s2
  4071a8:	8fbc0010 	lw	gp,16(sp)
  4071ac:	02002021 	move	a0,s0
[31m  4071b0:	8f998220 	lw	t9,strcpy[0m
  4071b4:	0320f809 	jalr	t9
  4071b8:	02202821 	move	a1,s1
  4071bc:	8fbc0010 	lw	gp,16(sp)
  4071c0:	02402021 	move	a0,s2
  4071c4:	02202821 	move	a1,s1
  4071c8:	00003021 	move	a2,zero
  4071cc:	8f99817c 	lw	t9,-32388(gp)
  4071d0:	0320f809 	jalr	t9
  4071d4:	02803821 	move	a3,s4
  4071d8:	8fbc0010 	lw	gp,16(sp)
  4071dc:	02602021 	move	a0,s3
[31m  4071e0:	8f998220 	lw	t9,strcpy[0m
  4071e4:	0320f809 	jalr	t9
  4071e8:	02802821 	move	a1,s4
--
  407640:	24060200 	li	a2,512
  407644:	8fbc0028 	lw	gp,40(sp)
  407648:	3c050005 	lui	a1,0x5
  40764c:	34a55fb4 	ori	a1,a1,0x5fb4
  407650:	00bd2821 	addu	a1,a1,sp
  407654:	8ca40000 	lw	a0,0(a1)
  407658:	3c050041 	lui	a1,0x41
  40765c:	24a54c34 	addiu	a1,a1,19508
  407660:	02003021 	move	a2,s0
  407664:	8f998118 	lw	t9,-32488(gp)
  407668:	0320f809 	jalr	t9
  40766c:	24070200 	li	a3,512
  407670:	8fbc0028 	lw	gp,40(sp)
  407674:	14400011 	bnez	v0,4076bc <PushDCHEventNotifyCheck@@Base+0x4ac>
  407678:	24020556 	li	v0,1366
  40767c:	24040556 	li	a0,1366
  407680:	3c020005 	lui	v0,0x5
  407684:	34425fbc 	ori	v0,v0,0x5fbc
  407688:	005d1021 	addu	v0,v0,sp
  40768c:	8c420000 	lw	v0,0(v0)
  407690:	00440018 	mult	v0,a0
  407694:	00002012 	mflo	a0
  407698:	24840001 	addiu	a0,a0,1
  40769c:	000420c0 	sll	a0,a0,0x3
  4076a0:	02442021 	addu	a0,s2,a0
[31m  4076a4:	8f998220 	lw	t9,strcpy[0m
  4076a8:	0320f809 	jalr	t9
  4076ac:	02002821 	move	a1,s0
--
  4076f8:	0320f809 	jalr	t9
  4076fc:	24060200 	li	a2,512
  407700:	8fbc0028 	lw	gp,40(sp)
  407704:	3c050005 	lui	a1,0x5
  407708:	34a55fb4 	ori	a1,a1,0x5fb4
  40770c:	00bd2821 	addu	a1,a1,sp
  407710:	8ca40000 	lw	a0,0(a1)
  407714:	3c050041 	lui	a1,0x41
  407718:	24a54c40 	addiu	a1,a1,19520
  40771c:	02003021 	move	a2,s0
  407720:	8f998118 	lw	t9,-32488(gp)
  407724:	0320f809 	jalr	t9
  407728:	24070200 	li	a3,512
  40772c:	8fbc0028 	lw	gp,40(sp)
  407730:	14400010 	bnez	v0,407774 <PushDCHEventNotifyCheck@@Base+0x564>
  407734:	24022ab0 	li	v0,10928
  407738:	24042ab0 	li	a0,10928
  40773c:	3c020005 	lui	v0,0x5
  407740:	34425fbc 	ori	v0,v0,0x5fbc
  407744:	005d1021 	addu	v0,v0,sp
  407748:	8c420000 	lw	v0,0(v0)
  40774c:	00440018 	mult	v0,a0
  407750:	00002012 	mflo	a0
  407754:	02442021 	addu	a0,s2,a0
  407758:	24840029 	addiu	a0,a0,41
[31m  40775c:	8f998220 	lw	t9,strcpy[0m
  407760:	0320f809 	jalr	t9
  407764:	02002821 	move	a1,s0
--
  407954:	02202821 	move	a1,s1
  407958:	8fbc0028 	lw	gp,40(sp)
  40795c:	00409021 	move	s2,v0
  407960:	02002021 	move	a0,s0
  407964:	00002821 	move	a1,zero
  407968:	8f9980d4 	lw	t9,-32556(gp)
  40796c:	0320f809 	jalr	t9
  407970:	24060200 	li	a2,512
  407974:	8fbc0028 	lw	gp,40(sp)
  407978:	02402021 	move	a0,s2
  40797c:	03c02821 	move	a1,s8
  407980:	02003021 	move	a2,s0
  407984:	8f998118 	lw	t9,-32488(gp)
  407988:	0320f809 	jalr	t9
  40798c:	24070200 	li	a3,512
  407990:	8fbc0028 	lw	gp,40(sp)
  407994:	1440000e 	bnez	v0,4079d0 <PushDCHEventNotifyCheck@@Base+0x7c0>
  407998:	001118c0 	sll	v1,s1,0x3
  40799c:	00111140 	sll	v0,s1,0x5
  4079a0:	00622021 	addu	a0,v1,v0
  4079a4:	00912021 	addu	a0,a0,s1
  4079a8:	00042080 	sll	a0,a0,0x2
  4079ac:	00942021 	addu	a0,a0,s4
  4079b0:	24840070 	addiu	a0,a0,112
  4079b4:	02642021 	addu	a0,s3,a0
[31m  4079b8:	8f998220 	lw	t9,strcpy[0m
  4079bc:	0320f809 	jalr	t9
  4079c0:	02002821 	move	a1,s0
--
  407a54:	02002021 	move	a0,s0
  407a58:	00002821 	move	a1,zero
  407a5c:	8f9980d4 	lw	t9,-32556(gp)
  407a60:	0320f809 	jalr	t9
  407a64:	24060200 	li	a2,512
  407a68:	8fbc0028 	lw	gp,40(sp)
  407a6c:	02402021 	move	a0,s2
  407a70:	3c070005 	lui	a3,0x5
  407a74:	34e75f8c 	ori	a3,a3,0x5f8c
  407a78:	00fd3821 	addu	a3,a3,sp
  407a7c:	8ce50000 	lw	a1,0(a3)
  407a80:	02003021 	move	a2,s0
  407a84:	8f998118 	lw	t9,-32488(gp)
  407a88:	0320f809 	jalr	t9
  407a8c:	24070200 	li	a3,512
  407a90:	8fbc0028 	lw	gp,40(sp)
  407a94:	1440000e 	bnez	v0,407ad0 <PushDCHEventNotifyCheck@@Base+0x8c0>
  407a98:	001118c0 	sll	v1,s1,0x3
  407a9c:	00111140 	sll	v0,s1,0x5
  407aa0:	00622021 	addu	a0,v1,v0
  407aa4:	00912021 	addu	a0,a0,s1
  407aa8:	00042080 	sll	a0,a0,0x2
  407aac:	00942021 	addu	a0,a0,s4
  407ab0:	24840088 	addiu	a0,a0,136
  407ab4:	02642021 	addu	a0,s3,a0
[31m  407ab8:	8f998220 	lw	t9,strcpy[0m
  407abc:	0320f809 	jalr	t9
  407ac0:	02002821 	move	a1,s0
--
  407af0:	02002021 	move	a0,s0
  407af4:	00002821 	move	a1,zero
  407af8:	8f9980d4 	lw	t9,-32556(gp)
  407afc:	0320f809 	jalr	t9
  407b00:	24060200 	li	a2,512
  407b04:	8fbc0028 	lw	gp,40(sp)
  407b08:	02402021 	move	a0,s2
  407b0c:	3c080005 	lui	t0,0x5
  407b10:	35085f90 	ori	t0,t0,0x5f90
  407b14:	011d4021 	addu	t0,t0,sp
  407b18:	8d050000 	lw	a1,0(t0)
  407b1c:	02003021 	move	a2,s0
  407b20:	8f998118 	lw	t9,-32488(gp)
  407b24:	0320f809 	jalr	t9
  407b28:	24070200 	li	a3,512
  407b2c:	8fbc0028 	lw	gp,40(sp)
  407b30:	1440000e 	bnez	v0,407b6c <PushDCHEventNotifyCheck@@Base+0x95c>
  407b34:	001118c0 	sll	v1,s1,0x3
  407b38:	00111140 	sll	v0,s1,0x5
  407b3c:	00622021 	addu	a0,v1,v0
  407b40:	00912021 	addu	a0,a0,s1
  407b44:	00042080 	sll	a0,a0,0x2
  407b48:	00942021 	addu	a0,a0,s4
  407b4c:	02642021 	addu	a0,s3,a0
  407b50:	248400a9 	addiu	a0,a0,169
[31m  407b54:	8f998220 	lw	t9,strcpy[0m
  407b58:	0320f809 	jalr	t9
  407b5c:	02002821 	move	a1,s0
--
  407bf4:	00002821 	move	a1,zero
  407bf8:	8f9980d4 	lw	t9,-32556(gp)
  407bfc:	0320f809 	jalr	t9
  407c00:	24060200 	li	a2,512
  407c04:	8fbc0028 	lw	gp,40(sp)
  407c08:	02402021 	move	a0,s2
  407c0c:	3c020005 	lui	v0,0x5
  407c10:	34425fa4 	ori	v0,v0,0x5fa4
  407c14:	005d1021 	addu	v0,v0,sp
  407c18:	8c450000 	lw	a1,0(v0)
  407c1c:	02003021 	move	a2,s0
  407c20:	8f998118 	lw	t9,-32488(gp)
  407c24:	0320f809 	jalr	t9
  407c28:	24070200 	li	a3,512
  407c2c:	8fbc0028 	lw	gp,40(sp)
  407c30:	1440000f 	bnez	v0,407c70 <PushDCHEventNotifyCheck@@Base+0xa60>
  407c34:	001118c0 	sll	v1,s1,0x3
  407c38:	001120c0 	sll	a0,s1,0x3
  407c3c:	00111140 	sll	v0,s1,0x5
  407c40:	00822021 	addu	a0,a0,v0
  407c44:	00912021 	addu	a0,a0,s1
  407c48:	00042080 	sll	a0,a0,0x2
  407c4c:	00942021 	addu	a0,a0,s4
  407c50:	248400d0 	addiu	a0,a0,208
  407c54:	02642021 	addu	a0,s3,a0
[31m  407c58:	8f998220 	lw	t9,strcpy[0m
  407c5c:	0320f809 	jalr	t9
  407c60:	02002821 	move	a1,s0
--
  407de0:	8c640000 	lw	a0,0(v1)
  407de4:	8f99812c 	lw	t9,-32468(gp)
  407de8:	0320f809 	jalr	t9
  407dec:	02202821 	move	a1,s1
  407df0:	8fbc0028 	lw	gp,40(sp)
  407df4:	00409021 	move	s2,v0
  407df8:	02002021 	move	a0,s0
  407dfc:	00002821 	move	a1,zero
  407e00:	8f9980d4 	lw	t9,-32556(gp)
  407e04:	0320f809 	jalr	t9
  407e08:	24060200 	li	a2,512
  407e0c:	8fbc0028 	lw	gp,40(sp)
  407e10:	02402021 	move	a0,s2
  407e14:	03c02821 	move	a1,s8
  407e18:	02003021 	move	a2,s0
  407e1c:	8f998118 	lw	t9,-32488(gp)
  407e20:	0320f809 	jalr	t9
  407e24:	24070200 	li	a3,512
  407e28:	8fbc0028 	lw	gp,40(sp)
  407e2c:	1440000b 	bnez	v0,407e5c <PushDCHEventNotifyCheck@@Base+0xc4c>
  407e30:	02350018 	mult	s1,s5
  407e34:	00002012 	mflo	a0
  407e38:	00962021 	addu	a0,a0,s6
  407e3c:	248414f0 	addiu	a0,a0,5360
  407e40:	02642021 	addu	a0,s3,a0
[31m  407e44:	8f998220 	lw	t9,strcpy[0m
  407e48:	0320f809 	jalr	t9
  407e4c:	02002821 	move	a1,s0
--
  407ec8:	10000002 	b	407ed4 <PushDCHEventNotifyCheck@@Base+0xcc4>
  407ecc:	ae82ff70 	sw	v0,-144(s4)
  407ed0:	ae80ff70 	sw	zero,-144(s4)
  407ed4:	02002021 	move	a0,s0
  407ed8:	00002821 	move	a1,zero
  407edc:	8f9980d4 	lw	t9,-32556(gp)
  407ee0:	0320f809 	jalr	t9
  407ee4:	24060200 	li	a2,512
  407ee8:	8fbc0028 	lw	gp,40(sp)
  407eec:	02402021 	move	a0,s2
  407ef0:	3c030005 	lui	v1,0x5
  407ef4:	34635f8c 	ori	v1,v1,0x5f8c
  407ef8:	007d1821 	addu	v1,v1,sp
  407efc:	8c650000 	lw	a1,0(v1)
  407f00:	02003021 	move	a2,s0
  407f04:	8f998118 	lw	t9,-32488(gp)
  407f08:	0320f809 	jalr	t9
  407f0c:	24070200 	li	a3,512
  407f10:	8fbc0028 	lw	gp,40(sp)
  407f14:	1440000b 	bnez	v0,407f44 <PushDCHEventNotifyCheck@@Base+0xd34>
  407f18:	02350018 	mult	s1,s5
  407f1c:	00002012 	mflo	a0
  407f20:	00962021 	addu	a0,a0,s6
  407f24:	24841508 	addiu	a0,a0,5384
  407f28:	02642021 	addu	a0,s3,a0
[31m  407f2c:	8f998220 	lw	t9,strcpy[0m
  407f30:	0320f809 	jalr	t9
  407f34:	02002821 	move	a1,s0
--
  407f4c:	02621021 	addu	v0,s3,v0
  407f50:	92e3631c 	lbu	v1,25372(s7)
  407f54:	a0431508 	sb	v1,5384(v0)
  407f58:	02002021 	move	a0,s0
  407f5c:	00002821 	move	a1,zero
  407f60:	8f9980d4 	lw	t9,-32556(gp)
  407f64:	0320f809 	jalr	t9
  407f68:	24060200 	li	a2,512
  407f6c:	8fbc0028 	lw	gp,40(sp)
  407f70:	02402021 	move	a0,s2
  407f74:	3c020005 	lui	v0,0x5
  407f78:	34425f90 	ori	v0,v0,0x5f90
  407f7c:	005d1021 	addu	v0,v0,sp
  407f80:	8c450000 	lw	a1,0(v0)
  407f84:	02003021 	move	a2,s0
  407f88:	8f998118 	lw	t9,-32488(gp)
  407f8c:	0320f809 	jalr	t9
  407f90:	24070200 	li	a3,512
  407f94:	8fbc0028 	lw	gp,40(sp)
  407f98:	1440000b 	bnez	v0,407fc8 <PushDCHEventNotifyCheck@@Base+0xdb8>
  407f9c:	02350018 	mult	s1,s5
  407fa0:	00002012 	mflo	a0
  407fa4:	00962021 	addu	a0,a0,s6
  407fa8:	02642021 	addu	a0,s3,a0
  407fac:	24841529 	addiu	a0,a0,5417
[31m  407fb0:	8f998220 	lw	t9,strcpy[0m
  407fb4:	0320f809 	jalr	t9
  407fb8:	02002821 	move	a1,s0
--
  408034:	10000002 	b	408040 <PushDCHEventNotifyCheck@@Base+0xe30>
  408038:	ae82ffb8 	sw	v0,-72(s4)
  40803c:	ae80ffb8 	sw	zero,-72(s4)
  408040:	02002021 	move	a0,s0
  408044:	00002821 	move	a1,zero
  408048:	8f9980d4 	lw	t9,-32556(gp)
  40804c:	0320f809 	jalr	t9
  408050:	24060200 	li	a2,512
  408054:	8fbc0028 	lw	gp,40(sp)
  408058:	02402021 	move	a0,s2
  40805c:	3c030005 	lui	v1,0x5
  408060:	34635fac 	ori	v1,v1,0x5fac
  408064:	007d1821 	addu	v1,v1,sp
  408068:	8c650000 	lw	a1,0(v1)
  40806c:	02003021 	move	a2,s0
  408070:	8f998118 	lw	t9,-32488(gp)
  408074:	0320f809 	jalr	t9
  408078:	24070200 	li	a3,512
  40807c:	8fbc0028 	lw	gp,40(sp)
  408080:	1440000b 	bnez	v0,4080b0 <PushDCHEventNotifyCheck@@Base+0xea0>
  408084:	02350018 	mult	s1,s5
  408088:	00002012 	mflo	a0
  40808c:	00962021 	addu	a0,a0,s6
  408090:	24841550 	addiu	a0,a0,5456
  408094:	02642021 	addu	a0,s3,a0
[31m  408098:	8f998220 	lw	t9,strcpy[0m
  40809c:	0320f809 	jalr	t9
  4080a0:	02002821 	move	a1,s0
--
  408184:	0320f809 	jalr	t9
  408188:	24060200 	li	a2,512
  40818c:	8fbc0028 	lw	gp,40(sp)
  408190:	3c060005 	lui	a2,0x5
  408194:	34c65fb4 	ori	a2,a2,0x5fb4
  408198:	00dd3021 	addu	a2,a2,sp
  40819c:	8cc40000 	lw	a0,0(a2)
  4081a0:	3c050041 	lui	a1,0x41
  4081a4:	24a54cec 	addiu	a1,a1,19692
  4081a8:	02003021 	move	a2,s0
  4081ac:	8f998118 	lw	t9,-32488(gp)
  4081b0:	0320f809 	jalr	t9
  4081b4:	24070200 	li	a3,512
  4081b8:	8fbc0028 	lw	gp,40(sp)
  4081bc:	14400010 	bnez	v0,408200 <PushDCHEventNotifyCheck@@Base+0xff0>
  4081c0:	24022ab0 	li	v0,10928
  4081c4:	24042ab0 	li	a0,10928
  4081c8:	3c020005 	lui	v0,0x5
  4081cc:	34425fbc 	ori	v0,v0,0x5fbc
  4081d0:	005d1021 	addu	v0,v0,sp
  4081d4:	8c420000 	lw	v0,0(v0)
  4081d8:	00440018 	mult	v0,a0
  4081dc:	00002012 	mflo	a0
  4081e0:	24842a78 	addiu	a0,a0,10872
  4081e4:	02442021 	addu	a0,s2,a0
[31m  4081e8:	8f998220 	lw	t9,strcpy[0m
  4081ec:	0320f809 	jalr	t9
  4081f0:	02002821 	move	a1,s0
--
  40ba40:	8f998104 	lw	t9,-32508(gp)
  40ba44:	0320f809 	jalr	t9
  40ba48:	24a54c2c 	addiu	a1,a1,19500
  40ba4c:	8fbc0028 	lw	gp,40(sp)
  40ba50:	14400003 	bnez	v0,40ba60 <PushDCHEventNotifyCheck@@Base+0x4850>
  40ba54:	24020001 	li	v0,1
  40ba58:	10000004 	b	40ba6c <PushDCHEventNotifyCheck@@Base+0x485c>
  40ba5c:	ae220004 	sw	v0,4(s1)
  40ba60:	10000002 	b	40ba6c <PushDCHEventNotifyCheck@@Base+0x485c>
  40ba64:	ae200004 	sw	zero,4(s1)
  40ba68:	ae200004 	sw	zero,4(s1)
  40ba6c:	03c02021 	move	a0,s8
  40ba70:	3c050041 	lui	a1,0x41
  40ba74:	8f998108 	lw	t9,-32504(gp)
  40ba78:	0320f809 	jalr	t9
  40ba7c:	24a54c34 	addiu	a1,a1,19508
  40ba80:	8fbc0028 	lw	gp,40(sp)
  40ba84:	1040000d 	beqz	v0,40babc <PushDCHEventNotifyCheck@@Base+0x48ac>
  40ba88:	24030556 	li	v1,1366
  40ba8c:	02430018 	mult	s2,v1
  40ba90:	00001812 	mflo	v1
  40ba94:	24630001 	addiu	v1,v1,1
  40ba98:	000318c0 	sll	v1,v1,0x3
  40ba9c:	27a40030 	addiu	a0,sp,48
  40baa0:	00832021 	addu	a0,a0,v1
[31m  40baa4:	8f998220 	lw	t9,strcpy[0m
  40baa8:	0320f809 	jalr	t9
  40baac:	00402821 	move	a1,v0
  40bab0:	8fbc0028 	lw	gp,40(sp)
  40bab4:	1000000b 	b	40bae4 <PushDCHEventNotifyCheck@@Base+0x48d4>
  40bab8:	03c02021 	move	a0,s8
  40babc:	24020556 	li	v0,1366
  40bac0:	02420018 	mult	s2,v0
  40bac4:	00001012 	mflo	v0
  40bac8:	24420001 	addiu	v0,v0,1
  40bacc:	000210c0 	sll	v0,v0,0x3
  40bad0:	03a21021 	addu	v0,sp,v0
  40bad4:	3c030041 	lui	v1,0x41
  40bad8:	9063631c 	lbu	v1,25372(v1)
  40badc:	a0430030 	sb	v1,48(v0)
  40bae0:	03c02021 	move	a0,s8
  40bae4:	3c050041 	lui	a1,0x41
  40bae8:	8f998108 	lw	t9,-32504(gp)
  40baec:	0320f809 	jalr	t9
  40baf0:	24a54c40 	addiu	a1,a1,19520
  40baf4:	8fbc0028 	lw	gp,40(sp)
  40baf8:	1040000b 	beqz	v0,40bb28 <PushDCHEventNotifyCheck@@Base+0x4918>
  40bafc:	24042ab0 	li	a0,10928
  40bb00:	02440018 	mult	s2,a0
  40bb04:	00002012 	mflo	a0
  40bb08:	03a42021 	addu	a0,sp,a0
  40bb0c:	24840059 	addiu	a0,a0,89
[31m  40bb10:	8f998220 	lw	t9,strcpy[0m
  40bb14:	0320f809 	jalr	t9
  40bb18:	00402821 	move	a1,v0
--
  40bc48:	007d1821 	addu	v1,v1,sp
  40bc4c:	8c640000 	lw	a0,0(v1)
  40bc50:	8f99812c 	lw	t9,-32468(gp)
  40bc54:	0320f809 	jalr	t9
  40bc58:	02002821 	move	a1,s0
  40bc5c:	8fbc0028 	lw	gp,40(sp)
  40bc60:	00408821 	move	s1,v0
  40bc64:	00402021 	move	a0,v0
  40bc68:	3c020005 	lui	v0,0x5
  40bc6c:	344287f8 	ori	v0,v0,0x87f8
  40bc70:	005d1021 	addu	v0,v0,sp
  40bc74:	8c450000 	lw	a1,0(v0)
  40bc78:	8f998108 	lw	t9,-32504(gp)
  40bc7c:	0320f809 	jalr	t9
  40bc80:	00000000 	nop
  40bc84:	8fbc0028 	lw	gp,40(sp)
  40bc88:	1040000e 	beqz	v0,40bcc4 <PushDCHEventNotifyCheck@@Base+0x4ab4>
  40bc8c:	001020c0 	sll	a0,s0,0x3
  40bc90:	00101940 	sll	v1,s0,0x5
  40bc94:	00832021 	addu	a0,a0,v1
  40bc98:	00902021 	addu	a0,a0,s0
  40bc9c:	00042080 	sll	a0,a0,0x2
  40bca0:	00932021 	addu	a0,a0,s3
  40bca4:	24840070 	addiu	a0,a0,112
  40bca8:	02842021 	addu	a0,s4,a0
[31m  40bcac:	8f998220 	lw	t9,strcpy[0m
  40bcb0:	0320f809 	jalr	t9
  40bcb4:	00402821 	move	a1,v0
--
  40bd0c:	00000000 	nop
  40bd10:	8f99806c 	lw	t9,-32660(gp)
  40bd14:	0320f809 	jalr	t9
  40bd18:	00402021 	move	a0,v0
  40bd1c:	8fbc0028 	lw	gp,40(sp)
  40bd20:	10000002 	b	40bd2c <PushDCHEventNotifyCheck@@Base+0x4b1c>
  40bd24:	aee2ffb8 	sw	v0,-72(s7)
  40bd28:	aee0ffb8 	sw	zero,-72(s7)
  40bd2c:	3c020005 	lui	v0,0x5
  40bd30:	34428800 	ori	v0,v0,0x8800
  40bd34:	005d1021 	addu	v0,v0,sp
  40bd38:	8c450000 	lw	a1,0(v0)
  40bd3c:	8f998108 	lw	t9,-32504(gp)
  40bd40:	0320f809 	jalr	t9
  40bd44:	02202021 	move	a0,s1
  40bd48:	8fbc0028 	lw	gp,40(sp)
  40bd4c:	1040000e 	beqz	v0,40bd88 <PushDCHEventNotifyCheck@@Base+0x4b78>
  40bd50:	001020c0 	sll	a0,s0,0x3
  40bd54:	00101940 	sll	v1,s0,0x5
  40bd58:	00832021 	addu	a0,a0,v1
  40bd5c:	00902021 	addu	a0,a0,s0
  40bd60:	00042080 	sll	a0,a0,0x2
  40bd64:	00932021 	addu	a0,a0,s3
  40bd68:	24840088 	addiu	a0,a0,136
  40bd6c:	02842021 	addu	a0,s4,a0
[31m  40bd70:	8f998220 	lw	t9,strcpy[0m
  40bd74:	0320f809 	jalr	t9
  40bd78:	00402821 	move	a1,v0
--
  40bd8c:	00101140 	sll	v0,s0,0x5
  40bd90:	00621021 	addu	v0,v1,v0
  40bd94:	00501021 	addu	v0,v0,s0
  40bd98:	00021080 	sll	v0,v0,0x2
  40bd9c:	00531021 	addu	v0,v0,s3
  40bda0:	02821021 	addu	v0,s4,v0
  40bda4:	92a3631c 	lbu	v1,25372(s5)
  40bda8:	a0430088 	sb	v1,136(v0)
  40bdac:	3c030005 	lui	v1,0x5
  40bdb0:	34638804 	ori	v1,v1,0x8804
  40bdb4:	007d1821 	addu	v1,v1,sp
  40bdb8:	8c650000 	lw	a1,0(v1)
  40bdbc:	8f998108 	lw	t9,-32504(gp)
  40bdc0:	0320f809 	jalr	t9
  40bdc4:	02202021 	move	a0,s1
  40bdc8:	8fbc0028 	lw	gp,40(sp)
  40bdcc:	1040000e 	beqz	v0,40be08 <PushDCHEventNotifyCheck@@Base+0x4bf8>
  40bdd0:	001020c0 	sll	a0,s0,0x3
  40bdd4:	00101940 	sll	v1,s0,0x5
  40bdd8:	00832021 	addu	a0,a0,v1
  40bddc:	00902021 	addu	a0,a0,s0
  40bde0:	00042080 	sll	a0,a0,0x2
  40bde4:	00932021 	addu	a0,a0,s3
  40bde8:	02842021 	addu	a0,s4,a0
  40bdec:	248400a9 	addiu	a0,a0,169
[31m  40bdf0:	8f998220 	lw	t9,strcpy[0m
  40bdf4:	0320f809 	jalr	t9
  40bdf8:	00402821 	move	a1,v0
--
  40be50:	00000000 	nop
  40be54:	8f99806c 	lw	t9,-32660(gp)
  40be58:	0320f809 	jalr	t9
  40be5c:	00402021 	move	a0,v0
  40be60:	8fbc0028 	lw	gp,40(sp)
  40be64:	10000002 	b	40be70 <PushDCHEventNotifyCheck@@Base+0x4c60>
  40be68:	aee20000 	sw	v0,0(s7)
  40be6c:	aee00000 	sw	zero,0(s7)
  40be70:	3c030005 	lui	v1,0x5
  40be74:	34638810 	ori	v1,v1,0x8810
  40be78:	007d1821 	addu	v1,v1,sp
  40be7c:	8c650000 	lw	a1,0(v1)
  40be80:	8f998108 	lw	t9,-32504(gp)
  40be84:	0320f809 	jalr	t9
  40be88:	02202021 	move	a0,s1
  40be8c:	8fbc0028 	lw	gp,40(sp)
  40be90:	1040000e 	beqz	v0,40becc <PushDCHEventNotifyCheck@@Base+0x4cbc>
  40be94:	001020c0 	sll	a0,s0,0x3
  40be98:	00101940 	sll	v1,s0,0x5
  40be9c:	00832021 	addu	a0,a0,v1
  40bea0:	00902021 	addu	a0,a0,s0
  40bea4:	00042080 	sll	a0,a0,0x2
  40bea8:	00932021 	addu	a0,a0,s3
  40beac:	248400d0 	addiu	a0,a0,208
  40beb0:	02842021 	addu	a0,s4,a0
[31m  40beb4:	8f998220 	lw	t9,strcpy[0m
  40beb8:	0320f809 	jalr	t9
  40bebc:	00402821 	move	a1,v0
--
  40bfe4:	100000a3 	b	40c274 <PushDCHEventNotifyCheck@@Base+0x5064>
  40bfe8:	ac510000 	sw	s1,0(v0)
  40bfec:	346387e4 	ori	v1,v1,0x87e4
  40bff0:	007d1821 	addu	v1,v1,sp
  40bff4:	8c640000 	lw	a0,0(v1)
  40bff8:	8f99812c 	lw	t9,-32468(gp)
  40bffc:	0320f809 	jalr	t9
  40c000:	02002821 	move	a1,s0
  40c004:	8fbc0028 	lw	gp,40(sp)
  40c008:	00408821 	move	s1,v0
  40c00c:	00402021 	move	a0,v0
  40c010:	3c020005 	lui	v0,0x5
  40c014:	344287f8 	ori	v0,v0,0x87f8
  40c018:	005d1021 	addu	v0,v0,sp
  40c01c:	8c450000 	lw	a1,0(v0)
  40c020:	8f998108 	lw	t9,-32504(gp)
  40c024:	0320f809 	jalr	t9
  40c028:	00000000 	nop
  40c02c:	8fbc0028 	lw	gp,40(sp)
  40c030:	1040000b 	beqz	v0,40c060 <PushDCHEventNotifyCheck@@Base+0x4e50>
  40c034:	02140018 	mult	s0,s4
  40c038:	00002012 	mflo	a0
  40c03c:	00952021 	addu	a0,a0,s5
  40c040:	248414f0 	addiu	a0,a0,5360
  40c044:	02c42021 	addu	a0,s6,a0
[31m  40c048:	8f998220 	lw	t9,strcpy[0m
  40c04c:	0320f809 	jalr	t9
  40c050:	00402821 	move	a1,v0
--
  40c08c:	02202021 	move	a0,s1
  40c090:	8fbc0028 	lw	gp,40(sp)
  40c094:	10400007 	beqz	v0,40c0b4 <PushDCHEventNotifyCheck@@Base+0x4ea4>
  40c098:	00000000 	nop
  40c09c:	8f99806c 	lw	t9,-32660(gp)
  40c0a0:	0320f809 	jalr	t9
  40c0a4:	00402021 	move	a0,v0
  40c0a8:	8fbc0028 	lw	gp,40(sp)
  40c0ac:	10000002 	b	40c0b8 <PushDCHEventNotifyCheck@@Base+0x4ea8>
  40c0b0:	ae62ff70 	sw	v0,-144(s3)
  40c0b4:	ae60ff70 	sw	zero,-144(s3)
  40c0b8:	3c030005 	lui	v1,0x5
  40c0bc:	34638800 	ori	v1,v1,0x8800
  40c0c0:	007d1821 	addu	v1,v1,sp
  40c0c4:	8c650000 	lw	a1,0(v1)
  40c0c8:	8f998108 	lw	t9,-32504(gp)
  40c0cc:	0320f809 	jalr	t9
  40c0d0:	02202021 	move	a0,s1
  40c0d4:	8fbc0028 	lw	gp,40(sp)
  40c0d8:	1040000b 	beqz	v0,40c108 <PushDCHEventNotifyCheck@@Base+0x4ef8>
  40c0dc:	02140018 	mult	s0,s4
  40c0e0:	00002012 	mflo	a0
  40c0e4:	00952021 	addu	a0,a0,s5
  40c0e8:	24841508 	addiu	a0,a0,5384
  40c0ec:	02c42021 	addu	a0,s6,a0
[31m  40c0f0:	8f998220 	lw	t9,strcpy[0m
  40c0f4:	0320f809 	jalr	t9
  40c0f8:	00402821 	move	a1,v0
  40c0fc:	8fbc0028 	lw	gp,40(sp)
  40c100:	10000007 	b	40c120 <PushDCHEventNotifyCheck@@Base+0x4f10>
  40c104:	3c020005 	lui	v0,0x5
  40c108:	00001012 	mflo	v0
  40c10c:	00551021 	addu	v0,v0,s5
  40c110:	02c21021 	addu	v0,s6,v0
  40c114:	92e3631c 	lbu	v1,25372(s7)
  40c118:	a0431508 	sb	v1,5384(v0)
  40c11c:	3c020005 	lui	v0,0x5
  40c120:	34428804 	ori	v0,v0,0x8804
  40c124:	005d1021 	addu	v0,v0,sp
  40c128:	8c450000 	lw	a1,0(v0)
  40c12c:	8f998108 	lw	t9,-32504(gp)
  40c130:	0320f809 	jalr	t9
  40c134:	02202021 	move	a0,s1
  40c138:	8fbc0028 	lw	gp,40(sp)
  40c13c:	1040000b 	beqz	v0,40c16c <PushDCHEventNotifyCheck@@Base+0x4f5c>
  40c140:	02140018 	mult	s0,s4
  40c144:	00002012 	mflo	a0
  40c148:	00952021 	addu	a0,a0,s5
  40c14c:	02c42021 	addu	a0,s6,a0
  40c150:	24841529 	addiu	a0,a0,5417
[31m  40c154:	8f998220 	lw	t9,strcpy[0m
  40c158:	0320f809 	jalr	t9
  40c15c:	00402821 	move	a1,v0
--
  40c198:	02202021 	move	a0,s1
  40c19c:	8fbc0028 	lw	gp,40(sp)
  40c1a0:	10400007 	beqz	v0,40c1c0 <PushDCHEventNotifyCheck@@Base+0x4fb0>
  40c1a4:	00000000 	nop
  40c1a8:	8f99806c 	lw	t9,-32660(gp)
  40c1ac:	0320f809 	jalr	t9
  40c1b0:	00402021 	move	a0,v0
  40c1b4:	8fbc0028 	lw	gp,40(sp)
  40c1b8:	10000002 	b	40c1c4 <PushDCHEventNotifyCheck@@Base+0x4fb4>
  40c1bc:	ae62ffb8 	sw	v0,-72(s3)
  40c1c0:	ae60ffb8 	sw	zero,-72(s3)
  40c1c4:	3c030005 	lui	v1,0x5
  40c1c8:	34638818 	ori	v1,v1,0x8818
  40c1cc:	007d1821 	addu	v1,v1,sp
  40c1d0:	8c650000 	lw	a1,0(v1)
  40c1d4:	8f998108 	lw	t9,-32504(gp)
  40c1d8:	0320f809 	jalr	t9
  40c1dc:	02202021 	move	a0,s1
  40c1e0:	8fbc0028 	lw	gp,40(sp)
  40c1e4:	1040000b 	beqz	v0,40c214 <PushDCHEventNotifyCheck@@Base+0x5004>
  40c1e8:	02140018 	mult	s0,s4
  40c1ec:	00002012 	mflo	a0
  40c1f0:	00952021 	addu	a0,a0,s5
  40c1f4:	24841550 	addiu	a0,a0,5456
  40c1f8:	02c42021 	addu	a0,s6,a0
[31m  40c1fc:	8f998220 	lw	t9,strcpy[0m
  40c200:	0320f809 	jalr	t9
  40c204:	00402821 	move	a1,v0
--
  40c278:	346387f0 	ori	v1,v1,0x87f0
  40c27c:	007d1821 	addu	v1,v1,sp
  40c280:	8c630000 	lw	v1,0(v1)
  40c284:	0203102a 	slt	v0,s0,v1
  40c288:	10400003 	beqz	v0,40c298 <PushDCHEventNotifyCheck@@Base+0x5088>
  40c28c:	24040020 	li	a0,32
  40c290:	1604ff56 	bne	s0,a0,40bfec <PushDCHEventNotifyCheck@@Base+0x4ddc>
  40c294:	3c030005 	lui	v1,0x5
  40c298:	3c050005 	lui	a1,0x5
  40c29c:	34a58820 	ori	a1,a1,0x8820
  40c2a0:	00bd2821 	addu	a1,a1,sp
  40c2a4:	8cb10000 	lw	s1,0(a1)
  40c2a8:	ae302a74 	sw	s0,10868(s1)
  40c2ac:	03c02021 	move	a0,s8
  40c2b0:	3c050041 	lui	a1,0x41
  40c2b4:	8f998108 	lw	t9,-32504(gp)
  40c2b8:	0320f809 	jalr	t9
  40c2bc:	24a54cec 	addiu	a1,a1,19692
  40c2c0:	8fbc0028 	lw	gp,40(sp)
  40c2c4:	1040000b 	beqz	v0,40c2f4 <PushDCHEventNotifyCheck@@Base+0x50e4>
  40c2c8:	24042ab0 	li	a0,10928
  40c2cc:	02440018 	mult	s2,a0
  40c2d0:	00002012 	mflo	a0
  40c2d4:	03a42021 	addu	a0,sp,a0
  40c2d8:	24842aa8 	addiu	a0,a0,10920
[31m  40c2dc:	8f998220 	lw	t9,strcpy[0m
  40c2e0:	0320f809 	jalr	t9
  40c2e4:	00402821 	move	a1,v0
--
  40c520:	009d2021 	addu	a0,a0,sp
  40c524:	8c840000 	lw	a0,0(a0)
  40c528:	3c050005 	lui	a1,0x5
  40c52c:	00851821 	addu	v1,a0,a1
  40c530:	10000007 	b	40c550 <PushDCHEventNotifyCheck@@Base+0x5340>
  40c534:	ac625600 	sw	v0,22016(v1)
  40c538:	346387f0 	ori	v1,v1,0x87f0
  40c53c:	007d1821 	addu	v1,v1,sp
  40c540:	8c630000 	lw	v1,0(v1)
  40c544:	3c040005 	lui	a0,0x5
  40c548:	00641021 	addu	v0,v1,a0
  40c54c:	ac405600 	sw	zero,22016(v0)
  40c550:	02a02021 	move	a0,s5
  40c554:	3c050041 	lui	a1,0x41
  40c558:	8f998108 	lw	t9,-32504(gp)
  40c55c:	0320f809 	jalr	t9
  40c560:	24a55160 	addiu	a1,a1,20832
  40c564:	8fbc0028 	lw	gp,40(sp)
  40c568:	1040000c 	beqz	v0,40c59c <PushDCHEventNotifyCheck@@Base+0x538c>
  40c56c:	3c030005 	lui	v1,0x5
  40c570:	3c050005 	lui	a1,0x5
  40c574:	34a58824 	ori	a1,a1,0x8824
  40c578:	00bd2821 	addu	a1,a1,sp
  40c57c:	8ca50000 	lw	a1,0(a1)
  40c580:	24a40004 	addiu	a0,a1,4
[31m  40c584:	8f998220 	lw	t9,strcpy[0m
  40c588:	0320f809 	jalr	t9
  40c58c:	00402821 	move	a1,v0
--
  40c6ac:	005d1021 	addu	v0,v0,sp
  40c6b0:	100000bc 	b	40c9a4 <PushDCHEventNotifyCheck@@Base+0x5794>
  40c6b4:	ac530000 	sw	s3,0(v0)
  40c6b8:	8f99812c 	lw	t9,-32468(gp)
  40c6bc:	0320f809 	jalr	t9
  40c6c0:	02202821 	move	a1,s1
  40c6c4:	8fbc0028 	lw	gp,40(sp)
  40c6c8:	00409821 	move	s3,v0
  40c6cc:	00402021 	move	a0,v0
  40c6d0:	8f998108 	lw	t9,-32504(gp)
  40c6d4:	0320f809 	jalr	t9
  40c6d8:	02e02821 	move	a1,s7
  40c6dc:	8fbc0028 	lw	gp,40(sp)
  40c6e0:	10400011 	beqz	v0,40c728 <PushDCHEventNotifyCheck@@Base+0x5518>
  40c6e4:	001120c0 	sll	a0,s1,0x3
  40c6e8:	00111940 	sll	v1,s1,0x5
  40c6ec:	00832021 	addu	a0,a0,v1
  40c6f0:	00912021 	addu	a0,a0,s1
  40c6f4:	00042080 	sll	a0,a0,0x2
  40c6f8:	3c030005 	lui	v1,0x5
  40c6fc:	34638824 	ori	v1,v1,0x8824
  40c700:	007d1821 	addu	v1,v1,sp
  40c704:	8c630000 	lw	v1,0(v1)
  40c708:	00832021 	addu	a0,a0,v1
  40c70c:	2484000c 	addiu	a0,a0,12
[31m  40c710:	8f998220 	lw	t9,strcpy[0m
  40c714:	0320f809 	jalr	t9
  40c718:	00402821 	move	a1,v0
--
  40c77c:	00402021 	move	a0,v0
  40c780:	8fbc0028 	lw	gp,40(sp)
  40c784:	10000002 	b	40c790 <PushDCHEventNotifyCheck@@Base+0x5580>
  40c788:	ae42ffb8 	sw	v0,-72(s2)
  40c78c:	ae40ffb8 	sw	zero,-72(s2)
  40c790:	3c020005 	lui	v0,0x5
  40c794:	344287e0 	ori	v0,v0,0x87e0
  40c798:	005d1021 	addu	v0,v0,sp
  40c79c:	8c450000 	lw	a1,0(v0)
  40c7a0:	8f998108 	lw	t9,-32504(gp)
  40c7a4:	0320f809 	jalr	t9
  40c7a8:	02602021 	move	a0,s3
  40c7ac:	8fbc0028 	lw	gp,40(sp)
  40c7b0:	10400011 	beqz	v0,40c7f8 <PushDCHEventNotifyCheck@@Base+0x55e8>
  40c7b4:	00111940 	sll	v1,s1,0x5
  40c7b8:	001120c0 	sll	a0,s1,0x3
  40c7bc:	00832021 	addu	a0,a0,v1
  40c7c0:	00912021 	addu	a0,a0,s1
  40c7c4:	00042080 	sll	a0,a0,0x2
  40c7c8:	3c030005 	lui	v1,0x5
  40c7cc:	34638824 	ori	v1,v1,0x8824
  40c7d0:	007d1821 	addu	v1,v1,sp
  40c7d4:	8c630000 	lw	v1,0(v1)
  40c7d8:	00832021 	addu	a0,a0,v1
  40c7dc:	24840024 	addiu	a0,a0,36
[31m  40c7e0:	8f998220 	lw	t9,strcpy[0m
  40c7e4:	0320f809 	jalr	t9
  40c7e8:	00402821 	move	a1,v0
--
  40c814:	009d2021 	addu	a0,a0,sp
  40c818:	8c840000 	lw	a0,0(a0)
  40c81c:	00441021 	addu	v0,v0,a0
  40c820:	9203631c 	lbu	v1,25372(s0)
  40c824:	a0430024 	sb	v1,36(v0)
  40c828:	3c020005 	lui	v0,0x5
  40c82c:	344287e4 	ori	v0,v0,0x87e4
  40c830:	005d1021 	addu	v0,v0,sp
  40c834:	8c450000 	lw	a1,0(v0)
  40c838:	8f998108 	lw	t9,-32504(gp)
  40c83c:	0320f809 	jalr	t9
  40c840:	02602021 	move	a0,s3
  40c844:	8fbc0028 	lw	gp,40(sp)
  40c848:	10400011 	beqz	v0,40c890 <PushDCHEventNotifyCheck@@Base+0x5680>
  40c84c:	00111940 	sll	v1,s1,0x5
  40c850:	001120c0 	sll	a0,s1,0x3
  40c854:	00832021 	addu	a0,a0,v1
  40c858:	00912021 	addu	a0,a0,s1
  40c85c:	00042080 	sll	a0,a0,0x2
  40c860:	3c030005 	lui	v1,0x5
  40c864:	34638824 	ori	v1,v1,0x8824
  40c868:	007d1821 	addu	v1,v1,sp
  40c86c:	8c630000 	lw	v1,0(v1)
  40c870:	00832021 	addu	a0,a0,v1
  40c874:	24840045 	addiu	a0,a0,69
[31m  40c878:	8f998220 	lw	t9,strcpy[0m
  40c87c:	0320f809 	jalr	t9
  40c880:	00402821 	move	a1,v0
--
  40c8f0:	00402021 	move	a0,v0
  40c8f4:	8fbc0028 	lw	gp,40(sp)
  40c8f8:	10000002 	b	40c904 <PushDCHEventNotifyCheck@@Base+0x56f4>
  40c8fc:	ae420000 	sw	v0,0(s2)
  40c900:	ae400000 	sw	zero,0(s2)
  40c904:	3c030005 	lui	v1,0x5
  40c908:	346387ec 	ori	v1,v1,0x87ec
  40c90c:	007d1821 	addu	v1,v1,sp
  40c910:	8c650000 	lw	a1,0(v1)
  40c914:	8f998108 	lw	t9,-32504(gp)
  40c918:	0320f809 	jalr	t9
  40c91c:	02602021 	move	a0,s3
  40c920:	8fbc0028 	lw	gp,40(sp)
  40c924:	10400011 	beqz	v0,40c96c <PushDCHEventNotifyCheck@@Base+0x575c>
  40c928:	001120c0 	sll	a0,s1,0x3
  40c92c:	00111940 	sll	v1,s1,0x5
  40c930:	00832021 	addu	a0,a0,v1
  40c934:	00912021 	addu	a0,a0,s1
  40c938:	00042080 	sll	a0,a0,0x2
  40c93c:	3c050005 	lui	a1,0x5
  40c940:	34a58824 	ori	a1,a1,0x8824
  40c944:	00bd2821 	addu	a1,a1,sp
  40c948:	8ca50000 	lw	a1,0(a1)
  40c94c:	00852021 	addu	a0,a0,a1
  40c950:	2484006c 	addiu	a0,a0,108
[31m  40c954:	8f998220 	lw	t9,strcpy[0m
  40c958:	0320f809 	jalr	t9
  40c95c:	00402821 	move	a1,v0
--
  40cafc:	acb50000 	sw	s5,0(a1)
  40cb00:	3c020005 	lui	v0,0x5
  40cb04:	34428824 	ori	v0,v0,0x8824
  40cb08:	005d1021 	addu	v0,v0,sp
  40cb0c:	8c550000 	lw	s5,0(v0)
  40cb10:	10000097 	b	40cd70 <PushDCHEventNotifyCheck@@Base+0x5b60>
  40cb14:	3c120041 	lui	s2,0x41
  40cb18:	8f99812c 	lw	t9,-32468(gp)
  40cb1c:	0320f809 	jalr	t9
  40cb20:	02802821 	move	a1,s4
  40cb24:	8fbc0028 	lw	gp,40(sp)
  40cb28:	00409821 	move	s3,v0
  40cb2c:	3c030005 	lui	v1,0x5
  40cb30:	346387e0 	ori	v1,v1,0x87e0
  40cb34:	007d1821 	addu	v1,v1,sp
  40cb38:	8c650000 	lw	a1,0(v1)
  40cb3c:	8f998108 	lw	t9,-32504(gp)
  40cb40:	0320f809 	jalr	t9
  40cb44:	00402021 	move	a0,v0
  40cb48:	8fbc0028 	lw	gp,40(sp)
  40cb4c:	1040000a 	beqz	v0,40cb78 <PushDCHEventNotifyCheck@@Base+0x5968>
  40cb50:	02910018 	mult	s4,s1
  40cb54:	00002012 	mflo	a0
  40cb58:	00952021 	addu	a0,a0,s5
  40cb5c:	2484148c 	addiu	a0,a0,5260
[31m  40cb60:	8f998220 	lw	t9,strcpy[0m
  40cb64:	0320f809 	jalr	t9
  40cb68:	00402821 	move	a1,v0
--
  40cb9c:	0320f809 	jalr	t9
  40cba0:	02602021 	move	a0,s3
  40cba4:	8fbc0028 	lw	gp,40(sp)
  40cba8:	10400007 	beqz	v0,40cbc8 <PushDCHEventNotifyCheck@@Base+0x59b8>
  40cbac:	00000000 	nop
  40cbb0:	8f99806c 	lw	t9,-32660(gp)
  40cbb4:	0320f809 	jalr	t9
  40cbb8:	00402021 	move	a0,v0
  40cbbc:	8fbc0028 	lw	gp,40(sp)
  40cbc0:	10000002 	b	40cbcc <PushDCHEventNotifyCheck@@Base+0x59bc>
  40cbc4:	ae02ff70 	sw	v0,-144(s0)
  40cbc8:	ae00ff70 	sw	zero,-144(s0)
  40cbcc:	3c030005 	lui	v1,0x5
  40cbd0:	346387e8 	ori	v1,v1,0x87e8
  40cbd4:	007d1821 	addu	v1,v1,sp
  40cbd8:	8c650000 	lw	a1,0(v1)
  40cbdc:	8f998108 	lw	t9,-32504(gp)
  40cbe0:	0320f809 	jalr	t9
  40cbe4:	02602021 	move	a0,s3
  40cbe8:	8fbc0028 	lw	gp,40(sp)
  40cbec:	1040000a 	beqz	v0,40cc18 <PushDCHEventNotifyCheck@@Base+0x5a08>
  40cbf0:	02910018 	mult	s4,s1
  40cbf4:	00002012 	mflo	a0
  40cbf8:	00952021 	addu	a0,a0,s5
  40cbfc:	248414a4 	addiu	a0,a0,5284
[31m  40cc00:	8f998220 	lw	t9,strcpy[0m
  40cc04:	0320f809 	jalr	t9
  40cc08:	00402821 	move	a1,v0
  40cc0c:	8fbc0028 	lw	gp,40(sp)
  40cc10:	10000006 	b	40cc2c <PushDCHEventNotifyCheck@@Base+0x5a1c>
  40cc14:	3c020005 	lui	v0,0x5
  40cc18:	00001012 	mflo	v0
  40cc1c:	00551021 	addu	v0,v0,s5
  40cc20:	9243631c 	lbu	v1,25372(s2)
  40cc24:	a04314a4 	sb	v1,5284(v0)
  40cc28:	3c020005 	lui	v0,0x5
  40cc2c:	344287ec 	ori	v0,v0,0x87ec
  40cc30:	005d1021 	addu	v0,v0,sp
  40cc34:	8c450000 	lw	a1,0(v0)
  40cc38:	8f998108 	lw	t9,-32504(gp)
  40cc3c:	0320f809 	jalr	t9
  40cc40:	02602021 	move	a0,s3
  40cc44:	8fbc0028 	lw	gp,40(sp)
  40cc48:	1040000a 	beqz	v0,40cc74 <PushDCHEventNotifyCheck@@Base+0x5a64>
  40cc4c:	02910018 	mult	s4,s1
  40cc50:	00002012 	mflo	a0
  40cc54:	00952021 	addu	a0,a0,s5
  40cc58:	248414c5 	addiu	a0,a0,5317
[31m  40cc5c:	8f998220 	lw	t9,strcpy[0m
  40cc60:	0320f809 	jalr	t9
  40cc64:	00402821 	move	a1,v0
--
  40cc98:	0320f809 	jalr	t9
  40cc9c:	02602021 	move	a0,s3
  40cca0:	8fbc0028 	lw	gp,40(sp)
  40cca4:	10400007 	beqz	v0,40ccc4 <PushDCHEventNotifyCheck@@Base+0x5ab4>
  40cca8:	00000000 	nop
  40ccac:	8f99806c 	lw	t9,-32660(gp)
  40ccb0:	0320f809 	jalr	t9
  40ccb4:	00402021 	move	a0,v0
  40ccb8:	8fbc0028 	lw	gp,40(sp)
  40ccbc:	10000002 	b	40ccc8 <PushDCHEventNotifyCheck@@Base+0x5ab8>
  40ccc0:	ae02ffb8 	sw	v0,-72(s0)
  40ccc4:	ae00ffb8 	sw	zero,-72(s0)
  40ccc8:	3c030005 	lui	v1,0x5
  40cccc:	346387f8 	ori	v1,v1,0x87f8
  40ccd0:	007d1821 	addu	v1,v1,sp
  40ccd4:	8c650000 	lw	a1,0(v1)
  40ccd8:	8f998108 	lw	t9,-32504(gp)
  40ccdc:	0320f809 	jalr	t9
  40cce0:	02602021 	move	a0,s3
  40cce4:	8fbc0028 	lw	gp,40(sp)
  40cce8:	1040000a 	beqz	v0,40cd14 <PushDCHEventNotifyCheck@@Base+0x5b04>
  40ccec:	02910018 	mult	s4,s1
  40ccf0:	00002012 	mflo	a0
  40ccf4:	00952021 	addu	a0,a0,s5
  40ccf8:	248414ec 	addiu	a0,a0,5356
[31m  40ccfc:	8f998220 	lw	t9,strcpy[0m
  40cd00:	0320f809 	jalr	t9
  40cd04:	00402821 	move	a1,v0
--
  40cd60:	ae020000 	sw	v0,0(s0)
  40cd64:	ae000000 	sw	zero,0(s0)
  40cd68:	26940001 	addiu	s4,s4,1
  40cd6c:	261000ac 	addiu	s0,s0,172
  40cd70:	029e102a 	slt	v0,s4,s8
  40cd74:	10400003 	beqz	v0,40cd84 <PushDCHEventNotifyCheck@@Base+0x5b74>
  40cd78:	24030020 	li	v1,32
  40cd7c:	1683ff66 	bne	s4,v1,40cb18 <PushDCHEventNotifyCheck@@Base+0x5908>
  40cd80:	02e02021 	move	a0,s7
  40cd84:	3c040005 	lui	a0,0x5
  40cd88:	34848800 	ori	a0,a0,0x8800
  40cd8c:	009d2021 	addu	a0,a0,sp
  40cd90:	8c950000 	lw	s5,0(a0)
  40cd94:	02a02021 	move	a0,s5
  40cd98:	3c050041 	lui	a1,0x41
  40cd9c:	8f998108 	lw	t9,-32504(gp)
  40cda0:	0320f809 	jalr	t9
  40cda4:	24a55170 	addiu	a1,a1,20848
  40cda8:	8fbc0028 	lw	gp,40(sp)
  40cdac:	1040000b 	beqz	v0,40cddc <PushDCHEventNotifyCheck@@Base+0x5bcc>
  40cdb0:	3c050005 	lui	a1,0x5
  40cdb4:	34a58824 	ori	a1,a1,0x8824
  40cdb8:	00bd2821 	addu	a1,a1,sp
  40cdbc:	8ca50000 	lw	a1,0(a1)
  40cdc0:	24a42a0c 	addiu	a0,a1,10764
[31m  40cdc4:	8f998220 	lw	t9,strcpy[0m
  40cdc8:	0320f809 	jalr	t9
  40cdcc:	00402821 	move	a1,v0
  40cdd0:	8fbc0028 	lw	gp,40(sp)
  40cdd4:	10000009 	b	40cdfc <PushDCHEventNotifyCheck@@Base+0x5bec>
  40cdd8:	02a02021 	move	a0,s5
  40cddc:	3c020041 	lui	v0,0x41
  40cde0:	9042631c 	lbu	v0,25372(v0)
  40cde4:	3c030005 	lui	v1,0x5
  40cde8:	34638824 	ori	v1,v1,0x8824
  40cdec:	007d1821 	addu	v1,v1,sp
  40cdf0:	8c630000 	lw	v1,0(v1)
  40cdf4:	a0622a0c 	sb	v0,10764(v1)
  40cdf8:	02a02021 	move	a0,s5
  40cdfc:	3c050041 	lui	a1,0x41
  40ce00:	8f998108 	lw	t9,-32504(gp)
  40ce04:	0320f809 	jalr	t9
  40ce08:	24a5517c 	addiu	a1,a1,20860
  40ce0c:	8fbc0028 	lw	gp,40(sp)
  40ce10:	1040000b 	beqz	v0,40ce40 <PushDCHEventNotifyCheck@@Base+0x5c30>
  40ce14:	3c050005 	lui	a1,0x5
  40ce18:	34a58824 	ori	a1,a1,0x8824
  40ce1c:	00bd2821 	addu	a1,a1,sp
  40ce20:	8ca50000 	lw	a1,0(a1)
  40ce24:	24a42a1d 	addiu	a0,a1,10781
[31m  40ce28:	8f998220 	lw	t9,strcpy[0m
  40ce2c:	0320f809 	jalr	t9
  40ce30:	00402821 	move	a1,v0
--
  40cf4c:	00002821 	move	a1,zero
  40cf50:	8f9980d4 	lw	t9,-32556(gp)
  40cf54:	0320f809 	jalr	t9
  40cf58:	24060081 	li	a2,129
  40cf5c:	8fbc0028 	lw	gp,40(sp)
  40cf60:	3c020005 	lui	v0,0x5
  40cf64:	345081ac 	ori	s0,v0,0x81ac
  40cf68:	3c030005 	lui	v1,0x5
  40cf6c:	346387f0 	ori	v1,v1,0x87f0
  40cf70:	007d1821 	addu	v1,v1,sp
  40cf74:	8c630000 	lw	v1,0(v1)
  40cf78:	00708021 	addu	s0,v1,s0
  40cf7c:	ae000000 	sw	zero,0(s0)
  40cf80:	ae000004 	sw	zero,4(s0)
  40cf84:	ae000008 	sw	zero,8(s0)
  40cf88:	ae00000c 	sw	zero,12(s0)
  40cf8c:	a2000010 	sb	zero,16(s0)
  40cf90:	24052ab0 	li	a1,10928
  40cf94:	3442883c 	ori	v0,v0,0x883c
  40cf98:	005d1021 	addu	v0,v0,sp
  40cf9c:	8c420000 	lw	v0,0(v0)
  40cfa0:	00450018 	mult	v0,a1
  40cfa4:	00002812 	mflo	a1
  40cfa8:	24a52a78 	addiu	a1,a1,10872
  40cfac:	02202021 	move	a0,s1
[31m  40cfb0:	8f998220 	lw	t9,strcpy[0m
  40cfb4:	0320f809 	jalr	t9
  40cfb8:	00652821 	addu	a1,v1,a1
  40cfbc:	8fbc0028 	lw	gp,40(sp)
  40cfc0:	02402021 	move	a0,s2
  40cfc4:	3c020005 	lui	v0,0x5
  40cfc8:	34428824 	ori	v0,v0,0x8824
  40cfcc:	005d1021 	addu	v0,v0,sp
  40cfd0:	8c420000 	lw	v0,0(v0)
[31m  40cfd4:	8f998220 	lw	t9,strcpy[0m
  40cfd8:	0320f809 	jalr	t9
  40cfdc:	24452a1d 	addiu	a1,v0,10781
--
  410b88:	00002821 	move	a1,zero
  410b8c:	8f9980d4 	lw	t9,-32556(gp)
  410b90:	0320f809 	jalr	t9
  410b94:	24060080 	li	a2,128
  410b98:	8fbc0010 	lw	gp,16(sp)
  410b9c:	02002021 	move	a0,s0
  410ba0:	00002821 	move	a1,zero
  410ba4:	8f9980d4 	lw	t9,-32556(gp)
  410ba8:	0320f809 	jalr	t9
  410bac:	24060080 	li	a2,128
  410bb0:	8fbc0010 	lw	gp,16(sp)
  410bb4:	02a02021 	move	a0,s5
  410bb8:	8f99812c 	lw	t9,-32468(gp)
  410bbc:	0320f809 	jalr	t9
  410bc0:	02202821 	move	a1,s1
  410bc4:	8fbc0010 	lw	gp,16(sp)
  410bc8:	00409021 	move	s2,v0
  410bcc:	00402021 	move	a0,v0
  410bd0:	8f998108 	lw	t9,-32504(gp)
  410bd4:	0320f809 	jalr	t9
  410bd8:	02802821 	move	a1,s4
  410bdc:	8fbc0010 	lw	gp,16(sp)
  410be0:	10400006 	beqz	v0,410bfc <PushDCHEventNotifyCheck@@Base+0x99ec>
  410be4:	00000000 	nop
  410be8:	02602021 	move	a0,s3
[31m  410bec:	8f998220 	lw	t9,strcpy[0m
  410bf0:	0320f809 	jalr	t9
  410bf4:	00402821 	move	a1,v0
--
  411088:	0320f809 	jalr	t9
  41108c:	24060081 	li	a2,129
  411090:	8fbc0010 	lw	gp,16(sp)
  411094:	afa00018 	sw	zero,24(sp)
  411098:	afa0001c 	sw	zero,28(sp)
  41109c:	afa00020 	sw	zero,32(sp)
  4110a0:	afa00024 	sw	zero,36(sp)
  4110a4:	afa00028 	sw	zero,40(sp)
  4110a8:	afa0002c 	sw	zero,44(sp)
  4110ac:	afa00030 	sw	zero,48(sp)
  4110b0:	afa00034 	sw	zero,52(sp)
  4110b4:	a3a00038 	sb	zero,56(sp)
  4110b8:	02a02021 	move	a0,s5
  4110bc:	8f99812c 	lw	t9,-32468(gp)
  4110c0:	0320f809 	jalr	t9
  4110c4:	02002821 	move	a1,s0
  4110c8:	8fbc0010 	lw	gp,16(sp)
  4110cc:	00408821 	move	s1,v0
  4110d0:	00402021 	move	a0,v0
  4110d4:	8f998108 	lw	t9,-32504(gp)
  4110d8:	0320f809 	jalr	t9
  4110dc:	02602821 	move	a1,s3
  4110e0:	8fbc0010 	lw	gp,16(sp)
  4110e4:	10400005 	beqz	v0,4110fc <PushDCHEventNotifyCheck@@Base+0x9eec>
  4110e8:	02802021 	move	a0,s4
[31m  4110ec:	8f998220 	lw	t9,strcpy[0m
  4110f0:	0320f809 	jalr	t9
  4110f4:	00402821 	move	a1,v0
--
  411598:	279cf1a0 	addiu	gp,gp,-3680
  41159c:	afbc0010 	sw	gp,16(sp)
  4115a0:	8f9980a8 	lw	t9,-32600(gp)
  4115a4:	0320f809 	jalr	t9
  4115a8:	00a08021 	move	s0,a1
  4115ac:	8fbc0010 	lw	gp,16(sp)
  4115b0:	1440000a 	bnez	v0,4115dc <push_dchevent_start@@Base+0x1b0>
  4115b4:	3c050041 	lui	a1,0x41
  4115b8:	8f82809c 	lw	v0,-32612(gp)
  4115bc:	8c440000 	lw	a0,0(v0)
  4115c0:	24a55fec 	addiu	a1,a1,24556
  4115c4:	3c060041 	lui	a2,0x41
  4115c8:	8f998154 	lw	t9,-32428(gp)
  4115cc:	0320f809 	jalr	t9
  4115d0:	24c668ec 	addiu	a2,a2,26860
  4115d4:	1000000d 	b	41160c <push_dchevent_start@@Base+0x1e0>
  4115d8:	2402ffff 	li	v0,-1
  4115dc:	8c420010 	lw	v0,16(v0)
  4115e0:	8c420000 	lw	v0,0(v0)
  4115e4:	8c440000 	lw	a0,0(v0)
  4115e8:	8f9980c0 	lw	t9,-32576(gp)
  4115ec:	0320f809 	jalr	t9
  4115f0:	00000000 	nop
  4115f4:	8fbc0010 	lw	gp,16(sp)
  4115f8:	02002021 	move	a0,s0
[31m  4115fc:	8f998220 	lw	t9,strcpy[0m
  411600:	0320f809 	jalr	t9
  411604:	00402821 	move	a1,v0
--
  412194:	00002821 	move	a1,zero
  412198:	8f9980d4 	lw	t9,-32556(gp)
  41219c:	0320f809 	jalr	t9
  4121a0:	2406001f 	li	a2,31
  4121a4:	8fbc0010 	lw	gp,16(sp)
  4121a8:	12200007 	beqz	s1,4121c8 <getTargetIPAndPort@@Base+0x88>
  4121ac:	00000000 	nop
  4121b0:	8fa200d4 	lw	v0,212(sp)
  4121b4:	10400004 	beqz	v0,4121c8 <getTargetIPAndPort@@Base+0x88>
  4121b8:	00000000 	nop
  4121bc:	8fa300d8 	lw	v1,216(sp)
  4121c0:	1460000b 	bnez	v1,4121f0 <getTargetIPAndPort@@Base+0xb0>
  4121c4:	00000000 	nop
  4121c8:	8f82809c 	lw	v0,-32612(gp)
  4121cc:	8c440000 	lw	a0,0(v0)
  4121d0:	3c050041 	lui	a1,0x41
  4121d4:	24a55ed0 	addiu	a1,a1,24272
  4121d8:	3c060041 	lui	a2,0x41
  4121dc:	8f998154 	lw	t9,-32428(gp)
  4121e0:	0320f809 	jalr	t9
  4121e4:	24c6690c 	addiu	a2,a2,26892
  4121e8:	100000d4 	b	41253c <getTargetIPAndPort@@Base+0x3fc>
  4121ec:	2410ffff 	li	s0,-1
  4121f0:	27b00018 	addiu	s0,sp,24
  4121f4:	02002021 	move	a0,s0
[31m  4121f8:	8f998220 	lw	t9,strcpy[0m
  4121fc:	0320f809 	jalr	t9
  412200:	02202821 	move	a1,s1
--
  412474:	8fa50090 	lw	a1,144(sp)
  412478:	8fa6008c 	lw	a2,140(sp)
  41247c:	8f998118 	lw	t9,-32488(gp)
  412480:	0320f809 	jalr	t9
  412484:	24070020 	li	a3,32
  412488:	8fbc0010 	lw	gp,16(sp)
  41248c:	1440001e 	bnez	v0,412508 <getTargetIPAndPort@@Base+0x3c8>
  412490:	02202021 	move	a0,s1
  412494:	8fa5009c 	lw	a1,156(sp)
  412498:	8fa60098 	lw	a2,152(sp)
  41249c:	8f998118 	lw	t9,-32488(gp)
  4124a0:	0320f809 	jalr	t9
  4124a4:	24070010 	li	a3,16
  4124a8:	8fbc0010 	lw	gp,16(sp)
  4124ac:	14400016 	bnez	v0,412508 <getTargetIPAndPort@@Base+0x3c8>
  4124b0:	00000000 	nop
  4124b4:	8fa400a0 	lw	a0,160(sp)
  4124b8:	8fa50088 	lw	a1,136(sp)
  4124bc:	8f998104 	lw	t9,-32508(gp)
  4124c0:	0320f809 	jalr	t9
  4124c4:	00000000 	nop
  4124c8:	8fbc0010 	lw	gp,16(sp)
  4124cc:	1440000f 	bnez	v0,41250c <getTargetIPAndPort@@Base+0x3cc>
  4124d0:	26520001 	addiu	s2,s2,1
  4124d4:	8fa400d4 	lw	a0,212(sp)
[31m  4124d8:	8f998220 	lw	t9,strcpy[0m
  4124dc:	0320f809 	jalr	t9
  4124e0:	27a50068 	addiu	a1,sp,104

[0m
[[0;33m*[0m] Function [0;33mstrcpy[0m used [0;33m55[0m times [0;33mhnap_push_service[0m

