[0m
[[0;33m*[0m] Function [0;33mfprintf[0m tear down of [0;33mxtables-multi[0m

  404f08:	0320f809 	jalr	t9
  404f0c:	27de2cd0 	addiu	s8,s8,11472
  404f10:	24170068 	li	s7,104
  404f14:	8fbc0018 	lw	gp,24(sp)
  404f18:	24160076 	li	s6,118
  404f1c:	3c150047 	lui	s5,0x47
  404f20:	24120001 	li	s2,1
  404f24:	24140063 	li	s4,99
  404f28:	10000018 	b	404f8c <main@@Base+0x10ac>
  404f2c:	3c130047 	lui	s3,0x47
  404f30:	1057000d 	beq	v0,s7,404f68 <main@@Base+0x1088>
  404f34:	3c050044 	lui	a1,0x44
  404f38:	10560005 	beq	v0,s6,404f50 <main@@Base+0x1070>
  404f3c:	00000000 	nop
  404f40:	14540012 	bne	v0,s4,404f8c <main@@Base+0x10ac>
  404f44:	00000000 	nop
  404f48:	10000010 	b	404f8c <main@@Base+0x10ac>
  404f4c:	ae720120 	sw	s2,288(s3)
  404f50:	8f9984cc 	lw	t9,-31540(gp)
  404f54:	0320f809 	jalr	t9
  404f58:	03c02021 	move	a0,s8
  404f5c:	8fbc0018 	lw	gp,24(sp)
  404f60:	1000000a 	b	404f8c <main@@Base+0x10ac>
  404f64:	aeb20124 	sw	s2,292(s5)
  404f68:	8f8281c4 	lw	v0,-32316(gp)
[31m  404f6c:	8f9983a8 	lw	t9,fprintf[0m
  404f70:	3c060044 	lui	a2,0x44
  404f74:	8c440000 	lw	a0,0(v0)
--
  404fe4:	0320f809 	jalr	t9
  404fe8:	24a55538 	addiu	a1,a1,21816
  404fec:	8fbc0018 	lw	gp,24(sp)
  404ff0:	14400027 	bnez	v0,405090 <main@@Base+0x11b0>
  404ff4:	00409021 	move	s2,v0
  404ff8:	8e620000 	lw	v0,0(s3)
  404ffc:	8f998120 	lw	t9,-32480(gp)
  405000:	00021080 	sll	v0,v0,0x2
  405004:	02228821 	addu	s1,s1,v0
  405008:	8e260000 	lw	a2,0(s1)
  40500c:	8f8281c4 	lw	v0,-32316(gp)
  405010:	8c500000 	lw	s0,0(v0)
  405014:	0320f809 	jalr	t9
  405018:	afa62c34 	sw	a2,11316(sp)
  40501c:	8fbc0018 	lw	gp,24(sp)
  405020:	8c440000 	lw	a0,0(v0)
  405024:	8f998598 	lw	t9,-31336(gp)
  405028:	0320f809 	jalr	t9
  40502c:	00000000 	nop
  405030:	3c050044 	lui	a1,0x44
  405034:	02002021 	move	a0,s0
  405038:	8fbc0018 	lw	gp,24(sp)
  40503c:	24a52d38 	addiu	a1,a1,11576
  405040:	00403821 	move	a3,v0
  405044:	8fa62c34 	lw	a2,11316(sp)
[31m  405048:	8f9983a8 	lw	t9,fprintf[0m
  40504c:	0320f809 	jalr	t9
  405050:	00000000 	nop
--
  405ba0:	8fbf2c5c 	lw	ra,11356(sp)
  405ba4:	8fbe2c58 	lw	s8,11352(sp)
  405ba8:	8fb72c54 	lw	s7,11348(sp)
  405bac:	8fb62c50 	lw	s6,11344(sp)
  405bb0:	8fb52c4c 	lw	s5,11340(sp)
  405bb4:	8fb42c48 	lw	s4,11336(sp)
  405bb8:	8fb32c44 	lw	s3,11332(sp)
  405bbc:	8fb22c40 	lw	s2,11328(sp)
  405bc0:	8fb12c3c 	lw	s1,11324(sp)
  405bc4:	8fb02c38 	lw	s0,11320(sp)
  405bc8:	ac400130 	sw	zero,304(v0)
  405bcc:	00001021 	move	v0,zero
  405bd0:	03e00008 	jr	ra
  405bd4:	27bd2c60 	addiu	sp,sp,11360
  405bd8:	0c101079 	jal	4041e4 <main@@Base+0x304>
  405bdc:	24842f58 	addiu	a0,a0,12120
  405be0:	1000ff7a 	b	4059cc <main@@Base+0x1aec>
  405be4:	00000000 	nop
  405be8:	8f8281c4 	lw	v0,-32316(gp)
  405bec:	24a52f78 	addiu	a1,a1,12152
  405bf0:	8c440000 	lw	a0,0(v0)
  405bf4:	3c020047 	lui	v0,0x47
  405bf8:	8c46b5e4 	lw	a2,-18972(v0)
  405bfc:	8f828448 	lw	v0,-31672(gp)
  405c00:	8c470000 	lw	a3,0(v0)
[31m  405c04:	8f9983a8 	lw	t9,fprintf[0m
  405c08:	1000fd10 	b	40504c <main@@Base+0x116c>
  405c0c:	00000000 	nop
--
  405ff8:	afb5003c 	sw	s5,60(sp)
  405ffc:	afb40038 	sw	s4,56(sp)
  406000:	afb30034 	sw	s3,52(sp)
  406004:	afb20030 	sw	s2,48(sp)
  406008:	afb1002c 	sw	s1,44(sp)
  40600c:	afb00028 	sw	s0,40(sp)
  406010:	3c1c0047 	lui	gp,0x47
  406014:	279c7ae0 	addiu	gp,gp,31456
  406018:	afbc0018 	sw	gp,24(sp)
  40601c:	3c020044 	lui	v0,0x44
  406020:	8f908364 	lw	s0,-31900(gp)
  406024:	24422b24 	addiu	v0,v0,11044
  406028:	00808821 	move	s1,a0
  40602c:	8f998238 	lw	t9,-32200(gp)
  406030:	afa50054 	sw	a1,84(sp)
  406034:	02002021 	move	a0,s0
  406038:	24050002 	li	a1,2
  40603c:	0320f809 	jalr	t9
  406040:	ae020004 	sw	v0,4(s0)
  406044:	8fbc0018 	lw	gp,24(sp)
  406048:	0441000a 	bgez	v0,406074 <main@@Base+0x2194>
  40604c:	3c050044 	lui	a1,0x44
  406050:	8f8281c4 	lw	v0,-32316(gp)
  406054:	8e070008 	lw	a3,8(s0)
  406058:	8c440000 	lw	a0,0(v0)
[31m  40605c:	8f9983a8 	lw	t9,fprintf[0m
  406060:	8e060004 	lw	a2,4(s0)
  406064:	0320f809 	jalr	t9
--
  4062b0:	afb22ca0 	sw	s2,11424(sp)
  4062b4:	afb12c9c 	sw	s1,11420(sp)
  4062b8:	afb02c98 	sw	s0,11416(sp)
  4062bc:	3c1c0047 	lui	gp,0x47
  4062c0:	279c7ae0 	addiu	gp,gp,31456
  4062c4:	afbc0018 	sw	gp,24(sp)
  4062c8:	8f828448 	lw	v0,-31672(gp)
  4062cc:	00809821 	move	s3,a0
  4062d0:	8f908364 	lw	s0,-31900(gp)
  4062d4:	00a08821 	move	s1,a1
  4062d8:	24050002 	li	a1,2
  4062dc:	ac400000 	sw	zero,0(v0)
  4062e0:	3c020044 	lui	v0,0x44
  4062e4:	8f998238 	lw	t9,-32200(gp)
  4062e8:	24422b3c 	addiu	v0,v0,11068
  4062ec:	02002021 	move	a0,s0
  4062f0:	ae020004 	sw	v0,4(s0)
  4062f4:	0320f809 	jalr	t9
  4062f8:	afa00020 	sw	zero,32(sp)
  4062fc:	8fbc0018 	lw	gp,24(sp)
  406300:	04410008 	bgez	v0,406324 <main@@Base+0x2444>
  406304:	3c050044 	lui	a1,0x44
  406308:	8f8281c4 	lw	v0,-32316(gp)
  40630c:	8e070008 	lw	a3,8(s0)
  406310:	8c440000 	lw	a0,0(v0)
[31m  406314:	8f9983a8 	lw	t9,fprintf[0m
  406318:	8e060004 	lw	a2,4(s0)
  40631c:	10000301 	b	406f24 <main@@Base+0x3044>
--
  4063b4:	10000022 	b	406440 <main@@Base+0x2560>
  4063b8:	00000000 	nop
  4063bc:	105e001e 	beq	v0,s8,406438 <main@@Base+0x2558>
  4063c0:	2844006f 	slti	a0,v0,111
  4063c4:	10800005 	beqz	a0,4063dc <main@@Base+0x24fc>
  4063c8:	00000000 	nop
  4063cc:	144a0020 	bne	v0,t2,406450 <main@@Base+0x2570>
  4063d0:	3c050044 	lui	a1,0x44
  4063d4:	1000000e 	b	406410 <main@@Base+0x2530>
  4063d8:	3c060044 	lui	a2,0x44
  4063dc:	10430005 	beq	v0,v1,4063f4 <main@@Base+0x2514>
  4063e0:	24050001 	li	a1,1
  4063e4:	1448001a 	bne	v0,t0,406450 <main@@Base+0x2570>
  4063e8:	00000000 	nop
  4063ec:	10000018 	b	406450 <main@@Base+0x2570>
  4063f0:	ad320dd8 	sw	s2,3544(t1)
  4063f4:	10000016 	b	406450 <main@@Base+0x2570>
  4063f8:	afa52c70 	sw	a1,11376(sp)
  4063fc:	10000014 	b	406450 <main@@Base+0x2570>
  406400:	adb20dd0 	sw	s2,3536(t5)
  406404:	3c19004c 	lui	t9,0x4c
  406408:	10000011 	b	406450 <main@@Base+0x2570>
  40640c:	af320dd4 	sw	s2,3540(t9)
  406410:	8f8281c4 	lw	v0,-32316(gp)
  406414:	24a53104 	addiu	a1,a1,12548
[31m  406418:	8f9983a8 	lw	t9,fprintf[0m
  40641c:	8c440000 	lw	a0,0(v0)
  406420:	0320f809 	jalr	t9
--
  4064e4:	8e640000 	lw	a0,0(s3)
  4064e8:	0320f809 	jalr	t9
  4064ec:	24a55538 	addiu	a1,a1,21816
  4064f0:	8fbc0018 	lw	gp,24(sp)
  4064f4:	14400023 	bnez	v0,406584 <main@@Base+0x26a4>
  4064f8:	00409821 	move	s3,v0
  4064fc:	8e420000 	lw	v0,0(s2)
  406500:	8f998120 	lw	t9,-32480(gp)
  406504:	00021080 	sll	v0,v0,0x2
  406508:	02228821 	addu	s1,s1,v0
  40650c:	8e260000 	lw	a2,0(s1)
  406510:	8f8281c4 	lw	v0,-32316(gp)
  406514:	8c500000 	lw	s0,0(v0)
  406518:	0320f809 	jalr	t9
  40651c:	afa62c78 	sw	a2,11384(sp)
  406520:	8fbc0018 	lw	gp,24(sp)
  406524:	8c440000 	lw	a0,0(v0)
  406528:	8f998598 	lw	t9,-31336(gp)
  40652c:	0320f809 	jalr	t9
  406530:	00000000 	nop
  406534:	3c050044 	lui	a1,0x44
  406538:	02002021 	move	a0,s0
  40653c:	8fbc0018 	lw	gp,24(sp)
  406540:	24a531d4 	addiu	a1,a1,12756
  406544:	8fa62c78 	lw	a2,11384(sp)
[31m  406548:	8f9983a8 	lw	t9,fprintf[0m
  40654c:	10000275 	b	406f24 <main@@Base+0x3044>
  406550:	00403821 	move	a3,v0
--
  406ebc:	8c470000 	lw	a3,0(v0)
  406ec0:	10000017 	b	406f20 <main@@Base+0x3040>
  406ec4:	24a52f78 	addiu	a1,a1,12152
  406ec8:	27a30460 	addiu	v1,sp,1120
  406ecc:	02603021 	move	a2,s3
  406ed0:	24052800 	li	a1,10240
  406ed4:	8f998510 	lw	t9,-31472(gp)
  406ed8:	00602021 	move	a0,v1
  406edc:	0320f809 	jalr	t9
  406ee0:	afa32c94 	sw	v1,11412(sp)
  406ee4:	8fbc0018 	lw	gp,24(sp)
  406ee8:	8fa32c94 	lw	v1,11412(sp)
  406eec:	1440fdaf 	bnez	v0,4065ac <main@@Base+0x26cc>
  406ef0:	00000000 	nop
  406ef4:	1240000f 	beqz	s2,406f34 <main@@Base+0x3054>
  406ef8:	3c050044 	lui	a1,0x44
  406efc:	8f838448 	lw	v1,-31672(gp)
  406f00:	8f828094 	lw	v0,-32620(gp)
  406f04:	24a52f24 	addiu	a1,a1,12068
  406f08:	8c670000 	lw	a3,0(v1)
  406f0c:	8c420000 	lw	v0,0(v0)
  406f10:	8f8381c4 	lw	v1,-32316(gp)
  406f14:	24e70001 	addiu	a3,a3,1
  406f18:	8c460004 	lw	a2,4(v0)
  406f1c:	8c640000 	lw	a0,0(v1)
[31m  406f20:	8f9983a8 	lw	t9,fprintf[0m
  406f24:	0320f809 	jalr	t9
  406f28:	00000000 	nop
--
  406f84:	afbf003c 	sw	ra,60(sp)
  406f88:	afb20038 	sw	s2,56(sp)
  406f8c:	afb10034 	sw	s1,52(sp)
  406f90:	afb00030 	sw	s0,48(sp)
  406f94:	3c1c0047 	lui	gp,0x47
  406f98:	279c7ae0 	addiu	gp,gp,31456
  406f9c:	afbc0018 	sw	gp,24(sp)
  406fa0:	3c020044 	lui	v0,0x44
  406fa4:	24423350 	addiu	v0,v0,13136
  406fa8:	00809021 	move	s2,a0
  406fac:	8f908364 	lw	s0,-31900(gp)
  406fb0:	00a08821 	move	s1,a1
  406fb4:	24050002 	li	a1,2
  406fb8:	afa20020 	sw	v0,32(sp)
  406fbc:	3c020044 	lui	v0,0x44
  406fc0:	8f998238 	lw	t9,-32200(gp)
  406fc4:	24422b10 	addiu	v0,v0,11024
  406fc8:	02002021 	move	a0,s0
  406fcc:	ae020004 	sw	v0,4(s0)
  406fd0:	0320f809 	jalr	t9
  406fd4:	afa00024 	sw	zero,36(sp)
  406fd8:	8fbc0018 	lw	gp,24(sp)
  406fdc:	0441000c 	bgez	v0,407010 <main@@Base+0x3130>
  406fe0:	3c050044 	lui	a1,0x44
  406fe4:	8f8281c4 	lw	v0,-32316(gp)
[31m  406fe8:	8f9983a8 	lw	t9,fprintf[0m
  406fec:	8c440000 	lw	a0,0(v0)
  406ff0:	8e070008 	lw	a3,8(s0)
--
  40706c:	8fa40024 	lw	a0,36(sp)
  407070:	8f9983c8 	lw	t9,-31800(gp)
  407074:	0320f809 	jalr	t9
  407078:	afa20028 	sw	v0,40(sp)
  40707c:	8fa20028 	lw	v0,40(sp)
  407080:	8fbc0018 	lw	gp,24(sp)
  407084:	14400028 	bnez	v0,407128 <main@@Base+0x3248>
  407088:	00000000 	nop
  40708c:	8f998120 	lw	t9,-32480(gp)
  407090:	0320f809 	jalr	t9
  407094:	00000000 	nop
  407098:	24030016 	li	v1,22
  40709c:	00408021 	move	s0,v0
  4070a0:	8fbc0018 	lw	gp,24(sp)
  4070a4:	8e040000 	lw	a0,0(s0)
  4070a8:	8f8281c4 	lw	v0,-32316(gp)
  4070ac:	8f9982b4 	lw	t9,-32076(gp)
  4070b0:	1483000a 	bne	a0,v1,4070dc <main@@Base+0x31fc>
  4070b4:	00000000 	nop
  4070b8:	8c510000 	lw	s1,0(v0)
  4070bc:	0320f809 	jalr	t9
  4070c0:	24040016 	li	a0,22
  4070c4:	3c050044 	lui	a1,0x44
  4070c8:	8fbc0018 	lw	gp,24(sp)
  4070cc:	02202021 	move	a0,s1
[31m  4070d0:	8f9983a8 	lw	t9,fprintf[0m
  4070d4:	10000009 	b	4070fc <main@@Base+0x321c>
  4070d8:	24a53358 	addiu	a1,a1,13144
  4070dc:	8c510000 	lw	s1,0(v0)
  4070e0:	0320f809 	jalr	t9
  4070e4:	00000000 	nop
  4070e8:	3c050044 	lui	a1,0x44
  4070ec:	8fbc0018 	lw	gp,24(sp)
  4070f0:	02202021 	move	a0,s1
  4070f4:	24a5338c 	addiu	a1,a1,13196
[31m  4070f8:	8f9983a8 	lw	t9,fprintf[0m
  4070fc:	0320f809 	jalr	t9
  407100:	00403021 	move	a2,v0
--
  4073f8:	10000007 	b	407418 <main@@Base+0x3538>
  4073fc:	00000000 	nop
  407400:	8f9985bc 	lw	t9,-31300(gp)
  407404:	8fbf002c 	lw	ra,44(sp)
  407408:	24843434 	addiu	a0,a0,13364
  40740c:	8fb00028 	lw	s0,40(sp)
  407410:	03200008 	jr	t9
  407414:	27bd0030 	addiu	sp,sp,48
  407418:	8fbf002c 	lw	ra,44(sp)
  40741c:	8fb00028 	lw	s0,40(sp)
  407420:	03e00008 	jr	ra
  407424:	27bd0030 	addiu	sp,sp,48
  407428:	27bdffe0 	addiu	sp,sp,-32
  40742c:	afbf001c 	sw	ra,28(sp)
  407430:	afb00018 	sw	s0,24(sp)
  407434:	3c1c0047 	lui	gp,0x47
  407438:	279c7ae0 	addiu	gp,gp,31456
  40743c:	afbc0010 	sw	gp,16(sp)
  407440:	8f828448 	lw	v0,-31672(gp)
  407444:	8c460000 	lw	a2,0(v0)
  407448:	2402ffff 	li	v0,-1
  40744c:	10c20008 	beq	a2,v0,407470 <main@@Base+0x3590>
  407450:	00808021 	move	s0,a0
  407454:	8f8281c4 	lw	v0,-32316(gp)
  407458:	3c050044 	lui	a1,0x44
[31m  40745c:	8f9983a8 	lw	t9,fprintf[0m
  407460:	8c440000 	lw	a0,0(v0)
  407464:	0320f809 	jalr	t9
  407468:	24a53438 	addiu	a1,a1,13368
  40746c:	8fbc0010 	lw	gp,16(sp)
  407470:	3c020047 	lui	v0,0x47
  407474:	3c050044 	lui	a1,0x44
  407478:	8c46b644 	lw	a2,-18876(v0)
  40747c:	24a53454 	addiu	a1,a1,13396
  407480:	8f8281c4 	lw	v0,-32316(gp)
[31m  407484:	8f9983a8 	lw	t9,fprintf[0m
  407488:	8c440000 	lw	a0,0(v0)
  40748c:	0320f809 	jalr	t9
--
  40828c:	8fb20020 	lw	s2,32(sp)
  408290:	8fb1001c 	lw	s1,28(sp)
  408294:	8fb00018 	lw	s0,24(sp)
  408298:	03e00008 	jr	ra
  40829c:	27bd0040 	addiu	sp,sp,64
  4082a0:	27bdffd8 	addiu	sp,sp,-40
  4082a4:	afbf0024 	sw	ra,36(sp)
  4082a8:	afb00020 	sw	s0,32(sp)
  4082ac:	3c1c0047 	lui	gp,0x47
  4082b0:	279c7ae0 	addiu	gp,gp,31456
  4082b4:	afbc0010 	sw	gp,16(sp)
  4082b8:	00808021 	move	s0,a0
  4082bc:	14800008 	bnez	a0,4082e0 <for_each_chain4@@Base+0x1c4>
  4082c0:	00c03821 	move	a3,a2
  4082c4:	3c040041 	lui	a0,0x41
  4082c8:	24060001 	li	a2,1
  4082cc:	8fbf0024 	lw	ra,36(sp)
  4082d0:	248482a0 	addiu	a0,a0,-32096
  4082d4:	8fb00020 	lw	s0,32(sp)
  4082d8:	08102047 	j	40811c <for_each_chain4@@Base>
  4082dc:	27bd0028 	addiu	sp,sp,40
  4082e0:	10a0000a 	beqz	a1,40830c <for_each_chain4@@Base+0x1f0>
  4082e4:	00803021 	move	a2,a0
  4082e8:	8f8285b8 	lw	v0,-31304(gp)
  4082ec:	3c050044 	lui	a1,0x44
[31m  4082f0:	8f9983a8 	lw	t9,fprintf[0m
  4082f4:	24a535c4 	addiu	a1,a1,13764
  4082f8:	8c440000 	lw	a0,0(v0)
--
  408540:	13200005 	beqz	t9,408558 <print_rule4@@Base+0x230>
  408544:	00000000 	nop
  408548:	0320f809 	jalr	t9
  40854c:	02602021 	move	a0,s3
  408550:	8fbc0018 	lw	gp,24(sp)
  408554:	0040a021 	move	s4,v0
  408558:	8f9985bc 	lw	t9,-31300(gp)
  40855c:	02802821 	move	a1,s4
  408560:	0320f809 	jalr	t9
  408564:	02c02021 	move	a0,s6
  408568:	8ef90030 	lw	t9,48(s7)
  40856c:	8fbc0018 	lw	gp,24(sp)
  408570:	1320000f 	beqz	t9,4085b0 <print_rule4@@Base+0x288>
  408574:	02002021 	move	a0,s0
  408578:	0320f809 	jalr	t9
  40857c:	02602821 	move	a1,s3
  408580:	8fbc0018 	lw	gp,24(sp)
  408584:	1000000a 	b	4085b0 <print_rule4@@Base+0x288>
  408588:	00000000 	nop
  40858c:	96620000 	lhu	v0,0(s3)
  408590:	10400009 	beqz	v0,4085b8 <print_rule4@@Base+0x290>
  408594:	02a2a821 	addu	s5,s5,v0
  408598:	02a2a823 	subu	s5,s5,v0
  40859c:	3c050044 	lui	a1,0x44
  4085a0:	02803021 	move	a2,s4
[31m  4085a4:	8f9983a8 	lw	t9,fprintf[0m
  4085a8:	1000002a 	b	408654 <print_rule4@@Base+0x32c>
  4085ac:	24a53620 	addiu	a1,a1,13856
--
  4085e8:	afa30014 	sw	v1,20(sp)
  4085ec:	0320f809 	jalr	t9
  4085f0:	afa20010 	sw	v0,16(sp)
  4085f4:	8fbc0018 	lw	gp,24(sp)
  4085f8:	8f9981b0 	lw	t9,-32336(gp)
  4085fc:	02402821 	move	a1,s2
  408600:	0320f809 	jalr	t9
  408604:	02002021 	move	a0,s0
  408608:	96120058 	lhu	s2,88(s0)
  40860c:	00408821 	move	s1,v0
  408610:	8fbc0018 	lw	gp,24(sp)
  408614:	02129021 	addu	s2,s0,s2
  408618:	82420002 	lb	v0,2(s2)
  40861c:	10400034 	beqz	v0,4086f0 <print_rule4@@Base+0x3c8>
  408620:	26460002 	addiu	a2,s2,2
  408624:	24050002 	li	a1,2
  408628:	8f9985d8 	lw	t9,-31272(gp)
  40862c:	00c02021 	move	a0,a2
  408630:	0320f809 	jalr	t9
  408634:	afa60020 	sw	a2,32(sp)
  408638:	8fbc0018 	lw	gp,24(sp)
  40863c:	8fa60020 	lw	a2,32(sp)
  408640:	1440000c 	bnez	v0,408674 <print_rule4@@Base+0x34c>
  408644:	00409821 	move	s3,v0
  408648:	3c050044 	lui	a1,0x44
[31m  40864c:	8f9983a8 	lw	t9,fprintf[0m
  408650:	24a53654 	addiu	a1,a1,13908
  408654:	8f8281c4 	lw	v0,-32316(gp)
--
  408680:	afa60020 	sw	a2,32(sp)
  408684:	0320f809 	jalr	t9
  408688:	02402021 	move	a0,s2
  40868c:	8fbc0018 	lw	gp,24(sp)
  408690:	00408821 	move	s1,v0
  408694:	8fa60020 	lw	a2,32(sp)
  408698:	8f9985bc 	lw	t9,-31300(gp)
  40869c:	3c040044 	lui	a0,0x44
  4086a0:	02202821 	move	a1,s1
  4086a4:	afa60020 	sw	a2,32(sp)
  4086a8:	0320f809 	jalr	t9
  4086ac:	24843678 	addiu	a0,a0,13944
  4086b0:	8e790030 	lw	t9,48(s3)
  4086b4:	8fbc0018 	lw	gp,24(sp)
  4086b8:	8fa60020 	lw	a2,32(sp)
  4086bc:	13200005 	beqz	t9,4086d4 <print_rule4@@Base+0x3ac>
  4086c0:	02002021 	move	a0,s0
  4086c4:	0320f809 	jalr	t9
  4086c8:	02402821 	move	a1,s2
  4086cc:	10000017 	b	40872c <print_rule4@@Base+0x404>
  4086d0:	00000000 	nop
  4086d4:	96430000 	lhu	v1,0(s2)
  4086d8:	24020020 	li	v0,32
  4086dc:	10620014 	beq	v1,v0,408730 <print_rule4@@Base+0x408>
  4086e0:	3c050044 	lui	a1,0x44
[31m  4086e4:	8f9983a8 	lw	t9,fprintf[0m
  4086e8:	1000ffda 	b	408654 <print_rule4@@Base+0x32c>
  4086ec:	24a53680 	addiu	a1,a1,13952
--
  408758:	8fb0002c 	lw	s0,44(sp)
  40875c:	03200008 	jr	t9
  408760:	27bd0050 	addiu	sp,sp,80

00408764 <delete_chain4@@Base>:
  408764:	27bdffd8 	addiu	sp,sp,-40
  408768:	afbf0024 	sw	ra,36(sp)
  40876c:	afb00020 	sw	s0,32(sp)
  408770:	3c1c0047 	lui	gp,0x47
  408774:	279c7ae0 	addiu	gp,gp,31456
  408778:	afbc0010 	sw	gp,16(sp)
  40877c:	00808021 	move	s0,a0
  408780:	14800008 	bnez	a0,4087a4 <delete_chain4@@Base+0x40>
  408784:	00c03821 	move	a3,a2
  408788:	3c040041 	lui	a0,0x41
  40878c:	00003021 	move	a2,zero
  408790:	8fbf0024 	lw	ra,36(sp)
  408794:	24848764 	addiu	a0,a0,-30876
  408798:	8fb00020 	lw	s0,32(sp)
  40879c:	08102047 	j	40811c <for_each_chain4@@Base>
  4087a0:	27bd0028 	addiu	sp,sp,40
  4087a4:	10a0000a 	beqz	a1,4087d0 <delete_chain4@@Base+0x6c>
  4087a8:	00803021 	move	a2,a0
  4087ac:	8f8285b8 	lw	v0,-31304(gp)
  4087b0:	3c050044 	lui	a1,0x44
[31m  4087b4:	8f9983a8 	lw	t9,fprintf[0m
  4087b8:	24a536b0 	addiu	a1,a1,14000
  4087bc:	8c440000 	lw	a0,0(v0)
--
  4087e0:	8fb00020 	lw	s0,32(sp)
  4087e4:	03200008 	jr	t9
  4087e8:	27bd0028 	addiu	sp,sp,40

004087ec <flush_entries4@@Base>:
  4087ec:	27bdffd8 	addiu	sp,sp,-40
  4087f0:	afbf0024 	sw	ra,36(sp)
  4087f4:	afb00020 	sw	s0,32(sp)
  4087f8:	3c1c0047 	lui	gp,0x47
  4087fc:	279c7ae0 	addiu	gp,gp,31456
  408800:	afbc0010 	sw	gp,16(sp)
  408804:	00808021 	move	s0,a0
  408808:	14800008 	bnez	a0,40882c <flush_entries4@@Base+0x40>
  40880c:	00c03821 	move	a3,a2
  408810:	3c040041 	lui	a0,0x41
  408814:	24060001 	li	a2,1
  408818:	8fbf0024 	lw	ra,36(sp)
  40881c:	248487ec 	addiu	a0,a0,-30740
  408820:	8fb00020 	lw	s0,32(sp)
  408824:	08102047 	j	40811c <for_each_chain4@@Base>
  408828:	27bd0028 	addiu	sp,sp,40
  40882c:	10a0000a 	beqz	a1,408858 <flush_entries4@@Base+0x6c>
  408830:	00803021 	move	a2,a0
  408834:	8f8285b8 	lw	v0,-31304(gp)
  408838:	3c050044 	lui	a1,0x44
[31m  40883c:	8f9983a8 	lw	t9,fprintf[0m
  408840:	24a536c8 	addiu	a1,a1,14024
  408844:	8c440000 	lw	a0,0(v0)
--
  409374:	8fa20130 	lw	v0,304(sp)
  409378:	8fa60184 	lw	a2,388(sp)
  40937c:	8c420054 	lw	v0,84(v0)
  409380:	8f9985e0 	lw	t9,-31264(gp)
  409384:	a4460000 	sh	a2,0(v0)
  409388:	8fa20130 	lw	v0,304(sp)
  40938c:	8c45000c 	lw	a1,12(v0)
  409390:	8c440054 	lw	a0,84(v0)
  409394:	14a00006 	bnez	a1,4093b0 <do_command4@@Base+0xb3c>
  409398:	00000000 	nop
  40939c:	8fa5013c 	lw	a1,316(sp)
  4093a0:	0320f809 	jalr	t9
  4093a4:	24840002 	addiu	a0,a0,2
  4093a8:	10000010 	b	4093ec <do_command4@@Base+0xb78>
  4093ac:	00000000 	nop
  4093b0:	0320f809 	jalr	t9
  4093b4:	24840002 	addiu	a0,a0,2
  4093b8:	8fa20130 	lw	v0,304(sp)
  4093bc:	8fbc0038 	lw	gp,56(sp)
  4093c0:	90430011 	lbu	v1,17(v0)
  4093c4:	30630001 	andi	v1,v1,0x1
  4093c8:	1460000a 	bnez	v1,4093f4 <do_command4@@Base+0xb80>
  4093cc:	3c050044 	lui	a1,0x44
  4093d0:	8f8381c4 	lw	v1,-32316(gp)
  4093d4:	8c47000c 	lw	a3,12(v0)
[31m  4093d8:	8f9983a8 	lw	t9,fprintf[0m
  4093dc:	8c640000 	lw	a0,0(v1)
  4093e0:	8fa6013c 	lw	a2,316(sp)
--
  4095a8:	8fbc0038 	lw	gp,56(sp)
  4095ac:	ac620054 	sw	v0,84(v1)
  4095b0:	8fa60184 	lw	a2,388(sp)
  4095b4:	8f9985e0 	lw	t9,-31264(gp)
  4095b8:	a4460000 	sh	a2,0(v0)
  4095bc:	8c65000c 	lw	a1,12(v1)
  4095c0:	8c640054 	lw	a0,84(v1)
  4095c4:	14a00007 	bnez	a1,4095e4 <do_command4@@Base+0xd70>
  4095c8:	00000000 	nop
  4095cc:	8c650008 	lw	a1,8(v1)
  4095d0:	24840002 	addiu	a0,a0,2
  4095d4:	0320f809 	jalr	t9
  4095d8:	afa30188 	sw	v1,392(sp)
  4095dc:	10000011 	b	409624 <do_command4@@Base+0xdb0>
  4095e0:	00000000 	nop
  4095e4:	afa30188 	sw	v1,392(sp)
  4095e8:	0320f809 	jalr	t9
  4095ec:	24840002 	addiu	a0,a0,2
  4095f0:	8fa30188 	lw	v1,392(sp)
  4095f4:	8fbc0038 	lw	gp,56(sp)
  4095f8:	90620011 	lbu	v0,17(v1)
  4095fc:	30420001 	andi	v0,v0,0x1
  409600:	1440000a 	bnez	v0,40962c <do_command4@@Base+0xdb8>
  409604:	3c050044 	lui	a1,0x44
  409608:	8f8281c4 	lw	v0,-32316(gp)
[31m  40960c:	8f9983a8 	lw	t9,fprintf[0m
  409610:	8c440000 	lw	a0,0(v0)
  409614:	8c660008 	lw	a2,8(v1)
--
  409940:	3c040044 	lui	a0,0x44
  409944:	8f9980b0 	lw	t9,-32592(gp)
  409948:	8c450000 	lw	a1,0(v0)
  40994c:	0320f809 	jalr	t9
  409950:	24844454 	addiu	a0,a0,17492
  409954:	10000018 	b	4099b8 <do_command4@@Base+0x1144>
  409958:	24040002 	li	a0,2
  40995c:	8e260000 	lw	a2,0(s1)
  409960:	80c30000 	lb	v1,0(a2)
  409964:	1462000d 	bne	v1,v0,40999c <do_command4@@Base+0x1128>
  409968:	00000000 	nop
  40996c:	80c20001 	lb	v0,1(a2)
  409970:	1440000a 	bnez	v0,40999c <do_command4@@Base+0x1128>
  409974:	00000000 	nop
  409978:	8fa20120 	lw	v0,288(sp)
  40997c:	10400004 	beqz	v0,409990 <do_command4@@Base+0x111c>
  409980:	24020001 	li	v0,1
  409984:	3c050044 	lui	a1,0x44
  409988:	1000fe3c 	b	40927c <do_command4@@Base+0xa08>
  40998c:	24a5447c 	addiu	a1,a1,17532
  409990:	afa20120 	sw	v0,288(sp)
  409994:	1000001a 	b	409a00 <do_command4@@Base+0x118c>
  409998:	a0c00000 	sb	zero,0(a2)
  40999c:	8f8281c4 	lw	v0,-32316(gp)
  4099a0:	3c050044 	lui	a1,0x44
[31m  4099a4:	8f9983a8 	lw	t9,fprintf[0m
  4099a8:	8c440000 	lw	a0,0(v0)
  4099ac:	0320f809 	jalr	t9
--
  409f40:	24844ab7 	addiu	a0,a0,19127
  409f44:	8c430000 	lw	v1,0(v0)
  409f48:	3c020044 	lui	v0,0x44
  409f4c:	24424ab0 	addiu	v0,v0,19120
  409f50:	8c790014 	lw	t9,20(v1)
  409f54:	24420001 	addiu	v0,v0,1
  409f58:	1444fffe 	bne	v0,a0,409f54 <do_command4@@Base+0x16e0>
  409f5c:	00000000 	nop
  409f60:	3c050044 	lui	a1,0x44
  409f64:	02003821 	move	a3,s0
  409f68:	24040002 	li	a0,2
  409f6c:	80460000 	lb	a2,0(v0)
  409f70:	1000ffb4 	b	409e44 <do_command4@@Base+0x15d0>
  409f74:	24a54734 	addiu	a1,a1,18228
  409f78:	8fa20130 	lw	v0,304(sp)
  409f7c:	10400019 	beqz	v0,409fe4 <do_command4@@Base+0x1770>
  409f80:	00000000 	nop
  409f84:	8f99812c 	lw	t9,-32468(gp)
  409f88:	8fa4013c 	lw	a0,316(sp)
  409f8c:	0320f809 	jalr	t9
  409f90:	02402821 	move	a1,s2
  409f94:	8fbc0038 	lw	gp,56(sp)
  409f98:	10400011 	beqz	v0,409fe0 <do_command4@@Base+0x176c>
  409f9c:	3c050044 	lui	a1,0x44
  409fa0:	8f8281c4 	lw	v0,-32316(gp)
[31m  409fa4:	8f9983a8 	lw	t9,fprintf[0m
  409fa8:	8c440000 	lw	a0,0(v0)
  409fac:	8fa6013c 	lw	a2,316(sp)
--
  40b080:	8fb401a0 	lw	s4,416(sp)
  40b084:	8fb3019c 	lw	s3,412(sp)
  40b088:	8fb20198 	lw	s2,408(sp)
  40b08c:	8fb10194 	lw	s1,404(sp)
  40b090:	8fb00190 	lw	s0,400(sp)
  40b094:	03e00008 	jr	ra
  40b098:	27bd01b8 	addiu	sp,sp,440
  40b09c:	27bdffd0 	addiu	sp,sp,-48
  40b0a0:	afbf002c 	sw	ra,44(sp)
  40b0a4:	afb20028 	sw	s2,40(sp)
  40b0a8:	afb10024 	sw	s1,36(sp)
  40b0ac:	afb00020 	sw	s0,32(sp)
  40b0b0:	3c1c0047 	lui	gp,0x47
  40b0b4:	279c7ae0 	addiu	gp,gp,31456
  40b0b8:	afbc0010 	sw	gp,16(sp)
  40b0bc:	3c020047 	lui	v0,0x47
  40b0c0:	8f9081c4 	lw	s0,-32316(gp)
  40b0c4:	2442b640 	addiu	v0,v0,-18880
  40b0c8:	00a09021 	move	s2,a1
  40b0cc:	afa60038 	sw	a2,56(sp)
  40b0d0:	00808821 	move	s1,a0
  40b0d4:	3c050044 	lui	a1,0x44
  40b0d8:	afa7003c 	sw	a3,60(sp)
  40b0dc:	24a54864 	addiu	a1,a1,18532
  40b0e0:	8c470008 	lw	a3,8(v0)
[31m  40b0e4:	8f9983a8 	lw	t9,fprintf[0m
  40b0e8:	8c460004 	lw	a2,4(v0)
  40b0ec:	27a20038 	addiu	v0,sp,56
--
  40b568:	afb5003c 	sw	s5,60(sp)
  40b56c:	afb40038 	sw	s4,56(sp)
  40b570:	afb30034 	sw	s3,52(sp)
  40b574:	afb20030 	sw	s2,48(sp)
  40b578:	afb1002c 	sw	s1,44(sp)
  40b57c:	afb00028 	sw	s0,40(sp)
  40b580:	3c1c0047 	lui	gp,0x47
  40b584:	279c7ae0 	addiu	gp,gp,31456
  40b588:	afbc0018 	sw	gp,24(sp)
  40b58c:	3c020044 	lui	v0,0x44
  40b590:	8f90810c 	lw	s0,-32500(gp)
  40b594:	24422b84 	addiu	v0,v0,11140
  40b598:	00808821 	move	s1,a0
  40b59c:	8f998238 	lw	t9,-32200(gp)
  40b5a0:	afa50054 	sw	a1,84(sp)
  40b5a4:	02002021 	move	a0,s0
  40b5a8:	2405000a 	li	a1,10
  40b5ac:	0320f809 	jalr	t9
  40b5b0:	ae020004 	sw	v0,4(s0)
  40b5b4:	8fbc0018 	lw	gp,24(sp)
  40b5b8:	0441000a 	bgez	v0,40b5e4 <do_command4@@Base+0x2d70>
  40b5bc:	3c050044 	lui	a1,0x44
  40b5c0:	8f8281c4 	lw	v0,-32316(gp)
  40b5c4:	8e070008 	lw	a3,8(s0)
  40b5c8:	8c440000 	lw	a0,0(v0)
[31m  40b5cc:	8f9983a8 	lw	t9,fprintf[0m
  40b5d0:	8e060004 	lw	a2,4(s0)
  40b5d4:	0320f809 	jalr	t9
--
  40b820:	afb22ca0 	sw	s2,11424(sp)
  40b824:	afb12c9c 	sw	s1,11420(sp)
  40b828:	afb02c98 	sw	s0,11416(sp)
  40b82c:	3c1c0047 	lui	gp,0x47
  40b830:	279c7ae0 	addiu	gp,gp,31456
  40b834:	afbc0018 	sw	gp,24(sp)
  40b838:	8f828448 	lw	v0,-31672(gp)
  40b83c:	00809821 	move	s3,a0
  40b840:	8f90810c 	lw	s0,-32500(gp)
  40b844:	00a08821 	move	s1,a1
  40b848:	2405000a 	li	a1,10
  40b84c:	ac400000 	sw	zero,0(v0)
  40b850:	3c020044 	lui	v0,0x44
  40b854:	8f998238 	lw	t9,-32200(gp)
  40b858:	24422b9c 	addiu	v0,v0,11164
  40b85c:	02002021 	move	a0,s0
  40b860:	ae020004 	sw	v0,4(s0)
  40b864:	0320f809 	jalr	t9
  40b868:	afa00020 	sw	zero,32(sp)
  40b86c:	8fbc0018 	lw	gp,24(sp)
  40b870:	04410008 	bgez	v0,40b894 <do_command4@@Base+0x3020>
  40b874:	3c050044 	lui	a1,0x44
  40b878:	8f8281c4 	lw	v0,-32316(gp)
  40b87c:	8e070008 	lw	a3,8(s0)
  40b880:	8c440000 	lw	a0,0(v0)
[31m  40b884:	8f9983a8 	lw	t9,fprintf[0m
  40b888:	8e060004 	lw	a2,4(s0)
  40b88c:	10000301 	b	40c494 <do_command4@@Base+0x3c20>
--
  40b924:	10000022 	b	40b9b0 <do_command4@@Base+0x313c>
  40b928:	00000000 	nop
  40b92c:	105e001e 	beq	v0,s8,40b9a8 <do_command4@@Base+0x3134>
  40b930:	2844006f 	slti	a0,v0,111
  40b934:	10800005 	beqz	a0,40b94c <do_command4@@Base+0x30d8>
  40b938:	00000000 	nop
  40b93c:	144a0020 	bne	v0,t2,40b9c0 <do_command4@@Base+0x314c>
  40b940:	3c050044 	lui	a1,0x44
  40b944:	1000000e 	b	40b980 <do_command4@@Base+0x310c>
  40b948:	3c060044 	lui	a2,0x44
  40b94c:	10430005 	beq	v0,v1,40b964 <do_command4@@Base+0x30f0>
  40b950:	24050001 	li	a1,1
  40b954:	1448001a 	bne	v0,t0,40b9c0 <do_command4@@Base+0x314c>
  40b958:	00000000 	nop
  40b95c:	10000018 	b	40b9c0 <do_command4@@Base+0x314c>
  40b960:	ad3211f8 	sw	s2,4600(t1)
  40b964:	10000016 	b	40b9c0 <do_command4@@Base+0x314c>
  40b968:	afa52c70 	sw	a1,11376(sp)
  40b96c:	10000014 	b	40b9c0 <do_command4@@Base+0x314c>
  40b970:	adb211f0 	sw	s2,4592(t5)
  40b974:	3c19004c 	lui	t9,0x4c
  40b978:	10000011 	b	40b9c0 <do_command4@@Base+0x314c>
  40b97c:	af3211f4 	sw	s2,4596(t9)
  40b980:	8f8281c4 	lw	v0,-32316(gp)
  40b984:	24a54b04 	addiu	a1,a1,19204
[31m  40b988:	8f9983a8 	lw	t9,fprintf[0m
  40b98c:	8c440000 	lw	a0,0(v0)
  40b990:	0320f809 	jalr	t9
--
  40ba54:	8e640000 	lw	a0,0(s3)
  40ba58:	0320f809 	jalr	t9
  40ba5c:	24a55538 	addiu	a1,a1,21816
  40ba60:	8fbc0018 	lw	gp,24(sp)
  40ba64:	14400023 	bnez	v0,40baf4 <do_command4@@Base+0x3280>
  40ba68:	00409821 	move	s3,v0
  40ba6c:	8e420000 	lw	v0,0(s2)
  40ba70:	8f998120 	lw	t9,-32480(gp)
  40ba74:	00021080 	sll	v0,v0,0x2
  40ba78:	02228821 	addu	s1,s1,v0
  40ba7c:	8e260000 	lw	a2,0(s1)
  40ba80:	8f8281c4 	lw	v0,-32316(gp)
  40ba84:	8c500000 	lw	s0,0(v0)
  40ba88:	0320f809 	jalr	t9
  40ba8c:	afa62c78 	sw	a2,11384(sp)
  40ba90:	8fbc0018 	lw	gp,24(sp)
  40ba94:	8c440000 	lw	a0,0(v0)
  40ba98:	8f998598 	lw	t9,-31336(gp)
  40ba9c:	0320f809 	jalr	t9
  40baa0:	00000000 	nop
  40baa4:	3c050044 	lui	a1,0x44
  40baa8:	02002021 	move	a0,s0
  40baac:	8fbc0018 	lw	gp,24(sp)
  40bab0:	24a531d4 	addiu	a1,a1,12756
  40bab4:	8fa62c78 	lw	a2,11384(sp)
[31m  40bab8:	8f9983a8 	lw	t9,fprintf[0m
  40babc:	10000275 	b	40c494 <do_command4@@Base+0x3c20>
  40bac0:	00403821 	move	a3,v0
--
  40c42c:	8c470000 	lw	a3,0(v0)
  40c430:	10000017 	b	40c490 <do_command4@@Base+0x3c1c>
  40c434:	24a52f78 	addiu	a1,a1,12152
  40c438:	27a30460 	addiu	v1,sp,1120
  40c43c:	02603021 	move	a2,s3
  40c440:	24052800 	li	a1,10240
  40c444:	8f998510 	lw	t9,-31472(gp)
  40c448:	00602021 	move	a0,v1
  40c44c:	0320f809 	jalr	t9
  40c450:	afa32c94 	sw	v1,11412(sp)
  40c454:	8fbc0018 	lw	gp,24(sp)
  40c458:	8fa32c94 	lw	v1,11412(sp)
  40c45c:	1440fdaf 	bnez	v0,40bb1c <do_command4@@Base+0x32a8>
  40c460:	00000000 	nop
  40c464:	1240000f 	beqz	s2,40c4a4 <do_command4@@Base+0x3c30>
  40c468:	3c050044 	lui	a1,0x44
  40c46c:	8f838448 	lw	v1,-31672(gp)
  40c470:	8f828094 	lw	v0,-32620(gp)
  40c474:	24a52f24 	addiu	a1,a1,12068
  40c478:	8c670000 	lw	a3,0(v1)
  40c47c:	8c420000 	lw	v0,0(v0)
  40c480:	8f8381c4 	lw	v1,-32316(gp)
  40c484:	24e70001 	addiu	a3,a3,1
  40c488:	8c460004 	lw	a2,4(v0)
  40c48c:	8c640000 	lw	a0,0(v1)
[31m  40c490:	8f9983a8 	lw	t9,fprintf[0m
  40c494:	0320f809 	jalr	t9
  40c498:	00000000 	nop
--
  40c4f4:	afbf003c 	sw	ra,60(sp)
  40c4f8:	afb20038 	sw	s2,56(sp)
  40c4fc:	afb10034 	sw	s1,52(sp)
  40c500:	afb00030 	sw	s0,48(sp)
  40c504:	3c1c0047 	lui	gp,0x47
  40c508:	279c7ae0 	addiu	gp,gp,31456
  40c50c:	afbc0018 	sw	gp,24(sp)
  40c510:	3c020044 	lui	v0,0x44
  40c514:	24423350 	addiu	v0,v0,13136
  40c518:	00809021 	move	s2,a0
  40c51c:	8f90810c 	lw	s0,-32500(gp)
  40c520:	00a08821 	move	s1,a1
  40c524:	2405000a 	li	a1,10
  40c528:	afa20020 	sw	v0,32(sp)
  40c52c:	3c020044 	lui	v0,0x44
  40c530:	8f998238 	lw	t9,-32200(gp)
  40c534:	24422b70 	addiu	v0,v0,11120
  40c538:	02002021 	move	a0,s0
  40c53c:	ae020004 	sw	v0,4(s0)
  40c540:	0320f809 	jalr	t9
  40c544:	afa00024 	sw	zero,36(sp)
  40c548:	8fbc0018 	lw	gp,24(sp)
  40c54c:	0441000c 	bgez	v0,40c580 <do_command4@@Base+0x3d0c>
  40c550:	3c050044 	lui	a1,0x44
  40c554:	8f8281c4 	lw	v0,-32316(gp)
[31m  40c558:	8f9983a8 	lw	t9,fprintf[0m
  40c55c:	8c440000 	lw	a0,0(v0)
  40c560:	8e070008 	lw	a3,8(s0)
--
  40c5dc:	8fa40024 	lw	a0,36(sp)
  40c5e0:	8f99850c 	lw	t9,-31476(gp)
  40c5e4:	0320f809 	jalr	t9
  40c5e8:	afa20028 	sw	v0,40(sp)
  40c5ec:	8fa20028 	lw	v0,40(sp)
  40c5f0:	8fbc0018 	lw	gp,24(sp)
  40c5f4:	14400028 	bnez	v0,40c698 <do_command4@@Base+0x3e24>
  40c5f8:	00000000 	nop
  40c5fc:	8f998120 	lw	t9,-32480(gp)
  40c600:	0320f809 	jalr	t9
  40c604:	00000000 	nop
  40c608:	24030016 	li	v1,22
  40c60c:	00408021 	move	s0,v0
  40c610:	8fbc0018 	lw	gp,24(sp)
  40c614:	8e040000 	lw	a0,0(s0)
  40c618:	8f8281c4 	lw	v0,-32316(gp)
  40c61c:	8f998318 	lw	t9,-31976(gp)
  40c620:	1483000a 	bne	a0,v1,40c64c <do_command4@@Base+0x3dd8>
  40c624:	00000000 	nop
  40c628:	8c510000 	lw	s1,0(v0)
  40c62c:	0320f809 	jalr	t9
  40c630:	24040016 	li	a0,22
  40c634:	3c050044 	lui	a1,0x44
  40c638:	8fbc0018 	lw	gp,24(sp)
  40c63c:	02202021 	move	a0,s1
[31m  40c640:	8f9983a8 	lw	t9,fprintf[0m
  40c644:	10000009 	b	40c66c <do_command4@@Base+0x3df8>
  40c648:	24a54bf8 	addiu	a1,a1,19448
  40c64c:	8c510000 	lw	s1,0(v0)
  40c650:	0320f809 	jalr	t9
  40c654:	00000000 	nop
  40c658:	3c050044 	lui	a1,0x44
  40c65c:	8fbc0018 	lw	gp,24(sp)
  40c660:	02202021 	move	a0,s1
  40c664:	24a54c2c 	addiu	a1,a1,19500
[31m  40c668:	8f9983a8 	lw	t9,fprintf[0m
  40c66c:	0320f809 	jalr	t9
  40c670:	00403021 	move	a2,v0
--
  40c830:	00052843 	sra	a1,a1,0x1
  40c834:	3c050044 	lui	a1,0x44
  40c838:	80460000 	lb	a2,0(v0)
  40c83c:	24a533ec 	addiu	a1,a1,13292
  40c840:	0320f809 	jalr	t9
  40c844:	24040002 	li	a0,2
  40c848:	90c30000 	lbu	v1,0(a2)
  40c84c:	00431025 	or	v0,v0,v1
  40c850:	a0c20000 	sb	v0,0(a2)
  40c854:	8fbf001c 	lw	ra,28(sp)
  40c858:	03e00008 	jr	ra
  40c85c:	27bd0020 	addiu	sp,sp,32
  40c860:	27bdffe0 	addiu	sp,sp,-32
  40c864:	afbf001c 	sw	ra,28(sp)
  40c868:	afb00018 	sw	s0,24(sp)
  40c86c:	3c1c0047 	lui	gp,0x47
  40c870:	279c7ae0 	addiu	gp,gp,31456
  40c874:	afbc0010 	sw	gp,16(sp)
  40c878:	8f828448 	lw	v0,-31672(gp)
  40c87c:	8c460000 	lw	a2,0(v0)
  40c880:	2402ffff 	li	v0,-1
  40c884:	10c20008 	beq	a2,v0,40c8a8 <do_command4@@Base+0x4034>
  40c888:	00808021 	move	s0,a0
  40c88c:	8f8281c4 	lw	v0,-32316(gp)
  40c890:	3c050044 	lui	a1,0x44
[31m  40c894:	8f9983a8 	lw	t9,fprintf[0m
  40c898:	8c440000 	lw	a0,0(v0)
  40c89c:	0320f809 	jalr	t9
  40c8a0:	24a53438 	addiu	a1,a1,13368
  40c8a4:	8fbc0010 	lw	gp,16(sp)
  40c8a8:	3c020047 	lui	v0,0x47
  40c8ac:	3c050044 	lui	a1,0x44
  40c8b0:	8c46b8b4 	lw	a2,-18252(v0)
  40c8b4:	24a53454 	addiu	a1,a1,13396
  40c8b8:	8f8281c4 	lw	v0,-32316(gp)
[31m  40c8bc:	8f9983a8 	lw	t9,fprintf[0m
  40c8c0:	8c440000 	lw	a0,0(v0)
  40c8c4:	0320f809 	jalr	t9
--
  40d6b0:	8fb20020 	lw	s2,32(sp)
  40d6b4:	8fb1001c 	lw	s1,28(sp)
  40d6b8:	8fb00018 	lw	s0,24(sp)
  40d6bc:	03e00008 	jr	ra
  40d6c0:	27bd0040 	addiu	sp,sp,64
  40d6c4:	27bdffd8 	addiu	sp,sp,-40
  40d6c8:	afbf0024 	sw	ra,36(sp)
  40d6cc:	afb00020 	sw	s0,32(sp)
  40d6d0:	3c1c0047 	lui	gp,0x47
  40d6d4:	279c7ae0 	addiu	gp,gp,31456
  40d6d8:	afbc0010 	sw	gp,16(sp)
  40d6dc:	00808021 	move	s0,a0
  40d6e0:	14800008 	bnez	a0,40d704 <for_each_chain6@@Base+0x1c4>
  40d6e4:	00c03821 	move	a3,a2
  40d6e8:	3c040041 	lui	a0,0x41
  40d6ec:	24060001 	li	a2,1
  40d6f0:	8fbf0024 	lw	ra,36(sp)
  40d6f4:	2484d6c4 	addiu	a0,a0,-10556
  40d6f8:	8fb00020 	lw	s0,32(sp)
  40d6fc:	08103550 	j	40d540 <for_each_chain6@@Base>
  40d700:	27bd0028 	addiu	sp,sp,40
  40d704:	10a0000a 	beqz	a1,40d730 <for_each_chain6@@Base+0x1f0>
  40d708:	00803021 	move	a2,a0
  40d70c:	8f8285b8 	lw	v0,-31304(gp)
  40d710:	3c050044 	lui	a1,0x44
[31m  40d714:	8f9983a8 	lw	t9,fprintf[0m
  40d718:	24a535c4 	addiu	a1,a1,13764
  40d71c:	8c440000 	lw	a0,0(v0)
--
  40da94:	13200005 	beqz	t9,40daac <print_rule6@@Base+0x234>
  40da98:	00000000 	nop
  40da9c:	0320f809 	jalr	t9
  40daa0:	02602021 	move	a0,s3
  40daa4:	8fbc0018 	lw	gp,24(sp)
  40daa8:	0040a021 	move	s4,v0
  40daac:	8f9985bc 	lw	t9,-31300(gp)
  40dab0:	02802821 	move	a1,s4
  40dab4:	0320f809 	jalr	t9
  40dab8:	02c02021 	move	a0,s6
  40dabc:	8ef90030 	lw	t9,48(s7)
  40dac0:	8fbc0018 	lw	gp,24(sp)
  40dac4:	1320000f 	beqz	t9,40db04 <print_rule6@@Base+0x28c>
  40dac8:	02002021 	move	a0,s0
  40dacc:	0320f809 	jalr	t9
  40dad0:	02602821 	move	a1,s3
  40dad4:	8fbc0018 	lw	gp,24(sp)
  40dad8:	1000000a 	b	40db04 <print_rule6@@Base+0x28c>
  40dadc:	00000000 	nop
  40dae0:	96620000 	lhu	v0,0(s3)
  40dae4:	10400009 	beqz	v0,40db0c <print_rule6@@Base+0x294>
  40dae8:	02a2a821 	addu	s5,s5,v0
  40daec:	02a2a823 	subu	s5,s5,v0
  40daf0:	3c050044 	lui	a1,0x44
  40daf4:	02803021 	move	a2,s4
[31m  40daf8:	8f9983a8 	lw	t9,fprintf[0m
  40dafc:	1000002a 	b	40dba8 <print_rule6@@Base+0x330>
  40db00:	24a53620 	addiu	a1,a1,13856
--
  40db3c:	afa30014 	sw	v1,20(sp)
  40db40:	0320f809 	jalr	t9
  40db44:	afa20010 	sw	v0,16(sp)
  40db48:	8fbc0018 	lw	gp,24(sp)
  40db4c:	8f998194 	lw	t9,-32364(gp)
  40db50:	02402821 	move	a1,s2
  40db54:	0320f809 	jalr	t9
  40db58:	02002021 	move	a0,s0
  40db5c:	9612008c 	lhu	s2,140(s0)
  40db60:	00408821 	move	s1,v0
  40db64:	8fbc0018 	lw	gp,24(sp)
  40db68:	02129021 	addu	s2,s0,s2
  40db6c:	82420002 	lb	v0,2(s2)
  40db70:	10400034 	beqz	v0,40dc44 <print_rule6@@Base+0x3cc>
  40db74:	26460002 	addiu	a2,s2,2
  40db78:	24050002 	li	a1,2
  40db7c:	8f9985d8 	lw	t9,-31272(gp)
  40db80:	00c02021 	move	a0,a2
  40db84:	0320f809 	jalr	t9
  40db88:	afa60020 	sw	a2,32(sp)
  40db8c:	8fbc0018 	lw	gp,24(sp)
  40db90:	8fa60020 	lw	a2,32(sp)
  40db94:	1440000c 	bnez	v0,40dbc8 <print_rule6@@Base+0x350>
  40db98:	00409821 	move	s3,v0
  40db9c:	3c050044 	lui	a1,0x44
[31m  40dba0:	8f9983a8 	lw	t9,fprintf[0m
  40dba4:	24a53654 	addiu	a1,a1,13908
  40dba8:	8f8281c4 	lw	v0,-32316(gp)
--
  40dbd4:	afa60020 	sw	a2,32(sp)
  40dbd8:	0320f809 	jalr	t9
  40dbdc:	02402021 	move	a0,s2
  40dbe0:	8fbc0018 	lw	gp,24(sp)
  40dbe4:	00408821 	move	s1,v0
  40dbe8:	8fa60020 	lw	a2,32(sp)
  40dbec:	8f9985bc 	lw	t9,-31300(gp)
  40dbf0:	3c040044 	lui	a0,0x44
  40dbf4:	02202821 	move	a1,s1
  40dbf8:	afa60020 	sw	a2,32(sp)
  40dbfc:	0320f809 	jalr	t9
  40dc00:	24843678 	addiu	a0,a0,13944
  40dc04:	8e790030 	lw	t9,48(s3)
  40dc08:	8fbc0018 	lw	gp,24(sp)
  40dc0c:	8fa60020 	lw	a2,32(sp)
  40dc10:	13200005 	beqz	t9,40dc28 <print_rule6@@Base+0x3b0>
  40dc14:	02002021 	move	a0,s0
  40dc18:	0320f809 	jalr	t9
  40dc1c:	02402821 	move	a1,s2
  40dc20:	10000017 	b	40dc80 <print_rule6@@Base+0x408>
  40dc24:	00000000 	nop
  40dc28:	96430000 	lhu	v1,0(s2)
  40dc2c:	24020020 	li	v0,32
  40dc30:	10620014 	beq	v1,v0,40dc84 <print_rule6@@Base+0x40c>
  40dc34:	3c050044 	lui	a1,0x44
[31m  40dc38:	8f9983a8 	lw	t9,fprintf[0m
  40dc3c:	1000ffda 	b	40dba8 <print_rule6@@Base+0x330>
  40dc40:	24a53680 	addiu	a1,a1,13952
--
  40dcac:	8fb0002c 	lw	s0,44(sp)
  40dcb0:	03200008 	jr	t9
  40dcb4:	27bd0050 	addiu	sp,sp,80

0040dcb8 <delete_chain6@@Base>:
  40dcb8:	27bdffd8 	addiu	sp,sp,-40
  40dcbc:	afbf0024 	sw	ra,36(sp)
  40dcc0:	afb00020 	sw	s0,32(sp)
  40dcc4:	3c1c0047 	lui	gp,0x47
  40dcc8:	279c7ae0 	addiu	gp,gp,31456
  40dccc:	afbc0010 	sw	gp,16(sp)
  40dcd0:	00808021 	move	s0,a0
  40dcd4:	14800008 	bnez	a0,40dcf8 <delete_chain6@@Base+0x40>
  40dcd8:	00c03821 	move	a3,a2
  40dcdc:	3c040041 	lui	a0,0x41
  40dce0:	00003021 	move	a2,zero
  40dce4:	8fbf0024 	lw	ra,36(sp)
  40dce8:	2484dcb8 	addiu	a0,a0,-9032
  40dcec:	8fb00020 	lw	s0,32(sp)
  40dcf0:	08103550 	j	40d540 <for_each_chain6@@Base>
  40dcf4:	27bd0028 	addiu	sp,sp,40
  40dcf8:	10a0000a 	beqz	a1,40dd24 <delete_chain6@@Base+0x6c>
  40dcfc:	00803021 	move	a2,a0
  40dd00:	8f8285b8 	lw	v0,-31304(gp)
  40dd04:	3c050044 	lui	a1,0x44
[31m  40dd08:	8f9983a8 	lw	t9,fprintf[0m
  40dd0c:	24a536b0 	addiu	a1,a1,14000
  40dd10:	8c440000 	lw	a0,0(v0)
--
  40dd34:	8fb00020 	lw	s0,32(sp)
  40dd38:	03200008 	jr	t9
  40dd3c:	27bd0028 	addiu	sp,sp,40

0040dd40 <flush_entries6@@Base>:
  40dd40:	27bdffd8 	addiu	sp,sp,-40
  40dd44:	afbf0024 	sw	ra,36(sp)
  40dd48:	afb00020 	sw	s0,32(sp)
  40dd4c:	3c1c0047 	lui	gp,0x47
  40dd50:	279c7ae0 	addiu	gp,gp,31456
  40dd54:	afbc0010 	sw	gp,16(sp)
  40dd58:	00808021 	move	s0,a0
  40dd5c:	14800008 	bnez	a0,40dd80 <flush_entries6@@Base+0x40>
  40dd60:	00c03821 	move	a3,a2
  40dd64:	3c040041 	lui	a0,0x41
  40dd68:	24060001 	li	a2,1
  40dd6c:	8fbf0024 	lw	ra,36(sp)
  40dd70:	2484dd40 	addiu	a0,a0,-8896
  40dd74:	8fb00020 	lw	s0,32(sp)
  40dd78:	08103550 	j	40d540 <for_each_chain6@@Base>
  40dd7c:	27bd0028 	addiu	sp,sp,40
  40dd80:	10a0000a 	beqz	a1,40ddac <flush_entries6@@Base+0x6c>
  40dd84:	00803021 	move	a2,a0
  40dd88:	8f8285b8 	lw	v0,-31304(gp)
  40dd8c:	3c050044 	lui	a1,0x44
[31m  40dd90:	8f9983a8 	lw	t9,fprintf[0m
  40dd94:	24a536c8 	addiu	a1,a1,14024
  40dd98:	8c440000 	lw	a0,0(v0)
--
  40e7e0:	30630040 	andi	v1,v1,0x40
  40e7e4:	1060000a 	beqz	v1,40e810 <do_command6@@Base+0xa48>
  40e7e8:	2443ffd5 	addiu	v1,v0,-43
  40e7ec:	3c050044 	lui	a1,0x44
  40e7f0:	24a5425c 	addiu	a1,a1,16988
  40e7f4:	24040002 	li	a0,2
  40e7f8:	8f828094 	lw	v0,-32620(gp)
  40e7fc:	8c420000 	lw	v0,0(v0)
  40e800:	8c590014 	lw	t9,20(v0)
  40e804:	0320f809 	jalr	t9
  40e808:	00000000 	nop
  40e80c:	2443ffd5 	addiu	v1,v0,-43
  40e810:	3063ffff 	andi	v1,v1,0xffff
  40e814:	2c630002 	sltiu	v1,v1,2
  40e818:	14600005 	bnez	v1,40e830 <do_command6@@Base+0xa68>
  40e81c:	24030033 	li	v1,51
  40e820:	10430003 	beq	v0,v1,40e830 <do_command6@@Base+0xa68>
  40e824:	2403003c 	li	v1,60
  40e828:	144301df 	bne	v0,v1,40efa8 <do_command6@@Base+0x11e0>
  40e82c:	02001821 	move	v1,s0
  40e830:	93a200fc 	lbu	v0,252(sp)
  40e834:	30420040 	andi	v0,v0,0x40
  40e838:	144001da 	bnez	v0,40efa4 <do_command6@@Base+0x11dc>
  40e83c:	3c050044 	lui	a1,0x44
  40e840:	8f8681c4 	lw	a2,-32316(gp)
[31m  40e844:	8f9983a8 	lw	t9,fprintf[0m
  40e848:	24a554cc 	addiu	a1,a1,21708
  40e84c:	8cc40000 	lw	a0,0(a2)
--
  40e944:	8fa20130 	lw	v0,304(sp)
  40e948:	8fa6017c 	lw	a2,380(sp)
  40e94c:	8c420054 	lw	v0,84(v0)
  40e950:	8f9985e0 	lw	t9,-31264(gp)
  40e954:	a4460000 	sh	a2,0(v0)
  40e958:	8fa20130 	lw	v0,304(sp)
  40e95c:	8c45000c 	lw	a1,12(v0)
  40e960:	8c440054 	lw	a0,84(v0)
  40e964:	14a00006 	bnez	a1,40e980 <do_command6@@Base+0xbb8>
  40e968:	00000000 	nop
  40e96c:	8fa5013c 	lw	a1,316(sp)
  40e970:	0320f809 	jalr	t9
  40e974:	24840002 	addiu	a0,a0,2
  40e978:	10000010 	b	40e9bc <do_command6@@Base+0xbf4>
  40e97c:	00000000 	nop
  40e980:	0320f809 	jalr	t9
  40e984:	24840002 	addiu	a0,a0,2
  40e988:	8fa20130 	lw	v0,304(sp)
  40e98c:	8fbc0038 	lw	gp,56(sp)
  40e990:	90430011 	lbu	v1,17(v0)
  40e994:	30630001 	andi	v1,v1,0x1
  40e998:	1460000a 	bnez	v1,40e9c4 <do_command6@@Base+0xbfc>
  40e99c:	3c050044 	lui	a1,0x44
  40e9a0:	8f8381c4 	lw	v1,-32316(gp)
  40e9a4:	8c47000c 	lw	a3,12(v0)
[31m  40e9a8:	8f9983a8 	lw	t9,fprintf[0m
  40e9ac:	8c640000 	lw	a0,0(v1)
  40e9b0:	8fa6013c 	lw	a2,316(sp)
--
  40eb74:	8fbc0038 	lw	gp,56(sp)
  40eb78:	ac620054 	sw	v0,84(v1)
  40eb7c:	8fa6017c 	lw	a2,380(sp)
  40eb80:	8f9985e0 	lw	t9,-31264(gp)
  40eb84:	a4460000 	sh	a2,0(v0)
  40eb88:	8c65000c 	lw	a1,12(v1)
  40eb8c:	8c640054 	lw	a0,84(v1)
  40eb90:	14a00007 	bnez	a1,40ebb0 <do_command6@@Base+0xde8>
  40eb94:	00000000 	nop
  40eb98:	8c650008 	lw	a1,8(v1)
  40eb9c:	24840002 	addiu	a0,a0,2
  40eba0:	0320f809 	jalr	t9
  40eba4:	afa30180 	sw	v1,384(sp)
  40eba8:	10000011 	b	40ebf0 <do_command6@@Base+0xe28>
  40ebac:	00000000 	nop
  40ebb0:	afa30180 	sw	v1,384(sp)
  40ebb4:	0320f809 	jalr	t9
  40ebb8:	24840002 	addiu	a0,a0,2
  40ebbc:	8fa30180 	lw	v1,384(sp)
  40ebc0:	8fbc0038 	lw	gp,56(sp)
  40ebc4:	90620011 	lbu	v0,17(v1)
  40ebc8:	30420001 	andi	v0,v0,0x1
  40ebcc:	1440000a 	bnez	v0,40ebf8 <do_command6@@Base+0xe30>
  40ebd0:	3c050044 	lui	a1,0x44
  40ebd4:	8f8281c4 	lw	v0,-32316(gp)
[31m  40ebd8:	8f9983a8 	lw	t9,fprintf[0m
  40ebdc:	8c440000 	lw	a0,0(v0)
  40ebe0:	8c660008 	lw	a2,8(v1)
--
  40eefc:	3c040044 	lui	a0,0x44
  40ef00:	8f9980b0 	lw	t9,-32592(gp)
  40ef04:	8c450000 	lw	a1,0(v0)
  40ef08:	0320f809 	jalr	t9
  40ef0c:	2484558c 	addiu	a0,a0,21900
  40ef10:	10000018 	b	40ef74 <do_command6@@Base+0x11ac>
  40ef14:	24040002 	li	a0,2
  40ef18:	8e460000 	lw	a2,0(s2)
  40ef1c:	80c30000 	lb	v1,0(a2)
  40ef20:	1462000d 	bne	v1,v0,40ef58 <do_command6@@Base+0x1190>
  40ef24:	00000000 	nop
  40ef28:	80c20001 	lb	v0,1(a2)
  40ef2c:	1440000a 	bnez	v0,40ef58 <do_command6@@Base+0x1190>
  40ef30:	00000000 	nop
  40ef34:	8fa20120 	lw	v0,288(sp)
  40ef38:	10400004 	beqz	v0,40ef4c <do_command6@@Base+0x1184>
  40ef3c:	24020001 	li	v0,1
  40ef40:	3c050044 	lui	a1,0x44
  40ef44:	1000fe2b 	b	40e7f4 <do_command6@@Base+0xa2c>
  40ef48:	24a5447c 	addiu	a1,a1,17532
  40ef4c:	afa20120 	sw	v0,288(sp)
  40ef50:	10000017 	b	40efb0 <do_command6@@Base+0x11e8>
  40ef54:	a0c00000 	sb	zero,0(a2)
  40ef58:	8f8281c4 	lw	v0,-32316(gp)
  40ef5c:	3c050044 	lui	a1,0x44
[31m  40ef60:	8f9983a8 	lw	t9,fprintf[0m
  40ef64:	8c440000 	lw	a0,0(v0)
  40ef68:	0320f809 	jalr	t9
--
  40f470:	24845763 	addiu	a0,a0,22371
  40f474:	8c430000 	lw	v1,0(v0)
  40f478:	3c020044 	lui	v0,0x44
  40f47c:	2442575c 	addiu	v0,v0,22364
  40f480:	8c790014 	lw	t9,20(v1)
  40f484:	24420001 	addiu	v0,v0,1
  40f488:	1444fffe 	bne	v0,a0,40f484 <do_command6@@Base+0x16bc>
  40f48c:	00000000 	nop
  40f490:	3c050044 	lui	a1,0x44
  40f494:	02003821 	move	a3,s0
  40f498:	24040002 	li	a0,2
  40f49c:	80460000 	lb	a2,0(v0)
  40f4a0:	1000ffb4 	b	40f374 <do_command6@@Base+0x15ac>
  40f4a4:	24a54734 	addiu	a1,a1,18228
  40f4a8:	8fa20130 	lw	v0,304(sp)
  40f4ac:	10400019 	beqz	v0,40f514 <do_command6@@Base+0x174c>
  40f4b0:	00000000 	nop
  40f4b4:	8f998284 	lw	t9,-32124(gp)
  40f4b8:	8fa4013c 	lw	a0,316(sp)
  40f4bc:	0320f809 	jalr	t9
  40f4c0:	02402821 	move	a1,s2
  40f4c4:	8fbc0038 	lw	gp,56(sp)
  40f4c8:	10400011 	beqz	v0,40f510 <do_command6@@Base+0x1748>
  40f4cc:	3c050044 	lui	a1,0x44
  40f4d0:	8f8281c4 	lw	v0,-32316(gp)
[31m  40f4d4:	8f9983a8 	lw	t9,fprintf[0m
  40f4d8:	8c440000 	lw	a0,0(v0)
  40f4dc:	8fa6013c 	lw	a2,316(sp)
--
  410704:	8fb40198 	lw	s4,408(sp)
  410708:	8fb30194 	lw	s3,404(sp)
  41070c:	8fb20190 	lw	s2,400(sp)
  410710:	8fb1018c 	lw	s1,396(sp)
  410714:	8fb00188 	lw	s0,392(sp)
  410718:	03e00008 	jr	ra
  41071c:	27bd01b0 	addiu	sp,sp,432
  410720:	27bdffd0 	addiu	sp,sp,-48
  410724:	afbf002c 	sw	ra,44(sp)
  410728:	afb20028 	sw	s2,40(sp)
  41072c:	afb10024 	sw	s1,36(sp)
  410730:	afb00020 	sw	s0,32(sp)
  410734:	3c1c0047 	lui	gp,0x47
  410738:	279c7ae0 	addiu	gp,gp,31456
  41073c:	afbc0010 	sw	gp,16(sp)
  410740:	3c020047 	lui	v0,0x47
  410744:	8f9081c4 	lw	s0,-32316(gp)
  410748:	2442b8b0 	addiu	v0,v0,-18256
  41074c:	00a09021 	move	s2,a1
  410750:	afa60038 	sw	a2,56(sp)
  410754:	00808821 	move	s1,a0
  410758:	3c050044 	lui	a1,0x44
  41075c:	afa7003c 	sw	a3,60(sp)
  410760:	24a54864 	addiu	a1,a1,18532
  410764:	8c470008 	lw	a3,8(v0)
[31m  410768:	8f9983a8 	lw	t9,fprintf[0m
  41076c:	8c460004 	lw	a2,4(v0)
  410770:	27a20038 	addiu	v0,sp,56
--
  410b40:	1480fff2 	bnez	a0,410b0c <subcmd_main@@Base+0xa4>
  410b44:	00000000 	nop
  410b48:	1000000b 	b	410b78 <subcmd_main@@Base+0x110>
  410b4c:	00000000 	nop
  410b50:	02402021 	move	a0,s2
  410b54:	8fbf002c 	lw	ra,44(sp)
  410b58:	02202821 	move	a1,s1
  410b5c:	8fb40028 	lw	s4,40(sp)
  410b60:	8fb30024 	lw	s3,36(sp)
  410b64:	8fb20020 	lw	s2,32(sp)
  410b68:	8fb1001c 	lw	s1,28(sp)
  410b6c:	8fb00018 	lw	s0,24(sp)
  410b70:	03200008 	jr	t9
  410b74:	27bd0030 	addiu	sp,sp,48
  410b78:	8f9281c4 	lw	s2,-32316(gp)
  410b7c:	3c040044 	lui	a0,0x44
  410b80:	8f9980b0 	lw	t9,-32592(gp)
  410b84:	248457d0 	addiu	a0,a0,22480
  410b88:	8e450000 	lw	a1,0(s2)
  410b8c:	3c110044 	lui	s1,0x44
  410b90:	0320f809 	jalr	t9
  410b94:	26315808 	addiu	s1,s1,22536
  410b98:	8fbc0010 	lw	gp,16(sp)
  410b9c:	10000006 	b	410bb8 <subcmd_main@@Base+0x150>
  410ba0:	00000000 	nop
[31m  410ba4:	8f9983a8 	lw	t9,fprintf[0m
  410ba8:	8e440000 	lw	a0,0(s2)
  410bac:	0320f809 	jalr	t9
--
  41c7ac:	8f998074 	lw	t9,-32652(gp)
  41c7b0:	0320f809 	jalr	t9
  41c7b4:	02002021 	move	a0,s0
  41c7b8:	3c03004c 	lui	v1,0x4c
  41c7bc:	8fbc0010 	lw	gp,16(sp)
  41c7c0:	14400016 	bnez	v0,41c81c <libxt_devgroup_init@@Base+0x488>
  41c7c4:	ac621600 	sw	v0,5632(v1)
  41c7c8:	8f998120 	lw	t9,-32480(gp)
  41c7cc:	0320f809 	jalr	t9
  41c7d0:	00000000 	nop
  41c7d4:	8c440000 	lw	a0,0(v0)
  41c7d8:	24020002 	li	v0,2
  41c7dc:	8fbc0010 	lw	gp,16(sp)
  41c7e0:	1082000e 	beq	a0,v0,41c81c <libxt_devgroup_init@@Base+0x488>
  41c7e4:	00000000 	nop
  41c7e8:	8f998598 	lw	t9,-31336(gp)
  41c7ec:	8f8281c4 	lw	v0,-32316(gp)
  41c7f0:	8c510000 	lw	s1,0(v0)
  41c7f4:	0320f809 	jalr	t9
  41c7f8:	00000000 	nop
  41c7fc:	3c050045 	lui	a1,0x45
  41c800:	02003021 	move	a2,s0
  41c804:	8fbc0010 	lw	gp,16(sp)
  41c808:	02202021 	move	a0,s1
  41c80c:	24a5ab2c 	addiu	a1,a1,-21716
[31m  41c810:	8f9983a8 	lw	t9,fprintf[0m
  41c814:	0320f809 	jalr	t9
  41c818:	00403821 	move	a3,v0
--
  41eb10:	afb30010 	sw	s3,16(sp)
  41eb14:	02203021 	move	a2,s1
  41eb18:	0c107a35 	jal	41e8d4 <libxt_iprange_init@@Base+0x20>
  41eb1c:	02002821 	move	a1,s0
  41eb20:	8fbc0018 	lw	gp,24(sp)
  41eb24:	8f99804c 	lw	t9,-32692(gp)
  41eb28:	1000001a 	b	41eb94 <libxt_iprange_init@@Base+0x2e0>
  41eb2c:	02002021 	move	a0,s0
  41eb30:	02002021 	move	a0,s0
  41eb34:	a0400000 	sb	zero,0(v0)
  41eb38:	02402821 	move	a1,s2
  41eb3c:	02203021 	move	a2,s1
  41eb40:	0c107a35 	jal	41e8d4 <libxt_iprange_init@@Base+0x20>
  41eb44:	afb30010 	sw	s3,16(sp)
  41eb48:	02202021 	move	a0,s1
  41eb4c:	24060010 	li	a2,16
  41eb50:	8fbc0018 	lw	gp,24(sp)
  41eb54:	8f9982d0 	lw	t9,-32048(gp)
  41eb58:	0320f809 	jalr	t9
  41eb5c:	26250010 	addiu	a1,s1,16
  41eb60:	8fbc0018 	lw	gp,24(sp)
  41eb64:	18400009 	blez	v0,41eb8c <libxt_iprange_init@@Base+0x2d8>
  41eb68:	3c050045 	lui	a1,0x45
  41eb6c:	8f8281c4 	lw	v0,-32316(gp)
  41eb70:	02403821 	move	a3,s2
[31m  41eb74:	8f9983a8 	lw	t9,fprintf[0m
  41eb78:	24a5bbd8 	addiu	a1,a1,-17448
  41eb7c:	8c440000 	lw	a0,0(v0)
--
  42c43c:	afb1001c 	sw	s1,28(sp)
  42c440:	afb00018 	sw	s0,24(sp)
  42c444:	3c1c0047 	lui	gp,0x47
  42c448:	279c7ae0 	addiu	gp,gp,31456
  42c44c:	afbc0010 	sw	gp,16(sp)
  42c450:	8cf20020 	lw	s2,32(a3)
  42c454:	00e08021 	move	s0,a3
  42c458:	24f30008 	addiu	s3,a3,8
  42c45c:	8fb10050 	lw	s1,80(sp)
  42c460:	0080a021 	move	s4,a0
  42c464:	00a0a821 	move	s5,a1
  42c468:	00c0f021 	move	s8,a2
  42c46c:	16400003 	bnez	s2,42c47c <iptc_commit@@Base+0x8d8>
  42c470:	0012b042 	srl	s6,s2,0x1
  42c474:	10000053 	b	42c5c4 <iptc_commit@@Base+0xa20>
  42c478:	02601021 	move	v0,s3
  42c47c:	24170001 	li	s7,1
  42c480:	8e03001c 	lw	v1,28(s0)
  42c484:	00161080 	sll	v0,s6,0x2
  42c488:	00621021 	addu	v0,v1,v0
  42c48c:	8c530000 	lw	s3,0(v0)
  42c490:	1660000a 	bnez	s3,42c4bc <iptc_commit@@Base+0x918>
  42c494:	3c050045 	lui	a1,0x45
  42c498:	8f8281c4 	lw	v0,-32316(gp)
  42c49c:	02c03021 	move	a2,s6
[31m  42c4a0:	8f9983a8 	lw	t9,fprintf[0m
  42c4a4:	24a50f2c 	addiu	a1,a1,3884
  42c4a8:	8c440000 	lw	a0,0(v0)
  42c4ac:	0320f809 	jalr	t9
  42c4b0:	26130008 	addiu	s3,s0,8
  42c4b4:	10000043 	b	42c5c4 <iptc_commit@@Base+0xa20>
  42c4b8:	02601021 	move	v0,s3
  42c4bc:	12200005 	beqz	s1,42c4d4 <iptc_commit@@Base+0x930>
  42c4c0:	02802021 	move	a0,s4
  42c4c4:	1637000c 	bne	s1,s7,42c4f8 <iptc_commit@@Base+0x954>
  42c4c8:	3c050045 	lui	a1,0x45
  42c4cc:	10000007 	b	42c4ec <iptc_commit@@Base+0x948>
  42c4d0:	00000000 	nop
  42c4d4:	8f99821c 	lw	t9,-32228(gp)
  42c4d8:	0320f809 	jalr	t9
  42c4dc:	26650008 	addiu	a1,s3,8
  42c4e0:	8fbc0010 	lw	gp,16(sp)
  42c4e4:	1000000f 	b	42c524 <iptc_commit@@Base+0x980>
  42c4e8:	afd60000 	sw	s6,0(s8)
  42c4ec:	8e620060 	lw	v0,96(s3)
  42c4f0:	1000000b 	b	42c520 <iptc_commit@@Base+0x97c>
  42c4f4:	02a21023 	subu	v0,s5,v0
  42c4f8:	8f8281c4 	lw	v0,-32316(gp)
  42c4fc:	02203021 	move	a2,s1
[31m  42c500:	8f9983a8 	lw	t9,fprintf[0m
  42c504:	8c440000 	lw	a0,0(v0)
  42c508:	0320f809 	jalr	t9
--
  42d30c:	3c020044 	lui	v0,0x44
  42d310:	2882fffd 	slti	v0,a0,-3
  42d314:	10400006 	beqz	v0,42d330 <iptc_delete_chain@@Base+0x3a4>
  42d318:	2402fffe 	li	v0,-2
  42d31c:	2402fffb 	li	v0,-5
  42d320:	14820010 	bne	a0,v0,42d364 <iptc_delete_chain@@Base+0x3d8>
  42d324:	00000000 	nop
  42d328:	10000019 	b	42d390 <iptc_delete_chain@@Base+0x404>
  42d32c:	3c020044 	lui	v0,0x44
  42d330:	10820006 	beq	a0,v0,42d34c <iptc_delete_chain@@Base+0x3c0>
  42d334:	3c020044 	lui	v0,0x44
  42d338:	2402ffff 	li	v0,-1
  42d33c:	14820009 	bne	a0,v0,42d364 <iptc_delete_chain@@Base+0x3d8>
  42d340:	00000000 	nop
  42d344:	10000003 	b	42d354 <iptc_delete_chain@@Base+0x3c8>
  42d348:	3c020044 	lui	v0,0x44
  42d34c:	10000011 	b	42d394 <iptc_delete_chain@@Base+0x408>
  42d350:	24422e90 	addiu	v0,v0,11920
  42d354:	1000000f 	b	42d394 <iptc_delete_chain@@Base+0x408>
  42d358:	24422e98 	addiu	v0,v0,11928
  42d35c:	1000000d 	b	42d394 <iptc_delete_chain@@Base+0x408>
  42d360:	24422ea0 	addiu	v0,v0,11936
  42d364:	8f8281c4 	lw	v0,-32316(gp)
  42d368:	00803021 	move	a2,a0
  42d36c:	3c050045 	lui	a1,0x45
[31m  42d370:	8f9983a8 	lw	t9,fprintf[0m
  42d374:	8c440000 	lw	a0,0(v0)
  42d378:	0320f809 	jalr	t9
--
  42d9b4:	26a40002 	addiu	a0,s5,2
  42d9b8:	8f99821c 	lw	t9,-32228(gp)
  42d9bc:	26c50002 	addiu	a1,s6,2
  42d9c0:	0320f809 	jalr	t9
  42d9c4:	26f7ffe0 	addiu	s7,s7,-32
  42d9c8:	8fbc0010 	lw	gp,16(sp)
  42d9cc:	1040000d 	beqz	v0,42da04 <iptc_get_target@@Base+0x5b8>
  42d9d0:	0057182b 	sltu	v1,v0,s7
  42d9d4:	10000031 	b	42da9c <iptc_get_target@@Base+0x650>
  42d9d8:	00000000 	nop
  42d9dc:	02a21821 	addu	v1,s5,v0
  42d9e0:	90850020 	lbu	a1,32(a0)
  42d9e4:	02822021 	addu	a0,s4,v0
  42d9e8:	90630020 	lbu	v1,32(v1)
  42d9ec:	90840020 	lbu	a0,32(a0)
  42d9f0:	00a31826 	xor	v1,a1,v1
  42d9f4:	00641824 	and	v1,v1,a0
  42d9f8:	14600028 	bnez	v1,42da9c <iptc_get_target@@Base+0x650>
  42d9fc:	24420001 	addiu	v0,v0,1
  42da00:	0057182b 	sltu	v1,v0,s7
  42da04:	1460fff5 	bnez	v1,42d9dc <iptc_get_target@@Base+0x590>
  42da08:	02c22021 	addu	a0,s6,v0
  42da0c:	1000000a 	b	42da38 <iptc_get_target@@Base+0x5ec>
  42da10:	00000000 	nop
  42da14:	8f8281c4 	lw	v0,-32316(gp)
[31m  42da18:	8f9983a8 	lw	t9,fprintf[0m
  42da1c:	8c440000 	lw	a0,0(v0)
  42da20:	0320f809 	jalr	t9
--
  42e4ac:	8e250060 	lw	a1,96(s1)
  42e4b0:	8e260064 	lw	a2,100(s1)
  42e4b4:	8e270068 	lw	a3,104(s1)
  42e4b8:	8f9985bc 	lw	t9,-31300(gp)
  42e4bc:	afa30010 	sw	v1,16(sp)
  42e4c0:	0320f809 	jalr	t9
  42e4c4:	afa20014 	sw	v0,20(sp)
  42e4c8:	8fbc0028 	lw	gp,40(sp)
  42e4cc:	100000e6 	b	42e868 <dump_entries@@Base+0x4ac>
  42e4d0:	00000000 	nop
  42e4d4:	24c40028 	addiu	a0,a2,40
  42e4d8:	00928021 	addu	s0,a0,s2
  42e4dc:	10000007 	b	42e4fc <dump_entries@@Base+0x140>
  42e4e0:	00001821 	move	v1,zero
  42e4e4:	00833821 	addu	a3,a0,v1
  42e4e8:	10f00013 	beq	a3,s0,42e538 <dump_entries@@Base+0x17c>
  42e4ec:	00000000 	nop
  42e4f0:	94e7005a 	lhu	a3,90(a3)
  42e4f4:	24a50001 	addiu	a1,a1,1
  42e4f8:	00671821 	addu	v1,v1,a3
  42e4fc:	0062382b 	sltu	a3,v1,v0
  42e500:	14e0fff8 	bnez	a3,42e4e4 <dump_entries@@Base+0x128>
  42e504:	00000000 	nop
  42e508:	8f8281c4 	lw	v0,-32316(gp)
  42e50c:	24c60028 	addiu	a2,a2,40
[31m  42e510:	8f9983a8 	lw	t9,fprintf[0m
  42e514:	3c050045 	lui	a1,0x45
  42e518:	8c440000 	lw	a0,0(v0)
--
  42ea70:	0440016f 	bltz	v0,42f030 <iptc_init@@Base+0x67c>
  42ea74:	00408821 	move	s1,v0
  42ea78:	8f998504 	lw	t9,-31484(gp)
  42ea7c:	00402021 	move	a0,v0
  42ea80:	24050002 	li	a1,2
  42ea84:	0320f809 	jalr	t9
  42ea88:	24060001 	li	a2,1
  42ea8c:	2403ffff 	li	v1,-1
  42ea90:	8fbc0018 	lw	gp,24(sp)
  42ea94:	14430016 	bne	v0,v1,42eaf0 <iptc_init@@Base+0x13c>
  42ea98:	24020054 	li	v0,84
  42ea9c:	8f998120 	lw	t9,-32480(gp)
  42eaa0:	8f8281c4 	lw	v0,-32316(gp)
  42eaa4:	8c500000 	lw	s0,0(v0)
  42eaa8:	0320f809 	jalr	t9
  42eaac:	00000000 	nop
  42eab0:	8fbc0018 	lw	gp,24(sp)
  42eab4:	8c440000 	lw	a0,0(v0)
  42eab8:	8f998598 	lw	t9,-31336(gp)
  42eabc:	0320f809 	jalr	t9
  42eac0:	00000000 	nop
  42eac4:	3c050044 	lui	a1,0x44
  42eac8:	02002021 	move	a0,s0
  42eacc:	8fbc0018 	lw	gp,24(sp)
  42ead0:	24a57f20 	addiu	a1,a1,32544
[31m  42ead4:	8f9983a8 	lw	t9,fprintf[0m
  42ead8:	0320f809 	jalr	t9
  42eadc:	00403021 	move	a2,v0
--
  433050:	8f998074 	lw	t9,-32652(gp)
  433054:	0320f809 	jalr	t9
  433058:	02002021 	move	a0,s0
  43305c:	3c03004c 	lui	v1,0x4c
  433060:	8fbc0010 	lw	gp,16(sp)
  433064:	14400016 	bnez	v0,4330c0 <libipt_realm_init@@Base+0x3a0>
  433068:	ac621640 	sw	v0,5696(v1)
  43306c:	8f998120 	lw	t9,-32480(gp)
  433070:	0320f809 	jalr	t9
  433074:	00000000 	nop
  433078:	8c440000 	lw	a0,0(v0)
  43307c:	24020002 	li	v0,2
  433080:	8fbc0010 	lw	gp,16(sp)
  433084:	1082000e 	beq	a0,v0,4330c0 <libipt_realm_init@@Base+0x3a0>
  433088:	00000000 	nop
  43308c:	8f998598 	lw	t9,-31336(gp)
  433090:	8f8281c4 	lw	v0,-32316(gp)
  433094:	8c510000 	lw	s1,0(v0)
  433098:	0320f809 	jalr	t9
  43309c:	00000000 	nop
  4330a0:	3c050045 	lui	a1,0x45
  4330a4:	02003021 	move	a2,s0
  4330a8:	8fbc0010 	lw	gp,16(sp)
  4330ac:	02202021 	move	a0,s1
  4330b0:	24a5ab2c 	addiu	a1,a1,-21716
[31m  4330b4:	8f9983a8 	lw	t9,fprintf[0m
  4330b8:	0320f809 	jalr	t9
  4330bc:	00403821 	move	a3,v0
--
  43414c:	afb1001c 	sw	s1,28(sp)
  434150:	afb00018 	sw	s0,24(sp)
  434154:	3c1c0047 	lui	gp,0x47
  434158:	279c7ae0 	addiu	gp,gp,31456
  43415c:	afbc0010 	sw	gp,16(sp)
  434160:	8cf20020 	lw	s2,32(a3)
  434164:	00e08021 	move	s0,a3
  434168:	24f30008 	addiu	s3,a3,8
  43416c:	8fb10050 	lw	s1,80(sp)
  434170:	0080a021 	move	s4,a0
  434174:	00a0a821 	move	s5,a1
  434178:	00c0f021 	move	s8,a2
  43417c:	16400003 	bnez	s2,43418c <ip6tc_commit@@Base+0x8d8>
  434180:	0012b042 	srl	s6,s2,0x1
  434184:	10000053 	b	4342d4 <ip6tc_commit@@Base+0xa20>
  434188:	02601021 	move	v0,s3
  43418c:	24170001 	li	s7,1
  434190:	8e03001c 	lw	v1,28(s0)
  434194:	00161080 	sll	v0,s6,0x2
  434198:	00621021 	addu	v0,v1,v0
  43419c:	8c530000 	lw	s3,0(v0)
  4341a0:	1660000a 	bnez	s3,4341cc <ip6tc_commit@@Base+0x918>
  4341a4:	3c050045 	lui	a1,0x45
  4341a8:	8f8281c4 	lw	v0,-32316(gp)
  4341ac:	02c03021 	move	a2,s6
[31m  4341b0:	8f9983a8 	lw	t9,fprintf[0m
  4341b4:	24a50f2c 	addiu	a1,a1,3884
  4341b8:	8c440000 	lw	a0,0(v0)
  4341bc:	0320f809 	jalr	t9
  4341c0:	26130008 	addiu	s3,s0,8
  4341c4:	10000043 	b	4342d4 <ip6tc_commit@@Base+0xa20>
  4341c8:	02601021 	move	v0,s3
  4341cc:	12200005 	beqz	s1,4341e4 <ip6tc_commit@@Base+0x930>
  4341d0:	02802021 	move	a0,s4
  4341d4:	1637000c 	bne	s1,s7,434208 <ip6tc_commit@@Base+0x954>
  4341d8:	3c050045 	lui	a1,0x45
  4341dc:	10000007 	b	4341fc <ip6tc_commit@@Base+0x948>
  4341e0:	00000000 	nop
  4341e4:	8f99821c 	lw	t9,-32228(gp)
  4341e8:	0320f809 	jalr	t9
  4341ec:	26650008 	addiu	a1,s3,8
  4341f0:	8fbc0010 	lw	gp,16(sp)
  4341f4:	1000000f 	b	434234 <ip6tc_commit@@Base+0x980>
  4341f8:	afd60000 	sw	s6,0(s8)
  4341fc:	8e620060 	lw	v0,96(s3)
  434200:	1000000b 	b	434230 <ip6tc_commit@@Base+0x97c>
  434204:	02a21023 	subu	v0,s5,v0
  434208:	8f8281c4 	lw	v0,-32316(gp)
  43420c:	02203021 	move	a2,s1
[31m  434210:	8f9983a8 	lw	t9,fprintf[0m
  434214:	8c440000 	lw	a0,0(v0)
  434218:	0320f809 	jalr	t9
--
  43501c:	3c020044 	lui	v0,0x44
  435020:	2882fffd 	slti	v0,a0,-3
  435024:	10400006 	beqz	v0,435040 <ip6tc_delete_chain@@Base+0x3a4>
  435028:	2402fffe 	li	v0,-2
  43502c:	2402fffb 	li	v0,-5
  435030:	14820010 	bne	a0,v0,435074 <ip6tc_delete_chain@@Base+0x3d8>
  435034:	00000000 	nop
  435038:	10000019 	b	4350a0 <ip6tc_delete_chain@@Base+0x404>
  43503c:	3c020044 	lui	v0,0x44
  435040:	10820006 	beq	a0,v0,43505c <ip6tc_delete_chain@@Base+0x3c0>
  435044:	3c020044 	lui	v0,0x44
  435048:	2402ffff 	li	v0,-1
  43504c:	14820009 	bne	a0,v0,435074 <ip6tc_delete_chain@@Base+0x3d8>
  435050:	00000000 	nop
  435054:	10000003 	b	435064 <ip6tc_delete_chain@@Base+0x3c8>
  435058:	3c020044 	lui	v0,0x44
  43505c:	10000011 	b	4350a4 <ip6tc_delete_chain@@Base+0x408>
  435060:	24422e90 	addiu	v0,v0,11920
  435064:	1000000f 	b	4350a4 <ip6tc_delete_chain@@Base+0x408>
  435068:	24422e98 	addiu	v0,v0,11928
  43506c:	1000000d 	b	4350a4 <ip6tc_delete_chain@@Base+0x408>
  435070:	24422ea0 	addiu	v0,v0,11936
  435074:	8f8281c4 	lw	v0,-32316(gp)
  435078:	00803021 	move	a2,a0
  43507c:	3c050045 	lui	a1,0x45
[31m  435080:	8f9983a8 	lw	t9,fprintf[0m
  435084:	8c440000 	lw	a0,0(v0)
  435088:	0320f809 	jalr	t9
--
  435fbc:	0320f809 	jalr	t9
  435fc0:	afa70034 	sw	a3,52(sp)
  435fc4:	8fa6003c 	lw	a2,60(sp)
  435fc8:	8fbc0010 	lw	gp,16(sp)
  435fcc:	8fa30038 	lw	v1,56(sp)
  435fd0:	8fa70034 	lw	a3,52(sp)
  435fd4:	1040000c 	beqz	v0,436008 <ip6tc_create_chain@@Base+0x580>
  435fd8:	24c6ffe0 	addiu	a2,a2,-32
  435fdc:	10000031 	b	4360a4 <ip6tc_create_chain@@Base+0x61c>
  435fe0:	00000000 	nop
  435fe4:	00e22021 	addu	a0,a3,v0
  435fe8:	90a80020 	lbu	t0,32(a1)
  435fec:	00622821 	addu	a1,v1,v0
  435ff0:	90840020 	lbu	a0,32(a0)
  435ff4:	90a50020 	lbu	a1,32(a1)
  435ff8:	01042026 	xor	a0,t0,a0
  435ffc:	00852024 	and	a0,a0,a1
  436000:	14800028 	bnez	a0,4360a4 <ip6tc_create_chain@@Base+0x61c>
  436004:	24420001 	addiu	v0,v0,1
  436008:	0046202b 	sltu	a0,v0,a2
  43600c:	1480fff5 	bnez	a0,435fe4 <ip6tc_create_chain@@Base+0x55c>
  436010:	02a22821 	addu	a1,s5,v0
  436014:	1000000a 	b	436040 <ip6tc_create_chain@@Base+0x5b8>
  436018:	00000000 	nop
  43601c:	8f8281c4 	lw	v0,-32316(gp)
[31m  436020:	8f9983a8 	lw	t9,fprintf[0m
  436024:	8c440000 	lw	a0,0(v0)
  436028:	0320f809 	jalr	t9
--
  43622c:	8e220070 	lw	v0,112(s1)
  436230:	8e250060 	lw	a1,96(s1)
  436234:	8e260064 	lw	a2,100(s1)
  436238:	8e270068 	lw	a3,104(s1)
  43623c:	8f9985bc 	lw	t9,-31300(gp)
  436240:	afa30010 	sw	v1,16(sp)
  436244:	0320f809 	jalr	t9
  436248:	afa20014 	sw	v0,20(sp)
  43624c:	8fbc0018 	lw	gp,24(sp)
  436250:	10000161 	b	4367d8 <dump_entries6@@Base+0x694>
  436254:	00000000 	nop
  436258:	24c40028 	addiu	a0,a2,40
  43625c:	00938021 	addu	s0,a0,s3
  436260:	10000006 	b	43627c <dump_entries6@@Base+0x138>
  436264:	00001821 	move	v1,zero
  436268:	12500013 	beq	s2,s0,4362b8 <dump_entries6@@Base+0x174>
  43626c:	00000000 	nop
  436270:	9647008e 	lhu	a3,142(s2)
  436274:	24a50001 	addiu	a1,a1,1
  436278:	00671821 	addu	v1,v1,a3
  43627c:	0062382b 	sltu	a3,v1,v0
  436280:	14e0fff9 	bnez	a3,436268 <dump_entries6@@Base+0x124>
  436284:	00839021 	addu	s2,a0,v1
  436288:	8f8281c4 	lw	v0,-32316(gp)
  43628c:	24c60028 	addiu	a2,a2,40
[31m  436290:	8f9983a8 	lw	t9,fprintf[0m
  436294:	3c050045 	lui	a1,0x45
  436298:	8c440000 	lw	a0,0(v0)
--
  4369e0:	0440016f 	bltz	v0,436fa0 <ip6tc_init@@Base+0x67c>
  4369e4:	00408821 	move	s1,v0
  4369e8:	8f998504 	lw	t9,-31484(gp)
  4369ec:	00402021 	move	a0,v0
  4369f0:	24050002 	li	a1,2
  4369f4:	0320f809 	jalr	t9
  4369f8:	24060001 	li	a2,1
  4369fc:	2403ffff 	li	v1,-1
  436a00:	8fbc0018 	lw	gp,24(sp)
  436a04:	14430016 	bne	v0,v1,436a60 <ip6tc_init@@Base+0x13c>
  436a08:	24020054 	li	v0,84
  436a0c:	8f998120 	lw	t9,-32480(gp)
  436a10:	8f8281c4 	lw	v0,-32316(gp)
  436a14:	8c500000 	lw	s0,0(v0)
  436a18:	0320f809 	jalr	t9
  436a1c:	00000000 	nop
  436a20:	8fbc0018 	lw	gp,24(sp)
  436a24:	8c440000 	lw	a0,0(v0)
  436a28:	8f998598 	lw	t9,-31336(gp)
  436a2c:	0320f809 	jalr	t9
  436a30:	00000000 	nop
  436a34:	3c050044 	lui	a1,0x44
  436a38:	02002021 	move	a0,s0
  436a3c:	8fbc0018 	lw	gp,24(sp)
  436a40:	24a57f20 	addiu	a1,a1,32544
[31m  436a44:	8f9983a8 	lw	t9,fprintf[0m
  436a48:	0320f809 	jalr	t9
  436a4c:	00403021 	move	a2,v0
--
  43d294:	3c02004c 	lui	v0,0x4c
  43d298:	8c4216d0 	lw	v0,5840(v0)
  43d29c:	8fa60020 	lw	a2,32(sp)
  43d2a0:	8c590014 	lw	t9,20(v0)
  43d2a4:	0320f809 	jalr	t9
  43d2a8:	00000000 	nop
  43d2ac:	8fbf002c 	lw	ra,44(sp)
  43d2b0:	03e00008 	jr	ra
  43d2b4:	27bd0030 	addiu	sp,sp,48
  43d2b8:	27bdffd8 	addiu	sp,sp,-40
  43d2bc:	afbf0024 	sw	ra,36(sp)
  43d2c0:	3c1c0047 	lui	gp,0x47
  43d2c4:	279c7ae0 	addiu	gp,gp,31456
  43d2c8:	afbc0018 	sw	gp,24(sp)
  43d2cc:	10000014 	b	43d320 <xtables_param_act@@Base+0x190>
  43d2d0:	00000000 	nop
  43d2d4:	8ca2000c 	lw	v0,12(a1)
  43d2d8:	2c430100 	sltiu	v1,v0,256
  43d2dc:	14600010 	bnez	v1,43d320 <xtables_param_act@@Base+0x190>
  43d2e0:	24a50010 	addiu	a1,a1,16
  43d2e4:	3c03004c 	lui	v1,0x4c
  43d2e8:	00803821 	move	a3,a0
  43d2ec:	3c050045 	lui	a1,0x45
  43d2f0:	8c6316d0 	lw	v1,5840(v1)
  43d2f4:	24a5453c 	addiu	a1,a1,17724
[31m  43d2f8:	8f9983a8 	lw	t9,fprintf[0m
  43d2fc:	8c660004 	lw	a2,4(v1)
  43d300:	8f8381c4 	lw	v1,-32316(gp)
--
  43d414:	240500ff 	li	a1,255
  43d418:	8fbf002c 	lw	ra,44(sp)
  43d41c:	8fb40028 	lw	s4,40(sp)
  43d420:	8fb30024 	lw	s3,36(sp)
  43d424:	8fb20020 	lw	s2,32(sp)
  43d428:	8fb1001c 	lw	s1,28(sp)
  43d42c:	8fb00018 	lw	s0,24(sp)
  43d430:	03200008 	jr	t9
  43d434:	27bd0030 	addiu	sp,sp,48
  43d438:	02402021 	move	a0,s2
  43d43c:	240500ff 	li	a1,255
  43d440:	0320f809 	jalr	t9
  43d444:	02603021 	move	a2,s3
  43d448:	02001021 	move	v0,s0
  43d44c:	2405002f 	li	a1,47
  43d450:	8fbc0010 	lw	gp,16(sp)
  43d454:	10000013 	b	43d4a4 <xtables_parse_interface@@Base+0x16c>
  43d458:	24040020 	li	a0,32
  43d45c:	10650003 	beq	v1,a1,43d46c <xtables_parse_interface@@Base+0x134>
  43d460:	00000000 	nop
  43d464:	1464000f 	bne	v1,a0,43d4a4 <xtables_parse_interface@@Base+0x16c>
  43d468:	24420001 	addiu	v0,v0,1
  43d46c:	8f8281c4 	lw	v0,-32316(gp)
  43d470:	02003021 	move	a2,s0
  43d474:	3c050045 	lui	a1,0x45
[31m  43d478:	8f9983a8 	lw	t9,fprintf[0m
  43d47c:	24a545a4 	addiu	a1,a1,17828
  43d480:	8c440000 	lw	a0,0(v0)
--
  43d498:	8fb00018 	lw	s0,24(sp)
  43d49c:	03200008 	jr	t9
  43d4a0:	27bd0030 	addiu	sp,sp,48
  43d4a4:	80430000 	lb	v1,0(v0)
  43d4a8:	1460ffec 	bnez	v1,43d45c <xtables_parse_interface@@Base+0x124>
  43d4ac:	00000000 	nop
  43d4b0:	8fbf002c 	lw	ra,44(sp)
  43d4b4:	8fb40028 	lw	s4,40(sp)
  43d4b8:	8fb30024 	lw	s3,36(sp)
  43d4bc:	8fb20020 	lw	s2,32(sp)
  43d4c0:	8fb1001c 	lw	s1,28(sp)
  43d4c4:	8fb00018 	lw	s0,24(sp)
  43d4c8:	03e00008 	jr	ra
  43d4cc:	27bd0030 	addiu	sp,sp,48

0043d4d0 <xtables_set_params@@Base>:
  43d4d0:	27bdffe0 	addiu	sp,sp,-32
  43d4d4:	afbf001c 	sw	ra,28(sp)
  43d4d8:	3c1c0047 	lui	gp,0x47
  43d4dc:	279c7ae0 	addiu	gp,gp,31456
  43d4e0:	afbc0010 	sw	gp,16(sp)
  43d4e4:	1480000b 	bnez	a0,43d514 <xtables_set_params@@Base+0x44>
  43d4e8:	3c03004c 	lui	v1,0x4c
  43d4ec:	8f8281c4 	lw	v0,-32316(gp)
  43d4f0:	3c050045 	lui	a1,0x45
[31m  43d4f4:	8f9983a8 	lw	t9,fprintf[0m
  43d4f8:	3c060045 	lui	a2,0x45
  43d4fc:	8c440000 	lw	a0,0(v0)
--
  43d530:	8fbf001c 	lw	ra,28(sp)
  43d534:	03e00008 	jr	ra
  43d538:	27bd0020 	addiu	sp,sp,32
  43d53c:	3c1c0047 	lui	gp,0x47
  43d540:	308400ff 	andi	a0,a0,0xff
  43d544:	24020002 	li	v0,2
  43d548:	10820006 	beq	a0,v0,43d564 <xtables_set_params@@Base+0x94>
  43d54c:	279c7ae0 	addiu	gp,gp,31456
  43d550:	2402000a 	li	v0,10
  43d554:	1482000a 	bne	a0,v0,43d580 <xtables_set_params@@Base+0xb0>
  43d558:	3c050045 	lui	a1,0x45
  43d55c:	10000004 	b	43d570 <xtables_set_params@@Base+0xa0>
  43d560:	3c030047 	lui	v1,0x47
  43d564:	3c030047 	lui	v1,0x47
  43d568:	10000002 	b	43d574 <xtables_set_params@@Base+0xa4>
  43d56c:	2463b248 	addiu	v1,v1,-19896
  43d570:	2463b260 	addiu	v1,v1,-19872
  43d574:	8f828384 	lw	v0,-31868(gp)
  43d578:	03e00008 	jr	ra
  43d57c:	ac430000 	sw	v1,0(v0)
  43d580:	8f8281c4 	lw	v0,-32316(gp)
  43d584:	3c060045 	lui	a2,0x45
  43d588:	24a5461c 	addiu	a1,a1,17948
  43d58c:	8c440000 	lw	a0,0(v0)
  43d590:	24c64bec 	addiu	a2,a2,19436
[31m  43d594:	8f9983a8 	lw	t9,fprintf[0m
  43d598:	03200008 	jr	t9
  43d59c:	00000000 	nop

0043d5a0 <xtables_register_target@@Base>:
  43d5a0:	27bdffc8 	addiu	sp,sp,-56
  43d5a4:	afbf0034 	sw	ra,52(sp)
  43d5a8:	afb20030 	sw	s2,48(sp)
  43d5ac:	afb1002c 	sw	s1,44(sp)
  43d5b0:	afb00028 	sw	s0,40(sp)
  43d5b4:	3c1c0047 	lui	gp,0x47
  43d5b8:	279c7ae0 	addiu	gp,gp,31456
  43d5bc:	afbc0018 	sw	gp,24(sp)
  43d5c0:	8c900000 	lw	s0,0(a0)
  43d5c4:	1600000d 	bnez	s0,43d5fc <xtables_register_target@@Base+0x5c>
  43d5c8:	00808821 	move	s1,a0
  43d5cc:	3c02004c 	lui	v0,0x4c
  43d5d0:	3c050045 	lui	a1,0x45
  43d5d4:	8c4216d0 	lw	v0,5840(v0)
  43d5d8:	24a54644 	addiu	a1,a1,17988
  43d5dc:	8e270008 	lw	a3,8(s1)
  43d5e0:	8c460004 	lw	a2,4(v0)
  43d5e4:	8f8281c4 	lw	v0,-32316(gp)
[31m  43d5e8:	8f9983a8 	lw	t9,fprintf[0m
  43d5ec:	8c440000 	lw	a0,0(v0)
  43d5f0:	92220010 	lbu	v0,16(s1)
  43d5f4:	10000014 	b	43d648 <xtables_register_target@@Base+0xa8>
  43d5f8:	afa20010 	sw	v0,16(sp)
  43d5fc:	8f99821c 	lw	t9,-32228(gp)
  43d600:	3c120044 	lui	s2,0x44
  43d604:	02002021 	move	a0,s0
  43d608:	0320f809 	jalr	t9
  43d60c:	26455910 	addiu	a1,s2,22800
  43d610:	8fbc0018 	lw	gp,24(sp)
  43d614:	8e270008 	lw	a3,8(s1)
  43d618:	10400011 	beqz	v0,43d660 <xtables_register_target@@Base+0xc0>
  43d61c:	3c02004c 	lui	v0,0x4c
  43d620:	26525910 	addiu	s2,s2,22800
  43d624:	8c4216d0 	lw	v0,5840(v0)
  43d628:	3c050045 	lui	a1,0x45
[31m  43d62c:	8f9983a8 	lw	t9,fprintf[0m
  43d630:	24a5466c 	addiu	a1,a1,18028
  43d634:	8c460004 	lw	a2,4(v0)
--
  43d654:	8f998118 	lw	t9,-32488(gp)
  43d658:	0320f809 	jalr	t9
  43d65c:	24040001 	li	a0,1
  43d660:	8f9980bc 	lw	t9,strlen
  43d664:	00e02021 	move	a0,a3
  43d668:	0320f809 	jalr	t9
  43d66c:	afa70020 	sw	a3,32(sp)
  43d670:	2c42001d 	sltiu	v0,v0,29
  43d674:	8fbc0018 	lw	gp,24(sp)
  43d678:	8fa70020 	lw	a3,32(sp)
  43d67c:	14400005 	bnez	v0,43d694 <xtables_register_target@@Base+0xf4>
  43d680:	3c02004c 	lui	v0,0x4c
  43d684:	3c050045 	lui	a1,0x45
  43d688:	8c4216d0 	lw	v0,5840(v0)
  43d68c:	10000008 	b	43d6b0 <xtables_register_target@@Base+0x110>
  43d690:	24a546a8 	addiu	a1,a1,18088
  43d694:	96220012 	lhu	v0,18(s1)
  43d698:	2c4200ff 	sltiu	v0,v0,255
  43d69c:	1440000c 	bnez	v0,43d6d0 <xtables_register_target@@Base+0x130>
  43d6a0:	3c02004c 	lui	v0,0x4c
  43d6a4:	3c050045 	lui	a1,0x45
  43d6a8:	8c4216d0 	lw	v0,5840(v0)
  43d6ac:	24a546cc 	addiu	a1,a1,18124
  43d6b0:	8c460004 	lw	a2,4(v0)
  43d6b4:	8f8281c4 	lw	v0,-32316(gp)
[31m  43d6b8:	8f9983a8 	lw	t9,fprintf[0m
  43d6bc:	8c440000 	lw	a0,0(v0)
  43d6c0:	0320f809 	jalr	t9
--
  43d78c:	00000000 	nop
  43d790:	8fbf0024 	lw	ra,36(sp)
  43d794:	8fb00020 	lw	s0,32(sp)
  43d798:	03e00008 	jr	ra
  43d79c:	27bd0028 	addiu	sp,sp,40

0043d7a0 <xtables_register_match@@Base>:
  43d7a0:	27bdffc8 	addiu	sp,sp,-56
  43d7a4:	afbf0034 	sw	ra,52(sp)
  43d7a8:	afb20030 	sw	s2,48(sp)
  43d7ac:	afb1002c 	sw	s1,44(sp)
  43d7b0:	afb00028 	sw	s0,40(sp)
  43d7b4:	3c1c0047 	lui	gp,0x47
  43d7b8:	279c7ae0 	addiu	gp,gp,31456
  43d7bc:	afbc0018 	sw	gp,24(sp)
  43d7c0:	8c900000 	lw	s0,0(a0)
  43d7c4:	1600000d 	bnez	s0,43d7fc <xtables_register_match@@Base+0x5c>
  43d7c8:	00808821 	move	s1,a0
  43d7cc:	3c02004c 	lui	v0,0x4c
  43d7d0:	3c050045 	lui	a1,0x45
  43d7d4:	8c4216d0 	lw	v0,5840(v0)
  43d7d8:	24a546fc 	addiu	a1,a1,18172
  43d7dc:	8e270008 	lw	a3,8(s1)
  43d7e0:	8c460004 	lw	a2,4(v0)
  43d7e4:	8f8281c4 	lw	v0,-32316(gp)
[31m  43d7e8:	8f9983a8 	lw	t9,fprintf[0m
  43d7ec:	8c440000 	lw	a0,0(v0)
  43d7f0:	92220010 	lbu	v0,16(s1)
  43d7f4:	10000014 	b	43d848 <xtables_register_match@@Base+0xa8>
  43d7f8:	afa20010 	sw	v0,16(sp)
  43d7fc:	8f99821c 	lw	t9,-32228(gp)
  43d800:	3c120044 	lui	s2,0x44
  43d804:	02002021 	move	a0,s0
  43d808:	0320f809 	jalr	t9
  43d80c:	26455910 	addiu	a1,s2,22800
  43d810:	8fbc0018 	lw	gp,24(sp)
  43d814:	8e270008 	lw	a3,8(s1)
  43d818:	10400011 	beqz	v0,43d860 <xtables_register_match@@Base+0xc0>
  43d81c:	3c02004c 	lui	v0,0x4c
  43d820:	26525910 	addiu	s2,s2,22800
  43d824:	8c4216d0 	lw	v0,5840(v0)
  43d828:	3c050045 	lui	a1,0x45
[31m  43d82c:	8f9983a8 	lw	t9,fprintf[0m
  43d830:	24a54724 	addiu	a1,a1,18212
  43d834:	8c460004 	lw	a2,4(v0)
--
  43d854:	8f998118 	lw	t9,-32488(gp)
  43d858:	0320f809 	jalr	t9
  43d85c:	24040001 	li	a0,1
  43d860:	8f9980bc 	lw	t9,strlen
  43d864:	00e02021 	move	a0,a3
  43d868:	0320f809 	jalr	t9
  43d86c:	afa70020 	sw	a3,32(sp)
  43d870:	2c42001d 	sltiu	v0,v0,29
  43d874:	8fbc0018 	lw	gp,24(sp)
  43d878:	8fa70020 	lw	a3,32(sp)
  43d87c:	14400005 	bnez	v0,43d894 <xtables_register_match@@Base+0xf4>
  43d880:	3c02004c 	lui	v0,0x4c
  43d884:	3c050045 	lui	a1,0x45
  43d888:	8c4216d0 	lw	v0,5840(v0)
  43d88c:	10000008 	b	43d8b0 <xtables_register_match@@Base+0x110>
  43d890:	24a5475c 	addiu	a1,a1,18268
  43d894:	96220012 	lhu	v0,18(s1)
  43d898:	2c4200ff 	sltiu	v0,v0,255
  43d89c:	1440000c 	bnez	v0,43d8d0 <xtables_register_match@@Base+0x130>
  43d8a0:	3c02004c 	lui	v0,0x4c
  43d8a4:	3c050045 	lui	a1,0x45
  43d8a8:	8c4216d0 	lw	v0,5840(v0)
  43d8ac:	24a54780 	addiu	a1,a1,18304
  43d8b0:	8c460004 	lw	a2,4(v0)
  43d8b4:	8f8281c4 	lw	v0,-32316(gp)
[31m  43d8b8:	8f9983a8 	lw	t9,fprintf[0m
  43d8bc:	8c440000 	lw	a0,0(v0)
  43d8c0:	0320f809 	jalr	t9
--
  43e2dc:	0440007d 	bltz	v0,43e4d4 <xtables_merge_options@@Base+0x414>
  43e2e0:	00408821 	move	s1,v0
  43e2e4:	8f998504 	lw	t9,-31484(gp)
  43e2e8:	00402021 	move	a0,v0
  43e2ec:	24050002 	li	a1,2
  43e2f0:	0320f809 	jalr	t9
  43e2f4:	24060001 	li	a2,1
  43e2f8:	2403ffff 	li	v1,-1
  43e2fc:	8fbc0010 	lw	gp,16(sp)
  43e300:	14430014 	bne	v0,v1,43e354 <xtables_merge_options@@Base+0x294>
  43e304:	00000000 	nop
  43e308:	8f998120 	lw	t9,-32480(gp)
  43e30c:	8f8281c4 	lw	v0,-32316(gp)
  43e310:	8c500000 	lw	s0,0(v0)
  43e314:	0320f809 	jalr	t9
  43e318:	00000000 	nop
  43e31c:	8fbc0010 	lw	gp,16(sp)
  43e320:	8c440000 	lw	a0,0(v0)
  43e324:	8f998598 	lw	t9,-31336(gp)
  43e328:	0320f809 	jalr	t9
  43e32c:	00000000 	nop
  43e330:	3c050044 	lui	a1,0x44
  43e334:	02002021 	move	a0,s0
  43e338:	8fbc0010 	lw	gp,16(sp)
  43e33c:	24a57f20 	addiu	a1,a1,32544
[31m  43e340:	8f9983a8 	lw	t9,fprintf[0m
  43e344:	0320f809 	jalr	t9
  43e348:	00403021 	move	a2,v0
--
  43e608:	0080a021 	move	s4,a0
  43e60c:	afa20020 	sw	v0,32(sp)
  43e610:	00c0a821 	move	s5,a2
  43e614:	240600ff 	li	a2,255
  43e618:	8e620000 	lw	v0,0(s3)
  43e61c:	30b100ff 	andi	s1,a1,0xff
  43e620:	8f99845c 	lw	t9,-31652(gp)
  43e624:	9044000c 	lbu	a0,12(v0)
  43e628:	0320f809 	jalr	t9
  43e62c:	24050003 	li	a1,3
  43e630:	8fbc0018 	lw	gp,24(sp)
  43e634:	0441001f 	bgez	v0,43e6b4 <xtables_load_ko@@Base+0x1c8>
  43e638:	00408021 	move	s0,v0
  43e63c:	8f998120 	lw	t9,-32480(gp)
  43e640:	0320f809 	jalr	t9
  43e644:	00000000 	nop
  43e648:	8c440000 	lw	a0,0(v0)
  43e64c:	24020001 	li	v0,1
  43e650:	8fbc0018 	lw	gp,24(sp)
  43e654:	1482000c 	bne	a0,v0,43e688 <xtables_load_ko@@Base+0x19c>
  43e658:	00000000 	nop
  43e65c:	12200071 	beqz	s1,43e824 <xtables_load_ko@@Base+0x338>
  43e660:	3c050045 	lui	a1,0x45
  43e664:	8f8281c4 	lw	v0,-32316(gp)
  43e668:	02803021 	move	a2,s4
[31m  43e66c:	8f9983a8 	lw	t9,fprintf[0m
  43e670:	24a54834 	addiu	a1,a1,18484
  43e674:	8c440000 	lw	a0,0(v0)
  43e678:	0320f809 	jalr	t9
  43e67c:	02203821 	move	a3,s1
  43e680:	10000068 	b	43e824 <xtables_load_ko@@Base+0x338>
  43e684:	24020001 	li	v0,1
  43e688:	8f998598 	lw	t9,-31336(gp)
  43e68c:	8f8281c4 	lw	v0,-32316(gp)
  43e690:	8c500000 	lw	s0,0(v0)
  43e694:	0320f809 	jalr	t9
  43e698:	00000000 	nop
  43e69c:	3c050045 	lui	a1,0x45
  43e6a0:	8fbc0018 	lw	gp,24(sp)
  43e6a4:	02002021 	move	a0,s0
[31m  43e6a8:	8f9983a8 	lw	t9,fprintf[0m
  43e6ac:	10000019 	b	43e714 <xtables_load_ko@@Base+0x228>
  43e6b0:	24a54880 	addiu	a1,a1,18560
  43e6b4:	8f998504 	lw	t9,-31484(gp)
  43e6b8:	00402021 	move	a0,v0
  43e6bc:	24050002 	li	a1,2
  43e6c0:	0320f809 	jalr	t9
  43e6c4:	24060001 	li	a2,1
  43e6c8:	2403ffff 	li	v1,-1
  43e6cc:	8fbc0018 	lw	gp,24(sp)
  43e6d0:	14430016 	bne	v0,v1,43e72c <xtables_load_ko@@Base+0x240>
  43e6d4:	24050001 	li	a1,1
  43e6d8:	8f998120 	lw	t9,-32480(gp)
  43e6dc:	8f8281c4 	lw	v0,-32316(gp)
  43e6e0:	8c500000 	lw	s0,0(v0)
  43e6e4:	0320f809 	jalr	t9
  43e6e8:	00000000 	nop
  43e6ec:	8fbc0018 	lw	gp,24(sp)
  43e6f0:	8c440000 	lw	a0,0(v0)
  43e6f4:	8f998598 	lw	t9,-31336(gp)
  43e6f8:	0320f809 	jalr	t9
  43e6fc:	00000000 	nop
  43e700:	3c050044 	lui	a1,0x44
  43e704:	02002021 	move	a0,s0
  43e708:	8fbc0018 	lw	gp,24(sp)
  43e70c:	24a57f20 	addiu	a1,a1,32544
[31m  43e710:	8f9983a8 	lw	t9,fprintf[0m
  43e714:	0320f809 	jalr	t9
  43e718:	00403021 	move	a2,v0
--
  43e7a4:	00000000 	nop
  43e7a8:	24020078 	li	v0,120
  43e7ac:	14820006 	bne	a0,v0,43e7c8 <xtables_load_ko@@Base+0x2dc>
  43e7b0:	00000000 	nop
  43e7b4:	8f998078 	lw	t9,-32648(gp)
  43e7b8:	0320f809 	jalr	t9
  43e7bc:	02002021 	move	a0,s0
  43e7c0:	10000018 	b	43e824 <xtables_load_ko@@Base+0x338>
  43e7c4:	00001021 	move	v0,zero
  43e7c8:	24020063 	li	v0,99
  43e7cc:	14820006 	bne	a0,v0,43e7e8 <xtables_load_ko@@Base+0x2fc>
  43e7d0:	00000000 	nop
  43e7d4:	8f998078 	lw	t9,-32648(gp)
  43e7d8:	0320f809 	jalr	t9
  43e7dc:	02002021 	move	a0,s0
  43e7e0:	10000010 	b	43e824 <xtables_load_ko@@Base+0x338>
  43e7e4:	2e220001 	sltiu	v0,s1,1
  43e7e8:	8f998598 	lw	t9,-31336(gp)
  43e7ec:	8f8281c4 	lw	v0,-32316(gp)
  43e7f0:	8c500000 	lw	s0,0(v0)
  43e7f4:	0320f809 	jalr	t9
  43e7f8:	00000000 	nop
  43e7fc:	3c050045 	lui	a1,0x45
  43e800:	8fbc0018 	lw	gp,24(sp)
  43e804:	02002021 	move	a0,s0
[31m  43e808:	8f9983a8 	lw	t9,fprintf[0m
  43e80c:	1000ffc1 	b	43e714 <xtables_load_ko@@Base+0x228>
  43e810:	24a548a8 	addiu	a1,a1,18600
--
  43e990:	1440000d 	bnez	v0,43e9c8 <xtables_find_target@@Base+0x180>
  43e994:	00e5382b 	sltu	a3,a3,a1
  43e998:	14e00009 	bnez	a3,43e9c0 <xtables_find_target@@Base+0x178>
  43e99c:	00000000 	nop
  43e9a0:	15200005 	bnez	t1,43e9b8 <xtables_find_target@@Base+0x170>
  43e9a4:	00000000 	nop
  43e9a8:	14c00007 	bnez	a2,43e9c8 <xtables_find_target@@Base+0x180>
  43e9ac:	3c02004c 	lui	v0,0x4c
  43e9b0:	1000000c 	b	43e9e4 <xtables_find_target@@Base+0x19c>
  43e9b4:	3c050045 	lui	a1,0x45
  43e9b8:	14c00008 	bnez	a2,43e9dc <xtables_find_target@@Base+0x194>
  43e9bc:	00000000 	nop
  43e9c0:	10000002 	b	43e9cc <xtables_find_target@@Base+0x184>
  43e9c4:	24020001 	li	v0,1
  43e9c8:	2402ffff 	li	v0,-1
  43e9cc:	14600011 	bnez	v1,43ea14 <xtables_find_target@@Base+0x1cc>
  43e9d0:	24030001 	li	v1,1
  43e9d4:	1000000d 	b	43ea0c <xtables_find_target@@Base+0x1c4>
  43e9d8:	00000000 	nop
  43e9dc:	3c02004c 	lui	v0,0x4c
  43e9e0:	3c050045 	lui	a1,0x45
  43e9e4:	8c4216d0 	lw	v0,5840(v0)
  43e9e8:	8e070008 	lw	a3,8(s0)
  43e9ec:	8c460004 	lw	a2,4(v0)
  43e9f0:	8f8281c4 	lw	v0,-32316(gp)
[31m  43e9f4:	8f9983a8 	lw	t9,fprintf[0m
  43e9f8:	8c440000 	lw	a0,0(v0)
  43e9fc:	0320f809 	jalr	t9
--
  43ea58:	00000000 	nop
  43ea5c:	8fbc0018 	lw	gp,24(sp)
  43ea60:	10400025 	beqz	v0,43eaf8 <xtables_find_target@@Base+0x2b0>
  43ea64:	00000000 	nop
  43ea68:	8e620000 	lw	v0,0(s3)
  43ea6c:	8f838228 	lw	v1,-32216(gp)
  43ea70:	10000003 	b	43ea80 <xtables_find_target@@Base+0x238>
  43ea74:	00000000 	nop
  43ea78:	24430004 	addiu	v1,v0,4
  43ea7c:	00801021 	move	v0,a0
  43ea80:	8c440004 	lw	a0,4(v0)
  43ea84:	1452fffc 	bne	v0,s2,43ea78 <xtables_find_target@@Base+0x230>
  43ea88:	00000000 	nop
  43ea8c:	ac640000 	sw	a0,0(v1)
  43ea90:	8e020014 	lw	v0,20(s0)
  43ea94:	24430007 	addiu	v1,v0,7
  43ea98:	00771824 	and	v1,v1,s7
  43ea9c:	1043000f 	beq	v0,v1,43eadc <xtables_find_target@@Base+0x294>
  43eaa0:	3c03004c 	lui	v1,0x4c
  43eaa4:	3c050045 	lui	a1,0x45
  43eaa8:	8c6316d0 	lw	v1,5840(v1)
  43eaac:	24a548f4 	addiu	a1,a1,18676
  43eab0:	8e070008 	lw	a3,8(s0)
  43eab4:	8c660004 	lw	a2,4(v1)
  43eab8:	8f8381c4 	lw	v1,-32316(gp)
[31m  43eabc:	8f9983a8 	lw	t9,fprintf[0m
  43eac0:	8c640000 	lw	a0,0(v1)
  43eac4:	0320f809 	jalr	t9
--
  43edd8:	1440000d 	bnez	v0,43ee10 <xtables_find_match@@Base+0x1a4>
  43eddc:	00e5382b 	sltu	a3,a3,a1
  43ede0:	14e00009 	bnez	a3,43ee08 <xtables_find_match@@Base+0x19c>
  43ede4:	00000000 	nop
  43ede8:	15200005 	bnez	t1,43ee00 <xtables_find_match@@Base+0x194>
  43edec:	00000000 	nop
  43edf0:	14c00007 	bnez	a2,43ee10 <xtables_find_match@@Base+0x1a4>
  43edf4:	3c02004c 	lui	v0,0x4c
  43edf8:	1000000c 	b	43ee2c <xtables_find_match@@Base+0x1c0>
  43edfc:	3c050045 	lui	a1,0x45
  43ee00:	14c00008 	bnez	a2,43ee24 <xtables_find_match@@Base+0x1b8>
  43ee04:	00000000 	nop
  43ee08:	10000002 	b	43ee14 <xtables_find_match@@Base+0x1a8>
  43ee0c:	24020001 	li	v0,1
  43ee10:	2402ffff 	li	v0,-1
  43ee14:	14600011 	bnez	v1,43ee5c <xtables_find_match@@Base+0x1f0>
  43ee18:	24030001 	li	v1,1
  43ee1c:	1000000d 	b	43ee54 <xtables_find_match@@Base+0x1e8>
  43ee20:	00000000 	nop
  43ee24:	3c02004c 	lui	v0,0x4c
  43ee28:	3c050045 	lui	a1,0x45
  43ee2c:	8c4216d0 	lw	v0,5840(v0)
  43ee30:	8e070008 	lw	a3,8(s0)
  43ee34:	8c460004 	lw	a2,4(v0)
  43ee38:	8f8281c4 	lw	v0,-32316(gp)
[31m  43ee3c:	8f9983a8 	lw	t9,fprintf[0m
  43ee40:	8c440000 	lw	a0,0(v0)
  43ee44:	0320f809 	jalr	t9
--
  43eeb0:	8ee20000 	lw	v0,0(s7)
  43eeb4:	8f83824c 	lw	v1,-32180(gp)
  43eeb8:	10000003 	b	43eec8 <xtables_find_match@@Base+0x25c>
  43eebc:	00000000 	nop
  43eec0:	24430004 	addiu	v1,v0,4
  43eec4:	00801021 	move	v0,a0
  43eec8:	8c440004 	lw	a0,4(v0)
  43eecc:	1452fffc 	bne	v0,s2,43eec0 <xtables_find_match@@Base+0x254>
  43eed0:	00000000 	nop
  43eed4:	ac640000 	sw	a0,0(v1)
  43eed8:	8e020014 	lw	v0,20(s0)
  43eedc:	24430007 	addiu	v1,v0,7
  43eee0:	007e1824 	and	v1,v1,s8
  43eee4:	14430005 	bne	v0,v1,43eefc <xtables_find_match@@Base+0x290>
  43eee8:	3c050045 	lui	a1,0x45
  43eeec:	8ee20000 	lw	v0,0(s7)
  43eef0:	8f83824c 	lw	v1,-32180(gp)
  43eef4:	10000011 	b	43ef3c <xtables_find_match@@Base+0x2d0>
  43eef8:	00000000 	nop
  43eefc:	3c03004c 	lui	v1,0x4c
  43ef00:	8c6316d0 	lw	v1,5840(v1)
  43ef04:	24a549d0 	addiu	a1,a1,18896
  43ef08:	8e070008 	lw	a3,8(s0)
  43ef0c:	8c660004 	lw	a2,4(v1)
  43ef10:	8f8381c4 	lw	v1,-32316(gp)
[31m  43ef14:	8f9983a8 	lw	t9,fprintf[0m
  43ef18:	8c640000 	lw	a0,0(v1)
  43ef1c:	0320f809 	jalr	t9
--
  43ffd4:	02202021 	move	a0,s1
  43ffd8:	02002021 	move	a0,s0
  43ffdc:	8fbf0024 	lw	ra,36(sp)
  43ffe0:	8fb10020 	lw	s1,32(sp)
  43ffe4:	8fb0001c 	lw	s0,28(sp)
  43ffe8:	0810f534 	j	43d4d0 <xtables_set_params@@Base>
  43ffec:	27bd0028 	addiu	sp,sp,40
  43fff0:	27bdffd0 	addiu	sp,sp,-48
  43fff4:	afbf002c 	sw	ra,44(sp)
  43fff8:	afb20028 	sw	s2,40(sp)
  43fffc:	afb10024 	sw	s1,36(sp)
  440000:	afb00020 	sw	s0,32(sp)
  440004:	3c1c0047 	lui	gp,0x47
  440008:	279c7ae0 	addiu	gp,gp,31456
  44000c:	afbc0010 	sw	gp,16(sp)
  440010:	3c02004c 	lui	v0,0x4c
  440014:	8f9081c4 	lw	s0,-32316(gp)
  440018:	27a30038 	addiu	v1,sp,56
  44001c:	00808821 	move	s1,a0
  440020:	8c4216d0 	lw	v0,5840(v0)
  440024:	00a09021 	move	s2,a1
  440028:	3c050044 	lui	a1,0x44
  44002c:	afa30018 	sw	v1,24(sp)
  440030:	afa60038 	sw	a2,56(sp)
  440034:	afa7003c 	sw	a3,60(sp)
[31m  440038:	8f9983a8 	lw	t9,fprintf[0m
  44003c:	8c470008 	lw	a3,8(v0)
  440040:	8e040000 	lw	a0,0(s0)

[0m
[[0;33m*[0m] Function [0;33mfprintf[0m used [0;33m82[0m times [0;33mxtables-multi[0m

