[0m
[[0;33m*[0m] Function [0;33mprintf[0m tear down of [0;33mlibFVwireless.so[0m

    7c78:	8fbc0010 	lw	gp,16(sp)
    7c7c:	8f998148 	lw	t9,-32440(gp)
    7c80:	27b10024 	addiu	s1,sp,36
    7c84:	02002821 	move	a1,s0
    7c88:	0320f809 	jalr	t9
    7c8c:	02202021 	move	a0,s1
    7c90:	240200ac 	li	v0,172
    7c94:	02a02021 	move	a0,s5
    7c98:	8fbc0010 	lw	gp,16(sp)
    7c9c:	34058b35 	li	a1,0x8b35
    7ca0:	02203021 	move	a2,s1
    7ca4:	afb40034 	sw	s4,52(sp)
    7ca8:	8f998140 	lw	t9,-32448(gp)
    7cac:	a7a20038 	sh	v0,56(sp)
    7cb0:	0320f809 	jalr	t9
    7cb4:	a7a0003a 	sh	zero,58(sp)
    7cb8:	8fbc0010 	lw	gp,16(sp)
    7cbc:	0441000a 	bgez	v0,7ce8 <realtek_StartJoin@@Base+0x3dc>
    7cc0:	3c140003 	lui	s4,0x3
    7cc4:	8f998038 	lw	t9,-32712(gp)
    7cc8:	0320f809 	jalr	t9
    7ccc:	02a02021 	move	a0,s5
    7cd0:	02002821 	move	a1,s0
    7cd4:	8fbc0010 	lw	gp,16(sp)
    7cd8:	8f848024 	lw	a0,-32732(gp)
[31m    7cdc:	8f99813c 	lw	t9,printf[0m
    7ce0:	10000023 	b	7d70 <realtek_StartJoin@@Base+0x464>
    7ce4:	24848fa8 	addiu	a0,a0,-28760
--
    7d04:	8fbc0010 	lw	gp,16(sp)
    7d08:	2412ffff 	li	s2,-1
    7d0c:	8f998098 	lw	t9,-32616(gp)
    7d10:	0320f809 	jalr	t9
    7d14:	36940d40 	ori	s4,s4,0xd40
    7d18:	8fbc0010 	lw	gp,16(sp)
    7d1c:	8f938028 	lw	s3,-32728(gp)
    7d20:	26736f40 	addiu	s3,s3,28480
    7d24:	8f998140 	lw	t9,-32448(gp)
    7d28:	02a02021 	move	a0,s5
    7d2c:	34058b36 	li	a1,0x8b36
    7d30:	afb70034 	sw	s7,52(sp)
    7d34:	02203021 	move	a2,s1
    7d38:	a7a00038 	sh	zero,56(sp)
    7d3c:	0320f809 	jalr	t9
    7d40:	a7a0003a 	sh	zero,58(sp)
    7d44:	8fbc0010 	lw	gp,16(sp)
    7d48:	0441000d 	bgez	v0,7d80 <realtek_StartJoin@@Base+0x474>
    7d4c:	00000000 	nop
    7d50:	8f998038 	lw	t9,-32712(gp)
    7d54:	0320f809 	jalr	t9
    7d58:	02a02021 	move	a0,s5
    7d5c:	02002821 	move	a1,s0
    7d60:	8fbc0010 	lw	gp,16(sp)
    7d64:	8f848024 	lw	a0,-32732(gp)
[31m    7d68:	8f99813c 	lw	t9,printf[0m
    7d6c:	24848fcc 	addiu	a0,a0,-28724
    7d70:	0320f809 	jalr	t9
--
    82b0:	8fb10050 	lw	s1,80(sp)
    82b4:	8fb0004c 	lw	s0,76(sp)
    82b8:	03e00008 	jr	ra
    82bc:	27bd0058 	addiu	sp,sp,88

000082c0 <realtek_WCheck@@Base>:
    82c0:	3c1c0002 	lui	gp,0x2
    82c4:	279c9fd0 	addiu	gp,gp,-24624
    82c8:	0399e021 	addu	gp,gp,t9
    82cc:	27bdffe0 	addiu	sp,sp,-32
    82d0:	afbf001c 	sw	ra,28(sp)
    82d4:	afb00018 	sw	s0,24(sp)
    82d8:	afbc0010 	sw	gp,16(sp)
    82dc:	00808021 	move	s0,a0
    82e0:	8f848024 	lw	a0,-32732(gp)
    82e4:	8f998104 	lw	t9,-32508(gp)
    82e8:	0320f809 	jalr	t9
    82ec:	2484904c 	addiu	a0,a0,-28596
    82f0:	8fbc0010 	lw	gp,16(sp)
    82f4:	8f9980c4 	lw	t9,-32572(gp)
    82f8:	0320f809 	jalr	t9
    82fc:	02002021 	move	a0,s0
    8300:	8fbc0010 	lw	gp,16(sp)
    8304:	00402821 	move	a1,v0
    8308:	8f848024 	lw	a0,-32732(gp)
[31m    830c:	8f99813c 	lw	t9,printf[0m
    8310:	0320f809 	jalr	t9
    8314:	2484905c 	addiu	a0,a0,-28580
    8318:	8fbc0010 	lw	gp,16(sp)
    831c:	8f9980a0 	lw	t9,-32608(gp)
    8320:	0320f809 	jalr	t9
    8324:	02002021 	move	a0,s0
    8328:	8fbc0010 	lw	gp,16(sp)
    832c:	00402821 	move	a1,v0
    8330:	8f848024 	lw	a0,-32732(gp)
[31m    8334:	8f99813c 	lw	t9,printf[0m
    8338:	0320f809 	jalr	t9
    833c:	24849068 	addiu	a0,a0,-28568
    8340:	8fbc0010 	lw	gp,16(sp)
    8344:	8f9980b8 	lw	t9,-32584(gp)
    8348:	0320f809 	jalr	t9
    834c:	02002021 	move	a0,s0
    8350:	8fbc0010 	lw	gp,16(sp)
    8354:	00402821 	move	a1,v0
    8358:	8f848024 	lw	a0,-32732(gp)
[31m    835c:	8f99813c 	lw	t9,printf[0m
    8360:	0320f809 	jalr	t9
    8364:	24849080 	addiu	a0,a0,-28544
    8368:	8fbc0010 	lw	gp,16(sp)
    836c:	8f998138 	lw	t9,-32456(gp)
    8370:	0320f809 	jalr	t9
    8374:	02002021 	move	a0,s0
    8378:	8fbc0010 	lw	gp,16(sp)
    837c:	00402821 	move	a1,v0
    8380:	8f848024 	lw	a0,-32732(gp)
[31m    8384:	8f99813c 	lw	t9,printf[0m
    8388:	0320f809 	jalr	t9
    838c:	24849094 	addiu	a0,a0,-28524
    8390:	8fbc0010 	lw	gp,16(sp)
    8394:	8f9980fc 	lw	t9,-32516(gp)
    8398:	0320f809 	jalr	t9
    839c:	02002021 	move	a0,s0
    83a0:	8fbc0010 	lw	gp,16(sp)
    83a4:	00402821 	move	a1,v0
    83a8:	8f848024 	lw	a0,-32732(gp)
[31m    83ac:	8f99813c 	lw	t9,printf[0m
    83b0:	0320f809 	jalr	t9
    83b4:	248490a8 	addiu	a0,a0,-28504
    83b8:	8fbc0010 	lw	gp,16(sp)
    83bc:	8f9980b0 	lw	t9,-32592(gp)
    83c0:	0320f809 	jalr	t9
    83c4:	02002021 	move	a0,s0
    83c8:	8fbc0010 	lw	gp,16(sp)
    83cc:	00402821 	move	a1,v0
    83d0:	8f848024 	lw	a0,-32732(gp)
[31m    83d4:	8f99813c 	lw	t9,printf[0m
    83d8:	0320f809 	jalr	t9
    83dc:	248490c0 	addiu	a0,a0,-28480
    83e0:	8fbc0010 	lw	gp,16(sp)
    83e4:	8f998048 	lw	t9,-32696(gp)
    83e8:	0320f809 	jalr	t9
    83ec:	02002021 	move	a0,s0
    83f0:	8fbc0010 	lw	gp,16(sp)
    83f4:	00402821 	move	a1,v0
    83f8:	8f848024 	lw	a0,-32732(gp)
[31m    83fc:	8f99813c 	lw	t9,printf[0m
    8400:	0320f809 	jalr	t9
    8404:	248490d0 	addiu	a0,a0,-28464
    8408:	8fbc0010 	lw	gp,16(sp)
    840c:	8f9980c8 	lw	t9,-32568(gp)
    8410:	0320f809 	jalr	t9
    8414:	02002021 	move	a0,s0
    8418:	8fbc0010 	lw	gp,16(sp)
    841c:	00402821 	move	a1,v0
    8420:	8fbf001c 	lw	ra,28(sp)
    8424:	8f848024 	lw	a0,-32732(gp)
[31m    8428:	8f99813c 	lw	t9,printf[0m
    842c:	8fb00018 	lw	s0,24(sp)
    8430:	248490e0 	addiu	a0,a0,-28448

[0m
[[0;33m*[0m] Function [0;33mprintf[0m used [0;33m10[0m times [0;33mlibFVwireless.so[0m

