[[0;33m*[0m] Binary protection state of [0;33miwconfig[0m

  	RELRO          CANARY            NX           PIE          RPATH        RUNPATH      SYMBOLS      
  	[31mNo RELRO[0m       [31mNo Canary found[0m   [31mNX disabled[0m  [31mNo PIE[0m       [32mNo RPATH[0m     [32mNo RUNPATH[0m   [32mNo Symbols[0m

[0m
[[0;33m*[0m] Function [0;33mfprintf[0m tear down of [0;33miwconfig[0m

  401218:	02202021 	move	a0,s1
  40121c:	0320f809 	jalr	t9
  401220:	24a59360 	addiu	a1,a1,-27808
  401224:	8fbc0010 	lw	gp,16(sp)
  401228:	10400008 	beqz	v0,40124c <main+0xec>
  40122c:	3c050041 	lui	a1,0x41
  401230:	8f998134 	lw	t9,-32460(gp)
  401234:	02202021 	move	a0,s1
  401238:	0320f809 	jalr	t9
  40123c:	24a59364 	addiu	a1,a1,-27804
  401240:	8fbc0010 	lw	gp,16(sp)
  401244:	14400020 	bnez	v0,4012c8 <main+0x168>
  401248:	3c050041 	lui	a1,0x41
  40124c:	8f938120 	lw	s3,-32480(gp)
  401250:	8f998108 	lw	t9,-32504(gp)
  401254:	3c040041 	lui	a0,0x41
  401258:	8e650000 	lw	a1,0(s3)
  40125c:	2484936c 	addiu	a0,a0,-27796
  401260:	3c100042 	lui	s0,0x42
  401264:	0320f809 	jalr	t9
  401268:	3c110041 	lui	s1,0x41
  40126c:	2610a788 	addiu	s0,s0,-22648
  401270:	8fbc0010 	lw	gp,16(sp)
  401274:	081004a5 	j	401294 <main+0x134>
  401278:	2631938c 	addiu	s1,s1,-27764
[31m  40127c:	8f99816c 	lw	t9,fprintf[0m
  401280:	8e640000 	lw	a0,0(s3)
  401284:	8e07fffc 	lw	a3,-4(s0)
--
  401428:	8e220004 	lw	v0,4(s1)
  40142c:	00000000 	nop
  401430:	10620002 	beq	v1,v0,40143c <main+0x2dc>
  401434:	24030001 	li	v1,1
  401438:	afa30020 	sw	v1,32(sp)
  40143c:	26940001 	addiu	s4,s4,1
  401440:	26b50018 	addiu	s5,s5,24
  401444:	8ea30000 	lw	v1,0(s5)
  401448:	00000000 	nop
  40144c:	1460ffdb 	bnez	v1,4013bc <main+0x25c>
  401450:	00602021 	move	a0,v1
  401454:	16200006 	bnez	s1,401470 <main+0x310>
  401458:	3c050041 	lui	a1,0x41
  40145c:	8f828120 	lw	v0,-32480(gp)
  401460:	00000000 	nop
  401464:	8c440000 	lw	a0,0(v0)
  401468:	08100523 	j	40148c <main+0x32c>
  40146c:	24a593f8 	addiu	a1,a1,-27656
  401470:	8fa30020 	lw	v1,32(sp)
  401474:	00000000 	nop
  401478:	1060000b 	beqz	v1,4014a8 <main+0x348>
  40147c:	3c050041 	lui	a1,0x41
  401480:	8f828120 	lw	v0,-32480(gp)
  401484:	24a59418 	addiu	a1,a1,-27624
  401488:	8c440000 	lw	a0,0(v0)
[31m  40148c:	8f99816c 	lw	t9,fprintf[0m
  401490:	02003021 	move	a2,s0
  401494:	0320f809 	jalr	t9
  401498:	2410ffff 	li	s0,-1
  40149c:	8fbc0010 	lw	gp,16(sp)
  4014a0:	081005b5 	j	4016d4 <main+0x574>
  4014a4:	00000000 	nop
  4014a8:	8e220008 	lw	v0,8(s1)
  4014ac:	8fa30018 	lw	v1,24(sp)
  4014b0:	2674ffff 	addiu	s4,s3,-1
  4014b4:	0282102a 	slt	v0,s4,v0
  4014b8:	10400097 	beqz	v0,401718 <main+0x5b8>
  4014bc:	24750004 	addiu	s5,v1,4
  4014c0:	2410fffe 	li	s0,-2
  4014c4:	8f978120 	lw	s7,-32480(gp)
  4014c8:	8e22000c 	lw	v0,12(s1)
  4014cc:	2407fff9 	li	a3,-7
[31m  4014d0:	8f99816c 	lw	t9,fprintf[0m
  4014d4:	02073826 	xor	a3,s0,a3
  4014d8:	8ee40000 	lw	a0,0(s7)
--
  4015a8:	8c46abd4 	lw	a2,-21548(v0)
  4015ac:	08100583 	j	40160c <main+0x4ac>
  4015b0:	24a5949c 	addiu	a1,a1,-27492
  4015b4:	3c020042 	lui	v0,0x42
  4015b8:	8c43abd0 	lw	v1,-21552(v0)
  4015bc:	00000000 	nop
  4015c0:	04610004 	bgez	v1,4015d4 <main+0x474>
  4015c4:	00000000 	nop
  4015c8:	ac40abd0 	sw	zero,-21552(v0)
  4015cc:	8c43abd0 	lw	v1,-21552(v0)
  4015d0:	00000000 	nop
  4015d4:	0074a02a 	slt	s4,v1,s4
  4015d8:	16800003 	bnez	s4,4015e8 <main+0x488>
  4015dc:	2673fffe 	addiu	s3,s3,-2
  4015e0:	3c030042 	lui	v1,0x42
  4015e4:	ac73abd0 	sw	s3,-21552(v1)
  4015e8:	8c42abd0 	lw	v0,-21552(v0)
  4015ec:	3c050041 	lui	a1,0x41
  4015f0:	24a594bc 	addiu	a1,a1,-27460
  4015f4:	00021080 	sll	v0,v0,0x2
  4015f8:	02a2a821 	addu	s5,s5,v0
  4015fc:	8f828120 	lw	v0,-32480(gp)
  401600:	00000000 	nop
  401604:	8c440000 	lw	a0,0(v0)
  401608:	8ea60000 	lw	a2,0(s5)
[31m  40160c:	8f99816c 	lw	t9,fprintf[0m
  401610:	00000000 	nop
  401614:	0320f809 	jalr	t9
--
  401638:	8fbc0010 	lw	gp,16(sp)
  40163c:	8c440000 	lw	a0,0(v0)
  401640:	8f99819c 	lw	t9,-32356(gp)
  401644:	00000000 	nop
  401648:	0320f809 	jalr	t9
  40164c:	00000000 	nop
  401650:	3c050041 	lui	a1,0x41
  401654:	8fbc0010 	lw	gp,16(sp)
  401658:	02202021 	move	a0,s1
  40165c:	081005a7 	j	40169c <main+0x53c>
  401660:	24a594dc 	addiu	a1,a1,-27428
  401664:	8f998118 	lw	t9,-32488(gp)
  401668:	8ef10000 	lw	s1,0(s7)
  40166c:	0320f809 	jalr	t9
  401670:	00000000 	nop
  401674:	8fbc0010 	lw	gp,16(sp)
  401678:	8c440000 	lw	a0,0(v0)
  40167c:	8f99819c 	lw	t9,-32356(gp)
  401680:	00000000 	nop
  401684:	0320f809 	jalr	t9
  401688:	00000000 	nop
  40168c:	8fbc0010 	lw	gp,16(sp)
  401690:	3c050041 	lui	a1,0x41
  401694:	02202021 	move	a0,s1
  401698:	24a59504 	addiu	a1,a1,-27388
[31m  40169c:	8f99816c 	lw	t9,fprintf[0m
  4016a0:	02c03021 	move	a2,s6
  4016a4:	0320f809 	jalr	t9
--
  402cfc:	00000000 	nop
  402d00:	afa20210 	sw	v0,528(sp)
  402d04:	8fa2005c 	lw	v0,92(sp)
  402d08:	00000000 	nop
  402d0c:	afa20214 	sw	v0,532(sp)
  402d10:	8fa204a0 	lw	v0,1184(sp)
  402d14:	8f998050 	lw	t9,-32688(gp)
  402d18:	02202021 	move	a0,s1
  402d1c:	afa20010 	sw	v0,16(sp)
  402d20:	02002821 	move	a1,s0
  402d24:	27a60230 	addiu	a2,sp,560
  402d28:	04110946 	bal	405244 <iw_get_stats>
  402d2c:	27a70254 	addiu	a3,sp,596
  402d30:	8fbc0020 	lw	gp,32(sp)
  402d34:	0440015d 	bltz	v0,4032ac <main+0x214c>
  402d38:	24020001 	li	v0,1
  402d3c:	08100cab 	j	4032ac <main+0x214c>
  402d40:	afa20250 	sw	v0,592(sp)
  402d44:	8f99819c 	lw	t9,-32356(gp)
  402d48:	8c710000 	lw	s1,0(v1)
  402d4c:	0320f809 	jalr	t9
  402d50:	24040013 	li	a0,19
  402d54:	8fbc0020 	lw	gp,32(sp)
  402d58:	3c050041 	lui	a1,0x41
  402d5c:	02202021 	move	a0,s1
[31m  402d60:	8f99816c 	lw	t9,fprintf[0m
  402d64:	24a59154 	addiu	a1,a1,-28332
  402d68:	02003021 	move	a2,s0
--
  403278:	248492e0 	addiu	a0,a0,-27936
  40327c:	8fbc0020 	lw	gp,32(sp)
  403280:	00000000 	nop
  403284:	8f9981ac 	lw	t9,-32340(gp)
  403288:	00000000 	nop
  40328c:	0320f809 	jalr	t9
  403290:	2404000a 	li	a0,10
  403294:	00001021 	move	v0,zero
  403298:	8fbf04cc 	lw	ra,1228(sp)
  40329c:	8fb104c8 	lw	s1,1224(sp)
  4032a0:	8fb004c4 	lw	s0,1220(sp)
  4032a4:	03e00008 	jr	ra
  4032a8:	27bd04d0 	addiu	sp,sp,1232
  4032ac:	8f9981a0 	lw	t9,-32352(gp)
  4032b0:	3c040041 	lui	a0,0x41
  4032b4:	24849324 	addiu	a0,a0,-27868
  4032b8:	02002821 	move	a1,s0
  4032bc:	0320f809 	jalr	t9
  4032c0:	27a600e8 	addiu	a2,sp,232
  4032c4:	8fa20168 	lw	v0,360(sp)
  4032c8:	8fbc0020 	lw	gp,32(sp)
  4032cc:	1440feab 	bnez	v0,402d7c <main+0x1c1c>
  4032d0:	00000000 	nop
  4032d4:	08100b78 	j	402de0 <main+0x1c80>
  4032d8:	00000000 	nop
[31m  4032dc:	8f99816c 	lw	t9,fprintf[0m
  4032e0:	8c640000 	lw	a0,0(v1)
  4032e4:	24a59334 	addiu	a1,a1,-27852
--
  4033d8:	10000018 	b	40343c <main+0x22dc>
  4033dc:	24a596c8 	addiu	a1,a1,-26936
  4033e0:	97a2002c 	lhu	v0,44(sp)
  4033e4:	00000000 	nop
  4033e8:	2c42012c 	sltiu	v0,v0,300
  4033ec:	1440000f 	bnez	v0,40342c <main+0x22cc>
  4033f0:	02002821 	move	a1,s0
  4033f4:	8f848028 	lw	a0,-32728(gp)
  4033f8:	8f9981a0 	lw	t9,-32352(gp)
  4033fc:	93a60151 	lbu	a2,337(sp)
  403400:	0320f809 	jalr	t9
  403404:	2484970c 	addiu	a0,a0,-26868
  403408:	8fbc0010 	lw	gp,16(sp)
  40340c:	93a50150 	lbu	a1,336(sp)
  403410:	8f848028 	lw	a0,-32728(gp)
  403414:	8f9981a0 	lw	t9,-32352(gp)
  403418:	00000000 	nop
  40341c:	0320f809 	jalr	t9
  403420:	24849744 	addiu	a0,a0,-26812
  403424:	1000000a 	b	403450 <main+0x22f0>
  403428:	00001821 	move	v1,zero
  40342c:	8f828120 	lw	v0,-32480(gp)
  403430:	8f858028 	lw	a1,-32728(gp)
  403434:	8c440000 	lw	a0,0(v0)
  403438:	24a59780 	addiu	a1,a1,-26752
[31m  40343c:	8f99816c 	lw	t9,fprintf[0m
  403440:	00000000 	nop
  403444:	0320f809 	jalr	t9
--
  4036ac:	afa20018 	sw	v0,24(sp)
  4036b0:	afb1001c 	sw	s1,28(sp)
  4036b4:	02402021 	move	a0,s2
  4036b8:	34058912 	li	a1,0x8912
  4036bc:	0320f809 	jalr	t9
  4036c0:	27a60018 	addiu	a2,sp,24
  4036c4:	8fbc0010 	lw	gp,16(sp)
  4036c8:	04410017 	bgez	v0,403728 <iw_enum_devices+0x254>
  4036cc:	00000000 	nop
  4036d0:	8f998118 	lw	t9,-32488(gp)
  4036d4:	8f828120 	lw	v0,-32480(gp)
  4036d8:	00000000 	nop
  4036dc:	8c500000 	lw	s0,0(v0)
  4036e0:	0320f809 	jalr	t9
  4036e4:	00000000 	nop
  4036e8:	8fbc0010 	lw	gp,16(sp)
  4036ec:	8c440000 	lw	a0,0(v0)
  4036f0:	8f99819c 	lw	t9,-32356(gp)
  4036f4:	00000000 	nop
  4036f8:	0320f809 	jalr	t9
  4036fc:	00000000 	nop
  403700:	8fbc0010 	lw	gp,16(sp)
  403704:	02002021 	move	a0,s0
  403708:	00403021 	move	a2,v0
  40370c:	8f858028 	lw	a1,-32728(gp)
[31m  403710:	8f99816c 	lw	t9,fprintf[0m
  403714:	00000000 	nop
  403718:	0320f809 	jalr	t9
--
  403bc8:	0320f809 	jalr	t9
  403bcc:	24060038 	li	a2,56
  403bd0:	8fbc0010 	lw	gp,16(sp)
  403bd4:	26040030 	addiu	a0,s0,48
  403bd8:	27a50168 	addiu	a1,sp,360
  403bdc:	24060004 	li	a2,4
  403be0:	8f998188 	lw	t9,-32376(gp)
  403be4:	00000000 	nop
  403be8:	0320f809 	jalr	t9
  403bec:	00000000 	nop
  403bf0:	8fbc0010 	lw	gp,16(sp)
  403bf4:	00000000 	nop
  403bf8:	8f82807c 	lw	v0,-32644(gp)
  403bfc:	00000000 	nop
  403c00:	8c420000 	lw	v0,0(v0)
  403c04:	00000000 	nop
  403c08:	1440003f 	bnez	v0,403d08 <iw_get_range_info+0x2e0>
  403c0c:	00000000 	nop
  403c10:	92070118 	lbu	a3,280(s0)
  403c14:	00000000 	nop
  403c18:	2ce20017 	sltiu	v0,a3,23
  403c1c:	14400018 	bnez	v0,403c80 <iw_get_range_info+0x258>
  403c20:	00000000 	nop
  403c24:	8f918120 	lw	s1,-32480(gp)
  403c28:	8f858028 	lw	a1,-32728(gp)
[31m  403c2c:	8f99816c 	lw	t9,fprintf[0m
  403c30:	8e240000 	lw	a0,0(s1)
  403c34:	24a598f8 	addiu	a1,a1,-26376
  403c38:	0320f809 	jalr	t9
  403c3c:	02403021 	move	a2,s2
  403c40:	8fbc0010 	lw	gp,16(sp)
  403c44:	8e240000 	lw	a0,0(s1)
  403c48:	24060016 	li	a2,22
  403c4c:	8f858028 	lw	a1,-32728(gp)
[31m  403c50:	8f99816c 	lw	t9,fprintf[0m
  403c54:	00000000 	nop
  403c58:	0320f809 	jalr	t9
  403c5c:	24a5993c 	addiu	a1,a1,-26308
  403c60:	8fbc0010 	lw	gp,16(sp)
  403c64:	8e250000 	lw	a1,0(s1)
  403c68:	8f848028 	lw	a0,-32728(gp)
  403c6c:	8f998108 	lw	t9,-32504(gp)
  403c70:	00000000 	nop
  403c74:	0320f809 	jalr	t9
  403c78:	24849984 	addiu	a0,a0,-26236
  403c7c:	8fbc0010 	lw	gp,16(sp)
  403c80:	92020118 	lbu	v0,280(s0)
  403c84:	00000000 	nop
  403c88:	2c43000b 	sltiu	v1,v0,11
  403c8c:	1460001e 	bnez	v1,403d08 <iw_get_range_info+0x2e0>
  403c90:	00000000 	nop
  403c94:	92070119 	lbu	a3,281(s0)
  403c98:	00000000 	nop
  403c9c:	0047102b 	sltu	v0,v0,a3
  403ca0:	10400019 	beqz	v0,403d08 <iw_get_range_info+0x2e0>
  403ca4:	00000000 	nop
  403ca8:	8f918120 	lw	s1,-32480(gp)
  403cac:	8f858028 	lw	a1,-32728(gp)
[31m  403cb0:	8f99816c 	lw	t9,fprintf[0m
  403cb4:	8e240000 	lw	a0,0(s1)
  403cb8:	24a599a4 	addiu	a1,a1,-26204
  403cbc:	0320f809 	jalr	t9
  403cc0:	02403021 	move	a2,s2
  403cc4:	8fbc0010 	lw	gp,16(sp)
  403cc8:	8e240000 	lw	a0,0(s1)
  403ccc:	92060118 	lbu	a2,280(s0)
  403cd0:	8f858028 	lw	a1,-32728(gp)
[31m  403cd4:	8f99816c 	lw	t9,fprintf[0m
  403cd8:	00000000 	nop
  403cdc:	0320f809 	jalr	t9
--
  403d54:	afb4004c 	sw	s4,76(sp)
  403d58:	afb30048 	sw	s3,72(sp)
  403d5c:	afb10040 	sw	s1,64(sp)
  403d60:	afb0003c 	sw	s0,60(sp)
  403d64:	afbc0010 	sw	gp,16(sp)
  403d68:	afbf005c 	sw	ra,92(sp)
  403d6c:	afb20044 	sw	s2,68(sp)
  403d70:	0080b821 	move	s7,a0
  403d74:	00a0b021 	move	s6,a1
  403d78:	00c09821 	move	s3,a2
  403d7c:	24100010 	li	s0,16
  403d80:	00008821 	move	s1,zero
  403d84:	24150018 	li	s5,24
  403d88:	24140007 	li	s4,7
  403d8c:	02150018 	mult	s0,s5
  403d90:	8f998154 	lw	t9,-32428(gp)
  403d94:	00002812 	mflo	a1
  403d98:	0320f809 	jalr	t9
  403d9c:	02202021 	move	a0,s1
  403da0:	8fbc0010 	lw	gp,16(sp)
  403da4:	1440000e 	bnez	v0,403de0 <iw_get_range_info+0x3b8>
  403da8:	00409021 	move	s2,v0
  403dac:	8f828120 	lw	v0,-32480(gp)
  403db0:	8f858028 	lw	a1,-32728(gp)
  403db4:	8f868028 	lw	a2,-32728(gp)
[31m  403db8:	8f99816c 	lw	t9,fprintf[0m
  403dbc:	8c440000 	lw	a0,0(v0)
  403dc0:	24a59a54 	addiu	a1,a1,-26028
--
  4041f0:	02202021 	move	a0,s1
  4041f4:	34058b06 	li	a1,0x8b06
  4041f8:	8f9981a4 	lw	t9,-32348(gp)
  4041fc:	00000000 	nop
  404200:	0320f809 	jalr	t9
  404204:	27a60018 	addiu	a2,sp,24
  404208:	8fbc0010 	lw	gp,16(sp)
  40420c:	04410016 	bgez	v0,404268 <iw_float2freq+0x220>
  404210:	00000000 	nop
  404214:	8f998118 	lw	t9,-32488(gp)
  404218:	8f828120 	lw	v0,-32480(gp)
  40421c:	00000000 	nop
  404220:	8c530000 	lw	s3,0(v0)
  404224:	0320f809 	jalr	t9
  404228:	2414ffff 	li	s4,-1
  40422c:	8fbc0010 	lw	gp,16(sp)
  404230:	8c440000 	lw	a0,0(v0)
  404234:	8f99819c 	lw	t9,-32356(gp)
  404238:	00000000 	nop
  40423c:	0320f809 	jalr	t9
  404240:	00000000 	nop
  404244:	8fbc0010 	lw	gp,16(sp)
  404248:	02602021 	move	a0,s3
  40424c:	00403021 	move	a2,v0
  404250:	8f858028 	lw	a1,-32728(gp)
[31m  404254:	8f99816c 	lw	t9,fprintf[0m
  404258:	00000000 	nop
  40425c:	0320f809 	jalr	t9
--
  4042ac:	02202021 	move	a0,s1
  4042b0:	34058b04 	li	a1,0x8b04
  4042b4:	8f9981a4 	lw	t9,-32348(gp)
  4042b8:	00000000 	nop
  4042bc:	0320f809 	jalr	t9
  4042c0:	27a60018 	addiu	a2,sp,24
  4042c4:	8fbc0010 	lw	gp,16(sp)
  4042c8:	04410016 	bgez	v0,404324 <iw_float2freq+0x2dc>
  4042cc:	00000000 	nop
  4042d0:	8f998118 	lw	t9,-32488(gp)
  4042d4:	8f828120 	lw	v0,-32480(gp)
  4042d8:	00000000 	nop
  4042dc:	8c530000 	lw	s3,0(v0)
  4042e0:	0320f809 	jalr	t9
  4042e4:	2414ffff 	li	s4,-1
  4042e8:	8fbc0010 	lw	gp,16(sp)
  4042ec:	8c440000 	lw	a0,0(v0)
  4042f0:	8f99819c 	lw	t9,-32356(gp)
  4042f4:	00000000 	nop
  4042f8:	0320f809 	jalr	t9
  4042fc:	00000000 	nop
  404300:	8fbc0010 	lw	gp,16(sp)
  404304:	02602021 	move	a0,s3
  404308:	00403021 	move	a2,v0
  40430c:	8f858028 	lw	a1,-32728(gp)
[31m  404310:	8f99816c 	lw	t9,fprintf[0m
  404314:	00000000 	nop
  404318:	0320f809 	jalr	t9
--
  40436c:	02202021 	move	a0,s1
  404370:	34058b2a 	li	a1,0x8b2a
  404374:	8f9981a4 	lw	t9,-32348(gp)
  404378:	00000000 	nop
  40437c:	0320f809 	jalr	t9
  404380:	27a60018 	addiu	a2,sp,24
  404384:	8fbc0010 	lw	gp,16(sp)
  404388:	04410018 	bgez	v0,4043ec <iw_float2freq+0x3a4>
  40438c:	26030038 	addiu	v1,s0,56
  404390:	8f998118 	lw	t9,-32488(gp)
  404394:	8f828120 	lw	v0,-32480(gp)
  404398:	00000000 	nop
  40439c:	8c540000 	lw	s4,0(v0)
  4043a0:	0320f809 	jalr	t9
  4043a4:	00000000 	nop
  4043a8:	8fbc0010 	lw	gp,16(sp)
  4043ac:	8c460000 	lw	a2,0(v0)
  4043b0:	8f99819c 	lw	t9,-32356(gp)
  4043b4:	00c02021 	move	a0,a2
  4043b8:	0320f809 	jalr	t9
  4043bc:	afa60038 	sw	a2,56(sp)
  4043c0:	8fbc0010 	lw	gp,16(sp)
  4043c4:	8fa60038 	lw	a2,56(sp)
  4043c8:	02802021 	move	a0,s4
  4043cc:	8f858028 	lw	a1,-32728(gp)
[31m  4043d0:	8f99816c 	lw	t9,fprintf[0m
  4043d4:	00403821 	move	a3,v0
  4043d8:	0320f809 	jalr	t9
--
  404428:	02202021 	move	a0,s1
  40442c:	34058b2a 	li	a1,0x8b2a
  404430:	8f9981a4 	lw	t9,-32348(gp)
  404434:	00000000 	nop
  404438:	0320f809 	jalr	t9
  40443c:	27a60018 	addiu	a2,sp,24
  404440:	8fbc0010 	lw	gp,16(sp)
  404444:	04410016 	bgez	v0,4044a0 <iw_float2freq+0x458>
  404448:	00000000 	nop
  40444c:	8f998118 	lw	t9,-32488(gp)
  404450:	8f828120 	lw	v0,-32480(gp)
  404454:	00000000 	nop
  404458:	8c530000 	lw	s3,0(v0)
  40445c:	0320f809 	jalr	t9
  404460:	2414ffff 	li	s4,-1
  404464:	8fbc0010 	lw	gp,16(sp)
  404468:	8c460000 	lw	a2,0(v0)
  40446c:	8f99819c 	lw	t9,-32356(gp)
  404470:	00c02021 	move	a0,a2
  404474:	0320f809 	jalr	t9
  404478:	afa60038 	sw	a2,56(sp)
  40447c:	8fbc0010 	lw	gp,16(sp)
  404480:	8fa60038 	lw	a2,56(sp)
  404484:	02602021 	move	a0,s3
  404488:	8f858028 	lw	a1,-32728(gp)
[31m  40448c:	8f99816c 	lw	t9,fprintf[0m
  404490:	00403821 	move	a3,v0
  404494:	0320f809 	jalr	t9
--
  4044dc:	02202021 	move	a0,s1
  4044e0:	34058b02 	li	a1,0x8b02
  4044e4:	8f9981a4 	lw	t9,-32348(gp)
  4044e8:	00000000 	nop
  4044ec:	0320f809 	jalr	t9
  4044f0:	27a60018 	addiu	a2,sp,24
  4044f4:	8fbc0010 	lw	gp,16(sp)
  4044f8:	04410016 	bgez	v0,404554 <iw_float2freq+0x50c>
  4044fc:	00000000 	nop
  404500:	8f998118 	lw	t9,-32488(gp)
  404504:	8f828120 	lw	v0,-32480(gp)
  404508:	00000000 	nop
  40450c:	8c530000 	lw	s3,0(v0)
  404510:	0320f809 	jalr	t9
  404514:	2414ffff 	li	s4,-1
  404518:	8fbc0010 	lw	gp,16(sp)
  40451c:	8c440000 	lw	a0,0(v0)
  404520:	8f99819c 	lw	t9,-32356(gp)
  404524:	00000000 	nop
  404528:	0320f809 	jalr	t9
  40452c:	00000000 	nop
  404530:	8fbc0010 	lw	gp,16(sp)
  404534:	02602021 	move	a0,s3
  404538:	00403021 	move	a2,v0
  40453c:	8f858028 	lw	a1,-32728(gp)
[31m  404540:	8f99816c 	lw	t9,fprintf[0m
  404544:	00000000 	nop
  404548:	0320f809 	jalr	t9
--
  4045c8:	02202021 	move	a0,s1
  4045cc:	34058b1a 	li	a1,0x8b1a
  4045d0:	8f9981a4 	lw	t9,-32348(gp)
  4045d4:	00000000 	nop
  4045d8:	0320f809 	jalr	t9
  4045dc:	27a60018 	addiu	a2,sp,24
  4045e0:	8fbc0010 	lw	gp,16(sp)
  4045e4:	04410015 	bgez	v0,40463c <iw_float2freq+0x5f4>
  4045e8:	00000000 	nop
  4045ec:	8f998118 	lw	t9,-32488(gp)
  4045f0:	8f828120 	lw	v0,-32480(gp)
  4045f4:	00000000 	nop
  4045f8:	8c500000 	lw	s0,0(v0)
  4045fc:	0320f809 	jalr	t9
  404600:	2414ffff 	li	s4,-1
  404604:	8fbc0010 	lw	gp,16(sp)
  404608:	8c440000 	lw	a0,0(v0)
  40460c:	8f99819c 	lw	t9,-32356(gp)
  404610:	00000000 	nop
  404614:	0320f809 	jalr	t9
  404618:	00000000 	nop
  40461c:	8fbc0010 	lw	gp,16(sp)
  404620:	02002021 	move	a0,s0
  404624:	00403021 	move	a2,v0
  404628:	8f858028 	lw	a1,-32728(gp)
[31m  40462c:	8f99816c 	lw	t9,fprintf[0m
  404630:	00000000 	nop
  404634:	0320f809 	jalr	t9
--
  406738:	afb0003c 	sw	s0,60(sp)
  40673c:	00808821 	move	s1,a0
  406740:	24060010 	li	a2,16
  406744:	27a40018 	addiu	a0,sp,24
  406748:	0320f809 	jalr	t9
  40674c:	00a08021 	move	s0,a1
  406750:	8fbc0010 	lw	gp,16(sp)
  406754:	02202021 	move	a0,s1
  406758:	34058927 	li	a1,0x8927
  40675c:	8f9981a4 	lw	t9,-32348(gp)
  406760:	00000000 	nop
  406764:	0320f809 	jalr	t9
  406768:	27a60018 	addiu	a2,sp,24
  40676c:	8fbc0010 	lw	gp,16(sp)
  406770:	04400008 	bltz	v0,406794 <iw_check_mac_addr_type+0x7c>
  406774:	24040001 	li	a0,1
  406778:	97a30028 	lhu	v1,40(sp)
  40677c:	00000000 	nop
  406780:	1064000c 	beq	v1,a0,4067b4 <iw_check_mac_addr_type+0x9c>
  406784:	00001021 	move	v0,zero
  406788:	24040321 	li	a0,801
  40678c:	10640009 	beq	v1,a0,4067b4 <iw_check_mac_addr_type+0x9c>
  406790:	00000000 	nop
  406794:	8f828120 	lw	v0,-32480(gp)
  406798:	8f858028 	lw	a1,-32728(gp)
[31m  40679c:	8f99816c 	lw	t9,fprintf[0m
  4067a0:	8c440000 	lw	a0,0(v0)
  4067a4:	24a59d9c 	addiu	a1,a1,-25188
--
  4067dc:	afbc0010 	sw	gp,16(sp)
  4067e0:	afbf0044 	sw	ra,68(sp)
  4067e4:	afb10040 	sw	s1,64(sp)
  4067e8:	afb0003c 	sw	s0,60(sp)
  4067ec:	00808821 	move	s1,a0
  4067f0:	24060010 	li	a2,16
  4067f4:	27a40018 	addiu	a0,sp,24
  4067f8:	0320f809 	jalr	t9
  4067fc:	00a08021 	move	s0,a1
  406800:	8fbc0010 	lw	gp,16(sp)
  406804:	02202021 	move	a0,s1
  406808:	34058915 	li	a1,0x8915
  40680c:	8f9981a4 	lw	t9,-32348(gp)
  406810:	00000000 	nop
  406814:	0320f809 	jalr	t9
  406818:	27a60018 	addiu	a2,sp,24
  40681c:	8fbc0010 	lw	gp,16(sp)
  406820:	04400005 	bltz	v0,406838 <iw_check_if_addr_type+0x70>
  406824:	24030002 	li	v1,2
  406828:	97a40028 	lhu	a0,40(sp)
  40682c:	00000000 	nop
  406830:	10830009 	beq	a0,v1,406858 <iw_check_if_addr_type+0x90>
  406834:	00001021 	move	v0,zero
  406838:	8f828120 	lw	v0,-32480(gp)
  40683c:	8f858028 	lw	a1,-32728(gp)
[31m  406840:	8f99816c 	lw	t9,fprintf[0m
  406844:	8c440000 	lw	a0,0(v0)
  406848:	24a59dc8 	addiu	a1,a1,-25144
--
  406ec4:	afa00050 	sw	zero,80(sp)
  406ec8:	8fbc0018 	lw	gp,24(sp)
  406ecc:	02402021 	move	a0,s2
  406ed0:	34058954 	li	a1,0x8954
  406ed4:	8f9981a4 	lw	t9,-32348(gp)
  406ed8:	00000000 	nop
  406edc:	0320f809 	jalr	t9
  406ee0:	27a60030 	addiu	a2,sp,48
  406ee4:	8fbc0018 	lw	gp,24(sp)
  406ee8:	04400006 	bltz	v0,406f04 <iw_in_inet+0x288>
  406eec:	00000000 	nop
  406ef0:	8fa20050 	lw	v0,80(sp)
  406ef4:	00000000 	nop
  406ef8:	30420002 	andi	v0,v0,0x2
  406efc:	14400012 	bnez	v0,406f48 <iw_in_inet+0x2cc>
  406f00:	02602021 	move	a0,s3
  406f04:	8f828120 	lw	v0,-32480(gp)
  406f08:	8f998118 	lw	t9,-32488(gp)
  406f0c:	8c440000 	lw	a0,0(v0)
  406f10:	0320f809 	jalr	t9
  406f14:	afa40078 	sw	a0,120(sp)
  406f18:	8fbc0018 	lw	gp,24(sp)
  406f1c:	8c420000 	lw	v0,0(v0)
  406f20:	8fa40078 	lw	a0,120(sp)
  406f24:	8f858028 	lw	a1,-32728(gp)
[31m  406f28:	8f99816c 	lw	t9,fprintf[0m
  406f2c:	afa20010 	sw	v0,16(sp)
  406f30:	24a59e98 	addiu	a1,a1,-24936
--
  406f64:	00000000 	nop
  406f68:	0411fdeb 	bal	406718 <iw_check_mac_addr_type>
  406f6c:	00000000 	nop
  406f70:	8fbc0018 	lw	gp,24(sp)
  406f74:	04410007 	bgez	v0,406f94 <iw_in_inet+0x318>
  406f78:	24020001 	li	v0,1
  406f7c:	8f828120 	lw	v0,-32480(gp)
  406f80:	8f858028 	lw	a1,-32728(gp)
  406f84:	8c440000 	lw	a0,0(v0)
  406f88:	24a59ee4 	addiu	a1,a1,-24860
  406f8c:	1000000e 	b	406fc8 <iw_in_inet+0x34c>
  406f90:	02203021 	move	a2,s1
  406f94:	8f9980bc 	lw	t9,-32580(gp)
  406f98:	a6620000 	sh	v0,0(s3)
  406f9c:	02002021 	move	a0,s0
  406fa0:	0411ff1d 	bal	406c18 <iw_ether_aton>
  406fa4:	26650002 	addiu	a1,s3,2
  406fa8:	8fbc0018 	lw	gp,24(sp)
  406fac:	1440000b 	bnez	v0,406fdc <iw_in_inet+0x360>
  406fb0:	00001821 	move	v1,zero
  406fb4:	8f828120 	lw	v0,-32480(gp)
  406fb8:	8f858028 	lw	a1,-32728(gp)
  406fbc:	8c440000 	lw	a0,0(v0)
  406fc0:	24a59f18 	addiu	a1,a1,-24808
  406fc4:	02003021 	move	a2,s0
[31m  406fc8:	8f99816c 	lw	t9,fprintf[0m
  406fcc:	00000000 	nop
  406fd0:	0320f809 	jalr	t9

[0m
[[0;33m*[0m] Function [0;33mfprintf[0m used [0;33m24[0m times [0;33miwconfig[0m

