[0m
[[0;33m*[0m] Function [0;33mfprintf[0m tear down of [0;33meventd[0m

  4036bc:	8f848088 	lw	a0,-32632(gp)
  4036c0:	00831821 	addu	v1,a0,v1
  4036c4:	24040001 	li	a0,1
  4036c8:	ac64ca98 	sw	a0,-13672(v1)
  4036cc:	00022203 	sra	a0,v0,0x8
  4036d0:	308400ff 	andi	a0,a0,0xff
  4036d4:	ac64caa4 	sw	a0,-13660(v1)
  4036d8:	3042000f 	andi	v0,v0,0xf
  4036dc:	10400297 	beqz	v0,40413c <main@@Base+0x171c>
  4036e0:	00000000 	nop
  4036e4:	8f848088 	lw	a0,-32632(gp)
  4036e8:	8f998210 	lw	t9,-32240(gp)
  4036ec:	0320f809 	jalr	t9
  4036f0:	00000000 	nop
  4036f4:	8fbc0018 	lw	gp,24(sp)
  4036f8:	10000290 	b	40413c <main@@Base+0x171c>
  4036fc:	00000000 	nop
  403700:	8f838088 	lw	v1,-32632(gp)
  403704:	8c420020 	lw	v0,32(v0)
  403708:	ac6200b4 	sw	v0,180(v1)
  40370c:	8c62078c 	lw	v0,1932(v1)
  403710:	8f838114 	lw	v1,-32492(gp)
  403714:	8c640000 	lw	a0,0(v1)
  403718:	3c050042 	lui	a1,0x42
  40371c:	8c460020 	lw	a2,32(v0)
[31m  403720:	8f998298 	lw	t9,fprintf[0m
  403724:	0320f809 	jalr	t9
  403728:	24a5d404 	addiu	a1,a1,-11260
--
  4039f0:	3c020001 	lui	v0,0x1
  4039f4:	8f848088 	lw	a0,-32632(gp)
  4039f8:	00821021 	addu	v0,a0,v0
  4039fc:	24030001 	li	v1,1
  403a00:	ac43cb38 	sw	v1,-13512(v0)
  403a04:	8c85078c 	lw	a1,1932(a0)
  403a08:	8f99814c 	lw	t9,-32436(gp)
  403a0c:	0320f809 	jalr	t9
  403a10:	24a50028 	addiu	a1,a1,40
  403a14:	8fbc0018 	lw	gp,24(sp)
  403a18:	100001c8 	b	40413c <main@@Base+0x171c>
  403a1c:	00000000 	nop
  403a20:	8f848088 	lw	a0,-32632(gp)
  403a24:	8f998338 	lw	t9,-31944(gp)
  403a28:	0320f809 	jalr	t9
  403a2c:	24450020 	addiu	a1,v0,32
  403a30:	8fbc0018 	lw	gp,24(sp)
  403a34:	100001c1 	b	40413c <main@@Base+0x171c>
  403a38:	00000000 	nop
  403a3c:	8c460020 	lw	a2,32(v0)
  403a40:	8f828088 	lw	v0,-32632(gp)
  403a44:	ac460060 	sw	a2,96(v0)
  403a48:	8f828114 	lw	v0,-32492(gp)
  403a4c:	8c440000 	lw	a0,0(v0)
  403a50:	3c050042 	lui	a1,0x42
[31m  403a54:	8f998298 	lw	t9,fprintf[0m
  403a58:	0320f809 	jalr	t9
  403a5c:	24a5d4c8 	addiu	a1,a1,-11064
  403a60:	8fbc0018 	lw	gp,24(sp)
  403a64:	100001b5 	b	40413c <main@@Base+0x171c>
  403a68:	00000000 	nop
  403a6c:	8c460020 	lw	a2,32(v0)
  403a70:	8f828088 	lw	v0,-32632(gp)
  403a74:	ac460064 	sw	a2,100(v0)
  403a78:	8f828114 	lw	v0,-32492(gp)
  403a7c:	8c440000 	lw	a0,0(v0)
  403a80:	3c050042 	lui	a1,0x42
[31m  403a84:	8f998298 	lw	t9,fprintf[0m
  403a88:	0320f809 	jalr	t9
  403a8c:	24a5d4f0 	addiu	a1,a1,-11024
  403a90:	8fbc0018 	lw	gp,24(sp)
  403a94:	100001a9 	b	40413c <main@@Base+0x171c>
  403a98:	00000000 	nop
  403a9c:	8c460020 	lw	a2,32(v0)
  403aa0:	8f828088 	lw	v0,-32632(gp)
  403aa4:	ac460068 	sw	a2,104(v0)
  403aa8:	8f828114 	lw	v0,-32492(gp)
  403aac:	8c440000 	lw	a0,0(v0)
  403ab0:	3c050042 	lui	a1,0x42
[31m  403ab4:	8f998298 	lw	t9,fprintf[0m
  403ab8:	0320f809 	jalr	t9
  403abc:	24a5d518 	addiu	a1,a1,-10984
--
  403d44:	24050001 	li	a1,1
  403d48:	8f828114 	lw	v0,-32492(gp)
  403d4c:	8c470000 	lw	a3,0(v0)
  403d50:	8f9980f0 	lw	t9,-32528(gp)
  403d54:	0320f809 	jalr	t9
  403d58:	2406001c 	li	a2,28
  403d5c:	8fbc0018 	lw	gp,24(sp)
  403d60:	8f838088 	lw	v1,-32632(gp)
  403d64:	8c62078c 	lw	v0,1932(v1)
  403d68:	24440020 	addiu	a0,v0,32
  403d6c:	afa401f8 	sw	a0,504(sp)
  403d70:	3c040001 	lui	a0,0x1
  403d74:	00641821 	addu	v1,v1,a0
  403d78:	8c66ca6c 	lw	a2,-13716(v1)
  403d7c:	28c30018 	slti	v1,a2,24
  403d80:	1460002f 	bnez	v1,403e40 <main@@Base+0x1420>
  403d84:	3c050042 	lui	a1,0x42
  403d88:	8fa201f8 	lw	v0,504(sp)
  403d8c:	24420004 	addiu	v0,v0,4
  403d90:	afa20208 	sw	v0,520(sp)
  403d94:	8f828114 	lw	v0,-32492(gp)
  403d98:	8c440000 	lw	a0,0(v0)
  403d9c:	8fa30208 	lw	v1,520(sp)
  403da0:	afa30010 	sw	v1,16(sp)
  403da4:	24a5d6d4 	addiu	a1,a1,-10540
[31m  403da8:	8f998298 	lw	t9,fprintf[0m
  403dac:	0320f809 	jalr	t9
  403db0:	24070018 	li	a3,24
--
  403e80:	8f838088 	lw	v1,-32632(gp)
  403e84:	8c640790 	lw	a0,1936(v1)
  403e88:	afa20010 	sw	v0,16(sp)
  403e8c:	24050269 	li	a1,617
  403e90:	8fa701f8 	lw	a3,504(sp)
  403e94:	8f998078 	lw	t9,-32648(gp)
  403e98:	0320f809 	jalr	t9
  403e9c:	2406008c 	li	a2,140
  403ea0:	8fbc0018 	lw	gp,24(sp)
  403ea4:	100000a5 	b	40413c <main@@Base+0x171c>
  403ea8:	00000000 	nop
  403eac:	8f838088 	lw	v1,-32632(gp)
  403eb0:	8c640790 	lw	a0,1936(v1)
  403eb4:	afa20010 	sw	v0,16(sp)
  403eb8:	8fa701f8 	lw	a3,504(sp)
  403ebc:	8f998078 	lw	t9,-32648(gp)
  403ec0:	0320f809 	jalr	t9
  403ec4:	2406008c 	li	a2,140
  403ec8:	8fbc0018 	lw	gp,24(sp)
  403ecc:	1000009b 	b	40413c <main@@Base+0x171c>
  403ed0:	00000000 	nop
  403ed4:	8f838114 	lw	v1,-32492(gp)
  403ed8:	8c640000 	lw	a0,0(v1)
  403edc:	8fa50204 	lw	a1,516(sp)
  403ee0:	8c460020 	lw	a2,32(v0)
[31m  403ee4:	8f998298 	lw	t9,fprintf[0m
  403ee8:	0320f809 	jalr	t9
  403eec:	00000000 	nop
  403ef0:	8fbc0018 	lw	gp,24(sp)
  403ef4:	8f848088 	lw	a0,-32632(gp)
  403ef8:	8c82078c 	lw	v0,1932(a0)
  403efc:	8c450020 	lw	a1,32(v0)
  403f00:	8f998254 	lw	t9,-32172(gp)
  403f04:	0320f809 	jalr	t9
  403f08:	00000000 	nop
  403f0c:	8fbc0018 	lw	gp,24(sp)
  403f10:	1000008a 	b	40413c <main@@Base+0x171c>
  403f14:	00000000 	nop
  403f18:	8c420020 	lw	v0,32(v0)
  403f1c:	afa201f8 	sw	v0,504(sp)
  403f20:	8f828114 	lw	v0,-32492(gp)
  403f24:	8c440000 	lw	a0,0(v0)
  403f28:	8fa501fc 	lw	a1,508(sp)
  403f2c:	8fa601f8 	lw	a2,504(sp)
[31m  403f30:	8f998298 	lw	t9,fprintf[0m
  403f34:	0320f809 	jalr	t9
  403f38:	00000000 	nop
--
  403f70:	8fa401f8 	lw	a0,504(sp)
  403f74:	1080000b 	beqz	a0,403fa4 <main@@Base+0x1584>
  403f78:	24060306 	li	a2,774
  403f7c:	8e242014 	lw	a0,8212(s1)
  403f80:	afb20010 	sw	s2,16(sp)
  403f84:	8f858088 	lw	a1,-32632(gp)
  403f88:	24060305 	li	a2,773
  403f8c:	8f9980ec 	lw	t9,-32532(gp)
  403f90:	0320f809 	jalr	t9
  403f94:	27a70020 	addiu	a3,sp,32
  403f98:	8fbc0018 	lw	gp,24(sp)
  403f9c:	10000067 	b	40413c <main@@Base+0x171c>
  403fa0:	00000000 	nop
  403fa4:	afb20010 	sw	s2,16(sp)
  403fa8:	8fa40200 	lw	a0,512(sp)
  403fac:	8f858088 	lw	a1,-32632(gp)
  403fb0:	8f9980ec 	lw	t9,-32532(gp)
  403fb4:	0320f809 	jalr	t9
  403fb8:	27a70020 	addiu	a3,sp,32
  403fbc:	8fbc0018 	lw	gp,24(sp)
  403fc0:	1000005e 	b	40413c <main@@Base+0x171c>
  403fc4:	00000000 	nop
  403fc8:	8f838114 	lw	v1,-32492(gp)
  403fcc:	8c640000 	lw	a0,0(v1)
  403fd0:	8c460020 	lw	a2,32(v0)
[31m  403fd4:	8f998298 	lw	t9,fprintf[0m
  403fd8:	0320f809 	jalr	t9
  403fdc:	03c02821 	move	a1,s8
--
  40406c:	10000033 	b	40413c <main@@Base+0x171c>
  404070:	00000000 	nop
  404074:	8c420020 	lw	v0,32(v0)
  404078:	18400030 	blez	v0,40413c <main@@Base+0x171c>
  40407c:	27a30024 	addiu	v1,sp,36
  404080:	afa301f8 	sw	v1,504(sp)
  404084:	2442328f 	addiu	v0,v0,12943
  404088:	00021080 	sll	v0,v0,0x2
  40408c:	8f838088 	lw	v1,-32632(gp)
  404090:	00621021 	addu	v0,v1,v0
  404094:	8fa401f8 	lw	a0,504(sp)
  404098:	8c460004 	lw	a2,4(v0)
  40409c:	8f998124 	lw	t9,-32476(gp)
  4040a0:	0320f809 	jalr	t9
  4040a4:	02802821 	move	a1,s4
  4040a8:	8fbc0018 	lw	gp,24(sp)
  4040ac:	8fa401f8 	lw	a0,504(sp)
  4040b0:	8f998344 	lw	t9,-31932(gp)
  4040b4:	0320f809 	jalr	t9
  4040b8:	00000000 	nop
  4040bc:	8fbc0018 	lw	gp,24(sp)
  4040c0:	1000001e 	b	40413c <main@@Base+0x171c>
  4040c4:	00000000 	nop
  4040c8:	8f828114 	lw	v0,-32492(gp)
  4040cc:	8c440000 	lw	a0,0(v0)
[31m  4040d0:	8f998298 	lw	t9,fprintf[0m
  4040d4:	0320f809 	jalr	t9
  4040d8:	02602821 	move	a1,s3
--
  404fc4:	02802021 	move	a0,s4
  404fc8:	8fbc0010 	lw	gp,16(sp)
  404fcc:	10000008 	b	404ff0 <DNVR_RefreshSize@@Base+0x240>
  404fd0:	00008821 	move	s1,zero
  404fd4:	8f99837c 	lw	t9,-31876(gp)
  404fd8:	0320f809 	jalr	t9
  404fdc:	02802021 	move	a0,s4
  404fe0:	8fbc0010 	lw	gp,16(sp)
  404fe4:	2a221388 	slti	v0,s1,5000
  404fe8:	10400004 	beqz	v0,404ffc <DNVR_RefreshSize@@Base+0x24c>
  404fec:	00000000 	nop
  404ff0:	8e420000 	lw	v0,0(s2)
  404ff4:	1040ffcb 	beqz	v0,404f24 <DNVR_RefreshSize@@Base+0x174>
  404ff8:	00000000 	nop
  404ffc:	12000005 	beqz	s0,405014 <DNVR_RefreshSize@@Base+0x264>
  405000:	00009021 	move	s2,zero
  405004:	8f9981f0 	lw	t9,-32272(gp)
  405008:	0320f809 	jalr	t9
  40500c:	02002021 	move	a0,s0
  405010:	8fbc0010 	lw	gp,16(sp)
  405014:	8f828114 	lw	v0,-32492(gp)
  405018:	8c440000 	lw	a0,0(v0)
  40501c:	3c050042 	lui	a1,0x42
  405020:	24a5da34 	addiu	a1,a1,-9676
  405024:	02403021 	move	a2,s2
[31m  405028:	8f998298 	lw	t9,fprintf[0m
  40502c:	0320f809 	jalr	t9
  405030:	02203821 	move	a3,s1
--
  405150:	1c40fffa 	bgtz	v0,40513c <DNVR_RefreshSize@@Base+0x38c>
  405154:	2404ffff 	li	a0,-1
  405158:	8fbf0024 	lw	ra,36(sp)
  40515c:	8fb00020 	lw	s0,32(sp)
  405160:	03e00008 	jr	ra
  405164:	27bd0028 	addiu	sp,sp,40
  405168:	27bdffd0 	addiu	sp,sp,-48
  40516c:	afbf002c 	sw	ra,44(sp)
  405170:	afb10028 	sw	s1,40(sp)
  405174:	afb00024 	sw	s0,36(sp)
  405178:	3c1c0044 	lui	gp,0x44
  40517c:	279ca060 	addiu	gp,gp,-24480
  405180:	afbc0010 	sw	gp,16(sp)
  405184:	00808821 	move	s1,a0
  405188:	3c050042 	lui	a1,0x42
  40518c:	8f99803c 	lw	t9,-32708(gp)
  405190:	0320f809 	jalr	t9
  405194:	24a50178 	addiu	a1,a1,376
  405198:	8fbc0010 	lw	gp,16(sp)
  40519c:	1440000a 	bnez	v0,4051c8 <DNVR_RefreshSize@@Base+0x418>
  4051a0:	00408021 	move	s0,v0
  4051a4:	8f828114 	lw	v0,-32492(gp)
  4051a8:	8c440000 	lw	a0,0(v0)
  4051ac:	3c050042 	lui	a1,0x42
  4051b0:	24a5da88 	addiu	a1,a1,-9592
[31m  4051b4:	8f998298 	lw	t9,fprintf[0m
  4051b8:	0320f809 	jalr	t9
  4051bc:	02203021 	move	a2,s1
--
  40550c:	0320f809 	jalr	t9
  405510:	2484daa0 	addiu	a0,a0,-9568
  405514:	8fbf001c 	lw	ra,28(sp)
  405518:	8fb00018 	lw	s0,24(sp)
  40551c:	03e00008 	jr	ra
  405520:	27bd0020 	addiu	sp,sp,32
  405524:	27bdffd8 	addiu	sp,sp,-40
  405528:	afbf0024 	sw	ra,36(sp)
  40552c:	afb10020 	sw	s1,32(sp)
  405530:	afb0001c 	sw	s0,28(sp)
  405534:	3c1c0044 	lui	gp,0x44
  405538:	279ca060 	addiu	gp,gp,-24480
  40553c:	afbc0010 	sw	gp,16(sp)
  405540:	00808821 	move	s1,a0
  405544:	3c050042 	lui	a1,0x42
  405548:	8f99803c 	lw	t9,-32708(gp)
  40554c:	0320f809 	jalr	t9
  405550:	24a5013c 	addiu	a1,a1,316
  405554:	8fbc0010 	lw	gp,16(sp)
  405558:	1440000a 	bnez	v0,405584 <Sys_Release@@Base+0x354>
  40555c:	00408021 	move	s0,v0
  405560:	8f828114 	lw	v0,-32492(gp)
  405564:	8c440000 	lw	a0,0(v0)
  405568:	3c050042 	lui	a1,0x42
  40556c:	24a5da88 	addiu	a1,a1,-9592
[31m  405570:	8f998298 	lw	t9,fprintf[0m
  405574:	0320f809 	jalr	t9
  405578:	02203021 	move	a2,s1
  40557c:	10000019 	b	4055e4 <Sys_Release@@Base+0x3b4>
  405580:	00001021 	move	v0,zero
  405584:	8f998378 	lw	t9,-31880(gp)
  405588:	0320f809 	jalr	t9
  40558c:	00000000 	nop
  405590:	8fbc0010 	lw	gp,16(sp)
  405594:	02002021 	move	a0,s0
  405598:	3c050042 	lui	a1,0x42
  40559c:	24a5f220 	addiu	a1,a1,-3552
[31m  4055a0:	8f998298 	lw	t9,fprintf[0m
  4055a4:	0320f809 	jalr	t9
  4055a8:	00403021 	move	a2,v0
--
  405734:	26300020 	addiu	s0,s1,32
  405738:	3c040042 	lui	a0,0x42
  40573c:	2484db04 	addiu	a0,a0,-9468
  405740:	24050001 	li	a1,1
  405744:	8f828114 	lw	v0,-32492(gp)
  405748:	8c470000 	lw	a3,0(v0)
  40574c:	8f9980f0 	lw	t9,-32528(gp)
  405750:	0320f809 	jalr	t9
  405754:	24060022 	li	a2,34
  405758:	100001e9 	b	405f00 <Sys_Initial@@Base+0x908>
  40575c:	2402ffff 	li	v0,-1
  405760:	afb00010 	sw	s0,16(sp)
  405764:	afa00014 	sw	zero,20(sp)
  405768:	3c040042 	lui	a0,0x42
  40576c:	2484db28 	addiu	a0,a0,-9432
  405770:	00002821 	move	a1,zero
  405774:	00003021 	move	a2,zero
  405778:	8f998334 	lw	t9,-31948(gp)
  40577c:	0320f809 	jalr	t9
  405780:	00003821 	move	a3,zero
  405784:	8fbc0018 	lw	gp,24(sp)
  405788:	8f828114 	lw	v0,-32492(gp)
  40578c:	8c440000 	lw	a0,0(v0)
  405790:	3c050042 	lui	a1,0x42
  405794:	24a5db2c 	addiu	a1,a1,-9428
[31m  405798:	8f998298 	lw	t9,fprintf[0m
  40579c:	0320f809 	jalr	t9
  4057a0:	02003021 	move	a2,s0
--
  409270:	02002021 	move	a0,s0
  409274:	8f998084 	lw	t9,-32636(gp)
  409278:	0320f809 	jalr	t9
  40927c:	24050020 	li	a1,32
  409280:	8fbc0018 	lw	gp,24(sp)
  409284:	1040003d 	beqz	v0,40937c <IOTNotificationHandler@@Base+0x17c>
  409288:	24500001 	addiu	s0,v0,1
  40928c:	8f9980b8 	lw	t9,-32584(gp)
  409290:	0320f809 	jalr	t9
  409294:	02002021 	move	a0,s0
  409298:	8fbc0018 	lw	gp,24(sp)
  40929c:	00409021 	move	s2,v0
  4092a0:	02002021 	move	a0,s0
  4092a4:	8f998084 	lw	t9,-32636(gp)
  4092a8:	0320f809 	jalr	t9
  4092ac:	24050020 	li	a1,32
  4092b0:	8fbc0018 	lw	gp,24(sp)
  4092b4:	10400031 	beqz	v0,40937c <IOTNotificationHandler@@Base+0x17c>
  4092b8:	24500001 	addiu	s0,v0,1
  4092bc:	8f828114 	lw	v0,-32492(gp)
  4092c0:	8c440000 	lw	a0,0(v0)
  4092c4:	afb00010 	sw	s0,16(sp)
  4092c8:	3c050042 	lui	a1,0x42
  4092cc:	24a5e87c 	addiu	a1,a1,-6020
  4092d0:	02203021 	move	a2,s1
[31m  4092d4:	8f998298 	lw	t9,fprintf[0m
  4092d8:	0320f809 	jalr	t9
  4092dc:	02403821 	move	a3,s2
--
  409a38:	8f998124 	lw	t9,-32476(gp)
  409a3c:	0320f809 	jalr	t9
  409a40:	24e70001 	addiu	a3,a3,1
  409a44:	8fbc0020 	lw	gp,32(sp)
  409a48:	02002021 	move	a0,s0
  409a4c:	8f99817c 	lw	t9,-32388(gp)
  409a50:	0320f809 	jalr	t9
  409a54:	02402821 	move	a1,s2
  409a58:	8fbc0020 	lw	gp,32(sp)
  409a5c:	1c40000b 	bgtz	v0,409a8c <AudioEventHandler@@Base+0x40c>
  409a60:	0040a021 	move	s4,v0
  409a64:	3c040042 	lui	a0,0x42
  409a68:	2484ea60 	addiu	a0,a0,-5536
  409a6c:	24050001 	li	a1,1
  409a70:	8f828114 	lw	v0,-32492(gp)
  409a74:	8c470000 	lw	a3,0(v0)
  409a78:	8f9980f0 	lw	t9,-32528(gp)
  409a7c:	0320f809 	jalr	t9
  409a80:	24060026 	li	a2,38
  409a84:	1000009d 	b	409cfc <AudioEventHandler@@Base+0x67c>
  409a88:	00000000 	nop
  409a8c:	8f828114 	lw	v0,-32492(gp)
  409a90:	8c440000 	lw	a0,0(v0)
  409a94:	3c050042 	lui	a1,0x42
  409a98:	24a5ea88 	addiu	a1,a1,-5496
[31m  409a9c:	8f998298 	lw	t9,fprintf[0m
  409aa0:	0320f809 	jalr	t9
  409aa4:	27a6015c 	addiu	a2,sp,348
--
  40a084:	8f998124 	lw	t9,-32476(gp)
  40a088:	0320f809 	jalr	t9
  40a08c:	24e70001 	addiu	a3,a3,1
  40a090:	8fbc0020 	lw	gp,32(sp)
  40a094:	02002021 	move	a0,s0
  40a098:	8f99817c 	lw	t9,-32388(gp)
  40a09c:	0320f809 	jalr	t9
  40a0a0:	02402821 	move	a1,s2
  40a0a4:	8fbc0020 	lw	gp,32(sp)
  40a0a8:	1c40000b 	bgtz	v0,40a0d8 <HttpEventHandler@@Base+0x3bc>
  40a0ac:	0040a021 	move	s4,v0
  40a0b0:	3c040042 	lui	a0,0x42
  40a0b4:	2484ebb8 	addiu	a0,a0,-5192
  40a0b8:	24050001 	li	a1,1
  40a0bc:	8f828114 	lw	v0,-32492(gp)
  40a0c0:	8c470000 	lw	a3,0(v0)
  40a0c4:	8f9980f0 	lw	t9,-32528(gp)
  40a0c8:	0320f809 	jalr	t9
  40a0cc:	24060025 	li	a2,37
  40a0d0:	1000009d 	b	40a348 <HttpEventHandler@@Base+0x62c>
  40a0d4:	00000000 	nop
  40a0d8:	8f828114 	lw	v0,-32492(gp)
  40a0dc:	8c440000 	lw	a0,0(v0)
  40a0e0:	3c050042 	lui	a1,0x42
  40a0e4:	24a5ebe0 	addiu	a1,a1,-5152
[31m  40a0e8:	8f998298 	lw	t9,fprintf[0m
  40a0ec:	0320f809 	jalr	t9
  40a0f0:	27a6015c 	addiu	a2,sp,348
--
  40a6d0:	8f998124 	lw	t9,-32476(gp)
  40a6d4:	0320f809 	jalr	t9
  40a6d8:	24e70001 	addiu	a3,a3,1
  40a6dc:	8fbc0020 	lw	gp,32(sp)
  40a6e0:	02002021 	move	a0,s0
  40a6e4:	8f99817c 	lw	t9,-32388(gp)
  40a6e8:	0320f809 	jalr	t9
  40a6ec:	02402821 	move	a1,s2
  40a6f0:	8fbc0020 	lw	gp,32(sp)
  40a6f4:	1c40000b 	bgtz	v0,40a724 <PirEventHandler@@Base+0x3bc>
  40a6f8:	0040a021 	move	s4,v0
  40a6fc:	3c040042 	lui	a0,0x42
  40a700:	2484ed08 	addiu	a0,a0,-4856
  40a704:	24050001 	li	a1,1
  40a708:	8f828114 	lw	v0,-32492(gp)
  40a70c:	8c470000 	lw	a3,0(v0)
  40a710:	8f9980f0 	lw	t9,-32528(gp)
  40a714:	0320f809 	jalr	t9
  40a718:	24060024 	li	a2,36
  40a71c:	1000009d 	b	40a994 <PirEventHandler@@Base+0x62c>
  40a720:	00000000 	nop
  40a724:	8f828114 	lw	v0,-32492(gp)
  40a728:	8c440000 	lw	a0,0(v0)
  40a72c:	3c050042 	lui	a1,0x42
  40a730:	24a5ed30 	addiu	a1,a1,-4816
[31m  40a734:	8f998298 	lw	t9,fprintf[0m
  40a738:	0320f809 	jalr	t9
  40a73c:	27a6015c 	addiu	a2,sp,348
--
  40adec:	8f998124 	lw	t9,-32476(gp)
  40adf0:	0320f809 	jalr	t9
  40adf4:	24e70001 	addiu	a3,a3,1
  40adf8:	8fbc0020 	lw	gp,32(sp)
  40adfc:	02002021 	move	a0,s0
  40ae00:	8f99817c 	lw	t9,-32388(gp)
  40ae04:	0320f809 	jalr	t9
  40ae08:	02402821 	move	a1,s2
  40ae0c:	8fbc0020 	lw	gp,32(sp)
  40ae10:	1c40000b 	bgtz	v0,40ae40 <InputEventHandler@@Base+0x48c>
  40ae14:	0040a021 	move	s4,v0
  40ae18:	3c040042 	lui	a0,0x42
  40ae1c:	2484ee58 	addiu	a0,a0,-4520
  40ae20:	24050001 	li	a1,1
  40ae24:	8f828114 	lw	v0,-32492(gp)
  40ae28:	8c470000 	lw	a3,0(v0)
  40ae2c:	8f9980f0 	lw	t9,-32528(gp)
  40ae30:	0320f809 	jalr	t9
  40ae34:	24060026 	li	a2,38
  40ae38:	100000a0 	b	40b0bc <InputEventHandler@@Base+0x708>
  40ae3c:	00000000 	nop
  40ae40:	8f828114 	lw	v0,-32492(gp)
  40ae44:	8c440000 	lw	a0,0(v0)
  40ae48:	3c050042 	lui	a1,0x42
  40ae4c:	24a5ee80 	addiu	a1,a1,-4480
[31m  40ae50:	8f998298 	lw	t9,fprintf[0m
  40ae54:	0320f809 	jalr	t9
  40ae58:	27a6015c 	addiu	a2,sp,348
--
  40b5c0:	02402021 	move	a0,s2
  40b5c4:	8fbc0020 	lw	gp,32(sp)
  40b5c8:	10000012 	b	40b614 <MotionEventHandler@@Base+0x478>
  40b5cc:	00000000 	nop
  40b5d0:	02002021 	move	a0,s0
  40b5d4:	8f99817c 	lw	t9,-32388(gp)
  40b5d8:	0320f809 	jalr	t9
  40b5dc:	27a5015c 	addiu	a1,sp,348
  40b5e0:	8fbc0020 	lw	gp,32(sp)
  40b5e4:	1c40000b 	bgtz	v0,40b614 <MotionEventHandler@@Base+0x478>
  40b5e8:	00408821 	move	s1,v0
  40b5ec:	3c040042 	lui	a0,0x42
  40b5f0:	2484efe8 	addiu	a0,a0,-4120
  40b5f4:	24050001 	li	a1,1
  40b5f8:	8f828114 	lw	v0,-32492(gp)
  40b5fc:	8c470000 	lw	a3,0(v0)
  40b600:	8f9980f0 	lw	t9,-32528(gp)
  40b604:	0320f809 	jalr	t9
  40b608:	24060027 	li	a2,39
  40b60c:	1000009d 	b	40b884 <MotionEventHandler@@Base+0x6e8>
  40b610:	00000000 	nop
  40b614:	8f828114 	lw	v0,-32492(gp)
  40b618:	8c440000 	lw	a0,0(v0)
  40b61c:	3c050042 	lui	a1,0x42
  40b620:	24a5f010 	addiu	a1,a1,-4080
[31m  40b624:	8f998298 	lw	t9,fprintf[0m
  40b628:	0320f809 	jalr	t9
  40b62c:	27a6015c 	addiu	a2,sp,348
--
  40bb88:	3c040042 	lui	a0,0x42
  40bb8c:	2484f0a0 	addiu	a0,a0,-3936
  40bb90:	24050001 	li	a1,1
  40bb94:	8f828114 	lw	v0,-32492(gp)
  40bb98:	8c470000 	lw	a3,0(v0)
  40bb9c:	8f9980f0 	lw	t9,-32528(gp)
  40bba0:	0320f809 	jalr	t9
  40bba4:	24060040 	li	a2,64
  40bba8:	1000030f 	b	40c7e8 <ActionFtp2Mail2_Thread@@Base+0xf38>
  40bbac:	00000000 	nop
  40bbb0:	02802021 	move	a0,s4
  40bbb4:	8f998330 	lw	t9,-31952(gp)
  40bbb8:	0320f809 	jalr	t9
  40bbbc:	24060001 	li	a2,1
  40bbc0:	8fbc0018 	lw	gp,24(sp)
  40bbc4:	044002fd 	bltz	v0,40c7bc <ActionFtp2Mail2_Thread@@Base+0xf0c>
  40bbc8:	00000000 	nop
  40bbcc:	8e020000 	lw	v0,0(s0)
  40bbd0:	144002fd 	bnez	v0,40c7c8 <ActionFtp2Mail2_Thread@@Base+0xf18>
  40bbd4:	2402008c 	li	v0,140
  40bbd8:	8e860014 	lw	a2,20(s4)
  40bbdc:	10c20009 	beq	a2,v0,40bc04 <ActionFtp2Mail2_Thread@@Base+0x354>
  40bbe0:	3c050042 	lui	a1,0x42
  40bbe4:	8f828114 	lw	v0,-32492(gp)
  40bbe8:	8c440000 	lw	a0,0(v0)
[31m  40bbec:	8f998298 	lw	t9,fprintf[0m
  40bbf0:	0320f809 	jalr	t9
  40bbf4:	24a5f0e4 	addiu	a1,a1,-3868
--
  40bfd4:	90a30001 	lbu	v1,1(a1)
  40bfd8:	a0430001 	sb	v1,1(v0)
  40bfdc:	8f998098 	lw	t9,strlen
  40bfe0:	0320f809 	jalr	t9
  40bfe4:	03c02021 	move	a0,s8
  40bfe8:	8fbc0018 	lw	gp,24(sp)
  40bfec:	24420001 	addiu	v0,v0,1
  40bff0:	8fa40598 	lw	a0,1432(sp)
  40bff4:	8fa3059c 	lw	v1,1436(sp)
  40bff8:	8f998290 	lw	t9,-32112(gp)
  40bffc:	0320f809 	jalr	t9
  40c000:	00622821 	addu	a1,v1,v0
  40c004:	8fbc0018 	lw	gp,24(sp)
  40c008:	8fa40594 	lw	a0,1428(sp)
  40c00c:	03c02821 	move	a1,s8
  40c010:	8f998398 	lw	t9,-31848(gp)
  40c014:	0320f809 	jalr	t9
  40c018:	00003021 	move	a2,zero
  40c01c:	8fbc0018 	lw	gp,24(sp)
  40c020:	10400011 	beqz	v0,40c068 <ActionFtp2Mail2_Thread@@Base+0x7b8>
  40c024:	3c050042 	lui	a1,0x42
  40c028:	8f828114 	lw	v0,-32492(gp)
  40c02c:	8c440000 	lw	a0,0(v0)
  40c030:	24a5f200 	addiu	a1,a1,-3584
  40c034:	8e0779f8 	lw	a3,31224(s0)
[31m  40c038:	8f998298 	lw	t9,fprintf[0m
  40c03c:	0320f809 	jalr	t9
  40c040:	03c03021 	move	a2,s8
  40c044:	8fbc0018 	lw	gp,24(sp)
  40c048:	24040004 	li	a0,4
  40c04c:	3c050042 	lui	a1,0x42
  40c050:	24a5f224 	addiu	a1,a1,-3548
  40c054:	8e0779f8 	lw	a3,31224(s0)
  40c058:	8f9983b4 	lw	t9,-31820(gp)
  40c05c:	0320f809 	jalr	t9
  40c060:	03c03021 	move	a2,s8
  40c064:	8fbc0018 	lw	gp,24(sp)
  40c068:	8f828114 	lw	v0,-32492(gp)
  40c06c:	8c440000 	lw	a0,0(v0)
  40c070:	3c020042 	lui	v0,0x42
  40c074:	2445f248 	addiu	a1,v0,-3512
[31m  40c078:	8f998298 	lw	t9,fprintf[0m
  40c07c:	0320f809 	jalr	t9
  40c080:	03c03021 	move	a2,s8
--
  40c51c:	30430004 	andi	v1,v0,0x4
  40c520:	306300ff 	andi	v1,v1,0xff
  40c524:	1060002f 	beqz	v1,40c5e4 <ActionFtp2Mail2_Thread@@Base+0xd34>
  40c528:	30420002 	andi	v0,v0,0x2
  40c52c:	304200ff 	andi	v0,v0,0xff
  40c530:	1040004d 	beqz	v0,40c668 <ActionFtp2Mail2_Thread@@Base+0xdb8>
  40c534:	26b1ffff 	addiu	s1,s5,-1
  40c538:	8fa405a8 	lw	a0,1448(sp)
  40c53c:	8f9982c4 	lw	t9,-32060(gp)
  40c540:	0320f809 	jalr	t9
  40c544:	02a02821 	move	a1,s5
  40c548:	8fbc0018 	lw	gp,24(sp)
  40c54c:	1040001b 	beqz	v0,40c5bc <ActionFtp2Mail2_Thread@@Base+0xd0c>
  40c550:	001139c0 	sll	a3,s1,0x7
  40c554:	001189c0 	sll	s1,s1,0x7
  40c558:	8fa305c4 	lw	v1,1476(sp)
  40c55c:	00718821 	addu	s1,v1,s1
  40c560:	8f828114 	lw	v0,-32492(gp)
  40c564:	8c440000 	lw	a0,0(v0)
  40c568:	3c120001 	lui	s2,0x1
  40c56c:	02129021 	addu	s2,s0,s2
  40c570:	8e42a2d8 	lw	v0,-23848(s2)
  40c574:	afa20010 	sw	v0,16(sp)
  40c578:	8fa505ec 	lw	a1,1516(sp)
  40c57c:	00603021 	move	a2,v1
[31m  40c580:	8f998298 	lw	t9,fprintf[0m
  40c584:	0320f809 	jalr	t9
  40c588:	02203821 	move	a3,s1
  40c58c:	8fbc0018 	lw	gp,24(sp)
  40c590:	8e42a2d8 	lw	v0,-23848(s2)
  40c594:	afa20010 	sw	v0,16(sp)
  40c598:	24040004 	li	a0,4
  40c59c:	8fa505f0 	lw	a1,1520(sp)
  40c5a0:	8fa605c4 	lw	a2,1476(sp)
  40c5a4:	8f9983b4 	lw	t9,-31820(gp)
  40c5a8:	0320f809 	jalr	t9
  40c5ac:	02203821 	move	a3,s1
  40c5b0:	8fbc0018 	lw	gp,24(sp)
  40c5b4:	1000002c 	b	40c668 <ActionFtp2Mail2_Thread@@Base+0xdb8>
  40c5b8:	00000000 	nop
  40c5bc:	8f828114 	lw	v0,-32492(gp)
  40c5c0:	8c440000 	lw	a0,0(v0)
  40c5c4:	8fa505e8 	lw	a1,1512(sp)
  40c5c8:	8fa605c4 	lw	a2,1476(sp)
[31m  40c5cc:	8f998298 	lw	t9,fprintf[0m
  40c5d0:	0320f809 	jalr	t9
  40c5d4:	00c73821 	addu	a3,a2,a3
  40c5d8:	8fbc0018 	lw	gp,24(sp)
  40c5dc:	10000022 	b	40c668 <ActionFtp2Mail2_Thread@@Base+0xdb8>
  40c5e0:	00000000 	nop
  40c5e4:	8fa405a8 	lw	a0,1448(sp)
  40c5e8:	03c02821 	move	a1,s8
  40c5ec:	8f998244 	lw	t9,-32188(gp)
  40c5f0:	0320f809 	jalr	t9
  40c5f4:	00003021 	move	a2,zero
  40c5f8:	8fbc0018 	lw	gp,24(sp)
  40c5fc:	10400013 	beqz	v0,40c64c <ActionFtp2Mail2_Thread@@Base+0xd9c>
  40c600:	3c110001 	lui	s1,0x1
  40c604:	02118821 	addu	s1,s0,s1
  40c608:	8f828114 	lw	v0,-32492(gp)
  40c60c:	8c440000 	lw	a0,0(v0)
  40c610:	8fa505dc 	lw	a1,1500(sp)
  40c614:	8e27a2d8 	lw	a3,-23848(s1)
[31m  40c618:	8f998298 	lw	t9,fprintf[0m
  40c61c:	0320f809 	jalr	t9
  40c620:	03c03021 	move	a2,s8
  40c624:	8fbc0018 	lw	gp,24(sp)
  40c628:	24040004 	li	a0,4
  40c62c:	8fa505e0 	lw	a1,1504(sp)
  40c630:	8e27a2d8 	lw	a3,-23848(s1)
  40c634:	8f9983b4 	lw	t9,-31820(gp)
  40c638:	0320f809 	jalr	t9
  40c63c:	03c03021 	move	a2,s8
  40c640:	8fbc0018 	lw	gp,24(sp)
  40c644:	10000008 	b	40c668 <ActionFtp2Mail2_Thread@@Base+0xdb8>
  40c648:	00000000 	nop
  40c64c:	8f828114 	lw	v0,-32492(gp)
  40c650:	8c440000 	lw	a0,0(v0)
  40c654:	8fa505d8 	lw	a1,1496(sp)
[31m  40c658:	8f998298 	lw	t9,fprintf[0m
  40c65c:	0320f809 	jalr	t9
  40c660:	03c03021 	move	a2,s8
--
  40cac8:	3c040042 	lui	a0,0x42
  40cacc:	2484f39c 	addiu	a0,a0,-3172
  40cad0:	24050001 	li	a1,1
  40cad4:	8f828114 	lw	v0,-32492(gp)
  40cad8:	8c470000 	lw	a3,0(v0)
  40cadc:	8f9980f0 	lw	t9,-32528(gp)
  40cae0:	0320f809 	jalr	t9
  40cae4:	2406003e 	li	a2,62
  40cae8:	1000027e 	b	40d4e4 <ActionFtpMail_Thread@@Base+0xccc>
  40caec:	00000000 	nop
  40caf0:	02202021 	move	a0,s1
  40caf4:	8f998330 	lw	t9,-31952(gp)
  40caf8:	0320f809 	jalr	t9
  40cafc:	24060001 	li	a2,1
  40cb00:	8fbc0018 	lw	gp,24(sp)
  40cb04:	0440026c 	bltz	v0,40d4b8 <ActionFtpMail_Thread@@Base+0xca0>
  40cb08:	00000000 	nop
  40cb0c:	8e020000 	lw	v0,0(s0)
  40cb10:	1440026c 	bnez	v0,40d4c4 <ActionFtpMail_Thread@@Base+0xcac>
  40cb14:	2402008c 	li	v0,140
  40cb18:	8e260014 	lw	a2,20(s1)
  40cb1c:	10c20009 	beq	a2,v0,40cb44 <ActionFtpMail_Thread@@Base+0x32c>
  40cb20:	3c050042 	lui	a1,0x42
  40cb24:	8f828114 	lw	v0,-32492(gp)
  40cb28:	8c440000 	lw	a0,0(v0)
[31m  40cb2c:	8f998298 	lw	t9,fprintf[0m
  40cb30:	0320f809 	jalr	t9
  40cb34:	24a5f3dc 	addiu	a1,a1,-3108
--
  40ce78:	90830001 	lbu	v1,1(a0)
  40ce7c:	a0430001 	sb	v1,1(v0)
  40ce80:	8f998098 	lw	t9,strlen
  40ce84:	0320f809 	jalr	t9
  40ce88:	02602021 	move	a0,s3
  40ce8c:	8fbc0018 	lw	gp,24(sp)
  40ce90:	24420001 	addiu	v0,v0,1
  40ce94:	8fa4028c 	lw	a0,652(sp)
  40ce98:	8fa30290 	lw	v1,656(sp)
  40ce9c:	8f998290 	lw	t9,-32112(gp)
  40cea0:	0320f809 	jalr	t9
  40cea4:	00622821 	addu	a1,v1,v0
  40cea8:	8fbc0018 	lw	gp,24(sp)
  40ceac:	03c02021 	move	a0,s8
  40ceb0:	02602821 	move	a1,s3
  40ceb4:	8f998398 	lw	t9,-31848(gp)
  40ceb8:	0320f809 	jalr	t9
  40cebc:	00003021 	move	a2,zero
  40cec0:	8fbc0018 	lw	gp,24(sp)
  40cec4:	10400010 	beqz	v0,40cf08 <ActionFtpMail_Thread@@Base+0x6f0>
  40cec8:	00000000 	nop
  40cecc:	8f828114 	lw	v0,-32492(gp)
  40ced0:	8c440000 	lw	a0,0(v0)
  40ced4:	8fa502cc 	lw	a1,716(sp)
  40ced8:	8e077668 	lw	a3,30312(s0)
[31m  40cedc:	8f998298 	lw	t9,fprintf[0m
  40cee0:	0320f809 	jalr	t9
  40cee4:	02603021 	move	a2,s3
  40cee8:	8fbc0018 	lw	gp,24(sp)
  40ceec:	24040004 	li	a0,4
  40cef0:	8fa502d0 	lw	a1,720(sp)
  40cef4:	8e077668 	lw	a3,30312(s0)
  40cef8:	8f9983b4 	lw	t9,-31820(gp)
  40cefc:	0320f809 	jalr	t9
  40cf00:	02603021 	move	a2,s3
  40cf04:	8fbc0018 	lw	gp,24(sp)
  40cf08:	8f828114 	lw	v0,-32492(gp)
  40cf0c:	8c440000 	lw	a0,0(v0)
  40cf10:	8fa502a8 	lw	a1,680(sp)
[31m  40cf14:	8f998298 	lw	t9,fprintf[0m
  40cf18:	0320f809 	jalr	t9
  40cf1c:	02603021 	move	a2,s3
--
  40d374:	14430007 	bne	v0,v1,40d394 <ActionFtpMail_Thread@@Base+0xb7c>
  40d378:	00000000 	nop
  40d37c:	8fa402bc 	lw	a0,700(sp)
  40d380:	8fa50304 	lw	a1,772(sp)
  40d384:	8f998124 	lw	t9,-32476(gp)
  40d388:	0320f809 	jalr	t9
  40d38c:	2406000a 	li	a2,10
  40d390:	8fbc0018 	lw	gp,24(sp)
  40d394:	8f998318 	lw	t9,-31976(gp)
  40d398:	0320f809 	jalr	t9
  40d39c:	02802021 	move	a0,s4
  40d3a0:	8fbc0018 	lw	gp,24(sp)
  40d3a4:	8fa40288 	lw	a0,648(sp)
  40d3a8:	02602821 	move	a1,s3
  40d3ac:	8f998244 	lw	t9,-32188(gp)
  40d3b0:	0320f809 	jalr	t9
  40d3b4:	00003021 	move	a2,zero
  40d3b8:	8fbc0018 	lw	gp,24(sp)
  40d3bc:	10400011 	beqz	v0,40d404 <ActionFtpMail_Thread@@Base+0xbec>
  40d3c0:	3c160001 	lui	s6,0x1
  40d3c4:	0216b021 	addu	s6,s0,s6
  40d3c8:	8f828114 	lw	v0,-32492(gp)
  40d3cc:	8c440000 	lw	a0,0(v0)
  40d3d0:	8fa502c0 	lw	a1,704(sp)
  40d3d4:	8ec79628 	lw	a3,-27096(s6)
[31m  40d3d8:	8f998298 	lw	t9,fprintf[0m
  40d3dc:	0320f809 	jalr	t9
  40d3e0:	02603021 	move	a2,s3
  40d3e4:	8fbc0018 	lw	gp,24(sp)
  40d3e8:	24040004 	li	a0,4
  40d3ec:	8fa502c4 	lw	a1,708(sp)
  40d3f0:	8ec79628 	lw	a3,-27096(s6)
  40d3f4:	8f9983b4 	lw	t9,-31820(gp)
  40d3f8:	0320f809 	jalr	t9
  40d3fc:	02603021 	move	a2,s3
  40d400:	8fbc0018 	lw	gp,24(sp)
  40d404:	8f828114 	lw	v0,-32492(gp)
  40d408:	8c440000 	lw	a0,0(v0)
  40d40c:	8fa502a4 	lw	a1,676(sp)
[31m  40d410:	8f998298 	lw	t9,fprintf[0m
  40d414:	0320f809 	jalr	t9
  40d418:	02603021 	move	a2,s3
--
  40d61c:	26b5f604 	addiu	s5,s5,-2556
  40d620:	3c040042 	lui	a0,0x42
  40d624:	2484f5c4 	addiu	a0,a0,-2620
  40d628:	24050001 	li	a1,1
  40d62c:	8f828114 	lw	v0,-32492(gp)
  40d630:	8c470000 	lw	a3,0(v0)
  40d634:	8f9980f0 	lw	t9,-32528(gp)
  40d638:	0320f809 	jalr	t9
  40d63c:	2406003e 	li	a2,62
  40d640:	10000074 	b	40d814 <ActionHNotify_Thread@@Base+0x300>
  40d644:	00000000 	nop
  40d648:	02202021 	move	a0,s1
  40d64c:	8f998330 	lw	t9,-31952(gp)
  40d650:	0320f809 	jalr	t9
  40d654:	24060001 	li	a2,1
  40d658:	8fbc0010 	lw	gp,16(sp)
  40d65c:	04400062 	bltz	v0,40d7e8 <ActionHNotify_Thread@@Base+0x2d4>
  40d660:	00000000 	nop
  40d664:	8e020000 	lw	v0,0(s0)
  40d668:	14400063 	bnez	v0,40d7f8 <ActionHNotify_Thread@@Base+0x2e4>
  40d66c:	02202021 	move	a0,s1
  40d670:	8e260014 	lw	a2,20(s1)
  40d674:	10d40008 	beq	a2,s4,40d698 <ActionHNotify_Thread@@Base+0x184>
  40d678:	02e02021 	move	a0,s7
  40d67c:	8e640000 	lw	a0,0(s3)
[31m  40d680:	8f998298 	lw	t9,fprintf[0m
  40d684:	0320f809 	jalr	t9
  40d688:	02a02821 	move	a1,s5
--
  40d734:	ae026c80 	sw	v0,27776(s0)
  40d738:	8fa40018 	lw	a0,24(sp)
  40d73c:	8f998318 	lw	t9,-31976(gp)
  40d740:	0320f809 	jalr	t9
  40d744:	00000000 	nop
  40d748:	8fbc0010 	lw	gp,16(sp)
  40d74c:	ae40ca74 	sw	zero,-13708(s2)
  40d750:	8fa40030 	lw	a0,48(sp)
  40d754:	24050001 	li	a1,1
  40d758:	8e670000 	lw	a3,0(s3)
  40d75c:	8f9980f0 	lw	t9,-32528(gp)
  40d760:	0320f809 	jalr	t9
  40d764:	24060027 	li	a2,39
  40d768:	8fbc0010 	lw	gp,16(sp)
  40d76c:	8e220020 	lw	v0,32(s1)
  40d770:	ae026570 	sw	v0,25968(s0)
  40d774:	8f998348 	lw	t9,-31928(gp)
  40d778:	0320f809 	jalr	t9
  40d77c:	02c02021 	move	a0,s6
  40d780:	8fbc0010 	lw	gp,16(sp)
  40d784:	1040000e 	beqz	v0,40d7c0 <ActionHNotify_Thread@@Base+0x2ac>
  40d788:	00000000 	nop
  40d78c:	8e640000 	lw	a0,0(s3)
  40d790:	8fa5001c 	lw	a1,28(sp)
  40d794:	8e066564 	lw	a2,25956(s0)
[31m  40d798:	8f998298 	lw	t9,fprintf[0m
  40d79c:	0320f809 	jalr	t9
  40d7a0:	00000000 	nop
--
  40ec0c:	8f828114 	lw	v0,-32492(gp)
  40ec10:	8c470000 	lw	a3,0(v0)
  40ec14:	8f9980f0 	lw	t9,-32528(gp)
  40ec18:	0320f809 	jalr	t9
  40ec1c:	2406002d 	li	a2,45
  40ec20:	8fbc0020 	lw	gp,32(sp)
  40ec24:	10000017 	b	40ec84 <EventSnapshot_Thread@@Base+0x1040>
  40ec28:	24160002 	li	s6,2
  40ec2c:	8f9981b8 	lw	t9,-32328(gp)
  40ec30:	0320f809 	jalr	t9
  40ec34:	02802021 	move	a0,s4
  40ec38:	8fbc0020 	lw	gp,32(sp)
  40ec3c:	8f998264 	lw	t9,-32156(gp)
  40ec40:	0320f809 	jalr	t9
  40ec44:	02802021 	move	a0,s4
  40ec48:	8fbc0020 	lw	gp,32(sp)
  40ec4c:	8f99823c 	lw	t9,-32196(gp)
  40ec50:	0320f809 	jalr	t9
  40ec54:	24040001 	li	a0,1
  40ec58:	8fbc0020 	lw	gp,32(sp)
  40ec5c:	0040a021 	move	s4,v0
  40ec60:	8f828114 	lw	v0,-32492(gp)
  40ec64:	8c440000 	lw	a0,0(v0)
  40ec68:	3c050042 	lui	a1,0x42
  40ec6c:	24a5fa70 	addiu	a1,a1,-1424
[31m  40ec70:	8f998298 	lw	t9,fprintf[0m
  40ec74:	0320f809 	jalr	t9
  40ec78:	02603021 	move	a2,s3
--
  40f82c:	8fbc0020 	lw	gp,32(sp)
  40f830:	24040004 	li	a0,4
  40f834:	3c050042 	lui	a1,0x42
  40f838:	8f9983b4 	lw	t9,-31820(gp)
  40f83c:	0320f809 	jalr	t9
  40f840:	24a5ff24 	addiu	a1,a1,-220
  40f844:	8fbc0020 	lw	gp,32(sp)
  40f848:	24020001 	li	v0,1
  40f84c:	100000fa 	b	40fc38 <EventSnapshot_Thread@@Base+0x1ff4>
  40f850:	ae020704 	sw	v0,1796(s0)
  40f854:	8f998170 	lw	t9,-32400(gp)
  40f858:	0320f809 	jalr	t9
  40f85c:	24050302 	li	a1,770
  40f860:	8fbc0020 	lw	gp,32(sp)
  40f864:	04410011 	bgez	v0,40f8ac <EventSnapshot_Thread@@Base+0x1c68>
  40f868:	0040b021 	move	s6,v0
  40f86c:	2643ffff 	addiu	v1,s2,-1
  40f870:	00031880 	sll	v1,v1,0x2
  40f874:	3c020043 	lui	v0,0x43
  40f878:	24422030 	addiu	v0,v0,8240
  40f87c:	00621021 	addu	v0,v1,v0
  40f880:	8f838114 	lw	v1,-32492(gp)
  40f884:	8c640000 	lw	a0,0(v1)
  40f888:	3c050042 	lui	a1,0x42
  40f88c:	8c460000 	lw	a2,0(v0)
[31m  40f890:	8f998298 	lw	t9,fprintf[0m
  40f894:	0320f809 	jalr	t9
  40f898:	24a5ff78 	addiu	a1,a1,-136
  40f89c:	8fbc0020 	lw	gp,32(sp)
  40f8a0:	24020001 	li	v0,1
  40f8a4:	100000e4 	b	40fc38 <EventSnapshot_Thread@@Base+0x1ff4>
  40f8a8:	ae020704 	sw	v0,1796(s0)
  40f8ac:	00402021 	move	a0,v0
  40f8b0:	8fa50ce0 	lw	a1,3296(sp)
  40f8b4:	8f9982a4 	lw	t9,-32092(gp)
  40f8b8:	0320f809 	jalr	t9
  40f8bc:	03c03021 	move	a2,s8
  40f8c0:	8fbc0020 	lw	gp,32(sp)
  40f8c4:	13c20015 	beq	s8,v0,40f91c <EventSnapshot_Thread@@Base+0x1cd8>
  40f8c8:	2643ffff 	addiu	v1,s2,-1
  40f8cc:	00031880 	sll	v1,v1,0x2
  40f8d0:	3c020043 	lui	v0,0x43
  40f8d4:	24422030 	addiu	v0,v0,8240
  40f8d8:	00621021 	addu	v0,v1,v0
  40f8dc:	8f838114 	lw	v1,-32492(gp)
  40f8e0:	8c640000 	lw	a0,0(v1)
  40f8e4:	3c050042 	lui	a1,0x42
  40f8e8:	8c460000 	lw	a2,0(v0)
[31m  40f8ec:	8f998298 	lw	t9,fprintf[0m
  40f8f0:	0320f809 	jalr	t9
  40f8f4:	24a5ffb8 	addiu	a1,a1,-72
--
  40fcac:	93a203a8 	lbu	v0,936(sp)
  40fcb0:	10400006 	beqz	v0,40fccc <EventSnapshot_Thread@@Base+0x2088>
  40fcb4:	00000000 	nop
  40fcb8:	8fa40cd4 	lw	a0,3284(sp)
  40fcbc:	8f9982e0 	lw	t9,-32032(gp)
  40fcc0:	0320f809 	jalr	t9
  40fcc4:	00000000 	nop
  40fcc8:	8fbc0020 	lw	gp,32(sp)
  40fccc:	93a203a9 	lbu	v0,937(sp)
  40fcd0:	10400006 	beqz	v0,40fcec <EventSnapshot_Thread@@Base+0x20a8>
  40fcd4:	00000000 	nop
  40fcd8:	8fa40ce8 	lw	a0,3304(sp)
  40fcdc:	8f9982e0 	lw	t9,-32032(gp)
  40fce0:	0320f809 	jalr	t9
  40fce4:	00000000 	nop
  40fce8:	8fbc0020 	lw	gp,32(sp)
  40fcec:	8f828114 	lw	v0,-32492(gp)
  40fcf0:	8c440000 	lw	a0,0(v0)
  40fcf4:	8fa205ac 	lw	v0,1452(sp)
  40fcf8:	afa20010 	sw	v0,16(sp)
  40fcfc:	8fa205b0 	lw	v0,1456(sp)
  40fd00:	afa20014 	sw	v0,20(sp)
  40fd04:	3c050042 	lui	a1,0x42
  40fd08:	24a5fff4 	addiu	a1,a1,-12
  40fd0c:	02a03021 	move	a2,s5
[31m  40fd10:	8f998298 	lw	t9,fprintf[0m
  40fd14:	0320f809 	jalr	t9
  40fd18:	03c03821 	move	a3,s8
--
  41015c:	8fbc0010 	lw	gp,16(sp)
  410160:	02c08821 	move	s1,s6
  410164:	02602021 	move	a0,s3
  410168:	24050263 	li	a1,611
  41016c:	8f998330 	lw	t9,-31952(gp)
  410170:	0320f809 	jalr	t9
  410174:	24060001 	li	a2,1
  410178:	8fbc0010 	lw	gp,16(sp)
  41017c:	04410008 	bgez	v0,4101a0 <EventRecAudio_Thread@@Base+0x16c>
  410180:	00000000 	nop
  410184:	8fa40074 	lw	a0,116(sp)
  410188:	8f99837c 	lw	t9,-31876(gp)
  41018c:	0320f809 	jalr	t9
  410190:	00000000 	nop
  410194:	8fbc0010 	lw	gp,16(sp)
  410198:	100000b9 	b	410480 <EventRecAudio_Thread@@Base+0x44c>
  41019c:	00000000 	nop
  4101a0:	8e020000 	lw	v0,0(s0)
  4101a4:	144000c4 	bnez	v0,4104b8 <EventRecAudio_Thread@@Base+0x484>
  4101a8:	24020091 	li	v0,145
  4101ac:	8e660014 	lw	a2,20(s3)
  4101b0:	10c20009 	beq	a2,v0,4101d8 <EventRecAudio_Thread@@Base+0x1a4>
  4101b4:	00000000 	nop
  4101b8:	8ee40000 	lw	a0,0(s7)
  4101bc:	8fa50068 	lw	a1,104(sp)
[31m  4101c0:	8f998298 	lw	t9,fprintf[0m
  4101c4:	0320f809 	jalr	t9
  4101c8:	00000000 	nop
  4101cc:	8fbc0010 	lw	gp,16(sp)
  4101d0:	100000ab 	b	410480 <EventRecAudio_Thread@@Base+0x44c>
  4101d4:	00000000 	nop
  4101d8:	8e630020 	lw	v1,32(s3)
  4101dc:	1620001a 	bnez	s1,410248 <EventRecAudio_Thread@@Base+0x214>
  4101e0:	afa30060 	sw	v1,96(sp)
  4101e4:	24020001 	li	v0,1
  4101e8:	14620007 	bne	v1,v0,410208 <EventRecAudio_Thread@@Base+0x1d4>
  4101ec:	00000000 	nop
  4101f0:	8f99823c 	lw	t9,-32196(gp)
  4101f4:	0320f809 	jalr	t9
  4101f8:	24040003 	li	a0,3
  4101fc:	8fbc0010 	lw	gp,16(sp)
  410200:	10000006 	b	41021c <EventRecAudio_Thread@@Base+0x1e8>
  410204:	00408821 	move	s1,v0
  410208:	8f99823c 	lw	t9,-32196(gp)
  41020c:	0320f809 	jalr	t9
  410210:	24040005 	li	a0,5
  410214:	8fbc0010 	lw	gp,16(sp)
  410218:	00408821 	move	s1,v0
  41021c:	1620000a 	bnez	s1,410248 <EventRecAudio_Thread@@Base+0x214>
  410220:	00000000 	nop
  410224:	8ee40000 	lw	a0,0(s7)
  410228:	8fa50078 	lw	a1,120(sp)
  41022c:	8fa60060 	lw	a2,96(sp)
[31m  410230:	8f998298 	lw	t9,fprintf[0m
  410234:	0320f809 	jalr	t9
  410238:	00000000 	nop
--
  41263c:	00002821 	move	a1,zero
  412640:	27a63e34 	addiu	a2,sp,15924
  412644:	0c104145 	jal	410514 <EventRecAudio_Thread@@Base+0x4e0>
  412648:	00003821 	move	a3,zero
  41264c:	8fbc0030 	lw	gp,48(sp)
  412650:	27b33d34 	addiu	s3,sp,15668
  412654:	02602021 	move	a0,s3
  412658:	8f9983f4 	lw	t9,-31756(gp)
  41265c:	0320f809 	jalr	t9
  412660:	27a53738 	addiu	a1,sp,14136
  412664:	8fbc0030 	lw	gp,48(sp)
  412668:	8f998098 	lw	t9,strlen
  41266c:	0320f809 	jalr	t9
  412670:	02602021 	move	a0,s3
  412674:	8fbc0030 	lw	gp,48(sp)
  412678:	2442fffd 	addiu	v0,v0,-3
  41267c:	02629821 	addu	s3,s3,v0
  412680:	3c030042 	lui	v1,0x42
  412684:	8c62efa8 	lw	v0,-4184(v1)
  412688:	aa620000 	swl	v0,0(s3)
  41268c:	ba620003 	swr	v0,3(s3)
  412690:	8f828114 	lw	v0,-32492(gp)
  412694:	8c440000 	lw	a0,0(v0)
  412698:	3c050042 	lui	a1,0x42
  41269c:	24a50768 	addiu	a1,a1,1896
[31m  4126a0:	8f998298 	lw	t9,fprintf[0m
  4126a4:	0320f809 	jalr	t9
  4126a8:	27a63738 	addiu	a2,sp,14136
--
  412860:	0320f809 	jalr	t9
  412864:	2406002b 	li	a2,43
  412868:	8fbc0030 	lw	gp,48(sp)
  41286c:	10000019 	b	4128d4 <EventRecord_Thread@@Base+0x21cc>
  412870:	24170002 	li	s7,2
  412874:	8fa44068 	lw	a0,16488(sp)
  412878:	8f9981b8 	lw	t9,-32328(gp)
  41287c:	0320f809 	jalr	t9
  412880:	24170001 	li	s7,1
  412884:	8fbc0030 	lw	gp,48(sp)
  412888:	8fa44068 	lw	a0,16488(sp)
  41288c:	8f998264 	lw	t9,-32156(gp)
  412890:	0320f809 	jalr	t9
  412894:	00000000 	nop
  412898:	8fbc0030 	lw	gp,48(sp)
  41289c:	8fa440d8 	lw	a0,16600(sp)
  4128a0:	8f99823c 	lw	t9,-32196(gp)
  4128a4:	0320f809 	jalr	t9
  4128a8:	00000000 	nop
  4128ac:	8fbc0030 	lw	gp,48(sp)
  4128b0:	afa24068 	sw	v0,16488(sp)
  4128b4:	8f828114 	lw	v0,-32492(gp)
  4128b8:	8c440000 	lw	a0,0(v0)
  4128bc:	3c050042 	lui	a1,0x42
  4128c0:	8fa6406c 	lw	a2,16492(sp)
[31m  4128c4:	8f998298 	lw	t9,fprintf[0m
  4128c8:	0320f809 	jalr	t9
  4128cc:	24a507e0 	addiu	a1,a1,2016
--
  412cdc:	2442fff8 	addiu	v0,v0,-8
  412ce0:	afa24054 	sw	v0,16468(sp)
  412ce4:	8a220000 	lwl	v0,0(s1)
  412ce8:	9a220003 	lwr	v0,3(s1)
  412cec:	afa24050 	sw	v0,16464(sp)
  412cf0:	afa2371c 	sw	v0,14108(sp)
  412cf4:	8a3e0004 	lwl	s8,4(s1)
  412cf8:	9a3e0007 	lwr	s8,7(s1)
  412cfc:	afbe3720 	sw	s8,14112(sp)
  412d00:	8fa73724 	lw	a3,14116(sp)
  412d04:	afa74060 	sw	a3,16480(sp)
  412d08:	8fa23728 	lw	v0,14120(sp)
  412d0c:	afa2405c 	sw	v0,16476(sp)
  412d10:	8f9983f0 	lw	t9,-31760(gp)
  412d14:	0320f809 	jalr	t9
  412d18:	02402021 	move	a0,s2
  412d1c:	8fbc0030 	lw	gp,48(sp)
  412d20:	1260000b 	beqz	s3,412d50 <EventRecord_Thread@@Base+0x2648>
  412d24:	0040b021 	move	s6,v0
  412d28:	26620001 	addiu	v0,s3,1
  412d2c:	10560008 	beq	v0,s6,412d50 <EventRecord_Thread@@Base+0x2648>
  412d30:	02603021 	move	a2,s3
  412d34:	8f838114 	lw	v1,-32492(gp)
  412d38:	8c640000 	lw	a0,0(v1)
  412d3c:	8fa540bc 	lw	a1,16572(sp)
[31m  412d40:	8f998298 	lw	t9,fprintf[0m
  412d44:	0320f809 	jalr	t9
  412d48:	02c03821 	move	a3,s6
--
  413200:	8f998100 	lw	t9,-32512(gp)
  413204:	0320f809 	jalr	t9
  413208:	27a53d34 	addiu	a1,sp,15668
  41320c:	8fbc0030 	lw	gp,48(sp)
  413210:	93a23734 	lbu	v0,14132(sp)
  413214:	30420080 	andi	v0,v0,0x80
  413218:	304200ff 	andi	v0,v0,0xff
  41321c:	1040000c 	beqz	v0,413250 <EventRecord_Thread@@Base+0x2b48>
  413220:	00000000 	nop
  413224:	8f9982c8 	lw	t9,-32056(gp)
  413228:	0320f809 	jalr	t9
  41322c:	27a43738 	addiu	a0,sp,14136
  413230:	8fbc0030 	lw	gp,48(sp)
  413234:	83a23d34 	lb	v0,15668(sp)
  413238:	10400005 	beqz	v0,413250 <EventRecord_Thread@@Base+0x2b48>
  41323c:	00000000 	nop
  413240:	8f9982c8 	lw	t9,-32056(gp)
  413244:	0320f809 	jalr	t9
  413248:	27a43d34 	addiu	a0,sp,15668
  41324c:	8fbc0030 	lw	gp,48(sp)
  413250:	8f828114 	lw	v0,-32492(gp)
  413254:	8c440000 	lw	a0,0(v0)
  413258:	3c050042 	lui	a1,0x42
  41325c:	24a50988 	addiu	a1,a1,2440
  413260:	27a634bc 	addiu	a2,sp,13500
[31m  413264:	8f998298 	lw	t9,fprintf[0m
  413268:	0320f809 	jalr	t9
  41326c:	02803821 	move	a3,s4
--
  413298:	10000006 	b	4132b4 <EventRecord_Thread@@Base+0x2bac>
  41329c:	00403821 	move	a3,v0
  4132a0:	8f998184 	lw	t9,-32380(gp)
  4132a4:	0320f809 	jalr	t9
  4132a8:	27a41a98 	addiu	a0,sp,6808
  4132ac:	8fbc0030 	lw	gp,48(sp)
  4132b0:	00403821 	move	a3,v0
  4132b4:	8f828114 	lw	v0,-32492(gp)
  4132b8:	8c440000 	lw	a0,0(v0)
  4132bc:	8fa54058 	lw	a1,16472(sp)
  4132c0:	afa50010 	sw	a1,16(sp)
  4132c4:	8fa23724 	lw	v0,14116(sp)
  4132c8:	afa20014 	sw	v0,20(sp)
  4132cc:	8fa23728 	lw	v0,14120(sp)
  4132d0:	afa20018 	sw	v0,24(sp)
  4132d4:	8fa2371c 	lw	v0,14108(sp)
  4132d8:	afa2001c 	sw	v0,28(sp)
  4132dc:	8fa23720 	lw	v0,14112(sp)
  4132e0:	afa20020 	sw	v0,32(sp)
  4132e4:	8fa23704 	lw	v0,14084(sp)
  4132e8:	afa20024 	sw	v0,36(sp)
  4132ec:	8fa23708 	lw	v0,14088(sp)
  4132f0:	afa20028 	sw	v0,40(sp)
  4132f4:	3c060042 	lui	a2,0x42
  4132f8:	24c509c0 	addiu	a1,a2,2496
[31m  4132fc:	8f998298 	lw	t9,fprintf[0m
  413300:	0320f809 	jalr	t9
  413304:	02803021 	move	a2,s4
--
  413618:	00402821 	move	a1,v0
  41361c:	8fbc0030 	lw	gp,48(sp)
  413620:	02f53821 	addu	a3,s7,s5
  413624:	8fa440b8 	lw	a0,16568(sp)
  413628:	2405008c 	li	a1,140
  41362c:	27a63734 	addiu	a2,sp,14132
  413630:	8f9980f4 	lw	t9,-32524(gp)
  413634:	0320f809 	jalr	t9
  413638:	24e70006 	addiu	a3,a3,6
  41363c:	8fbc0030 	lw	gp,48(sp)
  413640:	10000012 	b	41368c <EventRecord_Thread@@Base+0x2f84>
  413644:	00000000 	nop
  413648:	30420080 	andi	v0,v0,0x80
  41364c:	304200ff 	andi	v0,v0,0xff
  413650:	1040000e 	beqz	v0,41368c <EventRecord_Thread@@Base+0x2f84>
  413654:	00000000 	nop
  413658:	8f9982c8 	lw	t9,-32056(gp)
  41365c:	0320f809 	jalr	t9
  413660:	27a43738 	addiu	a0,sp,14136
  413664:	8fbc0030 	lw	gp,48(sp)
  413668:	10000008 	b	41368c <EventRecord_Thread@@Base+0x2f84>
  41366c:	00000000 	nop
  413670:	8f828114 	lw	v0,-32492(gp)
  413674:	8c440000 	lw	a0,0(v0)
  413678:	8fa540e8 	lw	a1,16616(sp)
[31m  41367c:	8f998298 	lw	t9,fprintf[0m
  413680:	0320f809 	jalr	t9
  413684:	27a63738 	addiu	a2,sp,14136
--
  4145ec:	3c050042 	lui	a1,0x42
  4145f0:	8f99803c 	lw	t9,-32708(gp)
  4145f4:	0320f809 	jalr	t9
  4145f8:	24a5f704 	addiu	a1,a1,-2300
  4145fc:	8fbc0018 	lw	gp,24(sp)
  414600:	10400064 	beqz	v0,414794 <MyUnlink@@Base+0x370>
  414604:	00409021 	move	s2,v0
  414608:	27b30024 	addiu	s3,sp,36
  41460c:	afb10010 	sw	s1,16(sp)
  414610:	3402c841 	li	v0,0xc841
  414614:	02021021 	addu	v0,s0,v0
  414618:	afa20014 	sw	v0,20(sp)
  41461c:	02602021 	move	a0,s3
  414620:	3c050042 	lui	a1,0x42
  414624:	24a50b90 	addiu	a1,a1,2960
  414628:	3406c641 	li	a2,0xc641
  41462c:	02063021 	addu	a2,s0,a2
  414630:	3407c741 	li	a3,0xc741
  414634:	8f998124 	lw	t9,-32476(gp)
  414638:	0320f809 	jalr	t9
  41463c:	02073821 	addu	a3,s0,a3
  414640:	8fbc0018 	lw	gp,24(sp)
  414644:	02402021 	move	a0,s2
  414648:	3c050042 	lui	a1,0x42
  41464c:	24a50bd0 	addiu	a1,a1,3024
[31m  414650:	8f998298 	lw	t9,fprintf[0m
  414654:	0320f809 	jalr	t9
  414658:	02603021 	move	a2,s3
--
  414970:	279ca060 	addiu	gp,gp,-24480
  414974:	afbc0018 	sw	gp,24(sp)
  414978:	00808021 	move	s0,a0
  41497c:	00a09021 	move	s2,a1
  414980:	3411cf90 	li	s1,0xcf90
  414984:	00918821 	addu	s1,a0,s1
  414988:	8f998320 	lw	t9,-31968(gp)
  41498c:	0320f809 	jalr	t9
  414990:	02202021 	move	a0,s1
  414994:	8fbc0018 	lw	gp,24(sp)
  414998:	8e150014 	lw	s5,20(s0)
  41499c:	8e130070 	lw	s3,112(s0)
  4149a0:	0275a021 	addu	s4,s3,s5
  4149a4:	8f998318 	lw	t9,-31976(gp)
  4149a8:	0320f809 	jalr	t9
  4149ac:	02202021 	move	a0,s1
  4149b0:	8fbc0018 	lw	gp,24(sp)
  4149b4:	0292102a 	slt	v0,s4,s2
  4149b8:	1040000b 	beqz	v0,4149e8 <GCheck_LocalEnough@@Base+0x9c>
  4149bc:	3c050042 	lui	a1,0x42
  4149c0:	8f828114 	lw	v0,-32492(gp)
  4149c4:	8c440000 	lw	a0,0(v0)
  4149c8:	afb30010 	sw	s3,16(sp)
  4149cc:	24a50c58 	addiu	a1,a1,3160
  4149d0:	02803021 	move	a2,s4
[31m  4149d4:	8f998298 	lw	t9,fprintf[0m
  4149d8:	0320f809 	jalr	t9
  4149dc:	02a03821 	move	a3,s5
--
  4149e4:	24020001 	li	v0,1
  4149e8:	8f9980fc 	lw	t9,-32516(gp)
  4149ec:	0320f809 	jalr	t9
  4149f0:	02002021 	move	a0,s0
  4149f4:	8fbc0018 	lw	gp,24(sp)
  4149f8:	8f998320 	lw	t9,-31968(gp)
  4149fc:	0320f809 	jalr	t9
  414a00:	02202021 	move	a0,s1
  414a04:	8fbc0018 	lw	gp,24(sp)
  414a08:	8e130014 	lw	s3,20(s0)
  414a0c:	8e140070 	lw	s4,112(s0)
  414a10:	02938021 	addu	s0,s4,s3
  414a14:	8f998318 	lw	t9,-31976(gp)
  414a18:	0320f809 	jalr	t9
  414a1c:	02202021 	move	a0,s1
  414a20:	8fbc0018 	lw	gp,24(sp)
  414a24:	0212902a 	slt	s2,s0,s2
  414a28:	1240000c 	beqz	s2,414a5c <GCheck_LocalEnough@@Base+0x110>
  414a2c:	3c050042 	lui	a1,0x42
  414a30:	8f828114 	lw	v0,-32492(gp)
  414a34:	8c440000 	lw	a0,0(v0)
  414a38:	afb40010 	sw	s4,16(sp)
  414a3c:	3c050042 	lui	a1,0x42
  414a40:	24a50c58 	addiu	a1,a1,3160
  414a44:	02003021 	move	a2,s0
[31m  414a48:	8f998298 	lw	t9,fprintf[0m
  414a4c:	0320f809 	jalr	t9
  414a50:	02603821 	move	a3,s3
  414a54:	1000000a 	b	414a80 <GCheck_LocalEnough@@Base+0x134>
  414a58:	24020001 	li	v0,1
  414a5c:	8f828114 	lw	v0,-32492(gp)
  414a60:	8c440000 	lw	a0,0(v0)
  414a64:	afb40010 	sw	s4,16(sp)
  414a68:	24a50c8c 	addiu	a1,a1,3212
  414a6c:	02003021 	move	a2,s0
[31m  414a70:	8f998298 	lw	t9,fprintf[0m
  414a74:	0320f809 	jalr	t9
  414a78:	02603821 	move	a3,s3
--
  415c20:	0295a821 	addu	s5,s4,s5
  415c24:	a2a008f4 	sb	zero,2292(s5)
  415c28:	8f998098 	lw	t9,strlen
  415c2c:	0320f809 	jalr	t9
  415c30:	02402021 	move	a0,s2
  415c34:	8fbc0028 	lw	gp,40(sp)
  415c38:	02421021 	addu	v0,s2,v0
  415c3c:	3c030042 	lui	v1,0x42
  415c40:	8c640e1c 	lw	a0,3612(v1)
  415c44:	a8440000 	swl	a0,0(v0)
  415c48:	b8440003 	swr	a0,3(v0)
  415c4c:	24630e1c 	addiu	v1,v1,3612
  415c50:	90630004 	lbu	v1,4(v1)
  415c54:	a0430004 	sb	v1,4(v0)
  415c58:	02402021 	move	a0,s2
  415c5c:	8f998170 	lw	t9,-32400(gp)
  415c60:	0320f809 	jalr	t9
  415c64:	24050302 	li	a1,770
  415c68:	8fbc0028 	lw	gp,40(sp)
  415c6c:	0441000b 	bgez	v0,415c9c <avi_Open@@Base+0x260>
  415c70:	ae020828 	sw	v0,2088(s0)
  415c74:	8f828114 	lw	v0,-32492(gp)
  415c78:	8c440000 	lw	a0,0(v0)
  415c7c:	3c050042 	lui	a1,0x42
  415c80:	24a50e24 	addiu	a1,a1,3620
[31m  415c84:	8f998298 	lw	t9,fprintf[0m
  415c88:	0320f809 	jalr	t9
  415c8c:	02403021 	move	a2,s2
  415c90:	2402ffff 	li	v0,-1
  415c94:	1000019b 	b	416304 <avi_Open@@Base+0x8c8>
  415c98:	ae02082c 	sw	v0,2092(s0)
  415c9c:	82220028 	lb	v0,40(s1)
  415ca0:	1040001a 	beqz	v0,415d0c <avi_Open@@Base+0x2d0>
  415ca4:	26120874 	addiu	s2,s0,2164
  415ca8:	02402021 	move	a0,s2
  415cac:	3c050042 	lui	a1,0x42
  415cb0:	24a5ea3c 	addiu	a1,a1,-5572
  415cb4:	26260028 	addiu	a2,s1,40
  415cb8:	8f998124 	lw	t9,-32476(gp)
  415cbc:	0320f809 	jalr	t9
  415cc0:	02603821 	move	a3,s3
  415cc4:	8fbc0028 	lw	gp,40(sp)
  415cc8:	02402021 	move	a0,s2
  415ccc:	8f998170 	lw	t9,-32400(gp)
  415cd0:	0320f809 	jalr	t9
  415cd4:	24050302 	li	a1,770
  415cd8:	8fbc0028 	lw	gp,40(sp)
  415cdc:	0441000b 	bgez	v0,415d0c <avi_Open@@Base+0x2d0>
  415ce0:	ae02081c 	sw	v0,2076(s0)
  415ce4:	8f828114 	lw	v0,-32492(gp)
  415ce8:	8c440000 	lw	a0,0(v0)
  415cec:	3c050042 	lui	a1,0x42
  415cf0:	24a50e44 	addiu	a1,a1,3652
[31m  415cf4:	8f998298 	lw	t9,fprintf[0m
  415cf8:	0320f809 	jalr	t9
  415cfc:	02403021 	move	a2,s2
  415d00:	2402ffff 	li	v0,-1
  415d04:	1000017f 	b	416304 <avi_Open@@Base+0x8c8>
  415d08:	ae02082c 	sw	v0,2092(s0)
  415d0c:	8e240234 	lw	a0,564(s1)
  415d10:	10800011 	beqz	a0,415d58 <avi_Open@@Base+0x31c>
  415d14:	02602821 	move	a1,s3
  415d18:	8f998304 	lw	t9,-31996(gp)
  415d1c:	0320f809 	jalr	t9
  415d20:	24060302 	li	a2,770
  415d24:	8fbc0028 	lw	gp,40(sp)
  415d28:	0441000b 	bgez	v0,415d58 <avi_Open@@Base+0x31c>
  415d2c:	ae020820 	sw	v0,2080(s0)
  415d30:	8f828114 	lw	v0,-32492(gp)
  415d34:	8c440000 	lw	a0,0(v0)
  415d38:	3c050042 	lui	a1,0x42
  415d3c:	24a50e60 	addiu	a1,a1,3680
[31m  415d40:	8f998298 	lw	t9,fprintf[0m
  415d44:	0320f809 	jalr	t9
  415d48:	02603021 	move	a2,s3
  415d4c:	2402ffff 	li	v0,-1
  415d50:	1000016c 	b	416304 <avi_Open@@Base+0x8c8>
  415d54:	ae02082c 	sw	v0,2092(s0)
  415d58:	8e240238 	lw	a0,568(s1)
  415d5c:	10800011 	beqz	a0,415da4 <avi_Open@@Base+0x368>
  415d60:	02602821 	move	a1,s3
  415d64:	8f998304 	lw	t9,-31996(gp)
  415d68:	0320f809 	jalr	t9
  415d6c:	24060302 	li	a2,770
  415d70:	8fbc0028 	lw	gp,40(sp)
  415d74:	0441000b 	bgez	v0,415da4 <avi_Open@@Base+0x368>
  415d78:	ae020824 	sw	v0,2084(s0)
  415d7c:	8f828114 	lw	v0,-32492(gp)
  415d80:	8c440000 	lw	a0,0(v0)
  415d84:	3c050042 	lui	a1,0x42
  415d88:	24a50e84 	addiu	a1,a1,3716
[31m  415d8c:	8f998298 	lw	t9,fprintf[0m
  415d90:	0320f809 	jalr	t9
  415d94:	02603021 	move	a2,s3
--
  4178b0:	00000000 	nop
  4178b4:	8fa20164 	lw	v0,356(sp)
  4178b8:	00021283 	sra	v0,v0,0xa
  4178bc:	00430018 	mult	v0,v1
  4178c0:	00001812 	mflo	v1
  4178c4:	10000006 	b	4178e0 <DiskRecycle_Thread@@Base+0xdf4>
  4178c8:	ae030000 	sw	v1,0(s0)
  4178cc:	8fa30164 	lw	v1,356(sp)
  4178d0:	00031a83 	sra	v1,v1,0xa
  4178d4:	00620018 	mult	v1,v0
  4178d8:	00001012 	mflo	v0
  4178dc:	ae020000 	sw	v0,0(s0)
  4178e0:	ae000030 	sw	zero,48(s0)
  4178e4:	8f828114 	lw	v0,-32492(gp)
  4178e8:	8c440000 	lw	a0,0(v0)
  4178ec:	8e02000c 	lw	v0,12(s0)
  4178f0:	00021080 	sll	v0,v0,0x2
  4178f4:	03a21021 	addu	v0,sp,v0
  4178f8:	8c460128 	lw	a2,296(v0)
  4178fc:	8e020000 	lw	v0,0(s0)
  417900:	afa20010 	sw	v0,16(sp)
  417904:	8e020004 	lw	v0,4(s0)
  417908:	afa20014 	sw	v0,20(sp)
  41790c:	3c050042 	lui	a1,0x42
  417910:	8fa70884 	lw	a3,2180(sp)
[31m  417914:	8f998298 	lw	t9,fprintf[0m
  417918:	0320f809 	jalr	t9
  41791c:	24a51018 	addiu	a1,a1,4120
--
  4185d0:	3c050042 	lui	a1,0x42
  4185d4:	24a510b0 	addiu	a1,a1,4272
  4185d8:	8f998124 	lw	t9,-32476(gp)
  4185dc:	0320f809 	jalr	t9
  4185e0:	02403021 	move	a2,s2
  4185e4:	8fbc0010 	lw	gp,16(sp)
  4185e8:	8f998344 	lw	t9,-31932(gp)
  4185ec:	0320f809 	jalr	t9
  4185f0:	02602021 	move	a0,s3
  4185f4:	8fbc0010 	lw	gp,16(sp)
  4185f8:	24020001 	li	v0,1
  4185fc:	ae020028 	sw	v0,40(s0)
  418600:	8f998318 	lw	t9,-31976(gp)
  418604:	0320f809 	jalr	t9
  418608:	02202021 	move	a0,s1
  41860c:	8fbc0010 	lw	gp,16(sp)
  418610:	27a402c0 	addiu	a0,sp,704
  418614:	8f998300 	lw	t9,-32000(gp)
  418618:	0320f809 	jalr	t9
  41861c:	00002821 	move	a1,zero
  418620:	8fbc0010 	lw	gp,16(sp)
  418624:	8f828114 	lw	v0,-32492(gp)
  418628:	8c440000 	lw	a0,0(v0)
  41862c:	3c050042 	lui	a1,0x42
  418630:	8e06000c 	lw	a2,12(s0)
[31m  418634:	8f998298 	lw	t9,fprintf[0m
  418638:	0320f809 	jalr	t9
  41863c:	24a510c0 	addiu	a1,a1,4288
  418640:	0c105e7e 	jal	4179f8 <DiskRecycle_Thread@@Base+0xf0c>
  418644:	02002021 	move	a0,s0
  418648:	8fbc0010 	lw	gp,16(sp)
  41864c:	28420000 	slti	v0,v0,0
  418650:	2403ffff 	li	v1,-1
  418654:	00008821 	move	s1,zero
  418658:	0062880b 	0x62880b
  41865c:	8e040068 	lw	a0,104(s0)
  418660:	2405026b 	li	a1,619
  418664:	24060001 	li	a2,1
  418668:	8f998180 	lw	t9,-32384(gp)
  41866c:	0320f809 	jalr	t9
  418670:	24070001 	li	a3,1
  418674:	8fbc0010 	lw	gp,16(sp)
  418678:	27a402c0 	addiu	a0,sp,704
  41867c:	8f998300 	lw	t9,-32000(gp)
  418680:	0320f809 	jalr	t9
  418684:	24050001 	li	a1,1
  418688:	8fbc0010 	lw	gp,16(sp)
  41868c:	8f838114 	lw	v1,-32492(gp)
  418690:	8c640000 	lw	a0,0(v1)
  418694:	3c050042 	lui	a1,0x42
  418698:	24a510f0 	addiu	a1,a1,4336
  41869c:	8e06000c 	lw	a2,12(s0)
[31m  4186a0:	8f998298 	lw	t9,fprintf[0m
  4186a4:	0320f809 	jalr	t9
  4186a8:	00403821 	move	a3,v0
--
  418730:	1440007d 	bnez	v0,418928 <Disk_CheckRecycle@@Base+0x244>
  418734:	00000000 	nop
  418738:	8e220038 	lw	v0,56(s1)
  41873c:	1040001d 	beqz	v0,4187b4 <Disk_CheckRecycle@@Base+0xd0>
  418740:	00000000 	nop
  418744:	8e22003c 	lw	v0,60(s1)
  418748:	10400008 	beqz	v0,41876c <Disk_CheckRecycle@@Base+0x88>
  41874c:	00000000 	nop
  418750:	8e230014 	lw	v1,20(s1)
  418754:	8e220020 	lw	v0,32(s1)
  418758:	00621023 	subu	v0,v1,v0
  41875c:	8e230004 	lw	v1,4(s1)
  418760:	0043102a 	slt	v0,v0,v1
  418764:	14400006 	bnez	v0,418780 <Disk_CheckRecycle@@Base+0x9c>
  418768:	00000000 	nop
  41876c:	8e230000 	lw	v1,0(s1)
  418770:	8e220020 	lw	v0,32(s1)
  418774:	0062102a 	slt	v0,v1,v0
  418778:	10400050 	beqz	v0,4188bc <Disk_CheckRecycle@@Base+0x1d8>
  41877c:	00000000 	nop
  418780:	8f828114 	lw	v0,-32492(gp)
  418784:	8c440000 	lw	a0,0(v0)
  418788:	3c050042 	lui	a1,0x42
  41878c:	8e260000 	lw	a2,0(s1)
  418790:	8e270004 	lw	a3,4(s1)
[31m  418794:	8f998298 	lw	t9,fprintf[0m
  418798:	0320f809 	jalr	t9
  41879c:	24a51128 	addiu	a1,a1,4392
  4187a0:	0c105984 	jal	416610 <Disk_FreshSizeRequire@@Base+0x3c>
  4187a4:	02202021 	move	a0,s1
  4187a8:	8fbc0010 	lw	gp,16(sp)
  4187ac:	10000043 	b	4188bc <Disk_CheckRecycle@@Base+0x1d8>
  4187b0:	00000000 	nop
  4187b4:	8e22003c 	lw	v0,60(s1)
  4187b8:	10400008 	beqz	v0,4187dc <Disk_CheckRecycle@@Base+0xf8>
  4187bc:	00000000 	nop
  4187c0:	8e230014 	lw	v1,20(s1)
  4187c4:	8e22001c 	lw	v0,28(s1)
  4187c8:	00621023 	subu	v0,v1,v0
  4187cc:	8e230004 	lw	v1,4(s1)
  4187d0:	0043102a 	slt	v0,v0,v1
  4187d4:	14400006 	bnez	v0,4187f0 <Disk_CheckRecycle@@Base+0x10c>
  4187d8:	00000000 	nop
  4187dc:	8e230000 	lw	v1,0(s1)
  4187e0:	8e22001c 	lw	v0,28(s1)
  4187e4:	0062102a 	slt	v0,v1,v0
  4187e8:	10400034 	beqz	v0,4188bc <Disk_CheckRecycle@@Base+0x1d8>
  4187ec:	00000000 	nop
  4187f0:	8f828114 	lw	v0,-32492(gp)
  4187f4:	8c440000 	lw	a0,0(v0)
  4187f8:	3c050042 	lui	a1,0x42
  4187fc:	8e260000 	lw	a2,0(s1)
  418800:	8e270004 	lw	a3,4(s1)
[31m  418804:	8f998298 	lw	t9,fprintf[0m
  418808:	0320f809 	jalr	t9
  41880c:	24a5116c 	addiu	a1,a1,4460
--
  41a774:	ac550000 	sw	s5,0(v0)
  41a778:	8e221944 	lw	v0,6468(s1)
  41a77c:	24420001 	addiu	v0,v0,1
  41a780:	ae221944 	sw	v0,6468(s1)
  41a784:	8e2305f8 	lw	v1,1528(s1)
  41a788:	24630001 	addiu	v1,v1,1
  41a78c:	ae2305f8 	sw	v1,1528(s1)
  41a790:	3403f000 	li	v1,0xf000
  41a794:	0043102a 	slt	v0,v0,v1
  41a798:	144000e4 	bnez	v0,41ab2c <mp4_Write@@Base+0x5ec>
  41a79c:	00000000 	nop
  41a7a0:	8e2205ec 	lw	v0,1516(s1)
  41a7a4:	1c400016 	bgtz	v0,41a800 <mp4_Write@@Base+0x2c0>
  41a7a8:	26301834 	addiu	s0,s1,6196
  41a7ac:	02002021 	move	a0,s0
  41a7b0:	8f998170 	lw	t9,-32400(gp)
  41a7b4:	0320f809 	jalr	t9
  41a7b8:	24050302 	li	a1,770
  41a7bc:	8fbc0010 	lw	gp,16(sp)
  41a7c0:	0441000c 	bgez	v0,41a7f4 <mp4_Write@@Base+0x2b4>
  41a7c4:	ae2205ec 	sw	v0,1516(s1)
  41a7c8:	8f828114 	lw	v0,-32492(gp)
  41a7cc:	8c440000 	lw	a0,0(v0)
  41a7d0:	3c050042 	lui	a1,0x42
  41a7d4:	24a51874 	addiu	a1,a1,6260
[31m  41a7d8:	8f998298 	lw	t9,fprintf[0m
  41a7dc:	0320f809 	jalr	t9
  41a7e0:	02003021 	move	a2,s0
--
  41a9bc:	8e221948 	lw	v0,6472(s1)
  41a9c0:	8e230630 	lw	v1,1584(s1)
  41a9c4:	00021080 	sll	v0,v0,0x2
  41a9c8:	00621021 	addu	v0,v1,v0
  41a9cc:	ac550000 	sw	s5,0(v0)
  41a9d0:	8e221948 	lw	v0,6472(s1)
  41a9d4:	24420001 	addiu	v0,v0,1
  41a9d8:	ae221948 	sw	v0,6472(s1)
  41a9dc:	005e102a 	slt	v0,v0,s8
  41a9e0:	1440004e 	bnez	v0,41ab1c <mp4_Write@@Base+0x5dc>
  41a9e4:	00000000 	nop
  41a9e8:	8e2205f0 	lw	v0,1520(s1)
  41a9ec:	1c400016 	bgtz	v0,41aa48 <mp4_Write@@Base+0x508>
  41a9f0:	00000000 	nop
  41a9f4:	8fa40020 	lw	a0,32(sp)
  41a9f8:	8f998170 	lw	t9,-32400(gp)
  41a9fc:	0320f809 	jalr	t9
  41aa00:	24050302 	li	a1,770
  41aa04:	8fbc0010 	lw	gp,16(sp)
  41aa08:	0441000c 	bgez	v0,41aa3c <mp4_Write@@Base+0x4fc>
  41aa0c:	ae2205f0 	sw	v0,1520(s1)
  41aa10:	8f828114 	lw	v0,-32492(gp)
  41aa14:	8c440000 	lw	a0,0(v0)
  41aa18:	3c050042 	lui	a1,0x42
  41aa1c:	8fa60020 	lw	a2,32(sp)
[31m  41aa20:	8f998298 	lw	t9,fprintf[0m
  41aa24:	0320f809 	jalr	t9
  41aa28:	24a518f0 	addiu	a1,a1,6384
--
  41af3c:	0320f809 	jalr	t9
  41af40:	02203821 	move	a3,s1
  41af44:	8fbc0010 	lw	gp,16(sp)
  41af48:	10000007 	b	41af68 <mp4_Open@@Base+0x2b0>
  41af4c:	00000000 	nop
  41af50:	3c050042 	lui	a1,0x42
  41af54:	24a51988 	addiu	a1,a1,6536
  41af58:	8f998124 	lw	t9,-32476(gp)
  41af5c:	0320f809 	jalr	t9
  41af60:	02203021 	move	a2,s1
  41af64:	8fbc0010 	lw	gp,16(sp)
  41af68:	82620028 	lb	v0,40(s3)
  41af6c:	10400012 	beqz	v0,41afb8 <mp4_Open@@Base+0x300>
  41af70:	261117b4 	addiu	s1,s0,6068
  41af74:	02202021 	move	a0,s1
  41af78:	8f998170 	lw	t9,-32400(gp)
  41af7c:	0320f809 	jalr	t9
  41af80:	24050302 	li	a1,770
  41af84:	8fbc0010 	lw	gp,16(sp)
  41af88:	0441000b 	bgez	v0,41afb8 <mp4_Open@@Base+0x300>
  41af8c:	ae0205e0 	sw	v0,1504(s0)
  41af90:	8f828114 	lw	v0,-32492(gp)
  41af94:	8c440000 	lw	a0,0(v0)
  41af98:	3c050042 	lui	a1,0x42
  41af9c:	24a51990 	addiu	a1,a1,6544
[31m  41afa0:	8f998298 	lw	t9,fprintf[0m
  41afa4:	0320f809 	jalr	t9
  41afa8:	02203021 	move	a2,s1
  41afac:	2402ffff 	li	v0,-1
  41afb0:	10000193 	b	41b600 <mp4_Open@@Base+0x948>
  41afb4:	ae0205f4 	sw	v0,1524(s0)
  41afb8:	8e640234 	lw	a0,564(s3)
  41afbc:	10800012 	beqz	a0,41b008 <mp4_Open@@Base+0x350>
  41afc0:	261117b4 	addiu	s1,s0,6068
  41afc4:	02202821 	move	a1,s1
  41afc8:	8f998304 	lw	t9,-31996(gp)
  41afcc:	0320f809 	jalr	t9
  41afd0:	24060302 	li	a2,770
  41afd4:	8fbc0010 	lw	gp,16(sp)
  41afd8:	0441000b 	bgez	v0,41b008 <mp4_Open@@Base+0x350>
  41afdc:	ae0205e4 	sw	v0,1508(s0)
  41afe0:	8f828114 	lw	v0,-32492(gp)
  41afe4:	8c440000 	lw	a0,0(v0)
  41afe8:	3c050042 	lui	a1,0x42
  41afec:	24a519b4 	addiu	a1,a1,6580
[31m  41aff0:	8f998298 	lw	t9,fprintf[0m
  41aff4:	0320f809 	jalr	t9
  41aff8:	02203021 	move	a2,s1
  41affc:	2402ffff 	li	v0,-1
  41b000:	1000017f 	b	41b600 <mp4_Open@@Base+0x948>
  41b004:	ae0205f4 	sw	v0,1524(s0)
  41b008:	8e640238 	lw	a0,568(s3)
  41b00c:	10800012 	beqz	a0,41b058 <mp4_Open@@Base+0x3a0>
  41b010:	261117b4 	addiu	s1,s0,6068
  41b014:	02202821 	move	a1,s1
  41b018:	8f998304 	lw	t9,-31996(gp)
  41b01c:	0320f809 	jalr	t9
  41b020:	24060302 	li	a2,770
  41b024:	8fbc0010 	lw	gp,16(sp)
  41b028:	0441000b 	bgez	v0,41b058 <mp4_Open@@Base+0x3a0>
  41b02c:	ae0205e8 	sw	v0,1512(s0)
  41b030:	8f828114 	lw	v0,-32492(gp)
  41b034:	8c440000 	lw	a0,0(v0)
  41b038:	3c050042 	lui	a1,0x42
  41b03c:	24a519d8 	addiu	a1,a1,6616
[31m  41b040:	8f998298 	lw	t9,fprintf[0m
  41b044:	0320f809 	jalr	t9
  41b048:	02203021 	move	a2,s1
--
  41c4cc:	00042200 	sll	a0,a0,0x8
  41c4d0:	92420003 	lbu	v0,3(s2)
  41c4d4:	00a31825 	or	v1,a1,v1
  41c4d8:	00441025 	or	v0,v0,a0
  41c4dc:	00621021 	addu	v0,v1,v0
  41c4e0:	24420004 	addiu	v0,v0,4
  41c4e4:	3042ffff 	andi	v0,v0,0xffff
  41c4e8:	00021a02 	srl	v1,v0,0x8
  41c4ec:	a223000e 	sb	v1,14(s1)
  41c4f0:	a222000f 	sb	v0,15(s1)
  41c4f4:	92420002 	lbu	v0,2(s2)
  41c4f8:	00021200 	sll	v0,v0,0x8
  41c4fc:	92430003 	lbu	v1,3(s2)
  41c500:	00621025 	or	v0,v1,v0
  41c504:	24420001 	addiu	v0,v0,1
  41c508:	02a2a821 	addu	s5,s5,v0
  41c50c:	8e820004 	lw	v0,4(s4)
  41c510:	1440ffb3 	bnez	v0,41c3e0 <umeTrigger@@Base+0x400>
  41c514:	26940004 	addiu	s4,s4,4
  41c518:	1000000b 	b	41c548 <umeTrigger@@Base+0x568>
  41c51c:	00000000 	nop
  41c520:	8f828114 	lw	v0,-32492(gp)
  41c524:	8c440000 	lw	a0,0(v0)
  41c528:	3c050042 	lui	a1,0x42
  41c52c:	24a51b38 	addiu	a1,a1,6968
[31m  41c530:	8f998298 	lw	t9,fprintf[0m
  41c534:	0320f809 	jalr	t9
  41c538:	02403021 	move	a2,s2

[0m
[[0;33m*[0m] Function [0;33mfprintf[0m used [0;33m65[0m times [0;33meventd[0m

