[0m
[[0;33m*[0m] Function [0;33mstrcat[0m tear down of [0;33mlibweb.so.0[0m

    ea70:	0320f809 	jalr	t9
    ea74:	02002021 	move	a0,s0
    ea78:	02202021 	move	a0,s1
    ea7c:	8fbc0010 	lw	gp,16(sp)
    ea80:	8f918024 	lw	s1,-32732(gp)
    ea84:	8f998140 	lw	t9,-32448(gp)
    ea88:	26310fc4 	addiu	s1,s1,4036
    ea8c:	0320f809 	jalr	t9
    ea90:	02202821 	move	a1,s1
    ea94:	8fbc0010 	lw	gp,16(sp)
    ea98:	1040001e 	beqz	v0,eb14 <clearIp@@Base+0x168>
    ea9c:	27b20018 	addiu	s2,sp,24
    eaa0:	8f938024 	lw	s3,-32732(gp)
    eaa4:	26730afc 	addiu	s3,s3,2812
    eaa8:	8f998080 	lw	t9,-32640(gp)
    eaac:	0320f809 	jalr	t9
    eab0:	00402021 	move	a0,v0
    eab4:	02402021 	move	a0,s2
    eab8:	8fbc0010 	lw	gp,16(sp)
    eabc:	00403021 	move	a2,v0
    eac0:	8f9980cc 	lw	t9,-32564(gp)
    eac4:	0320f809 	jalr	t9
    eac8:	02602821 	move	a1,s3
    eacc:	02002021 	move	a0,s0
    ead0:	8fbc0010 	lw	gp,16(sp)
[31m    ead4:	8f998188 	lw	t9,strcat[0m
    ead8:	0320f809 	jalr	t9
    eadc:	02402821 	move	a1,s2
    eae0:	02002021 	move	a0,s0
    eae4:	8fbc0010 	lw	gp,16(sp)
[31m    eae8:	8f998188 	lw	t9,strcat[0m
    eaec:	0320f809 	jalr	t9
    eaf0:	02202821 	move	a1,s1
--
    eb44:	02202821 	move	a1,s1
    eb48:	8f838024 	lw	v1,-32732(gp)
    eb4c:	8f998140 	lw	t9,-32448(gp)
    eb50:	90660fc8 	lbu	a2,4040(v1)
    eb54:	24630fc8 	addiu	v1,v1,4040
    eb58:	a0460000 	sb	a2,0(v0)
    eb5c:	90630001 	lbu	v1,1(v1)
    eb60:	0320f809 	jalr	t9
    eb64:	a0430001 	sb	v1,1(v0)
    eb68:	8fbc0010 	lw	gp,16(sp)
    eb6c:	1040001e 	beqz	v0,ebe8 <clearIp@@Base+0x23c>
    eb70:	27b20018 	addiu	s2,sp,24
    eb74:	8f938024 	lw	s3,-32732(gp)
    eb78:	26730afc 	addiu	s3,s3,2812
    eb7c:	8f998080 	lw	t9,-32640(gp)
    eb80:	0320f809 	jalr	t9
    eb84:	00402021 	move	a0,v0
    eb88:	02402021 	move	a0,s2
    eb8c:	8fbc0010 	lw	gp,16(sp)
    eb90:	00403021 	move	a2,v0
    eb94:	8f9980cc 	lw	t9,-32564(gp)
    eb98:	0320f809 	jalr	t9
    eb9c:	02602821 	move	a1,s3
    eba0:	02002021 	move	a0,s0
    eba4:	8fbc0010 	lw	gp,16(sp)
[31m    eba8:	8f998188 	lw	t9,strcat[0m
    ebac:	0320f809 	jalr	t9
    ebb0:	02402821 	move	a1,s2
    ebb4:	02002021 	move	a0,s0
    ebb8:	8fbc0010 	lw	gp,16(sp)
[31m    ebbc:	8f998188 	lw	t9,strcat[0m
    ebc0:	0320f809 	jalr	t9
    ebc4:	02202821 	move	a1,s1

[0m
[[0;33m*[0m] Function [0;33mstrcat[0m used [0;33m4[0m times [0;33mlibweb.so.0[0m

