[0m
[[0;33m*[0m] Function [0;33mstrcpy[0m tear down of [0;33mmdb[0m

  402c3c:	0320f809 	jalr	t9
  402c40:	2406002f 	li	a2,47
  402c44:	8fbc0028 	lw	gp,40(sp)
  402c48:	9202be70 	lbu	v0,-16784(s0)
  402c4c:	a3a206d8 	sb	v0,1752(sp)
  402c50:	27a406d9 	addiu	a0,sp,1753
  402c54:	00002821 	move	a1,zero
  402c58:	8f9980bc 	lw	t9,-32580(gp)
  402c5c:	0320f809 	jalr	t9
  402c60:	2406002f 	li	a2,47
  402c64:	8fbc0028 	lw	gp,40(sp)
  402c68:	afa00030 	sw	zero,48(sp)
  402c6c:	3c120041 	lui	s2,0x41
  402c70:	2644b200 	addiu	a0,s2,-19968
  402c74:	27b00030 	addiu	s0,sp,48
  402c78:	8f99817c 	lw	t9,-32388(gp)
  402c7c:	0320f809 	jalr	t9
  402c80:	02002821 	move	a1,s0
  402c84:	8fbc0028 	lw	gp,40(sp)
  402c88:	8e040000 	lw	a0,0(s0)
  402c8c:	8f9980a4 	lw	t9,-32604(gp)
  402c90:	0320f809 	jalr	t9
  402c94:	27b10048 	addiu	s1,sp,72
  402c98:	8fbc0028 	lw	gp,40(sp)
  402c9c:	02202021 	move	a0,s1
[31m  402ca0:	8f9981d8 	lw	t9,strcpy[0m
  402ca4:	0320f809 	jalr	t9
  402ca8:	00402821 	move	a1,v0
  402cac:	8fbc0028 	lw	gp,40(sp)
  402cb0:	afa00030 	sw	zero,48(sp)
  402cb4:	2644b200 	addiu	a0,s2,-19968
  402cb8:	8f9980ac 	lw	t9,-32596(gp)
  402cbc:	0320f809 	jalr	t9
  402cc0:	02002821 	move	a1,s0
  402cc4:	8fbc0028 	lw	gp,40(sp)
  402cc8:	8e040000 	lw	a0,0(s0)
  402ccc:	8f9980a4 	lw	t9,-32604(gp)
  402cd0:	0320f809 	jalr	t9
  402cd4:	27b20058 	addiu	s2,sp,88
  402cd8:	8fbc0028 	lw	gp,40(sp)
  402cdc:	02402021 	move	a0,s2
[31m  402ce0:	8f9981d8 	lw	t9,strcpy[0m
  402ce4:	0320f809 	jalr	t9
  402ce8:	00402821 	move	a1,v0
  402cec:	8fbc0028 	lw	gp,40(sp)
  402cf0:	afa00030 	sw	zero,48(sp)
  402cf4:	8f99803c 	lw	t9,-32708(gp)
  402cf8:	0320f809 	jalr	t9
  402cfc:	02002021 	move	a0,s0
  402d00:	8fbc0028 	lw	gp,40(sp)
  402d04:	8e040000 	lw	a0,0(s0)
  402d08:	8f9980a4 	lw	t9,-32604(gp)
  402d0c:	0320f809 	jalr	t9
  402d10:	27b30068 	addiu	s3,sp,104
  402d14:	8fbc0028 	lw	gp,40(sp)
  402d18:	02602021 	move	a0,s3
[31m  402d1c:	8f9981d8 	lw	t9,strcpy[0m
  402d20:	0320f809 	jalr	t9
  402d24:	00402821 	move	a1,v0
  402d28:	8fbc0028 	lw	gp,40(sp)
  402d2c:	afa00030 	sw	zero,48(sp)
  402d30:	8f998104 	lw	t9,-32508(gp)
  402d34:	0320f809 	jalr	t9
  402d38:	02002021 	move	a0,s0
  402d3c:	8fbc0028 	lw	gp,40(sp)
  402d40:	8e040000 	lw	a0,0(s0)
  402d44:	8f9980a4 	lw	t9,-32604(gp)
  402d48:	0320f809 	jalr	t9
  402d4c:	27b400a8 	addiu	s4,sp,168
  402d50:	8fbc0028 	lw	gp,40(sp)
  402d54:	02802021 	move	a0,s4
[31m  402d58:	8f9981d8 	lw	t9,strcpy[0m
  402d5c:	0320f809 	jalr	t9
  402d60:	00402821 	move	a1,v0
  402d64:	8fbc0028 	lw	gp,40(sp)
  402d68:	afa00030 	sw	zero,48(sp)
  402d6c:	8f9980cc 	lw	t9,-32564(gp)
  402d70:	0320f809 	jalr	t9
  402d74:	02002021 	move	a0,s0
  402d78:	8fbc0028 	lw	gp,40(sp)
  402d7c:	8e040000 	lw	a0,0(s0)
  402d80:	8f9980a4 	lw	t9,-32604(gp)
  402d84:	0320f809 	jalr	t9
  402d88:	27b00088 	addiu	s0,sp,136
  402d8c:	8fbc0028 	lw	gp,40(sp)
  402d90:	02002021 	move	a0,s0
[31m  402d94:	8f9981d8 	lw	t9,strcpy[0m
  402d98:	0320f809 	jalr	t9
  402d9c:	00402821 	move	a1,v0
--
  406a68:	0320f809 	jalr	t9
  406a6c:	02602021 	move	a0,s3
  406a70:	8fbc0028 	lw	gp,40(sp)
  406a74:	1440000a 	bnez	v0,406aa0 <_ftext@@Base+0x55c0>
  406a78:	26020080 	addiu	v0,s0,128
  406a7c:	00021080 	sll	v0,v0,0x2
  406a80:	02429021 	addu	s2,s2,v0
  406a84:	8e440004 	lw	a0,4(s2)
  406a88:	8f998068 	lw	t9,-32664(gp)
  406a8c:	0320f809 	jalr	t9
  406a90:	26100001 	addiu	s0,s0,1
  406a94:	8fbc0028 	lw	gp,40(sp)
  406a98:	10000011 	b	406ae0 <_ftext@@Base+0x5600>
  406a9c:	afa20d70 	sw	v0,3440(sp)
  406aa0:	8fa50d78 	lw	a1,3448(sp)
  406aa4:	8f9980f0 	lw	t9,-32528(gp)
  406aa8:	0320f809 	jalr	t9
  406aac:	02602021 	move	a0,s3
  406ab0:	8fbc0028 	lw	gp,40(sp)
  406ab4:	14400009 	bnez	v0,406adc <_ftext@@Base+0x55fc>
  406ab8:	26020080 	addiu	v0,s0,128
  406abc:	00021080 	sll	v0,v0,0x2
  406ac0:	02429021 	addu	s2,s2,v0
  406ac4:	8fa40d7c 	lw	a0,3452(sp)
  406ac8:	8e450004 	lw	a1,4(s2)
[31m  406acc:	8f9981d8 	lw	t9,strcpy[0m
  406ad0:	0320f809 	jalr	t9
  406ad4:	00000000 	nop
--
  408e6c:	3c1c0042 	lui	gp,0x42
  408e70:	279c47f0 	addiu	gp,gp,18416
  408e74:	afbc0010 	sw	gp,16(sp)
  408e78:	00808021 	move	s0,a0
  408e7c:	8f998064 	lw	t9,strlen
  408e80:	0320f809 	jalr	t9
  408e84:	00a08821 	move	s1,a1
  408e88:	02002021 	move	a0,s0
  408e8c:	02022821 	addu	a1,s0,v0
  408e90:	0c102298 	jal	408a60 <qryStringEncode@@Base+0x250>
  408e94:	02203021 	move	a2,s1
  408e98:	8fbf0024 	lw	ra,36(sp)
  408e9c:	8fb10020 	lw	s1,32(sp)
  408ea0:	8fb0001c 	lw	s0,28(sp)
  408ea4:	03e00008 	jr	ra
  408ea8:	27bd0028 	addiu	sp,sp,40
  408eac:	27bdffe0 	addiu	sp,sp,-32
  408eb0:	afbf001c 	sw	ra,28(sp)
  408eb4:	afb00018 	sw	s0,24(sp)
  408eb8:	3c1c0042 	lui	gp,0x42
  408ebc:	279c47f0 	addiu	gp,gp,18416
  408ec0:	afbc0010 	sw	gp,16(sp)
  408ec4:	00801021 	move	v0,a0
  408ec8:	00a08021 	move	s0,a1
  408ecc:	00a02021 	move	a0,a1
[31m  408ed0:	8f9981d8 	lw	t9,strcpy[0m
  408ed4:	0320f809 	jalr	t9
  408ed8:	00402821 	move	a1,v0
--
  408f1c:	afb20020 	sw	s2,32(sp)
  408f20:	afb1001c 	sw	s1,28(sp)
  408f24:	afb00018 	sw	s0,24(sp)
  408f28:	3c1c0042 	lui	gp,0x42
  408f2c:	279c47f0 	addiu	gp,gp,18416
  408f30:	afbc0010 	sw	gp,16(sp)
  408f34:	00a08821 	move	s1,a1
  408f38:	8f99810c 	lw	t9,-32500(gp)
  408f3c:	0320f809 	jalr	t9
  408f40:	00c09021 	move	s2,a2
  408f44:	8fbc0010 	lw	gp,16(sp)
  408f48:	14400003 	bnez	v0,408f58 <kvparse@@Base+0x300>
  408f4c:	00408021 	move	s0,v0
  408f50:	10000018 	b	408fb4 <kvparse@@Base+0x35c>
  408f54:	00001021 	move	v0,zero
  408f58:	8f998064 	lw	t9,strlen
  408f5c:	0320f809 	jalr	t9
  408f60:	02202021 	move	a0,s1
  408f64:	8fbc0010 	lw	gp,16(sp)
  408f68:	8f9980d0 	lw	t9,-32560(gp)
  408f6c:	0320f809 	jalr	t9
  408f70:	02022021 	addu	a0,s0,v0
  408f74:	8fbc0010 	lw	gp,16(sp)
  408f78:	00408821 	move	s1,v0
  408f7c:	02002021 	move	a0,s0
[31m  408f80:	8f9981d8 	lw	t9,strcpy[0m
  408f84:	0320f809 	jalr	t9
  408f88:	02402821 	move	a1,s2

[0m
[[0;33m*[0m] Function [0;33mstrcpy[0m used [0;33m8[0m times [0;33mmdb[0m

