[[0;33m*[0m] Binary protection state of [0;33mlibreadline.so.5.2[0m

  	RELRO          CANARY            NX           PIE          RPATH        RUNPATH      SYMBOLS      
  	[31mNo RELRO[0m       [31mNo Canary found[0m   [31mNX disabled[0m  [33mDSO[0m          [31mRPATH[0m        [32mNo RUNPATH[0m   [31mSymbols[0m

[0m
[[0;33m*[0m] Function [0;33mfprintf[0m tear down of [0;33mlibreadline.so.5.2[0m

    90b8:	00000000 	nop
    90bc:	04110001 	bal	90c4 <_init+0x54>
    90c0:	00000000 	nop
    90c4:	3c1c0004 	lui	gp,0x4
    90c8:	279c301c 	addiu	gp,gp,12316
    90cc:	039fe021 	addu	gp,gp,ra
    90d0:	8f998024 	lw	t9,-32732(gp)
    90d4:	00000000 	nop
    90d8:	2739f690 	addiu	t9,t9,-2416
    90dc:	0320f809 	jalr	t9
    90e0:	00000000 	nop
    90e4:	8fbc0010 	lw	gp,16(sp)
    90e8:	00000000 	nop
    90ec:	8fbf001c 	lw	ra,28(sp)
    90f0:	03e00008 	jr	ra
    90f4:	27bd0020 	addiu	sp,sp,32

Disassembly of section .text:

00009100 <memory_error_and_abort>:
    9100:	3c1c0004 	lui	gp,0x4
    9104:	279c2fe0 	addiu	gp,gp,12256
    9108:	0399e021 	addu	gp,gp,t9
    910c:	8f828274 	lw	v0,-32140(gp)
    9110:	8f858024 	lw	a1,-32732(gp)
[31m    9114:	8f9984f4 	lw	t9,fprintf[0m
    9118:	00803021 	move	a2,a0
    911c:	8c440000 	lw	a0,0(v0)
--
   14220:	00000000 	nop
   14224:	13200007 	beqz	t9,14244 <display_matches+0x214>
   14228:	2694ffff 	addiu	s4,s4,-1
   1422c:	02402021 	move	a0,s2
   14230:	02802821 	move	a1,s4
   14234:	0320f809 	jalr	t9
   14238:	02603021 	move	a2,s3
   1423c:	1000003c 	b	14330 <display_matches+0x300>
   14240:	00000000 	nop
   14244:	8f8283dc 	lw	v0,-31780(gp)
   14248:	00000000 	nop
   1424c:	8c420000 	lw	v0,0(v0)
   14250:	00000000 	nop
   14254:	18400026 	blez	v0,142f0 <display_matches+0x2c0>
   14258:	0282102a 	slt	v0,s4,v0
   1425c:	14400024 	bnez	v0,142f0 <display_matches+0x2c0>
   14260:	00000000 	nop
   14264:	8f998824 	lw	t9,-30684(gp)
   14268:	00000000 	nop
   1426c:	0320f809 	jalr	t9
   14270:	00000000 	nop
   14274:	8fbc0010 	lw	gp,16(sp)
   14278:	02803021 	move	a2,s4
   1427c:	8f908478 	lw	s0,-31624(gp)
   14280:	8f858024 	lw	a1,-32732(gp)
[31m   14284:	8f9984f4 	lw	t9,fprintf[0m
   14288:	8e040000 	lw	a0,0(s0)
   1428c:	0320f809 	jalr	t9
--
   14de8:	24840580 	addiu	a0,a0,1408
   14dec:	8e220000 	lw	v0,0(s1)
   14df0:	8fbc0018 	lw	gp,24(sp)
   14df4:	12420007 	beq	s2,v0,14e14 <rl_complete_internal+0x488>
   14df8:	00000000 	nop
   14dfc:	8f998048 	lw	t9,-32696(gp)
   14e00:	00000000 	nop
   14e04:	0320f809 	jalr	t9
   14e08:	02402021 	move	a0,s2
   14e0c:	8fbc0018 	lw	gp,24(sp)
   14e10:	00000000 	nop
   14e14:	8f9987d4 	lw	t9,-30764(gp)
   14e18:	1000ff92 	b	14c64 <rl_complete_internal+0x2d8>
   14e1c:	00000000 	nop
   14e20:	8fa4002c 	lw	a0,44(sp)
   14e24:	8f998028 	lw	t9,-32728(gp)
   14e28:	00000000 	nop
   14e2c:	27394030 	addiu	t9,t9,16432
   14e30:	0411fc7f 	bal	14030 <display_matches>
   14e34:	00000000 	nop
   14e38:	8fbc0018 	lw	gp,24(sp)
   14e3c:	1000ff8c 	b	14c70 <rl_complete_internal+0x2e4>
   14e40:	00000000 	nop
   14e44:	8f828274 	lw	v0,-32140(gp)
   14e48:	8f858024 	lw	a1,-32732(gp)
[31m   14e4c:	8f9984f4 	lw	t9,fprintf[0m
   14e50:	8c440000 	lw	a0,0(v0)
   14e54:	24a50584 	addiu	a1,a1,1412
--
   158ec:	8fbc0018 	lw	gp,24(sp)
   158f0:	00409821 	move	s3,v0
   158f4:	8f828478 	lw	v0,-31624(gp)
   158f8:	00000000 	nop
   158fc:	8c440000 	lw	a0,0(v0)
   15900:	12e0000a 	beqz	s7,1592c <_rl_macro_dumper_internal+0xdc>
   15904:	02003021 	move	a2,s0
   15908:	16000002 	bnez	s0,15914 <_rl_macro_dumper_internal+0xc4>
   1590c:	00000000 	nop
   15910:	2686082c 	addiu	a2,s4,2092
   15914:	16600002 	bnez	s3,15920 <_rl_macro_dumper_internal+0xd0>
   15918:	02601021 	move	v0,s3
   1591c:	2682082c 	addiu	v0,s4,2092
   15920:	afa20010 	sw	v0,16(sp)
   15924:	1000000a 	b	15950 <_rl_macro_dumper_internal+0x100>
   15928:	03c02821 	move	a1,s8
   1592c:	16000002 	bnez	s0,15938 <_rl_macro_dumper_internal+0xe8>
   15930:	00000000 	nop
   15934:	2686082c 	addiu	a2,s4,2092
   15938:	16600002 	bnez	s3,15944 <_rl_macro_dumper_internal+0xf4>
   1593c:	02601021 	move	v0,s3
   15940:	2682082c 	addiu	v0,s4,2092
   15944:	8f858024 	lw	a1,-32732(gp)
   15948:	afa20010 	sw	v0,16(sp)
   1594c:	24a505e4 	addiu	a1,a1,1508
[31m   15950:	8f9984f4 	lw	t9,fprintf[0m
   15954:	00000000 	nop
   15958:	0320f809 	jalr	t9
--
   15c60:	2410ffff 	li	s0,-1
   15c64:	8fbf0024 	lw	ra,36(sp)
   15c68:	02001021 	move	v0,s0
   15c6c:	8fb20020 	lw	s2,32(sp)
   15c70:	8fb1001c 	lw	s1,28(sp)
   15c74:	8fb00018 	lw	s0,24(sp)
   15c78:	03e00008 	jr	ra
   15c7c:	27bd0028 	addiu	sp,sp,40

00015c80 <_rl_init_file_error>:
   15c80:	3c1c0003 	lui	gp,0x3
   15c84:	279c6460 	addiu	gp,gp,25696
   15c88:	0399e021 	addu	gp,gp,t9
   15c8c:	8f838018 	lw	v1,-32744(gp)
   15c90:	00801021 	move	v0,a0
   15c94:	27bdffd8 	addiu	sp,sp,-40
   15c98:	8c644e7c 	lw	a0,20092(v1)
   15c9c:	afbc0018 	sw	gp,24(sp)
   15ca0:	afbf0024 	sw	ra,36(sp)
   15ca4:	8f838274 	lw	v1,-32140(gp)
   15ca8:	1080000f 	beqz	a0,15ce8 <_rl_init_file_error+0x68>
   15cac:	00403021 	move	a2,v0
   15cb0:	8c640000 	lw	a0,0(v1)
   15cb4:	8f838018 	lw	v1,-32744(gp)
   15cb8:	8f858024 	lw	a1,-32732(gp)
[31m   15cbc:	8f9984f4 	lw	t9,fprintf[0m
   15cc0:	8c664e74 	lw	a2,20084(v1)
   15cc4:	8f838018 	lw	v1,-32744(gp)
   15cc8:	afa20010 	sw	v0,16(sp)
   15ccc:	8c674e80 	lw	a3,20096(v1)
   15cd0:	0320f809 	jalr	t9
   15cd4:	24a505f8 	addiu	a1,a1,1528
   15cd8:	8fbf0024 	lw	ra,36(sp)
   15cdc:	00000000 	nop
   15ce0:	03e00008 	jr	ra
   15ce4:	27bd0028 	addiu	sp,sp,40
   15ce8:	8f858024 	lw	a1,-32732(gp)
   15cec:	8fbf0024 	lw	ra,36(sp)
   15cf0:	8c640000 	lw	a0,0(v1)
[31m   15cf4:	8f9984f4 	lw	t9,fprintf[0m
   15cf8:	24a50614 	addiu	a1,a1,1556
   15cfc:	03200008 	jr	t9
--
   18c4c:	03e00008 	jr	ra
   18c50:	27bd0020 	addiu	sp,sp,32

00018c54 <rl_list_funmap_names>:
   18c54:	3c1c0003 	lui	gp,0x3
   18c58:	279c348c 	addiu	gp,gp,13452
   18c5c:	0399e021 	addu	gp,gp,t9
   18c60:	8f998898 	lw	t9,-30568(gp)
   18c64:	27bdffd0 	addiu	sp,sp,-48
   18c68:	afbc0010 	sw	gp,16(sp)
   18c6c:	afb0001c 	sw	s0,28(sp)
   18c70:	afbf002c 	sw	ra,44(sp)
   18c74:	afb30028 	sw	s3,40(sp)
   18c78:	afb20024 	sw	s2,36(sp)
   18c7c:	afb10020 	sw	s1,32(sp)
   18c80:	0320f809 	jalr	t9
   18c84:	00000000 	nop
   18c88:	8fbc0010 	lw	gp,16(sp)
   18c8c:	10400019 	beqz	v0,18cf4 <rl_list_funmap_names+0xa0>
   18c90:	00408021 	move	s0,v0
   18c94:	8f928024 	lw	s2,-32732(gp)
   18c98:	00408821 	move	s1,v0
   18c9c:	8f938478 	lw	s3,-31624(gp)
   18ca0:	10000006 	b	18cbc <rl_list_funmap_names+0x68>
   18ca4:	265207a8 	addiu	s2,s2,1960
[31m   18ca8:	8f9984f4 	lw	t9,fprintf[0m
   18cac:	8e640000 	lw	a0,0(s3)
   18cb0:	0320f809 	jalr	t9
--
   192b8:	26b50828 	addiu	s5,s5,2088
   192bc:	8f9983a0 	lw	t9,-31840(gp)
   192c0:	00000000 	nop
   192c4:	0320f809 	jalr	t9
   192c8:	02202021 	move	a0,s1
   192cc:	8fbc0010 	lw	gp,16(sp)
   192d0:	00402021 	move	a0,v0
   192d4:	8f8282a8 	lw	v0,-32088(gp)
   192d8:	8f99835c 	lw	t9,-31908(gp)
   192dc:	8c450000 	lw	a1,0(v0)
   192e0:	0320f809 	jalr	t9
   192e4:	00000000 	nop
   192e8:	00408021 	move	s0,v0
   192ec:	8fa20048 	lw	v0,72(sp)
   192f0:	8fbc0010 	lw	gp,16(sp)
   192f4:	10400020 	beqz	v0,19378 <rl_function_dumper+0x148>
   192f8:	00000000 	nop
   192fc:	12000004 	beqz	s0,19310 <rl_function_dumper+0xe0>
   19300:	02203021 	move	a2,s1
   19304:	8f948478 	lw	s4,-31624(gp)
   19308:	10000014 	b	1935c <rl_function_dumper+0x12c>
   1930c:	02009821 	move	s3,s0
   19310:	8f828478 	lw	v0,-31624(gp)
   19314:	8f858024 	lw	a1,-32732(gp)
   19318:	8c440000 	lw	a0,0(v0)
[31m   1931c:	8f9984f4 	lw	t9,fprintf[0m
   19320:	1000001d 	b	19398 <rl_function_dumper+0x168>
   19324:	24a507cc 	addiu	a1,a1,1996
   19328:	8f858024 	lw	a1,-32732(gp)
[31m   1932c:	8f9984f4 	lw	t9,fprintf[0m
   19330:	8e840000 	lw	a0,0(s4)
   19334:	24a507e0 	addiu	a1,a1,2016
   19338:	0320f809 	jalr	t9
   1933c:	02203821 	move	a3,s1
   19340:	8fbc0010 	lw	gp,16(sp)
   19344:	8e640000 	lw	a0,0(s3)
   19348:	8f998048 	lw	t9,-32696(gp)
   1934c:	00000000 	nop
   19350:	0320f809 	jalr	t9
   19354:	26730004 	addiu	s3,s3,4
   19358:	8fbc0010 	lw	gp,16(sp)
   1935c:	8e660000 	lw	a2,0(s3)
   19360:	00000000 	nop
   19364:	14c0fff0 	bnez	a2,19328 <rl_function_dumper+0xf8>
   19368:	02002021 	move	a0,s0
   1936c:	8f998048 	lw	t9,-32696(gp)
   19370:	10000038 	b	19454 <rl_function_dumper+0x224>
   19374:	00000000 	nop
   19378:	8f888478 	lw	t0,-31624(gp)
[31m   1937c:	8f9984f4 	lw	t9,fprintf[0m
   19380:	8d040000 	lw	a0,0(t0)
   19384:	16000009 	bnez	s0,193ac <rl_function_dumper+0x17c>
   19388:	02203021 	move	a2,s1
   1938c:	8f858024 	lw	a1,-32732(gp)
   19390:	00000000 	nop
   19394:	24a507ec 	addiu	a1,a1,2028
   19398:	0320f809 	jalr	t9
   1939c:	26520004 	addiu	s2,s2,4
   193a0:	8fbc0010 	lw	gp,16(sp)
   193a4:	1000002e 	b	19460 <rl_function_dumper+0x230>
   193a8:	00000000 	nop
   193ac:	afa8001c 	sw	t0,28(sp)
   193b0:	0320f809 	jalr	t9
   193b4:	27c5080c 	addiu	a1,s8,2060
   193b8:	8fbc0010 	lw	gp,16(sp)
   193bc:	02009821 	move	s3,s0
   193c0:	02008821 	move	s1,s0
   193c4:	8fa8001c 	lw	t0,28(sp)
   193c8:	8f838024 	lw	v1,-32732(gp)
   193cc:	10000010 	b	19410 <rl_function_dumper+0x1e0>
   193d0:	0000a021 	move	s4,zero
   193d4:	8e220004 	lw	v0,4(s1)
   193d8:	8d040000 	lw	a0,0(t0)
   193dc:	10400002 	beqz	v0,193e8 <rl_function_dumper+0x1b8>
   193e0:	26e707c8 	addiu	a3,s7,1992
   193e4:	246707c4 	addiu	a3,v1,1988
[31m   193e8:	8f9984f4 	lw	t9,fprintf[0m
   193ec:	afa30018 	sw	v1,24(sp)
   193f0:	afa8001c 	sw	t0,28(sp)
--
   19624:	afb3002c 	sw	s3,44(sp)
   19628:	afb20028 	sw	s2,40(sp)
   1962c:	afb10024 	sw	s1,36(sp)
   19630:	afbf003c 	sw	ra,60(sp)
   19634:	00808821 	move	s1,a0
   19638:	261014c8 	addiu	s0,s0,5320
   1963c:	8f948478 	lw	s4,-31624(gp)
   19640:	26d60840 	addiu	s6,s6,2112
   19644:	8f938024 	lw	s3,-32732(gp)
   19648:	8f928024 	lw	s2,-32732(gp)
   1964c:	10000013 	b	1969c <rl_variable_dumper+0xa8>
   19650:	26b50834 	addiu	s5,s5,2100
   19654:	8e020004 	lw	v0,4(s0)
   19658:	8e840000 	lw	a0,0(s4)
   1965c:	8c420000 	lw	v0,0(v0)
   19660:	12200006 	beqz	s1,1967c <rl_variable_dumper+0x88>
   19664:	26670678 	addiu	a3,s3,1656
   19668:	10400002 	beqz	v0,19674 <rl_variable_dumper+0x80>
   1966c:	00000000 	nop
   19670:	2647093c 	addiu	a3,s2,2364
   19674:	10000004 	b	19688 <rl_variable_dumper+0x94>
   19678:	02a02821 	move	a1,s5
   1967c:	10400002 	beqz	v0,19688 <rl_variable_dumper+0x94>
   19680:	02c02821 	move	a1,s6
   19684:	2647093c 	addiu	a3,s2,2364
[31m   19688:	8f9984f4 	lw	t9,fprintf[0m
   1968c:	00000000 	nop
   19690:	0320f809 	jalr	t9
--
   196a0:	00000000 	nop
   196a4:	14c0ffeb 	bnez	a2,19654 <rl_variable_dumper+0x60>
   196a8:	00000000 	nop
   196ac:	8f908018 	lw	s0,-32744(gp)
   196b0:	8f938024 	lw	s3,-32732(gp)
   196b4:	8f928024 	lw	s2,-32732(gp)
   196b8:	2610109c 	addiu	s0,s0,4252
   196bc:	8f94802c 	lw	s4,-32724(gp)
   196c0:	26730840 	addiu	s3,s3,2112
   196c4:	10000014 	b	19718 <rl_variable_dumper+0x124>
   196c8:	26520834 	addiu	s2,s2,2100
   196cc:	26998908 	addiu	t9,s4,-30456
   196d0:	0411fc8d 	bal	18908 <_rl_get_string_variable_value>
   196d4:	afa60018 	sw	a2,24(sp)
   196d8:	8fbc0010 	lw	gp,16(sp)
   196dc:	8fa60018 	lw	a2,24(sp)
   196e0:	1040000c 	beqz	v0,19714 <rl_variable_dumper+0x120>
   196e4:	00403821 	move	a3,v0
   196e8:	8f828478 	lw	v0,-31624(gp)
   196ec:	00000000 	nop
   196f0:	8c440000 	lw	a0,0(v0)
   196f4:	16200003 	bnez	s1,19704 <rl_variable_dumper+0x110>
   196f8:	02402821 	move	a1,s2
   196fc:	8e060000 	lw	a2,0(s0)
   19700:	02602821 	move	a1,s3
[31m   19704:	8f9984f4 	lw	t9,fprintf[0m
   19708:	00000000 	nop
   1970c:	0320f809 	jalr	t9
--
   1d630:	00000000 	nop
   1d634:	8fb90048 	lw	t9,72(sp)
   1d638:	00000000 	nop
   1d63c:	1720006b 	bnez	t9,1d7ec <update_line+0x1064>
   1d640:	00000000 	nop
   1d644:	8f9984ac 	lw	t9,-31572(gp)
   1d648:	00000000 	nop
   1d64c:	0320f809 	jalr	t9
   1d650:	00000000 	nop
   1d654:	24030001 	li	v1,1
   1d658:	8fbc0018 	lw	gp,24(sp)
   1d65c:	10430007 	beq	v0,v1,1d67c <update_line+0xef4>
   1d660:	00000000 	nop
   1d664:	8f82838c 	lw	v0,-31860(gp)
   1d668:	00000000 	nop
   1d66c:	8c420000 	lw	v0,0(v0)
   1d670:	00000000 	nop
   1d674:	1040000e 	beqz	v0,1d6b0 <update_line+0xf28>
   1d678:	00000000 	nop
   1d67c:	8fa30040 	lw	v1,64(sp)
   1d680:	00000000 	nop
   1d684:	1283000a 	beq	s4,v1,1d6b0 <update_line+0xf28>
   1d688:	02803021 	move	a2,s4
   1d68c:	8f828274 	lw	v0,-32140(gp)
   1d690:	8f858024 	lw	a1,-32732(gp)
[31m   1d694:	8f9984f4 	lw	t9,fprintf[0m
   1d698:	8c440000 	lw	a0,0(v0)
   1d69c:	24a50b10 	addiu	a1,a1,2832

[0m
[[0;33m*[0m] Function [0;33mfprintf[0m used [0;33m14[0m times [0;33mlibreadline.so.5.2[0m

