[0m
[[0;33m*[0m] Function [0;33msprintf[0m tear down of [0;33mcrtmpserver[0m

  430bd8:	26940008 	addiu	s4,s4,8
  430bdc:	1000ff7c 	b	4309d0 <_ZN13RunningStatusD1Ev@@Base+0x670>
  430be0:	ae020008 	sw	v0,8(s0)
  430be4:	8f9995cc 	lw	t9,-27188(gp)
  430be8:	8e840000 	lw	a0,0(s4)
  430bec:	0320f809 	jalr	t9
  430bf0:	00000000 	nop
  430bf4:	24040003 	li	a0,3
  430bf8:	8fbc0010 	lw	gp,16(sp)
  430bfc:	ae440008 	sw	a0,8(s2)
  430c00:	ae430004 	sw	v1,4(s2)
  430c04:	1000ffca 	b	430b30 <_ZN13RunningStatusD1Ev@@Base+0x7d0>
  430c08:	ae420000 	sw	v0,0(s2)
  430c0c:	8e820000 	lw	v0,0(s4)
  430c10:	8f999d4c 	lw	t9,strlen
  430c14:	a3a20018 	sb	v0,24(sp)
  430c18:	a3a00019 	sb	zero,25(sp)
  430c1c:	0320f809 	jalr	t9
  430c20:	00000000 	nop
  430c24:	02002021 	move	a0,s0
  430c28:	00403021 	move	a2,v0
  430c2c:	1000ffba 	b	430b18 <_ZN13RunningStatusD1Ev@@Base+0x7b8>
  430c30:	02e02821 	move	a1,s7
  430c34:	8f858030 	lw	a1,-32720(gp)
  430c38:	02e02021 	move	a0,s7
[31m  430c3c:	8f998c3c 	lw	t9,sprintf[0m
  430c40:	8e860000 	lw	a2,0(s4)
  430c44:	0320f809 	jalr	t9
--
  4463a8:	1000ffa8 	b	44624c <luaS_newlstr@@Base+0x590c>
  4463ac:	304200ff 	andi	v0,v0,0xff
  4463b0:	8f99a6ec 	lw	t9,-22804(gp)
  4463b4:	0320f809 	jalr	t9
  4463b8:	02a02021 	move	a0,s5
  4463bc:	8fbc0010 	lw	gp,16(sp)
  4463c0:	8fa20234 	lw	v0,564(sp)
  4463c4:	82040000 	lb	a0,0(s0)
  4463c8:	1000ff58 	b	44612c <luaS_newlstr@@Base+0x57ec>
  4463cc:	26100001 	addiu	s0,s0,1
  4463d0:	8f999b14 	lw	t9,-25836(gp)
  4463d4:	03c02021 	move	a0,s8
  4463d8:	8fa6124c 	lw	a2,4684(sp)
  4463dc:	0320f809 	jalr	t9
  4463e0:	02c02821 	move	a1,s6
  4463e4:	02e02021 	move	a0,s7
  4463e8:	2405002e 	li	a1,46
  4463ec:	8fbc0010 	lw	gp,16(sp)
  4463f0:	8f9986b4 	lw	t9,-31052(gp)
  4463f4:	0320f809 	jalr	t9
  4463f8:	afa21250 	sw	v0,4688(sp)
  4463fc:	8fbc0010 	lw	gp,16(sp)
  446400:	8fa61250 	lw	a2,4688(sp)
  446404:	104000e1 	beqz	v0,44678c <luaS_newlstr@@Base+0x5e4c>
  446408:	00000000 	nop
[31m  44640c:	8f998c3c 	lw	t9,sprintf[0m
  446410:	8fa41240 	lw	a0,4672(sp)
  446414:	0320f809 	jalr	t9
--
  446598:	2443ffff 	addiu	v1,v0,-1
  44659c:	02e31821 	addu	v1,s7,v1
  4465a0:	02e21021 	addu	v0,s7,v0
  4465a4:	8f898034 	lw	t1,-32716(gp)
  4465a8:	8f858034 	lw	a1,-32716(gp)
  4465ac:	2529a2b8 	addiu	t1,t1,-23880
  4465b0:	90a7a2b8 	lbu	a3,-23880(a1)
  4465b4:	02c02821 	move	a1,s6
  4465b8:	91280001 	lbu	t0,1(t1)
  4465bc:	80660000 	lb	a2,0(v1)
  4465c0:	8f9986a4 	lw	t9,-31068(gp)
  4465c4:	a0680001 	sb	t0,1(v1)
  4465c8:	a0670000 	sb	a3,0(v1)
  4465cc:	a0460000 	sb	a2,0(v0)
  4465d0:	a0400001 	sb	zero,1(v0)
  4465d4:	0320f809 	jalr	t9
  4465d8:	00000000 	nop
  4465dc:	8fbc0010 	lw	gp,16(sp)
  4465e0:	8f99a71c 	lw	t9,-22756(gp)
  4465e4:	00602821 	move	a1,v1
  4465e8:	0320f809 	jalr	t9
  4465ec:	00402021 	move	a0,v0
  4465f0:	02e02821 	move	a1,s7
  4465f4:	8fbc0010 	lw	gp,16(sp)
  4465f8:	8fa41240 	lw	a0,4672(sp)
[31m  4465fc:	8f998c3c 	lw	t9,sprintf[0m
  446600:	0320f809 	jalr	t9
  446604:	00403021 	move	a2,v0
--
  446644:	9067a2b8 	lbu	a3,-23880(v1)
  446648:	2443ffff 	addiu	v1,v0,-1
  44664c:	02e31821 	addu	v1,s7,v1
  446650:	2529a2b8 	addiu	t1,t1,-23880
  446654:	91280001 	lbu	t0,1(t1)
  446658:	02e21021 	addu	v0,s7,v0
  44665c:	80660000 	lb	a2,0(v1)
  446660:	8f9986a4 	lw	t9,-31068(gp)
  446664:	a0680001 	sb	t0,1(v1)
  446668:	a0670000 	sb	a3,0(v1)
  44666c:	a0460000 	sb	a2,0(v0)
  446670:	0320f809 	jalr	t9
  446674:	a0400001 	sb	zero,1(v0)
  446678:	8fbc0010 	lw	gp,16(sp)
  44667c:	8f999048 	lw	t9,-28600(gp)
  446680:	1000ffd9 	b	4465e8 <luaS_newlstr@@Base+0x5ca8>
  446684:	00602821 	move	a1,v1
  446688:	8f9986a4 	lw	t9,-31068(gp)
  44668c:	03c02021 	move	a0,s8
  446690:	0320f809 	jalr	t9
  446694:	02c02821 	move	a1,s6
  446698:	02e02821 	move	a1,s7
  44669c:	8fbc0010 	lw	gp,16(sp)
  4466a0:	00603821 	move	a3,v1
  4466a4:	8fa41240 	lw	a0,4672(sp)
[31m  4466a8:	8f998c3c 	lw	t9,sprintf[0m
  4466ac:	0320f809 	jalr	t9
  4466b0:	00403021 	move	a2,v0
--
  44cc80:	0399e021 	addu	gp,gp,t9
  44cc84:	27bdffb8 	addiu	sp,sp,-72
  44cc88:	afbf0044 	sw	ra,68(sp)
  44cc8c:	afb20040 	sw	s2,64(sp)
  44cc90:	afb1003c 	sw	s1,60(sp)
  44cc94:	afb00038 	sw	s0,56(sp)
  44cc98:	afbc0010 	sw	gp,16(sp)
  44cc9c:	24030003 	li	v1,3
  44cca0:	8ca20008 	lw	v0,8(a1)
  44cca4:	00a08021 	move	s0,a1
  44cca8:	10430009 	beq	v0,v1,44ccd0 <luaV_tostring@@Base+0x58>
  44ccac:	00808821 	move	s1,a0
  44ccb0:	00001821 	move	v1,zero
  44ccb4:	8fbf0044 	lw	ra,68(sp)
  44ccb8:	00601021 	move	v0,v1
  44ccbc:	8fb20040 	lw	s2,64(sp)
  44ccc0:	8fb1003c 	lw	s1,60(sp)
  44ccc4:	8fb00038 	lw	s0,56(sp)
  44ccc8:	03e00008 	jr	ra
  44cccc:	27bd0048 	addiu	sp,sp,72
  44ccd0:	8ca70004 	lw	a3,4(a1)
  44ccd4:	27b20018 	addiu	s2,sp,24
  44ccd8:	8ca60000 	lw	a2,0(a1)
  44ccdc:	02402021 	move	a0,s2
  44cce0:	8f858030 	lw	a1,-32720(gp)
[31m  44cce4:	8f998c3c 	lw	t9,sprintf[0m
  44cce8:	0320f809 	jalr	t9
  44ccec:	24a51584 	addiu	a1,a1,5508
--
  44d144:	1e40006a 	bgtz	s2,44d2f0 <luaV_concat@@Base+0x510>
  44d148:	afa20038 	sw	v0,56(sp)
  44d14c:	00008821 	move	s1,zero
  44d150:	00121100 	sll	v0,s2,0x4
  44d154:	8fa50038 	lw	a1,56(sp)
  44d158:	02203021 	move	a2,s1
  44d15c:	02a2a823 	subu	s5,s5,v0
  44d160:	8fb90040 	lw	t9,64(sp)
  44d164:	0320f809 	jalr	t9
  44d168:	02602021 	move	a0,s3
  44d16c:	24030001 	li	v1,1
  44d170:	8fbc0010 	lw	gp,16(sp)
  44d174:	00721823 	subu	v1,v1,s2
  44d178:	aea20000 	sw	v0,0(s5)
  44d17c:	1000ff73 	b	44cf4c <luaV_concat@@Base+0x16c>
  44d180:	aeb60008 	sw	s6,8(s5)
  44d184:	8f858030 	lw	a1,-32720(gp)
  44d188:	02602021 	move	a0,s3
  44d18c:	8f9980b0 	lw	t9,-32592(gp)
  44d190:	0320f809 	jalr	t9
  44d194:	24a523f0 	addiu	a1,a1,9200
  44d198:	8fbc0010 	lw	gp,16(sp)
  44d19c:	1000ffe1 	b	44d124 <luaV_concat@@Base+0x344>
  44d1a0:	0254102a 	slt	v0,s2,s4
  44d1a4:	8f858030 	lw	a1,-32720(gp)
[31m  44d1a8:	8f998c3c 	lw	t9,sprintf[0m
  44d1ac:	8e07ffe4 	lw	a3,-28(s0)
  44d1b0:	8e06ffe0 	lw	a2,-32(s0)
--
  44d1bc:	24a51584 	addiu	a1,a1,5508
  44d1c0:	8fbc0010 	lw	gp,16(sp)
  44d1c4:	8fa4003c 	lw	a0,60(sp)
  44d1c8:	8f999d4c 	lw	t9,strlen
  44d1cc:	0320f809 	jalr	t9
  44d1d0:	00000000 	nop
  44d1d4:	02602021 	move	a0,s3
  44d1d8:	8fbc0010 	lw	gp,16(sp)
  44d1dc:	8fa5003c 	lw	a1,60(sp)
  44d1e0:	8f99803c 	lw	t9,-32708(gp)
  44d1e4:	0320f809 	jalr	t9
  44d1e8:	00403021 	move	a2,v0
  44d1ec:	8fbc0010 	lw	gp,16(sp)
  44d1f0:	ae16ffe8 	sw	s6,-24(s0)
  44d1f4:	1000ffc3 	b	44d104 <luaV_concat@@Base+0x324>
  44d1f8:	ae02ffe0 	sw	v0,-32(s0)
  44d1fc:	8e020008 	lw	v0,8(s0)
  44d200:	1056ff52 	beq	v0,s6,44cf4c <luaV_concat@@Base+0x16c>
  44d204:	2403ffff 	li	v1,-1
  44d208:	24030003 	li	v1,3
  44d20c:	10430019 	beq	v0,v1,44d274 <luaV_concat@@Base+0x494>
  44d210:	00000000 	nop
  44d214:	1000ff4d 	b	44cf4c <luaV_concat@@Base+0x16c>
  44d218:	2403ffff 	li	v1,-1
  44d21c:	8f858030 	lw	a1,-32720(gp)
[31m  44d220:	8f998c3c 	lw	t9,sprintf[0m
  44d224:	8ea7fff4 	lw	a3,-12(s5)
  44d228:	8ea6fff0 	lw	a2,-16(s5)
  44d22c:	8fa4003c 	lw	a0,60(sp)
  44d230:	0320f809 	jalr	t9
  44d234:	24a51584 	addiu	a1,a1,5508
  44d238:	8fbc0010 	lw	gp,16(sp)
  44d23c:	8fa4003c 	lw	a0,60(sp)
  44d240:	8f999d4c 	lw	t9,strlen
  44d244:	0320f809 	jalr	t9
  44d248:	00000000 	nop
  44d24c:	02602021 	move	a0,s3
  44d250:	8fbc0010 	lw	gp,16(sp)
  44d254:	8fa5003c 	lw	a1,60(sp)
  44d258:	8f99803c 	lw	t9,-32708(gp)
  44d25c:	0320f809 	jalr	t9
  44d260:	00403021 	move	a2,v0
  44d264:	8fbc0010 	lw	gp,16(sp)
  44d268:	aea2fff0 	sw	v0,-16(s5)
  44d26c:	1000ff6e 	b	44d028 <luaV_concat@@Base+0x248>
  44d270:	ae360008 	sw	s6,8(s1)
  44d274:	8f858030 	lw	a1,-32720(gp)
[31m  44d278:	8f998c3c 	lw	t9,sprintf[0m
  44d27c:	8ea7ffe4 	lw	a3,-28(s5)
  44d280:	8ea6ffe0 	lw	a2,-32(s5)
--
  46c860:	2416003c 	li	s6,60
  46c864:	8c67fff4 	lw	a3,-12(v1)
  46c868:	2417003e 	li	s7,62
  46c86c:	27be0018 	addiu	s8,sp,24
  46c870:	2413003b 	li	s3,59
  46c874:	0207102a 	slt	v0,s0,a3
  46c878:	10400026 	beqz	v0,46c914 <_ZN9TiXmlBase12EncodeStringERKSsPSs@@Base+0x108>
  46c87c:	00702821 	addu	a1,v1,s0
  46c880:	80a20000 	lb	v0,0(a1)
  46c884:	304600ff 	andi	a2,v0,0xff
  46c888:	10d4002e 	beq	a2,s4,46c944 <_ZN9TiXmlBase12EncodeStringERKSsPSs@@Base+0x138>
  46c88c:	00000000 	nop
  46c890:	10d6005f 	beq	a2,s6,46ca10 <_ZN9TiXmlBase12EncodeStringERKSsPSs@@Base+0x204>
  46c894:	02202021 	move	a0,s1
  46c898:	10d70062 	beq	a2,s7,46ca24 <_ZN9TiXmlBase12EncodeStringERKSsPSs@@Base+0x218>
  46c89c:	24030022 	li	v1,34
  46c8a0:	10c30066 	beq	a2,v1,46ca3c <_ZN9TiXmlBase12EncodeStringERKSsPSs@@Base+0x230>
  46c8a4:	00000000 	nop
  46c8a8:	24050027 	li	a1,39
  46c8ac:	10c50080 	beq	a2,a1,46cab0 <_ZN9TiXmlBase12EncodeStringERKSsPSs@@Base+0x2a4>
  46c8b0:	2cc30020 	sltiu	v1,a2,32
  46c8b4:	10600034 	beqz	v1,46c988 <_ZN9TiXmlBase12EncodeStringERKSsPSs@@Base+0x17c>
  46c8b8:	03c02021 	move	a0,s8
  46c8bc:	8f858030 	lw	a1,-32720(gp)
  46c8c0:	26100001 	addiu	s0,s0,1
[31m  46c8c4:	8f998c3c 	lw	t9,sprintf[0m
  46c8c8:	0320f809 	jalr	t9
  46c8cc:	24a53f98 	addiu	a1,a1,16280
--
  46cc28:	8f998470 	lw	t9,-31632(gp)
  46cc2c:	0320f809 	jalr	t9
  46cc30:	26050014 	addiu	a1,s0,20
  46cc34:	24020001 	li	v0,1
  46cc38:	8fbf002c 	lw	ra,44(sp)
  46cc3c:	8fb40028 	lw	s4,40(sp)
  46cc40:	8fb30024 	lw	s3,36(sp)
  46cc44:	8fb20020 	lw	s2,32(sp)
  46cc48:	8fb1001c 	lw	s1,28(sp)
  46cc4c:	8fb00018 	lw	s0,24(sp)
  46cc50:	03e00008 	jr	ra
  46cc54:	27bd0030 	addiu	sp,sp,48
  46cc58:	1000ffea 	b	46cc04 <_ZNK13TiXmlDocument8SaveFileEPKc@@Base+0x10c>
  46cc5c:	2491000c 	addiu	s1,a0,12
  46cc60:	3c1c002d 	lui	gp,0x2d
  46cc64:	279c3820 	addiu	gp,gp,14368
  46cc68:	0399e021 	addu	gp,gp,t9
  46cc6c:	27bdfed8 	addiu	sp,sp,-296
  46cc70:	afbf0124 	sw	ra,292(sp)
  46cc74:	afb10120 	sw	s1,288(sp)
  46cc78:	afb0011c 	sw	s0,284(sp)
  46cc7c:	afbc0010 	sw	gp,16(sp)
  46cc80:	8f858030 	lw	a1,-32720(gp)
  46cc84:	27b00018 	addiu	s0,sp,24
  46cc88:	00808821 	move	s1,a0
[31m  46cc8c:	8f998c3c 	lw	t9,sprintf[0m
  46cc90:	02002021 	move	a0,s0
  46cc94:	0320f809 	jalr	t9
--
  46cca0:	8f999d4c 	lw	t9,strlen
  46cca4:	0320f809 	jalr	t9
  46cca8:	02002021 	move	a0,s0
  46ccac:	26240018 	addiu	a0,s1,24
  46ccb0:	02002821 	move	a1,s0
  46ccb4:	8fbc0010 	lw	gp,16(sp)
  46ccb8:	8f998bb0 	lw	t9,-29776(gp)
  46ccbc:	0320f809 	jalr	t9
  46ccc0:	00403021 	move	a2,v0
  46ccc4:	8fbf0124 	lw	ra,292(sp)
  46ccc8:	8fb10120 	lw	s1,288(sp)
  46cccc:	8fb0011c 	lw	s0,284(sp)
  46ccd0:	03e00008 	jr	ra
  46ccd4:	27bd0128 	addiu	sp,sp,296
  46ccd8:	3c1c002d 	lui	gp,0x2d
  46ccdc:	279c37a8 	addiu	gp,gp,14248
  46cce0:	0399e021 	addu	gp,gp,t9
  46cce4:	27bdff98 	addiu	sp,sp,-104
  46cce8:	afbf0064 	sw	ra,100(sp)
  46ccec:	afb10060 	sw	s1,96(sp)
  46ccf0:	afb0005c 	sw	s0,92(sp)
  46ccf4:	afbc0010 	sw	gp,16(sp)
  46ccf8:	00a03021 	move	a2,a1
  46ccfc:	8f858038 	lw	a1,-32712(gp)
  46cd00:	27b00018 	addiu	s0,sp,24
[31m  46cd04:	8f998c3c 	lw	t9,sprintf[0m
  46cd08:	00808821 	move	s1,a0
  46cd0c:	24a5c42c 	addiu	a1,a1,-15316
--
  4705ac:	8fbc0010 	lw	gp,16(sp)
  4705b0:	1000fff8 	b	470594 <_ZN12TiXmlElement12SetAttributeEPKcS1_@@Base+0x380>
  4705b4:	00808021 	move	s0,a0
  4705b8:	1000ffdb 	b	470528 <_ZN12TiXmlElement12SetAttributeEPKcS1_@@Base+0x314>
  4705bc:	00000000 	nop
  4705c0:	8e220008 	lw	v0,8(s1)
  4705c4:	2443ffff 	addiu	v1,v0,-1
  4705c8:	1000ffa0 	b	47044c <_ZN12TiXmlElement12SetAttributeEPKcS1_@@Base+0x238>
  4705cc:	ae230008 	sw	v1,8(s1)
  4705d0:	1000ffc4 	b	4704e4 <_ZN12TiXmlElement12SetAttributeEPKcS1_@@Base+0x2d0>
  4705d4:	00000000 	nop
  4705d8:	1000ffd3 	b	470528 <_ZN12TiXmlElement12SetAttributeEPKcS1_@@Base+0x314>
  4705dc:	00000000 	nop
  4705e0:	3c1c002d 	lui	gp,0x2d
  4705e4:	279cfea0 	addiu	gp,gp,-352
  4705e8:	0399e021 	addu	gp,gp,t9
  4705ec:	27bdfed8 	addiu	sp,sp,-296
  4705f0:	afbf0124 	sw	ra,292(sp)
  4705f4:	afb20120 	sw	s2,288(sp)
  4705f8:	afb1011c 	sw	s1,284(sp)
  4705fc:	afb00118 	sw	s0,280(sp)
  470600:	afbc0010 	sw	gp,16(sp)
  470604:	00a08821 	move	s1,a1
  470608:	8f858030 	lw	a1,-32720(gp)
  47060c:	27b00018 	addiu	s0,sp,24
[31m  470610:	8f998c3c 	lw	t9,sprintf[0m
  470614:	00809021 	move	s2,a0
  470618:	24a5407c 	addiu	a1,a1,16508
--
  470620:	02002021 	move	a0,s0
  470624:	02402021 	move	a0,s2
  470628:	8fbc0010 	lw	gp,16(sp)
  47062c:	02202821 	move	a1,s1
  470630:	8f999508 	lw	t9,-27384(gp)
  470634:	0320f809 	jalr	t9
  470638:	02003021 	move	a2,s0
  47063c:	8fbf0124 	lw	ra,292(sp)
  470640:	8fb20120 	lw	s2,288(sp)
  470644:	8fb1011c 	lw	s1,284(sp)
  470648:	8fb00118 	lw	s0,280(sp)
  47064c:	03e00008 	jr	ra
  470650:	27bd0128 	addiu	sp,sp,296
  470654:	3c1c002d 	lui	gp,0x2d
  470658:	279cfe2c 	addiu	gp,gp,-468
  47065c:	0399e021 	addu	gp,gp,t9
  470660:	27bdff98 	addiu	sp,sp,-104
  470664:	afbf0064 	sw	ra,100(sp)
  470668:	afb20060 	sw	s2,96(sp)
  47066c:	afb1005c 	sw	s1,92(sp)
  470670:	afb00058 	sw	s0,88(sp)
  470674:	afbc0010 	sw	gp,16(sp)
  470678:	00a08821 	move	s1,a1
  47067c:	8f858038 	lw	a1,-32712(gp)
  470680:	27b00018 	addiu	s0,sp,24
[31m  470684:	8f998c3c 	lw	t9,sprintf[0m
  470688:	00809021 	move	s2,a0
  47068c:	24a5c42c 	addiu	a1,a1,-15316
--
  580fdc:	02602021 	move	a0,s3
  580fe0:	8fbc0010 	lw	gp,16(sp)
  580fe4:	00402021 	move	a0,v0
  580fe8:	8f999884 	lw	t9,-26492(gp)
  580fec:	0320f809 	jalr	t9
  580ff0:	02c02821 	move	a1,s6
  580ff4:	8fbc0010 	lw	gp,16(sp)
  580ff8:	27dea648 	addiu	s8,s8,-22968
  580ffc:	24130001 	li	s3,1
  581000:	27b400b0 	addiu	s4,sp,176
  581004:	8f998f44 	lw	t9,-28860(gp)
  581008:	02002021 	move	a0,s0
  58100c:	00002821 	move	a1,zero
  581010:	0320f809 	jalr	t9
  581014:	24060044 	li	a2,68
  581018:	02202021 	move	a0,s1
  58101c:	00002821 	move	a1,zero
  581020:	8fbc0010 	lw	gp,16(sp)
  581024:	8f998f44 	lw	t9,-28860(gp)
  581028:	0320f809 	jalr	t9
  58102c:	24060044 	li	a2,68
  581030:	02802021 	move	a0,s4
  581034:	8fbc0010 	lw	gp,16(sp)
  581038:	02603021 	move	a2,s3
  58103c:	8f858034 	lw	a1,-32716(gp)
[31m  581040:	8f998c3c 	lw	t9,sprintf[0m
  581044:	0320f809 	jalr	t9
  581048:	24a5ee80 	addiu	a1,a1,-4480
  58104c:	02802021 	move	a0,s4
  581050:	8fbc0010 	lw	gp,16(sp)
  581054:	8f998580 	lw	t9,-31360(gp)
  581058:	0320f809 	jalr	t9
  58105c:	03c02821 	move	a1,s8
  581060:	8fbc0010 	lw	gp,16(sp)
  581064:	1040000b 	beqz	v0,581094 <_ZN26BaseRTMPAppProtocolHandler14ReadUserConfigEv@@Base+0x30c>
  581068:	00409021 	move	s2,v0
  58106c:	8f99931c 	lw	t9,-27876(gp)
  581070:	02002021 	move	a0,s0
  581074:	24050044 	li	a1,68
  581078:	0320f809 	jalr	t9
  58107c:	00403021 	move	a2,v0
  581080:	8fbc0010 	lw	gp,16(sp)
  581084:	8f999834 	lw	t9,-26572(gp)
  581088:	0320f809 	jalr	t9
  58108c:	02402021 	move	a0,s2
  581090:	8fbc0010 	lw	gp,16(sp)
  581094:	8f858034 	lw	a1,-32716(gp)
  581098:	02802021 	move	a0,s4
[31m  58109c:	8f998c3c 	lw	t9,sprintf[0m
  5810a0:	02603021 	move	a2,s3
  5810a4:	0320f809 	jalr	t9

[0m
[[0;33m*[0m] Function [0;33msprintf[0m used [0;33m15[0m times [0;33mcrtmpserver[0m

