[[0;33m*[0m] Binary protection state of [0;33mated_iwpriv[0m

  	RELRO          CANARY            NX           PIE          RPATH        RUNPATH      SYMBOLS      
  	[31mNo RELRO[0m       [31mNo Canary found[0m   [31mNX disabled[0m  [31mNo PIE[0m       [32mNo RPATH[0m     [32mNo RUNPATH[0m   [31mSymbols[0m

[0m
[[0;33m*[0m] Function [0;33mprintf[0m tear down of [0;33mated_iwpriv[0m

  401734:	00000000 	nop
  401738:	27c20028 	addiu	v0,s8,40
  40173c:	8fc40024 	lw	a0,36(s8)
  401740:	00402821 	move	a1,v0
  401744:	24060010 	li	a2,16
  401748:	8f828138 	lw	v0,-32456(gp)
  40174c:	00000000 	nop
  401750:	0040c821 	move	t9,v0
  401754:	0320f809 	jalr	t9
  401758:	00000000 	nop
  40175c:	8fdc0018 	lw	gp,24(s8)
  401760:	afc20020 	sw	v0,32(s8)
  401764:	8fc30020 	lw	v1,32(s8)
  401768:	2402ffff 	li	v0,-1
  40176c:	14620037 	bne	v1,v0,40184c <OpenSocket+0x200>
  401770:	00000000 	nop
  401774:	3c020041 	lui	v0,0x41
  401778:	94430360 	lhu	v1,864(v0)
  40177c:	24021388 	li	v0,5000
  401780:	14620024 	bne	v1,v0,401814 <OpenSocket+0x1c8>
  401784:	00000000 	nop
  401788:	3c020041 	lui	v0,0x41
  40178c:	2442e784 	addiu	v0,v0,-6268
  401790:	00402021 	move	a0,v0
  401794:	24051389 	li	a1,5001
[31m  401798:	8f828198 	lw	v0,printf[0m
  40179c:	00000000 	nop
  4017a0:	0040c821 	move	t9,v0
--
  401fa8:	8f8280c0 	lw	v0,-32576(gp)
  401fac:	00000000 	nop
  401fb0:	0040c821 	move	t9,v0
  401fb4:	0320f809 	jalr	t9
  401fb8:	00000000 	nop
  401fbc:	3c020041 	lui	v0,0x41
  401fc0:	24030001 	li	v1,1
  401fc4:	ac43036c 	sw	v1,876(v0)
  401fc8:	081007f7 	j	401fdc <get_option+0x150>
  401fcc:	00000000 	nop
  401fd0:	08100813 	j	40204c <get_option+0x1c0>
  401fd4:	00000000 	nop
  401fd8:	00000000 	nop
  401fdc:	081007af 	j	401ebc <get_option+0x30>
  401fe0:	00000000 	nop
  401fe4:	00000000 	nop
  401fe8:	3c020041 	lui	v0,0x41
  401fec:	94420360 	lhu	v0,864(v0)
  401ff0:	00000000 	nop
  401ff4:	1440000e 	bnez	v0,402030 <get_option+0x1a4>
  401ff8:	00000000 	nop
  401ffc:	3c020041 	lui	v0,0x41
  402000:	2442e8b4 	addiu	v0,v0,-5964
  402004:	00402021 	move	a0,v0
  402008:	24051388 	li	a1,5000
[31m  40200c:	8f828198 	lw	v0,printf[0m
  402010:	00000000 	nop
  402014:	0040c821 	move	t9,v0
--
  403ea8:	afa30014 	sw	v1,20(sp)
  403eac:	02402021 	move	a0,s2
  403eb0:	02202821 	move	a1,s1
  403eb4:	02003021 	move	a2,s0
  403eb8:	8f828184 	lw	v0,-32380(gp)
  403ebc:	00000000 	nop
  403ec0:	0040c821 	move	t9,v0
  403ec4:	0320f809 	jalr	t9
  403ec8:	00000000 	nop
  403ecc:	8fdc0018 	lw	gp,24(s8)
  403ed0:	3c020041 	lui	v0,0x41
  403ed4:	2450ea58 	addiu	s0,v0,-5544
  403ed8:	3c030041 	lui	v1,0x41
  403edc:	8f828054 	lw	v0,-32684(gp)
  403ee0:	8fc40048 	lw	a0,72(s8)
  403ee4:	8fc5004c 	lw	a1,76(s8)
  403ee8:	8c66eb38 	lw	a2,-5320(v1)
  403eec:	8c67eb3c 	lw	a3,-5316(v1)
  403ef0:	0040c821 	move	t9,v0
  403ef4:	0411261a 	bal	40d760 <__divdf3>
  403ef8:	00000000 	nop
  403efc:	8fdc0018 	lw	gp,24(s8)
  403f00:	02002021 	move	a0,s0
  403f04:	00403021 	move	a2,v0
  403f08:	00603821 	move	a3,v1
[31m  403f0c:	8f828198 	lw	v0,printf[0m
  403f10:	00000000 	nop
  403f14:	0040c821 	move	t9,v0
--
  403ff4:	afa30014 	sw	v1,20(sp)
  403ff8:	02402021 	move	a0,s2
  403ffc:	02202821 	move	a1,s1
  404000:	02003021 	move	a2,s0
  404004:	8f828184 	lw	v0,-32380(gp)
  404008:	00000000 	nop
  40400c:	0040c821 	move	t9,v0
  404010:	0320f809 	jalr	t9
  404014:	00000000 	nop
  404018:	8fdc0018 	lw	gp,24(s8)
  40401c:	3c020041 	lui	v0,0x41
  404020:	2450ea60 	addiu	s0,v0,-5536
  404024:	3c030041 	lui	v1,0x41
  404028:	8f828054 	lw	v0,-32684(gp)
  40402c:	8fc40048 	lw	a0,72(s8)
  404030:	8fc5004c 	lw	a1,76(s8)
  404034:	8c66eb40 	lw	a2,-5312(v1)
  404038:	8c67eb44 	lw	a3,-5308(v1)
  40403c:	0040c821 	move	t9,v0
  404040:	041125c7 	bal	40d760 <__divdf3>
  404044:	00000000 	nop
  404048:	8fdc0018 	lw	gp,24(s8)
  40404c:	02002021 	move	a0,s0
  404050:	00403021 	move	a2,v0
  404054:	00603821 	move	a3,v1
[31m  404058:	8f828198 	lw	v0,printf[0m
  40405c:	00000000 	nop
  404060:	0040c821 	move	t9,v0
--
  4040fc:	afa30014 	sw	v1,20(sp)
  404100:	02402021 	move	a0,s2
  404104:	02202821 	move	a1,s1
  404108:	02003021 	move	a2,s0
  40410c:	8f828184 	lw	v0,-32380(gp)
  404110:	00000000 	nop
  404114:	0040c821 	move	t9,v0
  404118:	0320f809 	jalr	t9
  40411c:	00000000 	nop
  404120:	8fdc0018 	lw	gp,24(s8)
  404124:	3c020041 	lui	v0,0x41
  404128:	2450ea68 	addiu	s0,v0,-5528
  40412c:	3c030041 	lui	v1,0x41
  404130:	8f828054 	lw	v0,-32684(gp)
  404134:	8fc40048 	lw	a0,72(s8)
  404138:	8fc5004c 	lw	a1,76(s8)
  40413c:	8c66eb48 	lw	a2,-5304(v1)
  404140:	8c67eb4c 	lw	a3,-5300(v1)
  404144:	0040c821 	move	t9,v0
  404148:	04112585 	bal	40d760 <__divdf3>
  40414c:	00000000 	nop
  404150:	8fdc0018 	lw	gp,24(s8)
  404154:	02002021 	move	a0,s0
  404158:	00403021 	move	a2,v0
  40415c:	00603821 	move	a3,v1
[31m  404160:	8f828198 	lw	v0,printf[0m
  404164:	00000000 	nop
  404168:	0040c821 	move	t9,v0
--
  4046cc:	8fc20040 	lw	v0,64(s8)
  4046d0:	00000000 	nop
  4046d4:	00402021 	move	a0,v0
  4046d8:	3c020041 	lui	v0,0x41
  4046dc:	2445eac8 	addiu	a1,v0,-5432
  4046e0:	2406000f 	li	a2,15
  4046e4:	8f828124 	lw	v0,-32476(gp)
  4046e8:	00000000 	nop
  4046ec:	0040c821 	move	t9,v0
  4046f0:	0320f809 	jalr	t9
  4046f4:	00000000 	nop
  4046f8:	8fdc0018 	lw	gp,24(s8)
  4046fc:	14400030 	bnez	v0,4047c0 <process_iwpriv_cmd+0x390>
  404700:	00000000 	nop
  404704:	3c020041 	lui	v0,0x41
  404708:	24030001 	li	v1,1
  40470c:	ac430380 	sw	v1,896(v0)
  404710:	3c020041 	lui	v0,0x41
  404714:	2443ead8 	addiu	v1,v0,-5416
  404718:	3c020041 	lui	v0,0x41
  40471c:	8c420380 	lw	v0,896(v0)
  404720:	00602021 	move	a0,v1
  404724:	3c030041 	lui	v1,0x41
  404728:	2465eb20 	addiu	a1,v1,-5344
  40472c:	00403021 	move	a2,v0
[31m  404730:	8f828198 	lw	v0,printf[0m
  404734:	00000000 	nop
  404738:	0040c821 	move	t9,v0
  40473c:	0320f809 	jalr	t9
  404740:	00000000 	nop
  404744:	8fdc0018 	lw	gp,24(s8)
  404748:	081011f0 	j	4047c0 <process_iwpriv_cmd+0x390>
  40474c:	00000000 	nop
  404750:	3c020041 	lui	v0,0x41
  404754:	2442eaf0 	addiu	v0,v0,-5392
  404758:	00402021 	move	a0,v0
  40475c:	3c020041 	lui	v0,0x41
  404760:	2445eb20 	addiu	a1,v0,-5344
[31m  404764:	8f828198 	lw	v0,printf[0m
  404768:	00000000 	nop
  40476c:	0040c821 	move	t9,v0
--
  4054f8:	8fc60504 	lw	a2,1284(s8)
  4054fc:	8f82813c 	lw	v0,-32452(gp)
  405500:	00000000 	nop
  405504:	0040c821 	move	t9,v0
  405508:	0320f809 	jalr	t9
  40550c:	00000000 	nop
  405510:	8fdc0010 	lw	gp,16(s8)
  405514:	00001021 	move	v0,zero
  405518:	0810157b 	j	4055ec <print_iface_version_info+0x294>
  40551c:	00000000 	nop
  405520:	27c2005c 	addiu	v0,s8,92
  405524:	afc20018 	sw	v0,24(s8)
  405528:	97c20050 	lhu	v0,80(s8)
  40552c:	00000000 	nop
  405530:	2c42012c 	sltiu	v0,v0,300
  405534:	1440001e 	bnez	v0,4055b0 <print_iface_version_info+0x258>
  405538:	00000000 	nop
  40553c:	3c020041 	lui	v0,0x41
  405540:	2443ef9c 	addiu	v1,v0,-4196
  405544:	8fc20018 	lw	v0,24(s8)
  405548:	00000000 	nop
  40554c:	90420119 	lbu	v0,281(v0)
  405550:	00602021 	move	a0,v1
  405554:	8fc50504 	lw	a1,1284(s8)
  405558:	00403021 	move	a2,v0
[31m  40555c:	8f828198 	lw	v0,printf[0m
  405560:	00000000 	nop
  405564:	0040c821 	move	t9,v0
  405568:	0320f809 	jalr	t9
  40556c:	00000000 	nop
  405570:	8fdc0010 	lw	gp,16(s8)
  405574:	3c020041 	lui	v0,0x41
  405578:	2443efd4 	addiu	v1,v0,-4140
  40557c:	8fc20018 	lw	v0,24(s8)
  405580:	00000000 	nop
  405584:	90420118 	lbu	v0,280(v0)
  405588:	00602021 	move	a0,v1
  40558c:	00402821 	move	a1,v0
[31m  405590:	8f828198 	lw	v0,printf[0m
  405594:	00000000 	nop
  405598:	0040c821 	move	t9,v0
--
  405630:	afc20018 	sw	v0,24(s8)
  405634:	8fc20018 	lw	v0,24(s8)
  405638:	00000000 	nop
  40563c:	0441000c 	bgez	v0,405670 <iw_print_version_info+0x6c>
  405640:	00000000 	nop
  405644:	3c020041 	lui	v0,0x41
  405648:	2444f040 	addiu	a0,v0,-4032
  40564c:	8f828168 	lw	v0,-32408(gp)
  405650:	00000000 	nop
  405654:	0040c821 	move	t9,v0
  405658:	0320f809 	jalr	t9
  40565c:	00000000 	nop
  405660:	8fdc0010 	lw	gp,16(s8)
  405664:	2402ffff 	li	v0,-1
  405668:	081015db 	j	40576c <iw_print_version_info+0x168>
  40566c:	00000000 	nop
  405670:	8fc20030 	lw	v0,48(s8)
  405674:	00000000 	nop
  405678:	1040000c 	beqz	v0,4056ac <iw_print_version_info+0xa8>
  40567c:	00000000 	nop
  405680:	3c020041 	lui	v0,0x41
  405684:	2442f048 	addiu	v0,v0,-4024
  405688:	00402021 	move	a0,v0
  40568c:	8fc50030 	lw	a1,48(s8)
  405690:	2406001d 	li	a2,29
[31m  405694:	8f828198 	lw	v0,printf[0m
  405698:	00000000 	nop
  40569c:	0040c821 	move	t9,v0
  4056a0:	0320f809 	jalr	t9
  4056a4:	00000000 	nop
  4056a8:	8fdc0010 	lw	gp,16(s8)
  4056ac:	3c020041 	lui	v0,0x41
  4056b0:	2442f06c 	addiu	v0,v0,-3988
  4056b4:	00402021 	move	a0,v0
  4056b8:	24050016 	li	a1,22
[31m  4056bc:	8f828198 	lw	v0,printf[0m
  4056c0:	00000000 	nop
  4056c4:	0040c821 	move	t9,v0
  4056c8:	0320f809 	jalr	t9
  4056cc:	00000000 	nop
  4056d0:	8fdc0010 	lw	gp,16(s8)
  4056d4:	0c101429 	jal	4050a4 <iw_get_kernel_we_version>
  4056d8:	00000000 	nop
  4056dc:	8fdc0010 	lw	gp,16(s8)
  4056e0:	afc2001c 	sw	v0,28(s8)
  4056e4:	8fc2001c 	lw	v0,28(s8)
  4056e8:	00000000 	nop
  4056ec:	28420010 	slti	v0,v0,16
  4056f0:	1440000b 	bnez	v0,405720 <iw_print_version_info+0x11c>
  4056f4:	00000000 	nop
  4056f8:	3c020041 	lui	v0,0x41
  4056fc:	2442f0a8 	addiu	v0,v0,-3928
  405700:	00402021 	move	a0,v0
  405704:	8fc5001c 	lw	a1,28(s8)
[31m  405708:	8f828198 	lw	v0,printf[0m
  40570c:	00000000 	nop
  405710:	0040c821 	move	t9,v0
--
  409910:	2402024c 	li	v0,588
  409914:	00602021 	move	a0,v1
  409918:	00002821 	move	a1,zero
  40991c:	00403021 	move	a2,v0
  409920:	8f8280f0 	lw	v0,-32528(gp)
  409924:	00000000 	nop
  409928:	0040c821 	move	t9,v0
  40992c:	0320f809 	jalr	t9
  409930:	00000000 	nop
  409934:	8fdc0010 	lw	gp,16(s8)
  409938:	93c20138 	lbu	v0,312(s8)
  40993c:	00000000 	nop
  409940:	2c420010 	sltiu	v0,v0,16
  409944:	1440005f 	bnez	v0,409ac4 <iw_in_key_full+0x348>
  409948:	00000000 	nop
  40994c:	3c020041 	lui	v0,0x41
  409950:	2444f514 	addiu	a0,v0,-2796
  409954:	8fc20288 	lw	v0,648(s8)
  409958:	00000000 	nop
  40995c:	94420000 	lhu	v0,0(v0)
  409960:	00000000 	nop
  409964:	00401821 	move	v1,v0
  409968:	93c20110 	lbu	v0,272(s8)
  40996c:	00602821 	move	a1,v1
  409970:	00403021 	move	a2,v0
[31m  409974:	8f828198 	lw	v0,printf[0m
  409978:	00000000 	nop
  40997c:	0040c821 	move	t9,v0
--
  4099c0:	8fdc0010 	lw	gp,16(s8)
  4099c4:	0441000d 	bgez	v0,4099fc <iw_in_key_full+0x280>
  4099c8:	00000000 	nop
  4099cc:	27c20020 	addiu	v0,s8,32
  4099d0:	00401821 	move	v1,v0
  4099d4:	2402024c 	li	v0,588
  4099d8:	00602021 	move	a0,v1
  4099dc:	00002821 	move	a1,zero
  4099e0:	00403021 	move	a2,v0
  4099e4:	8f8280f0 	lw	v0,-32528(gp)
  4099e8:	00000000 	nop
  4099ec:	0040c821 	move	t9,v0
  4099f0:	0320f809 	jalr	t9
  4099f4:	00000000 	nop
  4099f8:	8fdc0010 	lw	gp,16(s8)
  4099fc:	3c020041 	lui	v0,0x41
  409a00:	2444f514 	addiu	a0,v0,-2796
  409a04:	8fc20288 	lw	v0,648(s8)
  409a08:	00000000 	nop
  409a0c:	94420000 	lhu	v0,0(v0)
  409a10:	00000000 	nop
  409a14:	00401821 	move	v1,v0
  409a18:	93c20110 	lbu	v0,272(s8)
  409a1c:	00602821 	move	a1,v1
  409a20:	00403021 	move	a2,v0
[31m  409a24:	8f828198 	lw	v0,printf[0m
  409a28:	00000000 	nop
  409a2c:	0040c821 	move	t9,v0
  409a30:	0320f809 	jalr	t9
  409a34:	00000000 	nop
  409a38:	8fdc0010 	lw	gp,16(s8)
  409a3c:	8fc20288 	lw	v0,648(s8)
  409a40:	00000000 	nop
  409a44:	94430000 	lhu	v1,0(v0)
  409a48:	93c20110 	lbu	v0,272(s8)
  409a4c:	00000000 	nop
  409a50:	00621025 	or	v0,v1,v0
  409a54:	3043ffff 	andi	v1,v0,0xffff
  409a58:	8fc20288 	lw	v0,648(s8)
  409a5c:	00000000 	nop
  409a60:	a4430000 	sh	v1,0(v0)
  409a64:	3c020041 	lui	v0,0x41
  409a68:	2444f514 	addiu	a0,v0,-2796
  409a6c:	8fc20288 	lw	v0,648(s8)
  409a70:	00000000 	nop
  409a74:	94420000 	lhu	v0,0(v0)
  409a78:	00000000 	nop
  409a7c:	00401821 	move	v1,v0
  409a80:	93c20110 	lbu	v0,272(s8)
  409a84:	00602821 	move	a1,v1
  409a88:	00403021 	move	a2,v0
[31m  409a8c:	8f828198 	lw	v0,printf[0m
  409a90:	00000000 	nop
  409a94:	0040c821 	move	t9,v0

[0m
[[0;33m*[0m] Function [0;33mprintf[0m used [0;33m15[0m times [0;33mated_iwpriv[0m

