[[0;33m*[0m] Binary protection state of [0;33mrt2860apd[0m

  	RELRO          CANARY            NX           PIE          RPATH        RUNPATH      SYMBOLS      
  	[31mNo RELRO[0m       [31mNo Canary found[0m   [31mNX disabled[0m  [31mNo PIE[0m       [32mNo RPATH[0m     [32mNo RUNPATH[0m   [31mSymbols[0m

[0m
[[0;33m*[0m] Function [0;33mstrcpy[0m tear down of [0;33mrt2860apd[0m

  402ee4:	8fa60060 	lw	a2,96(sp)
  402ee8:	27b00018 	addiu	s0,sp,24
  402eec:	3c050041 	lui	a1,0x41
  402ef0:	02002021 	move	a0,s0
  402ef4:	24a503b8 	addiu	a1,a1,952
  402ef8:	0320f809 	jalr	t9
  402efc:	00403821 	move	a3,v0
  402f00:	8fbc0010 	lw	gp,16(sp)
  402f04:	8fa20068 	lw	v0,104(sp)
  402f08:	8f9981dc 	lw	t9,-32292(gp)
  402f0c:	a7b4002c 	sh	s4,44(sp)
  402f10:	afb30028 	sw	s3,40(sp)
  402f14:	02402021 	move	a0,s2
  402f18:	02202821 	move	a1,s1
  402f1c:	02003021 	move	a2,s0
  402f20:	0320f809 	jalr	t9
  402f24:	a7a2002e 	sh	v0,46(sp)
  402f28:	8fbf004c 	lw	ra,76(sp)
  402f2c:	8fb40048 	lw	s4,72(sp)
  402f30:	8fb30044 	lw	s3,68(sp)
  402f34:	8fb20040 	lw	s2,64(sp)
  402f38:	8fb1003c 	lw	s1,60(sp)
  402f3c:	8fb00038 	lw	s0,56(sp)
  402f40:	03e00008 	jr	ra
  402f44:	27bd0050 	addiu	sp,sp,80
[31m  402f48:	8f9981e0 	lw	t9,strcpy[0m
  402f4c:	8f85804c 	lw	a1,-32692(gp)
  402f50:	27b00018 	addiu	s0,sp,24
--
  403134:	00000000 	nop
  403138:	8c4305cc 	lw	v1,1484(v0)
  40313c:	00000000 	nop
  403140:	0243182a 	slt	v1,s2,v1
  403144:	10600047 	beqz	v1,403264 <Apd_init_sockets+0x218>
  403148:	26310004 	addiu	s1,s1,4
  40314c:	8f9981b0 	lw	t9,-32336(gp)
  403150:	24040011 	li	a0,17
  403154:	24050003 	li	a1,3
  403158:	0320f809 	jalr	t9
  40315c:	3406c788 	li	a2,0xc788
  403160:	8fbc0020 	lw	gp,32(sp)
  403164:	27b0003c 	addiu	s0,sp,60
  403168:	00003821 	move	a3,zero
  40316c:	02603021 	move	a2,s3
  403170:	02a02821 	move	a1,s5
  403174:	00402021 	move	a0,v0
  403178:	8f998050 	lw	t9,-32688(gp)
  40317c:	044000be 	bltz	v0,403478 <Apd_init_sockets+0x42c>
  403180:	ae22004c 	sw	v0,76(s1)
  403184:	041101c7 	bal	4038a4 <eloop_register_read_sock>
  403188:	00000000 	nop
  40318c:	8fbc0020 	lw	gp,32(sp)
  403190:	00121900 	sll	v1,s2,0x4
  403194:	02002021 	move	a0,s0
[31m  403198:	8f9981e0 	lw	t9,strcpy[0m
  40319c:	144000bc 	bnez	v0,403490 <Apd_init_sockets+0x444>
  4031a0:	26520001 	addiu	s2,s2,1
--
  403310:	00000000 	nop
  403314:	8c4304c8 	lw	v1,1224(v0)
  403318:	00000000 	nop
  40331c:	0243182a 	slt	v1,s2,v1
  403320:	10600072 	beqz	v1,4034ec <Apd_init_sockets+0x4a0>
  403324:	26310004 	addiu	s1,s1,4
  403328:	8f9981b0 	lw	t9,-32336(gp)
  40332c:	24040011 	li	a0,17
  403330:	24050003 	li	a1,3
  403334:	0320f809 	jalr	t9
  403338:	34068e88 	li	a2,0x8e88
  40333c:	8fbc0020 	lw	gp,32(sp)
  403340:	27b0003c 	addiu	s0,sp,60
  403344:	00003821 	move	a3,zero
  403348:	02603021 	move	a2,s3
  40334c:	02a02821 	move	a1,s5
  403350:	00402021 	move	a0,v0
  403354:	8f998050 	lw	t9,-32688(gp)
  403358:	044000e5 	bltz	v0,4036f0 <Apd_init_sockets+0x6a4>
  40335c:	ae22000c 	sw	v0,12(s1)
  403360:	04110150 	bal	4038a4 <eloop_register_read_sock>
  403364:	00000000 	nop
  403368:	8fbc0020 	lw	gp,32(sp)
  40336c:	00121900 	sll	v1,s2,0x4
  403370:	02002021 	move	a0,s0
[31m  403374:	8f9981e0 	lw	t9,strcpy[0m
  403378:	144000e3 	bnez	v0,403708 <Apd_init_sockets+0x6bc>
  40337c:	26520001 	addiu	s2,s2,1
--
  4034c0:	00000000 	nop
  4034c4:	0320f809 	jalr	t9
  4034c8:	24840410 	addiu	a0,a0,1040
  4034cc:	08100d03 	j	40340c <Apd_init_sockets+0x3c0>
  4034d0:	00000000 	nop
  4034d4:	8f9981c0 	lw	t9,-32320(gp)
  4034d8:	3c040041 	lui	a0,0x41
  4034dc:	0320f809 	jalr	t9
  4034e0:	24840464 	addiu	a0,a0,1124
  4034e4:	08100d03 	j	40340c <Apd_init_sockets+0x3c0>
  4034e8:	2410ffff 	li	s0,-1
  4034ec:	8c420014 	lw	v0,20(v0)
  4034f0:	00000000 	nop
  4034f4:	1840ffc5 	blez	v0,40340c <Apd_init_sockets+0x3c0>
  4034f8:	00008021 	move	s0,zero
  4034fc:	3c170041 	lui	s7,0x41
  403500:	3c160041 	lui	s6,0x41
  403504:	3c1e0041 	lui	s8,0x41
  403508:	02608821 	move	s1,s3
  40350c:	00009021 	move	s2,zero
  403510:	26f703b8 	addiu	s7,s7,952
  403514:	3c150042 	lui	s5,0x42
  403518:	26d600f0 	addiu	s6,s6,240
  40351c:	08100d7c 	j	4035f0 <Apd_init_sockets+0x5a4>
  403520:	27de05a0 	addiu	s8,s8,1440
[31m  403524:	8f9981e0 	lw	t9,strcpy[0m
  403528:	8e650008 	lw	a1,8(s3)
  40352c:	0320f809 	jalr	t9
--
  408790:	ac620404 	sw	v0,1028(v1)
  408794:	8fa30090 	lw	v1,144(sp)
  408798:	00000000 	nop
  40879c:	8c620000 	lw	v0,0(v1)
  4087a0:	00000000 	nop
  4087a4:	34420001 	ori	v0,v0,0x1
  4087a8:	ac620000 	sw	v0,0(v1)
  4087ac:	8ee20000 	lw	v0,0(s7)
  4087b0:	00000000 	nop
  4087b4:	2c420003 	sltiu	v0,v0,3
  4087b8:	104002fb 	beqz	v0,4093a8 <Query_config_from_driver+0xd84>
  4087bc:	3c040041 	lui	a0,0x41
  4087c0:	8fa30040 	lw	v1,64(sp)
  4087c4:	00000000 	nop
  4087c8:	18600299 	blez	v1,409230 <Query_config_from_driver+0xc0c>
  4087cc:	27a30028 	addiu	v1,sp,40
  4087d0:	8fb10088 	lw	s1,136(sp)
  4087d4:	0240f021 	move	s8,s2
  4087d8:	afa00048 	sw	zero,72(sp)
  4087dc:	afa00044 	sw	zero,68(sp)
  4087e0:	afa0003c 	sw	zero,60(sp)
  4087e4:	00009821 	move	s3,zero
  4087e8:	afa30038 	sw	v1,56(sp)
  4087ec:	1660013c 	bnez	s3,408ce0 <Query_config_from_driver+0x6bc>
  4087f0:	3c060041 	lui	a2,0x41
[31m  4087f4:	8f9981e0 	lw	t9,strcpy[0m
  4087f8:	8f85804c 	lw	a1,-32692(gp)
  4087fc:	8fa40038 	lw	a0,56(sp)
--
  408a00:	2844003c 	slti	a0,v0,60
  408a04:	10800003 	beqz	a0,408a14 <Query_config_from_driver+0x3f0>
  408a08:	aca206dc 	sw	v0,1756(a1)
  408a0c:	2402003c 	li	v0,60
  408a10:	aca206dc 	sw	v0,1756(a1)
  408a14:	106002b5 	beqz	v1,4094ec <Query_config_from_driver+0xec8>
  408a18:	3c040041 	lui	a0,0x41
  408a1c:	8fa30040 	lw	v1,64(sp)
  408a20:	00000000 	nop
  408a24:	1860004c 	blez	v1,408b58 <Query_config_from_driver+0x534>
  408a28:	27a30028 	addiu	v1,sp,40
  408a2c:	8fb40088 	lw	s4,136(sp)
  408a30:	0000b021 	move	s6,zero
  408a34:	3c1e0041 	lui	s8,0x41
  408a38:	02409821 	move	s3,s2
  408a3c:	02408821 	move	s1,s2
  408a40:	afb2003c 	sw	s2,60(sp)
  408a44:	00008021 	move	s0,zero
  408a48:	afa30038 	sw	v1,56(sp)
  408a4c:	27de00f0 	addiu	s8,s8,240
  408a50:	afb60044 	sw	s6,68(sp)
  408a54:	02809021 	move	s2,s4
  408a58:	0060a821 	move	s5,v1
  408a5c:	160000a9 	bnez	s0,408d04 <Query_config_from_driver+0x6e0>
  408a60:	3c050041 	lui	a1,0x41
[31m  408a64:	8f9981e0 	lw	t9,strcpy[0m
  408a68:	8f85804c 	lw	a1,-32692(gp)
  408a6c:	0320f809 	jalr	t9
--
  409920:	97a2005c 	lhu	v0,92(sp)
  409924:	0320f809 	jalr	t9
  409928:	ae820228 	sw	v0,552(s4)
  40992c:	8fbc0018 	lw	gp,24(sp)
  409930:	8fa30068 	lw	v1,104(sp)
  409934:	8e860228 	lw	a2,552(s4)
  409938:	8f9981c4 	lw	t9,-32316(gp)
  40993c:	00752021 	addu	a0,v1,s5
  409940:	0320f809 	jalr	t9
  409944:	27a50028 	addiu	a1,sp,40
  409948:	8fbc0018 	lw	gp,24(sp)
  40994c:	00000000 	nop
  409950:	8f82806c 	lw	v0,-32660(gp)
  409954:	00000000 	nop
  409958:	8c420000 	lw	v0,0(v0)
  40995c:	00000000 	nop
  409960:	2c420003 	sltiu	v0,v0,3
  409964:	1040009d 	beqz	v0,409bdc <Config_read+0x4ec>
  409968:	3c040041 	lui	a0,0x41
  40996c:	8e620014 	lw	v0,20(s3)
  409970:	26520001 	addiu	s2,s2,1
  409974:	26940004 	addiu	s4,s4,4
  409978:	0242102a 	slt	v0,s2,v0
  40997c:	1040002a 	beqz	v0,409a28 <Config_read+0x338>
  409980:	26b50021 	addiu	s5,s5,33
[31m  409984:	8f8281e0 	lw	v0,strcpy[0m
  409988:	8f85804c 	lw	a1,-32692(gp)
  40998c:	8f998148 	lw	t9,-32440(gp)
--
  4099e8:	0320f809 	jalr	t9
  4099ec:	03c03021 	move	a2,s8
  4099f0:	8fbc0018 	lw	gp,24(sp)
  4099f4:	08102635 	j	4098d4 <Config_read+0x1e4>
  4099f8:	00000000 	nop
  4099fc:	8f9981c0 	lw	t9,-32320(gp)
  409a00:	3c040041 	lui	a0,0x41
  409a04:	0320f809 	jalr	t9
  409a08:	248417b4 	addiu	a0,a0,6068
  409a0c:	8e620014 	lw	v0,20(s3)
  409a10:	26520001 	addiu	s2,s2,1
  409a14:	8fbc0018 	lw	gp,24(sp)
  409a18:	0242102a 	slt	v0,s2,v0
  409a1c:	26940004 	addiu	s4,s4,4
  409a20:	1440ffd8 	bnez	v0,409984 <Config_read+0x294>
  409a24:	26b50021 	addiu	s5,s5,33
  409a28:	8f92806c 	lw	s2,-32660(gp)
  409a2c:	3c150041 	lui	s5,0x41
  409a30:	3c160041 	lui	s6,0x41
  409a34:	0000a021 	move	s4,zero
  409a38:	3c170041 	lui	s7,0x41
  409a3c:	26b500f0 	addiu	s5,s5,240
  409a40:	26d61800 	addiu	s6,s6,6144
  409a44:	16800074 	bnez	s4,409c18 <Config_read+0x528>
  409a48:	02202021 	move	a0,s1
[31m  409a4c:	8f9981e0 	lw	t9,strcpy[0m
  409a50:	8f85804c 	lw	a1,-32692(gp)
  409a54:	0320f809 	jalr	t9

[0m
[[0;33m*[0m] Function [0;33mstrcpy[0m used [0;33m8[0m times [0;33mrt2860apd[0m

