[0m
[[0;33m*[0m] Function [0;33msprintf[0m tear down of [0;33mupnpc-ddns[0m

  4034d8:	8fbc0018 	lw	gp,24(sp)
  4034dc:	8ec40000 	lw	a0,0(s6)
  4034e0:	8f9981a4 	lw	t9,-32348(gp)
  4034e4:	0320f809 	jalr	t9
  4034e8:	00000000 	nop
  4034ec:	8fbc0018 	lw	gp,24(sp)
  4034f0:	8f858024 	lw	a1,-32732(gp)
  4034f4:	8f9980fc 	lw	t9,-32516(gp)
  4034f8:	8f848108 	lw	a0,-32504(gp)
  4034fc:	0320f809 	jalr	t9
  403500:	24a5b638 	addiu	a1,a1,-18888
  403504:	8fbc0018 	lw	gp,24(sp)
  403508:	144000a6 	bnez	v0,4037a4 <UPNP_RemoteCheck_Proxy@@Base+0x4e8>
  40350c:	27b60020 	addiu	s6,sp,32
  403510:	8f858024 	lw	a1,-32732(gp)
  403514:	8f9980fc 	lw	t9,-32516(gp)
  403518:	8f848108 	lw	a0,-32504(gp)
  40351c:	0320f809 	jalr	t9
  403520:	24a5b6a4 	addiu	a1,a1,-18780
  403524:	8fbc0018 	lw	gp,24(sp)
  403528:	14400051 	bnez	v0,403670 <UPNP_RemoteCheck_Proxy@@Base+0x3b4>
  40352c:	00000000 	nop
  403530:	8f858024 	lw	a1,-32732(gp)
  403534:	27b60020 	addiu	s6,sp,32
  403538:	02003021 	move	a2,s0
[31m  40353c:	8f99814c 	lw	t9,sprintf[0m
  403540:	02c02021 	move	a0,s6
  403544:	0320f809 	jalr	t9
  403548:	24a5bf70 	addiu	a1,a1,-16528
  40354c:	02602021 	move	a0,s3
  403550:	00002821 	move	a1,zero
  403554:	8fbc0018 	lw	gp,24(sp)
  403558:	8f9981a0 	lw	t9,-32352(gp)
  40355c:	8f9e8024 	lw	s8,-32732(gp)
  403560:	0320f809 	jalr	t9
  403564:	24060400 	li	a2,1024
  403568:	02003821 	move	a3,s0
  40356c:	8fbc0018 	lw	gp,24(sp)
  403570:	02602021 	move	a0,s3
  403574:	02203021 	move	a2,s1
  403578:	afb10010 	sw	s1,16(sp)
  40357c:	8f858024 	lw	a1,-32732(gp)
[31m  403580:	8f99814c 	lw	t9,sprintf[0m
  403584:	24a5b6b4 	addiu	a1,a1,-18764
  403588:	0320f809 	jalr	t9
--
  403748:	8f9983e0 	lw	t9,-31776(gp)
  40374c:	2484b740 	addiu	a0,a0,-18624
  403750:	0320f809 	jalr	t9
  403754:	00000000 	nop
  403758:	8fbc0018 	lw	gp,24(sp)
  40375c:	8e040000 	lw	a0,0(s0)
  403760:	8f9981a4 	lw	t9,-32348(gp)
  403764:	0320f809 	jalr	t9
  403768:	00000000 	nop
  40376c:	8fbc0018 	lw	gp,24(sp)
  403770:	2410ffff 	li	s0,-1
  403774:	8f928024 	lw	s2,-32732(gp)
  403778:	8f918024 	lw	s1,-32732(gp)
  40377c:	8f9982cc 	lw	t9,-32052(gp)
  403780:	2645b760 	addiu	a1,s2,-18592
  403784:	8f8481f8 	lw	a0,-32264(gp)
  403788:	8f868108 	lw	a2,-32504(gp)
  40378c:	0320f809 	jalr	t9
  403790:	2627e1b8 	addiu	a3,s1,-7752
  403794:	2645b760 	addiu	a1,s2,-18592
  403798:	8fbc0018 	lw	gp,24(sp)
  40379c:	1000ff9e 	b	403618 <UPNP_RemoteCheck_Proxy@@Base+0x35c>
  4037a0:	2627e1b8 	addiu	a3,s1,-7752
  4037a4:	8f858024 	lw	a1,-32732(gp)
  4037a8:	02003021 	move	a2,s0
[31m  4037ac:	8f99814c 	lw	t9,sprintf[0m
  4037b0:	02c02021 	move	a0,s6
  4037b4:	8f938024 	lw	s3,-32732(gp)
--
  4064a0:	8f868024 	lw	a2,-32732(gp)
  4064a4:	8f998310 	lw	t9,-31984(gp)
  4064a8:	8f878434 	lw	a3,-31692(gp)
  4064ac:	24c6bca4 	addiu	a2,a2,-17244
  4064b0:	ae420050 	sw	v0,80(s2)
  4064b4:	afb50010 	sw	s5,16(sp)
  4064b8:	0320f809 	jalr	t9
  4064bc:	afb20014 	sw	s2,20(sp)
  4064c0:	8fbc0018 	lw	gp,24(sp)
  4064c4:	a2000000 	sb	zero,0(s0)
  4064c8:	ae00005a 	sw	zero,90(s0)
  4064cc:	1000ffda 	b	406438 <init_mapping_rule@@Base+0x94>
  4064d0:	261000a8 	addiu	s0,s0,168
  4064d4:	8f9282e8 	lw	s2,-32024(gp)
  4064d8:	24060040 	li	a2,64
  4064dc:	8f9981ec 	lw	t9,-32276(gp)
  4064e0:	02402021 	move	a0,s2
  4064e4:	0320f809 	jalr	t9
  4064e8:	26510054 	addiu	s1,s2,84
  4064ec:	02003021 	move	a2,s0
  4064f0:	26440044 	addiu	a0,s2,68
  4064f4:	8fbc0018 	lw	gp,24(sp)
  4064f8:	8f828024 	lw	v0,-32732(gp)
  4064fc:	8f858024 	lw	a1,-32732(gp)
  406500:	8c42bcb8 	lw	v0,-17224(v0)
[31m  406504:	8f99814c 	lw	t9,sprintf[0m
  406508:	24a5bf70 	addiu	a1,a1,-16528
  40650c:	0320f809 	jalr	t9
--
  4079bc:	0320f809 	jalr	t9
  4079c0:	afa20010 	sw	v0,16(sp)
  4079c4:	8fbc0028 	lw	gp,40(sp)
  4079c8:	8f858238 	lw	a1,-32200(gp)
  4079cc:	8f9981a4 	lw	t9,-32348(gp)
  4079d0:	8ca40000 	lw	a0,0(a1)
  4079d4:	0320f809 	jalr	t9
  4079d8:	00000000 	nop
  4079dc:	8fbc0028 	lw	gp,40(sp)
  4079e0:	8e220000 	lw	v0,0(s1)
  4079e4:	1440ffb9 	bnez	v0,4078cc <add_port_mapping_rule@@Base+0x4f4>
  4079e8:	00000000 	nop
  4079ec:	8222fff8 	lb	v0,-8(s1)
  4079f0:	1440ff9f 	bnez	v0,407870 <add_port_mapping_rule@@Base+0x498>
  4079f4:	00109880 	sll	s3,s0,0x2
  4079f8:	8f998204 	lw	t9,-32252(gp)
  4079fc:	0320f809 	jalr	t9
  407a00:	0010a100 	sll	s4,s0,0x4
  407a04:	02932023 	subu	a0,s4,s3
  407a08:	8fbc0028 	lw	gp,40(sp)
  407a0c:	8f868240 	lw	a2,-32192(gp)
  407a10:	8f858024 	lw	a1,-32732(gp)
  407a14:	00c42021 	addu	a0,a2,a0
  407a18:	3c0614f8 	lui	a2,0x14f8
  407a1c:	34c6b589 	ori	a2,a2,0xb589
[31m  407a20:	8f99814c 	lw	t9,sprintf[0m
  407a24:	24a5bf70 	addiu	a1,a1,-16528
  407a28:	00460018 	mult	v0,a2
--
  40b080:	1643fffa 	bne	s2,v1,40b06c <base64Encode@@Base+0x94>
  40b084:	00000000 	nop
  40b088:	93a60020 	lbu	a2,32(sp)
  40b08c:	93a50021 	lbu	a1,33(sp)
  40b090:	93a80022 	lbu	t0,34(sp)
  40b094:	30c20003 	andi	v0,a2,0x3
  40b098:	30a3000f 	andi	v1,a1,0xf
  40b09c:	00021100 	sll	v0,v0,0x4
  40b0a0:	00031880 	sll	v1,v1,0x2
  40b0a4:	00052902 	srl	a1,a1,0x4
  40b0a8:	00084982 	srl	t1,t0,0x6
  40b0ac:	00451025 	or	v0,v0,a1
  40b0b0:	00691825 	or	v1,v1,t1
  40b0b4:	10940030 	beq	a0,s4,40b178 <base64Encode@@Base+0x1a0>
  40b0b8:	00063082 	srl	a2,a2,0x2
  40b0bc:	10960020 	beq	a0,s6,40b140 <base64Encode@@Base+0x168>
  40b0c0:	3108003f 	andi	t0,t0,0x3f
  40b0c4:	02623821 	addu	a3,s3,v0
  40b0c8:	02631821 	addu	v1,s3,v1
  40b0cc:	02681021 	addu	v0,s3,t0
  40b0d0:	02663021 	addu	a2,s3,a2
  40b0d4:	02202021 	move	a0,s1
  40b0d8:	80630000 	lb	v1,0(v1)
  40b0dc:	03c02821 	move	a1,s8
  40b0e0:	80420000 	lb	v0,0(v0)
[31m  40b0e4:	8f99814c 	lw	t9,sprintf[0m
  40b0e8:	80c60000 	lb	a2,0(a2)
  40b0ec:	80e70000 	lb	a3,0(a3)
--
  40b0f8:	afa20014 	sw	v0,20(sp)
  40b0fc:	8fbc0018 	lw	gp,24(sp)
  40b100:	82020000 	lb	v0,0(s0)
  40b104:	1440ffd1 	bnez	v0,40b04c <base64Encode@@Base+0x74>
  40b108:	26310004 	addiu	s1,s1,4
  40b10c:	a2200000 	sb	zero,0(s1)
  40b110:	8fbf004c 	lw	ra,76(sp)
  40b114:	8fbe0048 	lw	s8,72(sp)
  40b118:	8fb70044 	lw	s7,68(sp)
  40b11c:	8fb60040 	lw	s6,64(sp)
  40b120:	8fb5003c 	lw	s5,60(sp)
  40b124:	8fb40038 	lw	s4,56(sp)
  40b128:	8fb30034 	lw	s3,52(sp)
  40b12c:	8fb20030 	lw	s2,48(sp)
  40b130:	8fb1002c 	lw	s1,44(sp)
  40b134:	8fb00028 	lw	s0,40(sp)
  40b138:	03e00008 	jr	ra
  40b13c:	27bd0050 	addiu	sp,sp,80
  40b140:	02621021 	addu	v0,s3,v0
  40b144:	02631821 	addu	v1,s3,v1
  40b148:	02202021 	move	a0,s1
  40b14c:	80470000 	lb	a3,0(v0)
  40b150:	02663021 	addu	a2,s3,a2
  40b154:	02e02821 	move	a1,s7
  40b158:	80620000 	lb	v0,0(v1)
[31m  40b15c:	8f99814c 	lw	t9,sprintf[0m
  40b160:	80c60000 	lb	a2,0(a2)
  40b164:	0320f809 	jalr	t9
  40b168:	afa20010 	sw	v0,16(sp)
  40b16c:	8fbc0018 	lw	gp,24(sp)
  40b170:	1000ffe3 	b	40b100 <base64Encode@@Base+0x128>
  40b174:	00000000 	nop
  40b178:	8f858024 	lw	a1,-32732(gp)
  40b17c:	02621021 	addu	v0,s3,v0
  40b180:	02202021 	move	a0,s1
  40b184:	02663021 	addu	a2,s3,a2
[31m  40b188:	8f99814c 	lw	t9,sprintf[0m
  40b18c:	80c60000 	lb	a2,0(a2)
  40b190:	80470000 	lb	a3,0(v0)
--
  40b3d8:	8f828024 	lw	v0,-32732(gp)
  40b3dc:	8f858024 	lw	a1,-32732(gp)
  40b3e0:	8f868024 	lw	a2,-32732(gp)
  40b3e4:	2442ccc4 	addiu	v0,v0,-13116
  40b3e8:	8f998168 	lw	t9,-32408(gp)
  40b3ec:	24a5b4f4 	addiu	a1,a1,-19212
  40b3f0:	24c6c7e0 	addiu	a2,a2,-14368
  40b3f4:	0320f809 	jalr	t9
  40b3f8:	afa20010 	sw	v0,16(sp)
  40b3fc:	02203021 	move	a2,s1
  40b400:	8fbc0020 	lw	gp,32(sp)
  40b404:	02003821 	move	a3,s0
  40b408:	8e640000 	lw	a0,0(s3)
  40b40c:	8f858024 	lw	a1,-32732(gp)
  40b410:	8f998168 	lw	t9,-32408(gp)
  40b414:	0320f809 	jalr	t9
  40b418:	24a5c930 	addiu	a1,a1,-14032
  40b41c:	8fbc0020 	lw	gp,32(sp)
  40b420:	8e640000 	lw	a0,0(s3)
  40b424:	8f9981a4 	lw	t9,-32348(gp)
  40b428:	0320f809 	jalr	t9
  40b42c:	00000000 	nop
  40b430:	8fbc0020 	lw	gp,32(sp)
  40b434:	8f858024 	lw	a1,-32732(gp)
  40b438:	02203021 	move	a2,s1
[31m  40b43c:	8f99814c 	lw	t9,sprintf[0m
  40b440:	02003821 	move	a3,s0
  40b444:	8f848170 	lw	a0,-32400(gp)
--
  40cda8:	0399e021 	addu	gp,gp,t9
  40cdac:	27bdffd0 	addiu	sp,sp,-48
  40cdb0:	afbf002c 	sw	ra,44(sp)
  40cdb4:	afb00028 	sw	s0,40(sp)
  40cdb8:	afbc0020 	sw	gp,32(sp)
  40cdbc:	8f838018 	lw	v1,-32744(gp)
  40cdc0:	00801021 	move	v0,a0
  40cdc4:	8f858024 	lw	a1,-32732(gp)
  40cdc8:	2470f160 	addiu	s0,v1,-3744
  40cdcc:	ae000004 	sw	zero,4(s0)
  40cdd0:	02002021 	move	a0,s0
  40cdd4:	24a5cd80 	addiu	a1,a1,-12928
  40cdd8:	ae000008 	sw	zero,8(s0)
  40cddc:	ae00000c 	sw	zero,12(s0)
  40cde0:	ae000010 	sw	zero,16(s0)
  40cde4:	ae000014 	sw	zero,20(s0)
  40cde8:	ae000018 	sw	zero,24(s0)
  40cdec:	ae00001c 	sw	zero,28(s0)
  40cdf0:	ac60f160 	sw	zero,-3744(v1)
  40cdf4:	90430005 	lbu	v1,5(v0)
  40cdf8:	90460000 	lbu	a2,0(v0)
  40cdfc:	90470001 	lbu	a3,1(v0)
  40ce00:	90490002 	lbu	t1,2(v0)
  40ce04:	90480003 	lbu	t0,3(v0)
  40ce08:	90420004 	lbu	v0,4(v0)
[31m  40ce0c:	8f99814c 	lw	t9,sprintf[0m
  40ce10:	afa90010 	sw	t1,16(sp)
  40ce14:	afa80014 	sw	t0,20(sp)
--
  40cebc:	8fbc0020 	lw	gp,32(sp)
  40cec0:	1040000f 	beqz	v0,40cf00 <ether_print@@Base+0x160>
  40cec4:	27a3003a 	addiu	v1,sp,58
  40cec8:	8f848024 	lw	a0,-32732(gp)
  40cecc:	8f998180 	lw	t9,-32384(gp)
  40ced0:	2484cda8 	addiu	a0,a0,-12888
  40ced4:	ae40f180 	sw	zero,-3712(s2)
  40ced8:	ae000004 	sw	zero,4(s0)
  40cedc:	ae000008 	sw	zero,8(s0)
  40cee0:	0320f809 	jalr	t9
  40cee4:	ae00000c 	sw	zero,12(s0)
  40cee8:	8fbc0020 	lw	gp,32(sp)
  40ceec:	8f998218 	lw	t9,-32232(gp)
  40cef0:	0320f809 	jalr	t9
  40cef4:	02202021 	move	a0,s1
  40cef8:	8fbc0020 	lw	gp,32(sp)
  40cefc:	27a3003a 	addiu	v1,sp,58
  40cf00:	02002021 	move	a0,s0
  40cf04:	90650002 	lbu	a1,2(v1)
  40cf08:	90670001 	lbu	a3,1(v1)
  40cf0c:	90680003 	lbu	t0,3(v1)
  40cf10:	90620005 	lbu	v0,5(v1)
  40cf14:	90630004 	lbu	v1,4(v1)
  40cf18:	afa50010 	sw	a1,16(sp)
  40cf1c:	8f858024 	lw	a1,-32732(gp)
[31m  40cf20:	8f99814c 	lw	t9,sprintf[0m
  40cf24:	93a6003a 	lbu	a2,58(sp)
  40cf28:	24a5cdb0 	addiu	a1,a1,-12880
--
  40d484:	8fb10044 	lw	s1,68(sp)
  40d488:	8fb00040 	lw	s0,64(sp)
  40d48c:	03e00008 	jr	ra
  40d490:	27bd0058 	addiu	sp,sp,88
  40d494:	8f998218 	lw	t9,-32232(gp)
  40d498:	0320f809 	jalr	t9
  40d49c:	02402021 	move	a0,s2
  40d4a0:	1000ffed 	b	40d458 <get_if_ip@@Base+0x294>
  40d4a4:	00000000 	nop
	...
  40d4b0:	3c1c0003 	lui	gp,0x3
  40d4b4:	279c92e0 	addiu	gp,gp,-27936
  40d4b8:	0399e021 	addu	gp,gp,t9
  40d4bc:	27bdffe0 	addiu	sp,sp,-32
  40d4c0:	afbf001c 	sw	ra,28(sp)
  40d4c4:	afb00018 	sw	s0,24(sp)
  40d4c8:	afbc0010 	sw	gp,16(sp)
  40d4cc:	8f998250 	lw	t9,-32176(gp)
  40d4d0:	8f908018 	lw	s0,-32744(gp)
  40d4d4:	0320f809 	jalr	t9
  40d4d8:	00002021 	move	a0,zero
  40d4dc:	8fbc0010 	lw	gp,16(sp)
  40d4e0:	2604f190 	addiu	a0,s0,-3696
  40d4e4:	00403021 	move	a2,v0
  40d4e8:	8f858024 	lw	a1,-32732(gp)
[31m  40d4ec:	8f99814c 	lw	t9,sprintf[0m
  40d4f0:	0320f809 	jalr	t9
  40d4f4:	24a5ce20 	addiu	a1,a1,-12768
--
  40d504:	03e00008 	jr	ra
  40d508:	27bd0020 	addiu	sp,sp,32
  40d50c:	3c1c0003 	lui	gp,0x3
  40d510:	279c9284 	addiu	gp,gp,-28028
  40d514:	0399e021 	addu	gp,gp,t9
  40d518:	27bdffd0 	addiu	sp,sp,-48
  40d51c:	afbf002c 	sw	ra,44(sp)
  40d520:	afb00028 	sw	s0,40(sp)
  40d524:	afbc0018 	sw	gp,24(sp)
  40d528:	8f998250 	lw	t9,-32176(gp)
  40d52c:	8f908018 	lw	s0,-32744(gp)
  40d530:	0320f809 	jalr	t9
  40d534:	00002021 	move	a0,zero
  40d538:	27a40020 	addiu	a0,sp,32
  40d53c:	8fbc0018 	lw	gp,24(sp)
  40d540:	8f99821c 	lw	t9,-32228(gp)
  40d544:	0320f809 	jalr	t9
  40d548:	afa20020 	sw	v0,32(sp)
  40d54c:	2604f1a0 	addiu	a0,s0,-3680
  40d550:	8fbc0018 	lw	gp,24(sp)
  40d554:	8c43000c 	lw	v1,12(v0)
  40d558:	8c460014 	lw	a2,20(v0)
  40d55c:	8f858024 	lw	a1,-32732(gp)
  40d560:	8c470010 	lw	a3,16(v0)
  40d564:	24c6076c 	addiu	a2,a2,1900
[31m  40d568:	8f99814c 	lw	t9,sprintf[0m
  40d56c:	24a5ce24 	addiu	a1,a1,-12764
  40d570:	afa30010 	sw	v1,16(sp)
--
  40e804:	8e040000 	lw	a0,0(s0)
  40e808:	8f9981a4 	lw	t9,-32348(gp)
  40e80c:	0320f809 	jalr	t9
  40e810:	00000000 	nop
  40e814:	1000feeb 	b	40e3c4 <ConfParse@@Base+0x2d8>
  40e818:	02c01021 	move	v0,s6

0040e81c <ConfUpdate@@Base>:
  40e81c:	3c1c0002 	lui	gp,0x2
  40e820:	279c7f74 	addiu	gp,gp,32628
  40e824:	0399e021 	addu	gp,gp,t9
  40e828:	27bdfec0 	addiu	sp,sp,-320
  40e82c:	afbf013c 	sw	ra,316(sp)
  40e830:	afb60138 	sw	s6,312(sp)
  40e834:	afb50134 	sw	s5,308(sp)
  40e838:	afb40130 	sw	s4,304(sp)
  40e83c:	afb3012c 	sw	s3,300(sp)
  40e840:	afb20128 	sw	s2,296(sp)
  40e844:	afb10124 	sw	s1,292(sp)
  40e848:	afb00120 	sw	s0,288(sp)
  40e84c:	afbc0018 	sw	gp,24(sp)
  40e850:	00008021 	move	s0,zero
  40e854:	00a09821 	move	s3,a1
  40e858:	8f858024 	lw	a1,-32732(gp)
  40e85c:	27b10020 	addiu	s1,sp,32
[31m  40e860:	8f99814c 	lw	t9,sprintf[0m
  40e864:	0080a021 	move	s4,a0
  40e868:	24120005 	li	s2,5
--
0040ea88 <conf_read@@Base>:
  40ea88:	3c1c0002 	lui	gp,0x2
  40ea8c:	279c7d08 	addiu	gp,gp,32008
  40ea90:	0399e021 	addu	gp,gp,t9
  40ea94:	00802821 	move	a1,a0
  40ea98:	8f99832c 	lw	t9,-31956(gp)
  40ea9c:	8f848078 	lw	a0,-32648(gp)
  40eaa0:	03200008 	jr	t9
  40eaa4:	00000000 	nop
  40eaa8:	3c1c0002 	lui	gp,0x2
  40eaac:	279c7ce8 	addiu	gp,gp,31976
  40eab0:	0399e021 	addu	gp,gp,t9
  40eab4:	27bdfec0 	addiu	sp,sp,-320
  40eab8:	afbf013c 	sw	ra,316(sp)
  40eabc:	afb50138 	sw	s5,312(sp)
  40eac0:	afb40134 	sw	s4,308(sp)
  40eac4:	afb30130 	sw	s3,304(sp)
  40eac8:	afb2012c 	sw	s2,300(sp)
  40eacc:	afb10128 	sw	s1,296(sp)
  40ead0:	afb00124 	sw	s0,292(sp)
  40ead4:	afbc0018 	sw	gp,24(sp)
  40ead8:	00009021 	move	s2,zero
  40eadc:	00a0a021 	move	s4,a1
  40eae0:	8f858024 	lw	a1,-32732(gp)
  40eae4:	27b00020 	addiu	s0,sp,32
[31m  40eae8:	8f99814c 	lw	t9,sprintf[0m
  40eaec:	00808821 	move	s1,a0
  40eaf0:	24130005 	li	s3,5
--
  40fa88:	8e66000c 	lw	a2,12(s3)
  40fa8c:	8c450000 	lw	a1,0(v0)
  40fa90:	0320f809 	jalr	t9
  40fa94:	27a40034 	addiu	a0,sp,52
  40fa98:	8fa20034 	lw	v0,52(sp)
  40fa9c:	8fbc0018 	lw	gp,24(sp)
  40faa0:	10400330 	beqz	v0,410764 <https_proxy_post_timeout@@Base+0xef0>
  40faa4:	02202821 	move	a1,s1
  40faa8:	8f9983c0 	lw	t9,-31808(gp)
  40faac:	24060010 	li	a2,16
  40fab0:	0320f809 	jalr	t9
  40fab4:	02a02021 	move	a0,s5
  40fab8:	8fbc0018 	lw	gp,24(sp)
  40fabc:	14400297 	bnez	v0,41051c <https_proxy_post_timeout@@Base+0xca8>
  40fac0:	27b111c4 	addiu	s1,sp,4548
  40fac4:	8f9981a0 	lw	t9,-32352(gp)
  40fac8:	00002821 	move	a1,zero
  40facc:	02202021 	move	a0,s1
  40fad0:	0320f809 	jalr	t9
  40fad4:	24062800 	li	a2,10240
  40fad8:	02403821 	move	a3,s2
  40fadc:	8fbc0018 	lw	gp,24(sp)
  40fae0:	02202021 	move	a0,s1
  40fae4:	8fa63a1c 	lw	a2,14876(sp)
  40fae8:	8f858024 	lw	a1,-32732(gp)
[31m  40faec:	8f99814c 	lw	t9,sprintf[0m
  40faf0:	afa60010 	sw	a2,16(sp)
  40faf4:	0320f809 	jalr	t9
--
  410074:	8f848024 	lw	a0,-32732(gp)
  410078:	8f9983e0 	lw	t9,-31776(gp)
  41007c:	0320f809 	jalr	t9
  410080:	2484d1f4 	addiu	a0,a0,-11788
  410084:	8fbc0018 	lw	gp,24(sp)
  410088:	8e440000 	lw	a0,0(s2)
  41008c:	8f9981a4 	lw	t9,-32348(gp)
  410090:	0320f809 	jalr	t9
  410094:	00000000 	nop
  410098:	8fbc0018 	lw	gp,24(sp)
  41009c:	8f9981a0 	lw	t9,-32352(gp)
  4100a0:	27a201c0 	addiu	v0,sp,448
  4100a4:	02202021 	move	a0,s1
  4100a8:	00002821 	move	a1,zero
  4100ac:	24062800 	li	a2,10240
  4100b0:	0320f809 	jalr	t9
  4100b4:	afa239d4 	sw	v0,14804(sp)
  4100b8:	8fbc0018 	lw	gp,24(sp)
  4100bc:	8fa339d0 	lw	v1,14800(sp)
  4100c0:	8fa439e4 	lw	a0,14820(sp)
  4100c4:	8f858024 	lw	a1,-32732(gp)
  4100c8:	00643821 	addu	a3,v1,a0
  4100cc:	27a311c0 	addiu	v1,sp,4544
  4100d0:	02202021 	move	a0,s1
  4100d4:	8fa63a1c 	lw	a2,14876(sp)
[31m  4100d8:	8f99814c 	lw	t9,sprintf[0m
  4100dc:	afa339ec 	sw	v1,14828(sp)
  4100e0:	afa739e8 	sw	a3,14824(sp)
--
  411400:	8ec6000c 	lw	a2,12(s6)
  411404:	8c450000 	lw	a1,0(v0)
  411408:	0320f809 	jalr	t9
  41140c:	27a40028 	addiu	a0,sp,40
  411410:	8fa20028 	lw	v0,40(sp)
  411414:	8fbc0018 	lw	gp,24(sp)
  411418:	10400068 	beqz	v0,4115bc <write_buffer@@Base+0x610>
  41141c:	02e02821 	move	a1,s7
  411420:	8f9983c0 	lw	t9,-31808(gp)
  411424:	24060010 	li	a2,16
  411428:	0320f809 	jalr	t9
  41142c:	02402021 	move	a0,s2
  411430:	8fbc0018 	lw	gp,24(sp)
  411434:	14400081 	bnez	v0,41163c <write_buffer@@Base+0x690>
  411438:	00002821 	move	a1,zero
  41143c:	27b00234 	addiu	s0,sp,564
  411440:	8f9981a0 	lw	t9,-32352(gp)
  411444:	02002021 	move	a0,s0
  411448:	0320f809 	jalr	t9
  41144c:	24062800 	li	a2,10240
  411450:	02a03021 	move	a2,s5
  411454:	8fbc0018 	lw	gp,24(sp)
  411458:	02203821 	move	a3,s1
  41145c:	02002021 	move	a0,s0
  411460:	8f858024 	lw	a1,-32732(gp)
[31m  411464:	8f99814c 	lw	t9,sprintf[0m
  411468:	0320f809 	jalr	t9
  41146c:	24a5d2f0 	addiu	a1,a1,-11536

[0m
[[0;33m*[0m] Function [0;33msprintf[0m used [0;33m18[0m times [0;33mupnpc-ddns[0m

