[0m
[[0;33m*[0m] Function [0;33msystem[0m tear down of [0;33mwdatetime.cgi[0m

  40110c:	260418cc 	addiu	a0,s0,6348
  401110:	3c050040 	lui	a1,0x40
  401114:	24a518c0 	addiu	a1,a1,6336
  401118:	8f998038 	lw	t9,-32712(gp)
  40111c:	0320f809 	jalr	t9
  401120:	27a60170 	addiu	a2,sp,368
  401124:	8fbc0020 	lw	gp,32(sp)
  401128:	260418cc 	addiu	a0,s0,6348
  40112c:	3c050040 	lui	a1,0x40
  401130:	24a51900 	addiu	a1,a1,6400
  401134:	8f998038 	lw	t9,-32712(gp)
  401138:	0320f809 	jalr	t9
  40113c:	27a60168 	addiu	a2,sp,360
  401140:	8fbc0020 	lw	gp,32(sp)
  401144:	93a20168 	lbu	v0,360(sp)
  401148:	1440000f 	bnez	v0,401188 <_ftext@@Base+0x6d8>
  40114c:	3c050040 	lui	a1,0x40
  401150:	00002021 	move	a0,zero
  401154:	8fa50170 	lw	a1,368(sp)
  401158:	00003021 	move	a2,zero
  40115c:	8f998098 	lw	t9,-32616(gp)
  401160:	0320f809 	jalr	t9
  401164:	00003821 	move	a3,zero
  401168:	8fbc0020 	lw	gp,32(sp)
  40116c:	3c040040 	lui	a0,0x40
[31m  401170:	8f998084 	lw	t9,system[0m
  401174:	0320f809 	jalr	t9
  401178:	24841948 	addiu	a0,a0,6472
  40117c:	8fbc0020 	lw	gp,32(sp)
  401180:	1000009e 	b	4013fc <_ftext@@Base+0x94c>
  401184:	00000000 	nop
  401188:	a3a0016c 	sb	zero,364(sp)
  40118c:	3c040040 	lui	a0,0x40
  401190:	248418cc 	addiu	a0,a0,6348
  401194:	24a518f8 	addiu	a1,a1,6392
  401198:	8f998038 	lw	t9,-32712(gp)
  40119c:	0320f809 	jalr	t9
  4011a0:	27a6016c 	addiu	a2,sp,364
  4011a4:	8fbc0020 	lw	gp,32(sp)
  4011a8:	93a2016c 	lbu	v0,364(sp)
  4011ac:	1040000f 	beqz	v0,4011ec <_ftext@@Base+0x73c>
  4011b0:	3c100040 	lui	s0,0x40
  4011b4:	00002021 	move	a0,zero
  4011b8:	8fa50170 	lw	a1,368(sp)
  4011bc:	24060001 	li	a2,1
  4011c0:	8f998098 	lw	t9,-32616(gp)
  4011c4:	0320f809 	jalr	t9
  4011c8:	00003821 	move	a3,zero
  4011cc:	8fbc0020 	lw	gp,32(sp)
  4011d0:	3c040040 	lui	a0,0x40
[31m  4011d4:	8f998084 	lw	t9,system[0m
  4011d8:	0320f809 	jalr	t9
  4011dc:	24841948 	addiu	a0,a0,6472
--
  401388:	27a201f0 	addiu	v0,sp,496
  40138c:	afa20010 	sw	v0,16(sp)
  401390:	27a201f4 	addiu	v0,sp,500
  401394:	afa20014 	sw	v0,20(sp)
  401398:	27a201f8 	addiu	v0,sp,504
  40139c:	afa20018 	sw	v0,24(sp)
  4013a0:	27a2017c 	addiu	v0,sp,380
  4013a4:	afa2001c 	sw	v0,28(sp)
  4013a8:	27a401b0 	addiu	a0,sp,432
  4013ac:	02002821 	move	a1,s0
  4013b0:	27a601e8 	addiu	a2,sp,488
  4013b4:	8f99806c 	lw	t9,-32660(gp)
  4013b8:	0320f809 	jalr	t9
  4013bc:	27a701ec 	addiu	a3,sp,492
  4013c0:	8fbc0020 	lw	gp,32(sp)
  4013c4:	24030006 	li	v1,6
  4013c8:	14430050 	bne	v0,v1,40150c <_ftext@@Base+0xa5c>
  4013cc:	24060002 	li	a2,2
  4013d0:	00002021 	move	a0,zero
  4013d4:	8fa50170 	lw	a1,368(sp)
  4013d8:	8f998098 	lw	t9,-32616(gp)
  4013dc:	0320f809 	jalr	t9
  4013e0:	27a701d0 	addiu	a3,sp,464
  4013e4:	8fbc0020 	lw	gp,32(sp)
  4013e8:	3c040040 	lui	a0,0x40
[31m  4013ec:	8f998084 	lw	t9,system[0m
  4013f0:	0320f809 	jalr	t9
  4013f4:	24841948 	addiu	a0,a0,6472
  4013f8:	8fbc0020 	lw	gp,32(sp)
  4013fc:	8fa40214 	lw	a0,532(sp)
  401400:	1080001f 	beqz	a0,401480 <_ftext@@Base+0x9d0>
  401404:	24050001 	li	a1,1
  401408:	3c040040 	lui	a0,0x40
  40140c:	248419a8 	addiu	a0,a0,6568
  401410:	8f828050 	lw	v0,-32688(gp)
  401414:	8c470000 	lw	a3,0(v0)
  401418:	8f998048 	lw	t9,-32696(gp)
  40141c:	0320f809 	jalr	t9
  401420:	24060010 	li	a2,16
  401424:	8fbc0020 	lw	gp,32(sp)
  401428:	3c040040 	lui	a0,0x40
[31m  40142c:	8f998084 	lw	t9,system[0m
  401430:	0320f809 	jalr	t9
  401434:	248419bc 	addiu	a0,a0,6588
  401438:	8fbc0020 	lw	gp,32(sp)
  40143c:	3c040040 	lui	a0,0x40
[31m  401440:	8f998084 	lw	t9,system[0m
  401444:	0320f809 	jalr	t9
  401448:	248419f0 	addiu	a0,a0,6640
  40144c:	8fbc0020 	lw	gp,32(sp)
  401450:	3c040040 	lui	a0,0x40
[31m  401454:	8f998084 	lw	t9,system[0m
  401458:	0320f809 	jalr	t9
  40145c:	24841a30 	addiu	a0,a0,6704
  401460:	8fbc0020 	lw	gp,32(sp)
  401464:	8f998080 	lw	t9,-32640(gp)
  401468:	0320f809 	jalr	t9
  40146c:	24040008 	li	a0,8
  401470:	8fbc0020 	lw	gp,32(sp)
  401474:	10000010 	b	4014b8 <_ftext@@Base+0xa08>
  401478:	00000000 	nop
  40147c:	afa00220 	sw	zero,544(sp)
  401480:	3c040040 	lui	a0,0x40
  401484:	24841a64 	addiu	a0,a0,6756
  401488:	24050001 	li	a1,1
  40148c:	8f828050 	lw	v0,-32688(gp)
  401490:	8c470000 	lw	a3,0(v0)
  401494:	8f998048 	lw	t9,-32696(gp)
  401498:	0320f809 	jalr	t9
  40149c:	2406000f 	li	a2,15
  4014a0:	8fbc0020 	lw	gp,32(sp)
  4014a4:	3c040040 	lui	a0,0x40
[31m  4014a8:	8f998084 	lw	t9,system[0m
  4014ac:	0320f809 	jalr	t9
  4014b0:	248419bc 	addiu	a0,a0,6588
  4014b4:	8fbc0020 	lw	gp,32(sp)
  4014b8:	8fa20220 	lw	v0,544(sp)
  4014bc:	1040000b 	beqz	v0,4014ec <_ftext@@Base+0xa3c>
  4014c0:	27b00028 	addiu	s0,sp,40
  4014c4:	8f998088 	lw	t9,-32632(gp)
  4014c8:	0320f809 	jalr	t9
  4014cc:	27a40068 	addiu	a0,sp,104
  4014d0:	8fbc0020 	lw	gp,32(sp)
  4014d4:	3c040040 	lui	a0,0x40
[31m  4014d8:	8f998084 	lw	t9,system[0m
  4014dc:	0320f809 	jalr	t9
  4014e0:	24841948 	addiu	a0,a0,6472

[0m
[[0;33m*[0m] Function [0;33msystem[0m used [0;33m8[0m times [0;33mwdatetime.cgi[0m

