[0m
[[0;33m*[0m] Function [0;33mfprintf[0m tear down of [0;33mparam.cgi[0m

  401930:	02002021 	move	a0,s0
  401934:	8fbc0010 	lw	gp,16(sp)
  401938:	8f998134 	lw	t9,-32460(gp)
  40193c:	0320f809 	jalr	t9
  401940:	02002021 	move	a0,s0
  401944:	10000004 	b	401958 <_ftext@@Base+0x8f8>
  401948:	00000000 	nop
  40194c:	8f998110 	lw	t9,-32496(gp)
  401950:	0320f809 	jalr	t9
  401954:	2484ec10 	addiu	a0,a0,-5104
  401958:	8fbf0454 	lw	ra,1108(sp)
  40195c:	8fb40450 	lw	s4,1104(sp)
  401960:	8fb3044c 	lw	s3,1100(sp)
  401964:	8fb20448 	lw	s2,1096(sp)
  401968:	8fb10444 	lw	s1,1092(sp)
  40196c:	8fb00440 	lw	s0,1088(sp)
  401970:	03e00008 	jr	ra
  401974:	27bd0458 	addiu	sp,sp,1112
  401978:	27bdffe0 	addiu	sp,sp,-32
  40197c:	afbf001c 	sw	ra,28(sp)
  401980:	3c1c0044 	lui	gp,0x44
  401984:	279c9b90 	addiu	gp,gp,-25712
  401988:	afbc0010 	sw	gp,16(sp)
  40198c:	00a03021 	move	a2,a1
  401990:	3c050042 	lui	a1,0x42
[31m  401994:	8f9980e8 	lw	t9,fprintf[0m
  401998:	0320f809 	jalr	t9
  40199c:	24a5ec54 	addiu	a1,a1,-5036
--
  40eb54:	10400005 	beqz	v0,40eb6c <_ftext@@Base+0xdb0c>
  40eb58:	27b40030 	addiu	s4,sp,48
  40eb5c:	92620000 	lbu	v0,0(s3)
  40eb60:	1440001a 	bnez	v0,40ebcc <_ftext@@Base+0xdb6c>
  40eb64:	02002021 	move	a0,s0
  40eb68:	27b40030 	addiu	s4,sp,48
  40eb6c:	02802021 	move	a0,s4
  40eb70:	00002821 	move	a1,zero
  40eb74:	8f9980ac 	lw	t9,-32596(gp)
  40eb78:	0320f809 	jalr	t9
  40eb7c:	24060100 	li	a2,256
  40eb80:	8fbc0028 	lw	gp,40(sp)
  40eb84:	3c040042 	lui	a0,0x42
  40eb88:	2484ea8c 	addiu	a0,a0,-5492
  40eb8c:	3c050042 	lui	a1,0x42
  40eb90:	24a50160 	addiu	a1,a1,352
  40eb94:	8f998054 	lw	t9,-32684(gp)
  40eb98:	0320f809 	jalr	t9
  40eb9c:	02803021 	move	a2,s4
  40eba0:	8fbc0028 	lw	gp,40(sp)
  40eba4:	02202021 	move	a0,s1
  40eba8:	3c050042 	lui	a1,0x42
  40ebac:	24a5016c 	addiu	a1,a1,364
  40ebb0:	3c060042 	lui	a2,0x42
  40ebb4:	24c60158 	addiu	a2,a2,344
[31m  40ebb8:	8f9980e8 	lw	t9,fprintf[0m
  40ebbc:	0320f809 	jalr	t9
  40ebc0:	02803821 	move	a3,s4
--
  40ebe0:	10400004 	beqz	v0,40ebf4 <_ftext@@Base+0xdb94>
  40ebe4:	00000000 	nop
  40ebe8:	92620000 	lbu	v0,0(s3)
  40ebec:	1440001a 	bnez	v0,40ec58 <_ftext@@Base+0xdbf8>
  40ebf0:	02002021 	move	a0,s0
  40ebf4:	27b40030 	addiu	s4,sp,48
  40ebf8:	02802021 	move	a0,s4
  40ebfc:	00002821 	move	a1,zero
  40ec00:	8f9980ac 	lw	t9,-32596(gp)
  40ec04:	0320f809 	jalr	t9
  40ec08:	24060100 	li	a2,256
  40ec0c:	8fbc0028 	lw	gp,40(sp)
  40ec10:	3c040042 	lui	a0,0x42
  40ec14:	2484efe0 	addiu	a0,a0,-4128
  40ec18:	3c050042 	lui	a1,0x42
  40ec1c:	24a50184 	addiu	a1,a1,388
  40ec20:	8f998054 	lw	t9,-32684(gp)
  40ec24:	0320f809 	jalr	t9
  40ec28:	02803021 	move	a2,s4
  40ec2c:	8fbc0028 	lw	gp,40(sp)
  40ec30:	02202021 	move	a0,s1
  40ec34:	3c050042 	lui	a1,0x42
  40ec38:	24a5016c 	addiu	a1,a1,364
  40ec3c:	3c060042 	lui	a2,0x42
  40ec40:	24c60174 	addiu	a2,a2,372
[31m  40ec44:	8f9980e8 	lw	t9,fprintf[0m
  40ec48:	0320f809 	jalr	t9
  40ec4c:	02803821 	move	a3,s4
--
  40eca4:	27a60138 	addiu	a2,sp,312
  40eca8:	8fbc0028 	lw	gp,40(sp)
  40ecac:	2684f470 	addiu	a0,s4,-2960
  40ecb0:	3c050042 	lui	a1,0x42
  40ecb4:	24a501ac 	addiu	a1,a1,428
  40ecb8:	8f998054 	lw	t9,-32684(gp)
  40ecbc:	0320f809 	jalr	t9
  40ecc0:	27a6013c 	addiu	a2,sp,316
  40ecc4:	8fbc0028 	lw	gp,40(sp)
  40ecc8:	2684f470 	addiu	a0,s4,-2960
  40eccc:	3c050042 	lui	a1,0x42
  40ecd0:	24a501bc 	addiu	a1,a1,444
  40ecd4:	8f998054 	lw	t9,-32684(gp)
  40ecd8:	0320f809 	jalr	t9
  40ecdc:	27a60136 	addiu	a2,sp,310
  40ece0:	8fbc0028 	lw	gp,40(sp)
  40ece4:	97a70138 	lhu	a3,312(sp)
  40ece8:	97a2013c 	lhu	v0,316(sp)
  40ecec:	afa20010 	sw	v0,16(sp)
  40ecf0:	97a20136 	lhu	v0,310(sp)
  40ecf4:	afa20014 	sw	v0,20(sp)
  40ecf8:	02202021 	move	a0,s1
  40ecfc:	3c050042 	lui	a1,0x42
  40ed00:	24a501cc 	addiu	a1,a1,460
  40ed04:	3c060042 	lui	a2,0x42
[31m  40ed08:	8f9980e8 	lw	t9,fprintf[0m
  40ed0c:	0320f809 	jalr	t9
  40ed10:	24c60198 	addiu	a2,a2,408
--
  40ed30:	10400005 	beqz	v0,40ed48 <_ftext@@Base+0xdce8>
  40ed34:	27b40030 	addiu	s4,sp,48
  40ed38:	92620000 	lbu	v0,0(s3)
  40ed3c:	1440001a 	bnez	v0,40eda8 <_ftext@@Base+0xdd48>
  40ed40:	02002021 	move	a0,s0
  40ed44:	27b40030 	addiu	s4,sp,48
  40ed48:	02802021 	move	a0,s4
  40ed4c:	00002821 	move	a1,zero
  40ed50:	8f9980ac 	lw	t9,-32596(gp)
  40ed54:	0320f809 	jalr	t9
  40ed58:	24060100 	li	a2,256
  40ed5c:	8fbc0028 	lw	gp,40(sp)
  40ed60:	3c040042 	lui	a0,0x42
  40ed64:	2484efe0 	addiu	a0,a0,-4128
  40ed68:	3c050042 	lui	a1,0x42
  40ed6c:	24a50184 	addiu	a1,a1,388
  40ed70:	8f998054 	lw	t9,-32684(gp)
  40ed74:	0320f809 	jalr	t9
  40ed78:	02803021 	move	a2,s4
  40ed7c:	8fbc0028 	lw	gp,40(sp)
  40ed80:	02202021 	move	a0,s1
  40ed84:	3c050042 	lui	a1,0x42
  40ed88:	24a5016c 	addiu	a1,a1,364
  40ed8c:	3c060042 	lui	a2,0x42
  40ed90:	24c601dc 	addiu	a2,a2,476
[31m  40ed94:	8f9980e8 	lw	t9,fprintf[0m
  40ed98:	0320f809 	jalr	t9
  40ed9c:	02803821 	move	a3,s4
--
  40eda4:	02002021 	move	a0,s0
  40eda8:	3c050042 	lui	a1,0x42
  40edac:	8f99809c 	lw	t9,-32612(gp)
  40edb0:	0320f809 	jalr	t9
  40edb4:	24a501e8 	addiu	a1,a1,488
  40edb8:	8fbc0028 	lw	gp,40(sp)
  40edbc:	10400004 	beqz	v0,40edd0 <_ftext@@Base+0xdd70>
  40edc0:	00000000 	nop
  40edc4:	92620000 	lbu	v0,0(s3)
  40edc8:	14401daa 	bnez	v0,416474 <_ftext@@Base+0x15414>
  40edcc:	00000000 	nop
  40edd0:	afa00130 	sw	zero,304(sp)
  40edd4:	3c040042 	lui	a0,0x42
  40edd8:	2484ea8c 	addiu	a0,a0,-5492
  40eddc:	3c050042 	lui	a1,0x42
  40ede0:	24a501ec 	addiu	a1,a1,492
  40ede4:	8f998054 	lw	t9,-32684(gp)
  40ede8:	0320f809 	jalr	t9
  40edec:	27a60130 	addiu	a2,sp,304
  40edf0:	8fbc0028 	lw	gp,40(sp)
  40edf4:	02202021 	move	a0,s1
  40edf8:	3c050042 	lui	a1,0x42
  40edfc:	24a501f4 	addiu	a1,a1,500
  40ee00:	3c060042 	lui	a2,0x42
  40ee04:	8fa70130 	lw	a3,304(sp)
[31m  40ee08:	8f9980e8 	lw	t9,fprintf[0m
  40ee0c:	0320f809 	jalr	t9
  40ee10:	24c601e8 	addiu	a2,a2,488
--
  40ee68:	92020000 	lbu	v0,0(s0)
  40ee6c:	10400009 	beqz	v0,40ee94 <_ftext@@Base+0xde34>
  40ee70:	00000000 	nop
  40ee74:	02002021 	move	a0,s0
  40ee78:	3c050042 	lui	a1,0x42
  40ee7c:	8f99809c 	lw	t9,-32612(gp)
  40ee80:	0320f809 	jalr	t9
  40ee84:	24a5fd4c 	addiu	a1,a1,-692
  40ee88:	8fbc0028 	lw	gp,40(sp)
  40ee8c:	14400016 	bnez	v0,40eee8 <_ftext@@Base+0xde88>
  40ee90:	02002021 	move	a0,s0
  40ee94:	a3a00134 	sb	zero,308(sp)
  40ee98:	3c040042 	lui	a0,0x42
  40ee9c:	2484ea8c 	addiu	a0,a0,-5492
  40eea0:	3c050042 	lui	a1,0x42
  40eea4:	24a50218 	addiu	a1,a1,536
  40eea8:	8f998054 	lw	t9,-32684(gp)
  40eeac:	0320f809 	jalr	t9
  40eeb0:	27a60134 	addiu	a2,sp,308
  40eeb4:	8fbc0028 	lw	gp,40(sp)
  40eeb8:	02202021 	move	a0,s1
  40eebc:	3c050042 	lui	a1,0x42
  40eec0:	24a501f4 	addiu	a1,a1,500
  40eec4:	3c060042 	lui	a2,0x42
  40eec8:	93a70134 	lbu	a3,308(sp)
[31m  40eecc:	8f9980e8 	lw	t9,fprintf[0m
  40eed0:	0320f809 	jalr	t9
  40eed4:	24c6fd4c 	addiu	a2,a2,-692
  40eed8:	8fbc0028 	lw	gp,40(sp)
  40eedc:	92620000 	lbu	v0,0(s3)
  40eee0:	10400008 	beqz	v0,40ef04 <_ftext@@Base+0xdea4>
  40eee4:	02002021 	move	a0,s0
  40eee8:	3c050042 	lui	a1,0x42
  40eeec:	8f99809c 	lw	t9,-32612(gp)
  40eef0:	0320f809 	jalr	t9
  40eef4:	24a5fd54 	addiu	a1,a1,-684
  40eef8:	8fbc0028 	lw	gp,40(sp)
  40eefc:	14400015 	bnez	v0,40ef54 <_ftext@@Base+0xdef4>
  40ef00:	02002021 	move	a0,s0
  40ef04:	a3a00134 	sb	zero,308(sp)
  40ef08:	3c040042 	lui	a0,0x42
  40ef0c:	2484ea8c 	addiu	a0,a0,-5492
  40ef10:	3c140042 	lui	s4,0x42
  40ef14:	2685fd54 	addiu	a1,s4,-684
  40ef18:	8f998054 	lw	t9,-32684(gp)
  40ef1c:	0320f809 	jalr	t9
  40ef20:	27a60134 	addiu	a2,sp,308
  40ef24:	8fbc0028 	lw	gp,40(sp)
  40ef28:	02202021 	move	a0,s1
  40ef2c:	3c050042 	lui	a1,0x42
  40ef30:	24a501f4 	addiu	a1,a1,500
  40ef34:	93a70134 	lbu	a3,308(sp)
[31m  40ef38:	8f9980e8 	lw	t9,fprintf[0m
  40ef3c:	0320f809 	jalr	t9
  40ef40:	2686fd54 	addiu	a2,s4,-684
  40ef44:	8fbc0028 	lw	gp,40(sp)
  40ef48:	92620000 	lbu	v0,0(s3)
  40ef4c:	10400008 	beqz	v0,40ef70 <_ftext@@Base+0xdf10>
  40ef50:	02002021 	move	a0,s0
  40ef54:	3c050042 	lui	a1,0x42
  40ef58:	8f99809c 	lw	t9,-32612(gp)
  40ef5c:	0320f809 	jalr	t9
  40ef60:	24a50220 	addiu	a1,a1,544
  40ef64:	8fbc0028 	lw	gp,40(sp)
  40ef68:	14400015 	bnez	v0,40efc0 <_ftext@@Base+0xdf60>
  40ef6c:	02002021 	move	a0,s0
  40ef70:	a3a00134 	sb	zero,308(sp)
  40ef74:	3c040042 	lui	a0,0x42
  40ef78:	2484ea8c 	addiu	a0,a0,-5492
  40ef7c:	3c140042 	lui	s4,0x42
  40ef80:	26850220 	addiu	a1,s4,544
  40ef84:	8f998054 	lw	t9,-32684(gp)
  40ef88:	0320f809 	jalr	t9
  40ef8c:	27a60134 	addiu	a2,sp,308
  40ef90:	8fbc0028 	lw	gp,40(sp)
  40ef94:	02202021 	move	a0,s1
  40ef98:	3c050042 	lui	a1,0x42
  40ef9c:	24a501f4 	addiu	a1,a1,500
  40efa0:	93a70134 	lbu	a3,308(sp)
[31m  40efa4:	8f9980e8 	lw	t9,fprintf[0m
  40efa8:	0320f809 	jalr	t9
  40efac:	26860220 	addiu	a2,s4,544
  40efb0:	8fbc0028 	lw	gp,40(sp)
  40efb4:	92620000 	lbu	v0,0(s3)
  40efb8:	10400008 	beqz	v0,40efdc <_ftext@@Base+0xdf7c>
  40efbc:	02002021 	move	a0,s0
  40efc0:	3c050042 	lui	a1,0x42
  40efc4:	8f99809c 	lw	t9,-32612(gp)
  40efc8:	0320f809 	jalr	t9
  40efcc:	24a5eab8 	addiu	a1,a1,-5448
  40efd0:	8fbc0028 	lw	gp,40(sp)
  40efd4:	14400015 	bnez	v0,40f02c <_ftext@@Base+0xdfcc>
  40efd8:	02002021 	move	a0,s0
  40efdc:	a3a00134 	sb	zero,308(sp)
  40efe0:	3c040042 	lui	a0,0x42
  40efe4:	2484ea8c 	addiu	a0,a0,-5492
  40efe8:	3c140042 	lui	s4,0x42
  40efec:	2685eab8 	addiu	a1,s4,-5448
  40eff0:	8f998054 	lw	t9,-32684(gp)
  40eff4:	0320f809 	jalr	t9
  40eff8:	27a60134 	addiu	a2,sp,308
  40effc:	8fbc0028 	lw	gp,40(sp)
  40f000:	02202021 	move	a0,s1
  40f004:	3c050042 	lui	a1,0x42
  40f008:	24a501f4 	addiu	a1,a1,500
  40f00c:	93a70134 	lbu	a3,308(sp)
[31m  40f010:	8f9980e8 	lw	t9,fprintf[0m
  40f014:	0320f809 	jalr	t9
  40f018:	2686eab8 	addiu	a2,s4,-5448
  40f01c:	8fbc0028 	lw	gp,40(sp)
  40f020:	92620000 	lbu	v0,0(s3)
  40f024:	10400008 	beqz	v0,40f048 <_ftext@@Base+0xdfe8>
  40f028:	02002021 	move	a0,s0
  40f02c:	3c050042 	lui	a1,0x42
  40f030:	8f99809c 	lw	t9,-32612(gp)
  40f034:	0320f809 	jalr	t9
  40f038:	24a5eac0 	addiu	a1,a1,-5440
  40f03c:	8fbc0028 	lw	gp,40(sp)
  40f040:	14400015 	bnez	v0,40f098 <_ftext@@Base+0xe038>
  40f044:	02002021 	move	a0,s0
  40f048:	a3a00134 	sb	zero,308(sp)
  40f04c:	3c040042 	lui	a0,0x42
  40f050:	2484ea8c 	addiu	a0,a0,-5492
  40f054:	3c140042 	lui	s4,0x42
  40f058:	2685eac0 	addiu	a1,s4,-5440
  40f05c:	8f998054 	lw	t9,-32684(gp)
  40f060:	0320f809 	jalr	t9
  40f064:	27a60134 	addiu	a2,sp,308
  40f068:	8fbc0028 	lw	gp,40(sp)
  40f06c:	02202021 	move	a0,s1
  40f070:	3c050042 	lui	a1,0x42
  40f074:	24a501f4 	addiu	a1,a1,500
  40f078:	93a70134 	lbu	a3,308(sp)
[31m  40f07c:	8f9980e8 	lw	t9,fprintf[0m
  40f080:	0320f809 	jalr	t9
  40f084:	2686eac0 	addiu	a2,s4,-5440
  40f088:	8fbc0028 	lw	gp,40(sp)
  40f08c:	92620000 	lbu	v0,0(s3)
  40f090:	10400008 	beqz	v0,40f0b4 <_ftext@@Base+0xe054>
  40f094:	02002021 	move	a0,s0
  40f098:	3c050042 	lui	a1,0x42
  40f09c:	8f99809c 	lw	t9,-32612(gp)
  40f0a0:	0320f809 	jalr	t9
  40f0a4:	24a5eab4 	addiu	a1,a1,-5452
  40f0a8:	8fbc0028 	lw	gp,40(sp)
  40f0ac:	14400015 	bnez	v0,40f104 <_ftext@@Base+0xe0a4>
  40f0b0:	02002021 	move	a0,s0
  40f0b4:	a3a00134 	sb	zero,308(sp)
  40f0b8:	3c040042 	lui	a0,0x42
  40f0bc:	2484ea8c 	addiu	a0,a0,-5492
  40f0c0:	3c140042 	lui	s4,0x42
  40f0c4:	2685eab4 	addiu	a1,s4,-5452
  40f0c8:	8f998054 	lw	t9,-32684(gp)
  40f0cc:	0320f809 	jalr	t9
  40f0d0:	27a60134 	addiu	a2,sp,308
  40f0d4:	8fbc0028 	lw	gp,40(sp)
  40f0d8:	02202021 	move	a0,s1
  40f0dc:	3c050042 	lui	a1,0x42
  40f0e0:	24a501f4 	addiu	a1,a1,500
  40f0e4:	93a70134 	lbu	a3,308(sp)
[31m  40f0e8:	8f9980e8 	lw	t9,fprintf[0m
  40f0ec:	0320f809 	jalr	t9
  40f0f0:	2686eab4 	addiu	a2,s4,-5452
  40f0f4:	8fbc0028 	lw	gp,40(sp)
  40f0f8:	92620000 	lbu	v0,0(s3)
  40f0fc:	10400008 	beqz	v0,40f120 <_ftext@@Base+0xe0c0>
  40f100:	02002021 	move	a0,s0
  40f104:	3c050042 	lui	a1,0x42
  40f108:	8f99809c 	lw	t9,-32612(gp)
  40f10c:	0320f809 	jalr	t9
  40f110:	24a50228 	addiu	a1,a1,552
  40f114:	8fbc0028 	lw	gp,40(sp)
  40f118:	14400015 	bnez	v0,40f170 <_ftext@@Base+0xe110>
  40f11c:	02002021 	move	a0,s0
  40f120:	a3a00134 	sb	zero,308(sp)
  40f124:	3c040042 	lui	a0,0x42
  40f128:	2484ea8c 	addiu	a0,a0,-5492
  40f12c:	3c140042 	lui	s4,0x42
  40f130:	26850228 	addiu	a1,s4,552
  40f134:	8f998054 	lw	t9,-32684(gp)
  40f138:	0320f809 	jalr	t9
  40f13c:	27a60134 	addiu	a2,sp,308
  40f140:	8fbc0028 	lw	gp,40(sp)
  40f144:	02202021 	move	a0,s1
  40f148:	3c050042 	lui	a1,0x42
  40f14c:	24a501f4 	addiu	a1,a1,500
  40f150:	93a70134 	lbu	a3,308(sp)
[31m  40f154:	8f9980e8 	lw	t9,fprintf[0m
  40f158:	0320f809 	jalr	t9
  40f15c:	26860228 	addiu	a2,s4,552
  40f160:	8fbc0028 	lw	gp,40(sp)
  40f164:	92620000 	lbu	v0,0(s3)
  40f168:	10400008 	beqz	v0,40f18c <_ftext@@Base+0xe12c>
  40f16c:	02002021 	move	a0,s0
  40f170:	3c050042 	lui	a1,0x42
  40f174:	8f99809c 	lw	t9,-32612(gp)
  40f178:	0320f809 	jalr	t9
  40f17c:	24a50230 	addiu	a1,a1,560
  40f180:	8fbc0028 	lw	gp,40(sp)
  40f184:	14400016 	bnez	v0,40f1e0 <_ftext@@Base+0xe180>
  40f188:	02002021 	move	a0,s0
  40f18c:	a3a00134 	sb	zero,308(sp)
  40f190:	3c040042 	lui	a0,0x42
  40f194:	2484ea8c 	addiu	a0,a0,-5492
  40f198:	3c050042 	lui	a1,0x42
  40f19c:	24a5023c 	addiu	a1,a1,572
  40f1a0:	8f998054 	lw	t9,-32684(gp)
  40f1a4:	0320f809 	jalr	t9
  40f1a8:	27a60134 	addiu	a2,sp,308
  40f1ac:	8fbc0028 	lw	gp,40(sp)
  40f1b0:	02202021 	move	a0,s1
  40f1b4:	3c050042 	lui	a1,0x42
  40f1b8:	24a501f4 	addiu	a1,a1,500
  40f1bc:	3c060042 	lui	a2,0x42
  40f1c0:	93a70134 	lbu	a3,308(sp)
[31m  40f1c4:	8f9980e8 	lw	t9,fprintf[0m
  40f1c8:	0320f809 	jalr	t9
  40f1cc:	24c60230 	addiu	a2,a2,560
  40f1d0:	8fbc0028 	lw	gp,40(sp)
  40f1d4:	92620000 	lbu	v0,0(s3)
  40f1d8:	10400008 	beqz	v0,40f1fc <_ftext@@Base+0xe19c>
  40f1dc:	02002021 	move	a0,s0
  40f1e0:	3c050042 	lui	a1,0x42
  40f1e4:	8f99809c 	lw	t9,-32612(gp)
  40f1e8:	0320f809 	jalr	t9
  40f1ec:	24a5eadc 	addiu	a1,a1,-5412
  40f1f0:	8fbc0028 	lw	gp,40(sp)
  40f1f4:	14400015 	bnez	v0,40f24c <_ftext@@Base+0xe1ec>
  40f1f8:	02002021 	move	a0,s0
  40f1fc:	a3a00134 	sb	zero,308(sp)
  40f200:	3c040042 	lui	a0,0x42
  40f204:	2484ea8c 	addiu	a0,a0,-5492
  40f208:	3c140042 	lui	s4,0x42
  40f20c:	2685eadc 	addiu	a1,s4,-5412
  40f210:	8f998054 	lw	t9,-32684(gp)
  40f214:	0320f809 	jalr	t9
  40f218:	27a60134 	addiu	a2,sp,308
  40f21c:	8fbc0028 	lw	gp,40(sp)
  40f220:	02202021 	move	a0,s1
  40f224:	3c050042 	lui	a1,0x42
  40f228:	24a501f4 	addiu	a1,a1,500
  40f22c:	93a70134 	lbu	a3,308(sp)
[31m  40f230:	8f9980e8 	lw	t9,fprintf[0m
  40f234:	0320f809 	jalr	t9
  40f238:	2686eadc 	addiu	a2,s4,-5412
  40f23c:	8fbc0028 	lw	gp,40(sp)
  40f240:	92620000 	lbu	v0,0(s3)
  40f244:	10400008 	beqz	v0,40f268 <_ftext@@Base+0xe208>
  40f248:	02002021 	move	a0,s0
  40f24c:	3c050042 	lui	a1,0x42
  40f250:	8f99809c 	lw	t9,-32612(gp)
  40f254:	0320f809 	jalr	t9
  40f258:	24a50244 	addiu	a1,a1,580
  40f25c:	8fbc0028 	lw	gp,40(sp)
  40f260:	14400016 	bnez	v0,40f2bc <_ftext@@Base+0xe25c>
  40f264:	02002021 	move	a0,s0
  40f268:	a3a00134 	sb	zero,308(sp)
  40f26c:	3c040042 	lui	a0,0x42
  40f270:	2484ea8c 	addiu	a0,a0,-5492
  40f274:	3c050042 	lui	a1,0x42
  40f278:	24a5ead4 	addiu	a1,a1,-5420
  40f27c:	8f998054 	lw	t9,-32684(gp)
  40f280:	0320f809 	jalr	t9
  40f284:	27a60134 	addiu	a2,sp,308
  40f288:	8fbc0028 	lw	gp,40(sp)
  40f28c:	02202021 	move	a0,s1
  40f290:	3c050042 	lui	a1,0x42
  40f294:	24a501f4 	addiu	a1,a1,500
  40f298:	3c060042 	lui	a2,0x42
  40f29c:	93a70134 	lbu	a3,308(sp)
[31m  40f2a0:	8f9980e8 	lw	t9,fprintf[0m
  40f2a4:	0320f809 	jalr	t9
  40f2a8:	24c60244 	addiu	a2,a2,580
  40f2ac:	8fbc0028 	lw	gp,40(sp)
  40f2b0:	92620000 	lbu	v0,0(s3)
  40f2b4:	10400008 	beqz	v0,40f2d8 <_ftext@@Base+0xe278>
  40f2b8:	02002021 	move	a0,s0
  40f2bc:	3c050042 	lui	a1,0x42
  40f2c0:	8f99809c 	lw	t9,-32612(gp)
  40f2c4:	0320f809 	jalr	t9
  40f2c8:	24a50248 	addiu	a1,a1,584
  40f2cc:	8fbc0028 	lw	gp,40(sp)
  40f2d0:	14400015 	bnez	v0,40f328 <_ftext@@Base+0xe2c8>
  40f2d4:	02002021 	move	a0,s0
  40f2d8:	a3a00134 	sb	zero,308(sp)
  40f2dc:	3c040042 	lui	a0,0x42
  40f2e0:	2484ea8c 	addiu	a0,a0,-5492
  40f2e4:	3c140042 	lui	s4,0x42
  40f2e8:	26850248 	addiu	a1,s4,584
  40f2ec:	8f998054 	lw	t9,-32684(gp)
  40f2f0:	0320f809 	jalr	t9
  40f2f4:	27a60134 	addiu	a2,sp,308
  40f2f8:	8fbc0028 	lw	gp,40(sp)
  40f2fc:	02202021 	move	a0,s1
  40f300:	3c050042 	lui	a1,0x42
  40f304:	24a501f4 	addiu	a1,a1,500
  40f308:	93a70134 	lbu	a3,308(sp)
[31m  40f30c:	8f9980e8 	lw	t9,fprintf[0m
  40f310:	0320f809 	jalr	t9
  40f314:	26860248 	addiu	a2,s4,584
  40f318:	8fbc0028 	lw	gp,40(sp)
  40f31c:	92620000 	lbu	v0,0(s3)
  40f320:	10400008 	beqz	v0,40f344 <_ftext@@Base+0xe2e4>
  40f324:	02002021 	move	a0,s0
  40f328:	3c050042 	lui	a1,0x42
  40f32c:	8f99809c 	lw	t9,-32612(gp)
  40f330:	0320f809 	jalr	t9
  40f334:	24a5ec74 	addiu	a1,a1,-5004
  40f338:	8fbc0028 	lw	gp,40(sp)
  40f33c:	14400015 	bnez	v0,40f394 <_ftext@@Base+0xe334>
  40f340:	02002021 	move	a0,s0
  40f344:	a3a00134 	sb	zero,308(sp)
  40f348:	3c040042 	lui	a0,0x42
  40f34c:	2484ea8c 	addiu	a0,a0,-5492
  40f350:	3c140042 	lui	s4,0x42
  40f354:	2685ec74 	addiu	a1,s4,-5004
  40f358:	8f998054 	lw	t9,-32684(gp)
  40f35c:	0320f809 	jalr	t9
  40f360:	27a60134 	addiu	a2,sp,308
  40f364:	8fbc0028 	lw	gp,40(sp)
  40f368:	02202021 	move	a0,s1
  40f36c:	3c050042 	lui	a1,0x42
  40f370:	24a501f4 	addiu	a1,a1,500
  40f374:	93a70134 	lbu	a3,308(sp)
[31m  40f378:	8f9980e8 	lw	t9,fprintf[0m
  40f37c:	0320f809 	jalr	t9
  40f380:	2686ec74 	addiu	a2,s4,-5004
  40f384:	8fbc0028 	lw	gp,40(sp)
  40f388:	92620000 	lbu	v0,0(s3)
  40f38c:	10400008 	beqz	v0,40f3b0 <_ftext@@Base+0xe350>
  40f390:	02002021 	move	a0,s0
  40f394:	3c050042 	lui	a1,0x42
  40f398:	8f99809c 	lw	t9,-32612(gp)
  40f39c:	0320f809 	jalr	t9
  40f3a0:	24a5eaac 	addiu	a1,a1,-5460
  40f3a4:	8fbc0028 	lw	gp,40(sp)
  40f3a8:	14400015 	bnez	v0,40f400 <_ftext@@Base+0xe3a0>
  40f3ac:	02002021 	move	a0,s0
  40f3b0:	a3a00134 	sb	zero,308(sp)
  40f3b4:	3c040042 	lui	a0,0x42
  40f3b8:	2484ea8c 	addiu	a0,a0,-5492
  40f3bc:	3c140042 	lui	s4,0x42
  40f3c0:	2685eaac 	addiu	a1,s4,-5460
  40f3c4:	8f998054 	lw	t9,-32684(gp)
  40f3c8:	0320f809 	jalr	t9
  40f3cc:	27a60134 	addiu	a2,sp,308
  40f3d0:	8fbc0028 	lw	gp,40(sp)
  40f3d4:	02202021 	move	a0,s1
  40f3d8:	3c050042 	lui	a1,0x42
  40f3dc:	24a501f4 	addiu	a1,a1,500
  40f3e0:	93a70134 	lbu	a3,308(sp)
[31m  40f3e4:	8f9980e8 	lw	t9,fprintf[0m
  40f3e8:	0320f809 	jalr	t9
  40f3ec:	2686eaac 	addiu	a2,s4,-5460
  40f3f0:	8fbc0028 	lw	gp,40(sp)
  40f3f4:	92620000 	lbu	v0,0(s3)
  40f3f8:	10400008 	beqz	v0,40f41c <_ftext@@Base+0xe3bc>
  40f3fc:	02002021 	move	a0,s0
  40f400:	3c050042 	lui	a1,0x42
  40f404:	8f99809c 	lw	t9,-32612(gp)
  40f408:	0320f809 	jalr	t9
  40f40c:	24a5ea94 	addiu	a1,a1,-5484
  40f410:	8fbc0028 	lw	gp,40(sp)
  40f414:	14400015 	bnez	v0,40f46c <_ftext@@Base+0xe40c>
  40f418:	02002021 	move	a0,s0
  40f41c:	afa00130 	sw	zero,304(sp)
  40f420:	3c040042 	lui	a0,0x42
  40f424:	2484ea8c 	addiu	a0,a0,-5492
  40f428:	3c140042 	lui	s4,0x42
  40f42c:	2685ea94 	addiu	a1,s4,-5484
  40f430:	8f998054 	lw	t9,-32684(gp)
  40f434:	0320f809 	jalr	t9
  40f438:	27a60130 	addiu	a2,sp,304
  40f43c:	8fbc0028 	lw	gp,40(sp)
  40f440:	02202021 	move	a0,s1
  40f444:	3c050042 	lui	a1,0x42
  40f448:	24a501f4 	addiu	a1,a1,500
  40f44c:	8fa70130 	lw	a3,304(sp)
[31m  40f450:	8f9980e8 	lw	t9,fprintf[0m
  40f454:	0320f809 	jalr	t9
  40f458:	2686ea94 	addiu	a2,s4,-5484
  40f45c:	8fbc0028 	lw	gp,40(sp)
  40f460:	92620000 	lbu	v0,0(s3)
  40f464:	10400008 	beqz	v0,40f488 <_ftext@@Base+0xe428>
  40f468:	02002021 	move	a0,s0
  40f46c:	3c050042 	lui	a1,0x42
  40f470:	8f99809c 	lw	t9,-32612(gp)
  40f474:	0320f809 	jalr	t9
  40f478:	24a5eaa0 	addiu	a1,a1,-5472
  40f47c:	8fbc0028 	lw	gp,40(sp)
  40f480:	14400015 	bnez	v0,40f4d8 <_ftext@@Base+0xe478>
  40f484:	02002021 	move	a0,s0
  40f488:	afa00130 	sw	zero,304(sp)
  40f48c:	3c040042 	lui	a0,0x42
  40f490:	2484ea8c 	addiu	a0,a0,-5492
  40f494:	3c140042 	lui	s4,0x42
  40f498:	2685eaa0 	addiu	a1,s4,-5472
  40f49c:	8f998054 	lw	t9,-32684(gp)
  40f4a0:	0320f809 	jalr	t9
  40f4a4:	27a60130 	addiu	a2,sp,304
  40f4a8:	8fbc0028 	lw	gp,40(sp)
  40f4ac:	02202021 	move	a0,s1
  40f4b0:	3c050042 	lui	a1,0x42
  40f4b4:	24a501f4 	addiu	a1,a1,500
  40f4b8:	8fa70130 	lw	a3,304(sp)
[31m  40f4bc:	8f9980e8 	lw	t9,fprintf[0m
  40f4c0:	0320f809 	jalr	t9
  40f4c4:	2686eaa0 	addiu	a2,s4,-5472
  40f4c8:	8fbc0028 	lw	gp,40(sp)
  40f4cc:	92620000 	lbu	v0,0(s3)
  40f4d0:	10400008 	beqz	v0,40f4f4 <_ftext@@Base+0xe494>
  40f4d4:	02002021 	move	a0,s0
  40f4d8:	3c050042 	lui	a1,0x42
  40f4dc:	8f99809c 	lw	t9,-32612(gp)
  40f4e0:	0320f809 	jalr	t9
  40f4e4:	24a50250 	addiu	a1,a1,592
  40f4e8:	8fbc0028 	lw	gp,40(sp)
  40f4ec:	14400015 	bnez	v0,40f544 <_ftext@@Base+0xe4e4>
  40f4f0:	02002021 	move	a0,s0
  40f4f4:	a3a00134 	sb	zero,308(sp)
  40f4f8:	3c040042 	lui	a0,0x42
  40f4fc:	2484ea8c 	addiu	a0,a0,-5492
  40f500:	3c140042 	lui	s4,0x42
  40f504:	26850250 	addiu	a1,s4,592
  40f508:	8f998054 	lw	t9,-32684(gp)
  40f50c:	0320f809 	jalr	t9
  40f510:	27a60134 	addiu	a2,sp,308
  40f514:	8fbc0028 	lw	gp,40(sp)
  40f518:	02202021 	move	a0,s1
  40f51c:	3c050042 	lui	a1,0x42
  40f520:	24a501f4 	addiu	a1,a1,500
  40f524:	93a70134 	lbu	a3,308(sp)
[31m  40f528:	8f9980e8 	lw	t9,fprintf[0m
  40f52c:	0320f809 	jalr	t9
  40f530:	26860250 	addiu	a2,s4,592
  40f534:	8fbc0028 	lw	gp,40(sp)
  40f538:	92620000 	lbu	v0,0(s3)
  40f53c:	10400008 	beqz	v0,40f560 <_ftext@@Base+0xe500>
  40f540:	02002021 	move	a0,s0
  40f544:	3c050042 	lui	a1,0x42
  40f548:	8f99809c 	lw	t9,-32612(gp)
  40f54c:	0320f809 	jalr	t9
  40f550:	24a5eaec 	addiu	a1,a1,-5396
  40f554:	8fbc0028 	lw	gp,40(sp)
  40f558:	14400015 	bnez	v0,40f5b0 <_ftext@@Base+0xe550>
  40f55c:	02002021 	move	a0,s0
  40f560:	a3a00134 	sb	zero,308(sp)
  40f564:	3c040042 	lui	a0,0x42
  40f568:	2484ea8c 	addiu	a0,a0,-5492
  40f56c:	3c140042 	lui	s4,0x42
  40f570:	2685eaec 	addiu	a1,s4,-5396
  40f574:	8f998054 	lw	t9,-32684(gp)
  40f578:	0320f809 	jalr	t9
  40f57c:	27a60134 	addiu	a2,sp,308
  40f580:	8fbc0028 	lw	gp,40(sp)
  40f584:	02202021 	move	a0,s1
  40f588:	3c050042 	lui	a1,0x42
  40f58c:	24a501f4 	addiu	a1,a1,500
  40f590:	93a70134 	lbu	a3,308(sp)
[31m  40f594:	8f9980e8 	lw	t9,fprintf[0m
  40f598:	0320f809 	jalr	t9
  40f59c:	2686eaec 	addiu	a2,s4,-5396
  40f5a0:	8fbc0028 	lw	gp,40(sp)
  40f5a4:	92620000 	lbu	v0,0(s3)
  40f5a8:	10400008 	beqz	v0,40f5cc <_ftext@@Base+0xe56c>
  40f5ac:	02002021 	move	a0,s0
  40f5b0:	3c050042 	lui	a1,0x42
  40f5b4:	8f99809c 	lw	t9,-32612(gp)
  40f5b8:	0320f809 	jalr	t9
  40f5bc:	24a50260 	addiu	a1,a1,608
  40f5c0:	8fbc0028 	lw	gp,40(sp)
  40f5c4:	14400017 	bnez	v0,40f624 <_ftext@@Base+0xe5c4>
  40f5c8:	02002021 	move	a0,s0
  40f5cc:	a3a00134 	sb	zero,308(sp)
  40f5d0:	3c040042 	lui	a0,0x42
  40f5d4:	2484ea8c 	addiu	a0,a0,-5492
  40f5d8:	3c050042 	lui	a1,0x42
  40f5dc:	24a5eae8 	addiu	a1,a1,-5400
  40f5e0:	8f998054 	lw	t9,-32684(gp)
  40f5e4:	0320f809 	jalr	t9
  40f5e8:	27a60134 	addiu	a2,sp,308
  40f5ec:	8fbc0028 	lw	gp,40(sp)
  40f5f0:	02202021 	move	a0,s1
  40f5f4:	3c050042 	lui	a1,0x42
  40f5f8:	24a501f4 	addiu	a1,a1,500
  40f5fc:	3c060042 	lui	a2,0x42
  40f600:	93a70134 	lbu	a3,308(sp)
[31m  40f604:	8f9980e8 	lw	t9,fprintf[0m
  40f608:	0320f809 	jalr	t9
  40f60c:	24c60260 	addiu	a2,a2,608
  40f610:	8fbc0028 	lw	gp,40(sp)
  40f614:	92620000 	lbu	v0,0(s3)
  40f618:	10400009 	beqz	v0,40f640 <_ftext@@Base+0xe5e0>
  40f61c:	00000000 	nop
  40f620:	02002021 	move	a0,s0
  40f624:	3c050042 	lui	a1,0x42
  40f628:	8f99809c 	lw	t9,-32612(gp)
  40f62c:	0320f809 	jalr	t9
  40f630:	24a5eafc 	addiu	a1,a1,-5380
  40f634:	8fbc0028 	lw	gp,40(sp)
  40f638:	14401b8e 	bnez	v0,416474 <_ftext@@Base+0x15414>
  40f63c:	00000000 	nop
  40f640:	a3a00134 	sb	zero,308(sp)
  40f644:	3c040042 	lui	a0,0x42
  40f648:	2484ea8c 	addiu	a0,a0,-5492
  40f64c:	3c130042 	lui	s3,0x42
  40f650:	2665eafc 	addiu	a1,s3,-5380
  40f654:	8f998054 	lw	t9,-32684(gp)
  40f658:	0320f809 	jalr	t9
  40f65c:	27a60134 	addiu	a2,sp,308
  40f660:	8fbc0028 	lw	gp,40(sp)
  40f664:	02202021 	move	a0,s1
  40f668:	3c050042 	lui	a1,0x42
  40f66c:	24a501f4 	addiu	a1,a1,500
  40f670:	93a70134 	lbu	a3,308(sp)
[31m  40f674:	8f9980e8 	lw	t9,fprintf[0m
  40f678:	0320f809 	jalr	t9
  40f67c:	2666eafc 	addiu	a2,s3,-5380
--
  40f6ec:	0320f809 	jalr	t9
  40f6f0:	24a5ee18 	addiu	a1,a1,-4584
  40f6f4:	8fbc0028 	lw	gp,40(sp)
  40f6f8:	1440001c 	bnez	v0,40f76c <_ftext@@Base+0xe70c>
  40f6fc:	02002021 	move	a0,s0
  40f700:	27b40030 	addiu	s4,sp,48
  40f704:	02802021 	move	a0,s4
  40f708:	00002821 	move	a1,zero
  40f70c:	8f9980ac 	lw	t9,-32596(gp)
  40f710:	0320f809 	jalr	t9
  40f714:	24060100 	li	a2,256
  40f718:	8fbc0028 	lw	gp,40(sp)
  40f71c:	3c040042 	lui	a0,0x42
  40f720:	2484ee24 	addiu	a0,a0,-4572
  40f724:	3c050042 	lui	a1,0x42
  40f728:	24a5ee30 	addiu	a1,a1,-4560
  40f72c:	8f998054 	lw	t9,-32684(gp)
  40f730:	0320f809 	jalr	t9
  40f734:	02803021 	move	a2,s4
  40f738:	8fbc0028 	lw	gp,40(sp)
  40f73c:	02202021 	move	a0,s1
  40f740:	3c050042 	lui	a1,0x42
  40f744:	24a5016c 	addiu	a1,a1,364
  40f748:	3c060042 	lui	a2,0x42
  40f74c:	24c6ee18 	addiu	a2,a2,-4584
[31m  40f750:	8f9980e8 	lw	t9,fprintf[0m
  40f754:	0320f809 	jalr	t9
  40f758:	02803821 	move	a3,s4
--
  40f774:	0320f809 	jalr	t9
  40f778:	24a5ee3c 	addiu	a1,a1,-4548
  40f77c:	8fbc0028 	lw	gp,40(sp)
  40f780:	1440001c 	bnez	v0,40f7f4 <_ftext@@Base+0xe794>
  40f784:	02002021 	move	a0,s0
  40f788:	27b40030 	addiu	s4,sp,48
  40f78c:	02802021 	move	a0,s4
  40f790:	00002821 	move	a1,zero
  40f794:	8f9980ac 	lw	t9,-32596(gp)
  40f798:	0320f809 	jalr	t9
  40f79c:	24060100 	li	a2,256
  40f7a0:	8fbc0028 	lw	gp,40(sp)
  40f7a4:	3c040042 	lui	a0,0x42
  40f7a8:	2484ee24 	addiu	a0,a0,-4572
  40f7ac:	3c050042 	lui	a1,0x42
  40f7b0:	24a5ee68 	addiu	a1,a1,-4504
  40f7b4:	8f998054 	lw	t9,-32684(gp)
  40f7b8:	0320f809 	jalr	t9
  40f7bc:	02803021 	move	a2,s4
  40f7c0:	8fbc0028 	lw	gp,40(sp)
  40f7c4:	02202021 	move	a0,s1
  40f7c8:	3c050042 	lui	a1,0x42
  40f7cc:	24a5016c 	addiu	a1,a1,364
  40f7d0:	3c060042 	lui	a2,0x42
  40f7d4:	24c6ee3c 	addiu	a2,a2,-4548
[31m  40f7d8:	8f9980e8 	lw	t9,fprintf[0m
  40f7dc:	0320f809 	jalr	t9
  40f7e0:	02803821 	move	a3,s4
--
  40f7f0:	02002021 	move	a0,s0
  40f7f4:	3c050042 	lui	a1,0x42
  40f7f8:	8f99809c 	lw	t9,-32612(gp)
  40f7fc:	0320f809 	jalr	t9
  40f800:	24a5ee74 	addiu	a1,a1,-4492
  40f804:	8fbc0028 	lw	gp,40(sp)
  40f808:	14400024 	bnez	v0,40f89c <_ftext@@Base+0xe83c>
  40f80c:	02002021 	move	a0,s0
  40f810:	afa00130 	sw	zero,304(sp)
  40f814:	3c040042 	lui	a0,0x42
  40f818:	2484ee24 	addiu	a0,a0,-4572
  40f81c:	3c050042 	lui	a1,0x42
  40f820:	24a5ee74 	addiu	a1,a1,-4492
  40f824:	8f998054 	lw	t9,-32684(gp)
  40f828:	0320f809 	jalr	t9
  40f82c:	27a60130 	addiu	a2,sp,304
  40f830:	8fbc0028 	lw	gp,40(sp)
  40f834:	8fa20130 	lw	v0,304(sp)
  40f838:	1040000c 	beqz	v0,40f86c <_ftext@@Base+0xe80c>
  40f83c:	02202021 	move	a0,s1
  40f840:	3c050042 	lui	a1,0x42
  40f844:	24a5016c 	addiu	a1,a1,364
  40f848:	3c060042 	lui	a2,0x42
  40f84c:	24c6ee74 	addiu	a2,a2,-4492
  40f850:	3c070042 	lui	a3,0x42
[31m  40f854:	8f9980e8 	lw	t9,fprintf[0m
  40f858:	0320f809 	jalr	t9
  40f85c:	24e7ec9c 	addiu	a3,a3,-4964
  40f860:	8fbc0028 	lw	gp,40(sp)
  40f864:	1000000a 	b	40f890 <_ftext@@Base+0xe830>
  40f868:	00000000 	nop
  40f86c:	3c050042 	lui	a1,0x42
  40f870:	24a5016c 	addiu	a1,a1,364
  40f874:	3c060042 	lui	a2,0x42
  40f878:	24c6ee74 	addiu	a2,a2,-4492
  40f87c:	3c070042 	lui	a3,0x42
[31m  40f880:	8f9980e8 	lw	t9,fprintf[0m
  40f884:	0320f809 	jalr	t9
  40f888:	24e7ec90 	addiu	a3,a3,-4976
--
  40f8e8:	8f9980ac 	lw	t9,-32596(gp)
  40f8ec:	0320f809 	jalr	t9
  40f8f0:	24060100 	li	a2,256
  40f8f4:	8fbc0028 	lw	gp,40(sp)
  40f8f8:	3c040042 	lui	a0,0x42
  40f8fc:	24840284 	addiu	a0,a0,644
  40f900:	8f9980cc 	lw	t9,-32564(gp)
  40f904:	0320f809 	jalr	t9
  40f908:	02802821 	move	a1,s4
  40f90c:	8fbc0028 	lw	gp,40(sp)
  40f910:	93a70140 	lbu	a3,320(sp)
  40f914:	93a20141 	lbu	v0,321(sp)
  40f918:	afa20010 	sw	v0,16(sp)
  40f91c:	93a20142 	lbu	v0,322(sp)
  40f920:	afa20014 	sw	v0,20(sp)
  40f924:	93a20143 	lbu	v0,323(sp)
  40f928:	afa20018 	sw	v0,24(sp)
  40f92c:	93a20144 	lbu	v0,324(sp)
  40f930:	afa2001c 	sw	v0,28(sp)
  40f934:	93a20145 	lbu	v0,325(sp)
  40f938:	afa20020 	sw	v0,32(sp)
  40f93c:	02202021 	move	a0,s1
  40f940:	3c050042 	lui	a1,0x42
  40f944:	24a50288 	addiu	a1,a1,648
  40f948:	3c060042 	lui	a2,0x42
[31m  40f94c:	8f9980e8 	lw	t9,fprintf[0m
  40f950:	0320f809 	jalr	t9
  40f954:	24c60278 	addiu	a2,a2,632
--
  40f96c:	8f99809c 	lw	t9,-32612(gp)
  40f970:	0320f809 	jalr	t9
  40f974:	24a502ac 	addiu	a1,a1,684
  40f978:	8fbc0028 	lw	gp,40(sp)
  40f97c:	1440001b 	bnez	v0,40f9ec <_ftext@@Base+0xe98c>
  40f980:	02002021 	move	a0,s0
  40f984:	27b50030 	addiu	s5,sp,48
  40f988:	02a02021 	move	a0,s5
  40f98c:	00002821 	move	a1,zero
  40f990:	8f9980ac 	lw	t9,-32596(gp)
  40f994:	0320f809 	jalr	t9
  40f998:	24060100 	li	a2,256
  40f99c:	8fbc0028 	lw	gp,40(sp)
  40f9a0:	3c040042 	lui	a0,0x42
  40f9a4:	2484f470 	addiu	a0,a0,-2960
  40f9a8:	3c140042 	lui	s4,0x42
  40f9ac:	268502ac 	addiu	a1,s4,684
  40f9b0:	8f998054 	lw	t9,-32684(gp)
  40f9b4:	0320f809 	jalr	t9
  40f9b8:	02a03021 	move	a2,s5
  40f9bc:	8fbc0028 	lw	gp,40(sp)
  40f9c0:	02202021 	move	a0,s1
  40f9c4:	3c050042 	lui	a1,0x42
  40f9c8:	24a5016c 	addiu	a1,a1,364
  40f9cc:	268602ac 	addiu	a2,s4,684
[31m  40f9d0:	8f9980e8 	lw	t9,fprintf[0m
  40f9d4:	0320f809 	jalr	t9
  40f9d8:	02a03821 	move	a3,s5
--
  40fa2c:	27a60136 	addiu	a2,sp,310
  40fa30:	8fbc0028 	lw	gp,40(sp)
  40fa34:	2684f470 	addiu	a0,s4,-2960
  40fa38:	3c050042 	lui	a1,0x42
  40fa3c:	24a501ac 	addiu	a1,a1,428
  40fa40:	8f998054 	lw	t9,-32684(gp)
  40fa44:	0320f809 	jalr	t9
  40fa48:	27a6013c 	addiu	a2,sp,316
  40fa4c:	8fbc0028 	lw	gp,40(sp)
  40fa50:	2684f470 	addiu	a0,s4,-2960
  40fa54:	3c050042 	lui	a1,0x42
  40fa58:	24a501bc 	addiu	a1,a1,444
  40fa5c:	8f998054 	lw	t9,-32684(gp)
  40fa60:	0320f809 	jalr	t9
  40fa64:	27a60138 	addiu	a2,sp,312
  40fa68:	8fbc0028 	lw	gp,40(sp)
  40fa6c:	97a70136 	lhu	a3,310(sp)
  40fa70:	97a2013c 	lhu	v0,316(sp)
  40fa74:	afa20010 	sw	v0,16(sp)
  40fa78:	97a20138 	lhu	v0,312(sp)
  40fa7c:	afa20014 	sw	v0,20(sp)
  40fa80:	02202021 	move	a0,s1
  40fa84:	3c050042 	lui	a1,0x42
  40fa88:	24a501cc 	addiu	a1,a1,460
  40fa8c:	3c060042 	lui	a2,0x42
[31m  40fa90:	8f9980e8 	lw	t9,fprintf[0m
  40fa94:	0320f809 	jalr	t9
  40fa98:	24c602b8 	addiu	a2,a2,696
  40fa9c:	8fbc0028 	lw	gp,40(sp)
  40faa0:	92620000 	lbu	v0,0(s3)
  40faa4:	10400008 	beqz	v0,40fac8 <_ftext@@Base+0xea68>
  40faa8:	02002021 	move	a0,s0
  40faac:	3c050042 	lui	a1,0x42
  40fab0:	8f99809c 	lw	t9,-32612(gp)
  40fab4:	0320f809 	jalr	t9
  40fab8:	24a502c4 	addiu	a1,a1,708
  40fabc:	8fbc0028 	lw	gp,40(sp)
  40fac0:	14400016 	bnez	v0,40fb1c <_ftext@@Base+0xeabc>
  40fac4:	02002021 	move	a0,s0
  40fac8:	afa00130 	sw	zero,304(sp)
  40facc:	3c040042 	lui	a0,0x42
  40fad0:	2484ea8c 	addiu	a0,a0,-5492
  40fad4:	3c050042 	lui	a1,0x42
  40fad8:	24a501ec 	addiu	a1,a1,492
  40fadc:	8f998054 	lw	t9,-32684(gp)
  40fae0:	0320f809 	jalr	t9
  40fae4:	27a60130 	addiu	a2,sp,304
  40fae8:	8fbc0028 	lw	gp,40(sp)
  40faec:	02202021 	move	a0,s1
  40faf0:	3c050042 	lui	a1,0x42
  40faf4:	24a501f4 	addiu	a1,a1,500
  40faf8:	3c060042 	lui	a2,0x42
  40fafc:	8fa70130 	lw	a3,304(sp)
[31m  40fb00:	8f9980e8 	lw	t9,fprintf[0m
  40fb04:	0320f809 	jalr	t9
  40fb08:	24c602c4 	addiu	a2,a2,708
--
  40fb20:	8f99809c 	lw	t9,-32612(gp)
  40fb24:	0320f809 	jalr	t9
  40fb28:	24a502cc 	addiu	a1,a1,716
  40fb2c:	8fbc0028 	lw	gp,40(sp)
  40fb30:	1440001b 	bnez	v0,40fba0 <_ftext@@Base+0xeb40>
  40fb34:	02002021 	move	a0,s0
  40fb38:	27b50030 	addiu	s5,sp,48
  40fb3c:	02a02021 	move	a0,s5
  40fb40:	00002821 	move	a1,zero
  40fb44:	8f9980ac 	lw	t9,-32596(gp)
  40fb48:	0320f809 	jalr	t9
  40fb4c:	24060100 	li	a2,256
  40fb50:	8fbc0028 	lw	gp,40(sp)
  40fb54:	3c040042 	lui	a0,0x42
  40fb58:	2484ea8c 	addiu	a0,a0,-5492
  40fb5c:	3c140042 	lui	s4,0x42
  40fb60:	268502cc 	addiu	a1,s4,716
  40fb64:	8f998054 	lw	t9,-32684(gp)
  40fb68:	0320f809 	jalr	t9
  40fb6c:	02a03021 	move	a2,s5
  40fb70:	8fbc0028 	lw	gp,40(sp)
  40fb74:	02202021 	move	a0,s1
  40fb78:	3c050042 	lui	a1,0x42
  40fb7c:	24a5016c 	addiu	a1,a1,364
  40fb80:	268602cc 	addiu	a2,s4,716
[31m  40fb84:	8f9980e8 	lw	t9,fprintf[0m
  40fb88:	0320f809 	jalr	t9
  40fb8c:	02a03821 	move	a3,s5
--
  40fba4:	8f99809c 	lw	t9,-32612(gp)
  40fba8:	0320f809 	jalr	t9
  40fbac:	24a502d0 	addiu	a1,a1,720
  40fbb0:	8fbc0028 	lw	gp,40(sp)
  40fbb4:	1440001b 	bnez	v0,40fc24 <_ftext@@Base+0xebc4>
  40fbb8:	02002021 	move	a0,s0
  40fbbc:	27b50030 	addiu	s5,sp,48
  40fbc0:	02a02021 	move	a0,s5
  40fbc4:	00002821 	move	a1,zero
  40fbc8:	8f9980ac 	lw	t9,-32596(gp)
  40fbcc:	0320f809 	jalr	t9
  40fbd0:	24060100 	li	a2,256
  40fbd4:	8fbc0028 	lw	gp,40(sp)
  40fbd8:	3c040042 	lui	a0,0x42
  40fbdc:	2484ea8c 	addiu	a0,a0,-5492
  40fbe0:	3c140042 	lui	s4,0x42
  40fbe4:	268502d0 	addiu	a1,s4,720
  40fbe8:	8f998054 	lw	t9,-32684(gp)
  40fbec:	0320f809 	jalr	t9
  40fbf0:	02a03021 	move	a2,s5
  40fbf4:	8fbc0028 	lw	gp,40(sp)
  40fbf8:	02202021 	move	a0,s1
  40fbfc:	3c050042 	lui	a1,0x42
  40fc00:	24a5016c 	addiu	a1,a1,364
  40fc04:	268602d0 	addiu	a2,s4,720
[31m  40fc08:	8f9980e8 	lw	t9,fprintf[0m
  40fc0c:	0320f809 	jalr	t9
  40fc10:	02a03821 	move	a3,s5
  40fc14:	8fbc0028 	lw	gp,40(sp)
  40fc18:	92620000 	lbu	v0,0(s3)
  40fc1c:	10400008 	beqz	v0,40fc40 <_ftext@@Base+0xebe0>
  40fc20:	02002021 	move	a0,s0
  40fc24:	3c050042 	lui	a1,0x42
  40fc28:	8f99809c 	lw	t9,-32612(gp)
  40fc2c:	0320f809 	jalr	t9
  40fc30:	24a502dc 	addiu	a1,a1,732
  40fc34:	8fbc0028 	lw	gp,40(sp)
  40fc38:	14400015 	bnez	v0,40fc90 <_ftext@@Base+0xec30>
  40fc3c:	02002021 	move	a0,s0
  40fc40:	afa00130 	sw	zero,304(sp)
  40fc44:	3c040042 	lui	a0,0x42
  40fc48:	2484ea8c 	addiu	a0,a0,-5492
  40fc4c:	3c140042 	lui	s4,0x42
  40fc50:	268502dc 	addiu	a1,s4,732
  40fc54:	8f998054 	lw	t9,-32684(gp)
  40fc58:	0320f809 	jalr	t9
  40fc5c:	27a60130 	addiu	a2,sp,304
  40fc60:	8fbc0028 	lw	gp,40(sp)
  40fc64:	02202021 	move	a0,s1
  40fc68:	3c050042 	lui	a1,0x42
  40fc6c:	24a501f4 	addiu	a1,a1,500
  40fc70:	8fa70130 	lw	a3,304(sp)
[31m  40fc74:	8f9980e8 	lw	t9,fprintf[0m
  40fc78:	0320f809 	jalr	t9
  40fc7c:	268602dc 	addiu	a2,s4,732
  40fc80:	8fbc0028 	lw	gp,40(sp)
  40fc84:	92620000 	lbu	v0,0(s3)
  40fc88:	10400008 	beqz	v0,40fcac <_ftext@@Base+0xec4c>
  40fc8c:	02002021 	move	a0,s0
  40fc90:	3c050042 	lui	a1,0x42
  40fc94:	8f99809c 	lw	t9,-32612(gp)
  40fc98:	0320f809 	jalr	t9
  40fc9c:	24a502ec 	addiu	a1,a1,748
  40fca0:	8fbc0028 	lw	gp,40(sp)
  40fca4:	14400015 	bnez	v0,40fcfc <_ftext@@Base+0xec9c>
  40fca8:	02002021 	move	a0,s0
  40fcac:	afa00130 	sw	zero,304(sp)
  40fcb0:	3c040042 	lui	a0,0x42
  40fcb4:	2484ea8c 	addiu	a0,a0,-5492
  40fcb8:	3c140042 	lui	s4,0x42
  40fcbc:	268502ec 	addiu	a1,s4,748
  40fcc0:	8f998054 	lw	t9,-32684(gp)
  40fcc4:	0320f809 	jalr	t9
  40fcc8:	27a60130 	addiu	a2,sp,304
  40fccc:	8fbc0028 	lw	gp,40(sp)
  40fcd0:	02202021 	move	a0,s1
  40fcd4:	3c050042 	lui	a1,0x42
  40fcd8:	24a501f4 	addiu	a1,a1,500
  40fcdc:	8fa70130 	lw	a3,304(sp)
[31m  40fce0:	8f9980e8 	lw	t9,fprintf[0m
  40fce4:	0320f809 	jalr	t9
  40fce8:	268602ec 	addiu	a2,s4,748
--
  40fcf8:	02002021 	move	a0,s0
  40fcfc:	3c050042 	lui	a1,0x42
  40fd00:	8f99809c 	lw	t9,-32612(gp)
  40fd04:	0320f809 	jalr	t9
  40fd08:	24a502f8 	addiu	a1,a1,760
  40fd0c:	8fbc0028 	lw	gp,40(sp)
  40fd10:	14400024 	bnez	v0,40fda4 <_ftext@@Base+0xed44>
  40fd14:	02002021 	move	a0,s0
  40fd18:	afa00130 	sw	zero,304(sp)
  40fd1c:	3c040042 	lui	a0,0x42
  40fd20:	2484ea8c 	addiu	a0,a0,-5492
  40fd24:	3c050042 	lui	a1,0x42
  40fd28:	24a502f8 	addiu	a1,a1,760
  40fd2c:	8f998054 	lw	t9,-32684(gp)
  40fd30:	0320f809 	jalr	t9
  40fd34:	27a60130 	addiu	a2,sp,304
  40fd38:	8fbc0028 	lw	gp,40(sp)
  40fd3c:	8fa20130 	lw	v0,304(sp)
  40fd40:	1040000c 	beqz	v0,40fd74 <_ftext@@Base+0xed14>
  40fd44:	02202021 	move	a0,s1
  40fd48:	3c050042 	lui	a1,0x42
  40fd4c:	24a5016c 	addiu	a1,a1,364
  40fd50:	3c060042 	lui	a2,0x42
  40fd54:	24c602f8 	addiu	a2,a2,760
  40fd58:	3c070042 	lui	a3,0x42
[31m  40fd5c:	8f9980e8 	lw	t9,fprintf[0m
  40fd60:	0320f809 	jalr	t9
  40fd64:	24e7ec9c 	addiu	a3,a3,-4964
  40fd68:	8fbc0028 	lw	gp,40(sp)
  40fd6c:	1000000a 	b	40fd98 <_ftext@@Base+0xed38>
  40fd70:	00000000 	nop
  40fd74:	3c050042 	lui	a1,0x42
  40fd78:	24a5016c 	addiu	a1,a1,364
  40fd7c:	3c060042 	lui	a2,0x42
  40fd80:	24c602f8 	addiu	a2,a2,760
  40fd84:	3c070042 	lui	a3,0x42
[31m  40fd88:	8f9980e8 	lw	t9,fprintf[0m
  40fd8c:	0320f809 	jalr	t9
  40fd90:	24e7ec90 	addiu	a3,a3,-4976
--
  40fda0:	02002021 	move	a0,s0
  40fda4:	3c050042 	lui	a1,0x42
  40fda8:	8f99809c 	lw	t9,-32612(gp)
  40fdac:	0320f809 	jalr	t9
  40fdb0:	24a50304 	addiu	a1,a1,772
  40fdb4:	8fbc0028 	lw	gp,40(sp)
  40fdb8:	14400024 	bnez	v0,40fe4c <_ftext@@Base+0xedec>
  40fdbc:	02002021 	move	a0,s0
  40fdc0:	afa00130 	sw	zero,304(sp)
  40fdc4:	3c040042 	lui	a0,0x42
  40fdc8:	2484ea8c 	addiu	a0,a0,-5492
  40fdcc:	3c050042 	lui	a1,0x42
  40fdd0:	24a50308 	addiu	a1,a1,776
  40fdd4:	8f998054 	lw	t9,-32684(gp)
  40fdd8:	0320f809 	jalr	t9
  40fddc:	27a60130 	addiu	a2,sp,304
  40fde0:	8fbc0028 	lw	gp,40(sp)
  40fde4:	8fa20130 	lw	v0,304(sp)
  40fde8:	1040000c 	beqz	v0,40fe1c <_ftext@@Base+0xedbc>
  40fdec:	02202021 	move	a0,s1
  40fdf0:	3c050042 	lui	a1,0x42
  40fdf4:	24a5016c 	addiu	a1,a1,364
  40fdf8:	3c060042 	lui	a2,0x42
  40fdfc:	24c60304 	addiu	a2,a2,772
  40fe00:	3c070042 	lui	a3,0x42
[31m  40fe04:	8f9980e8 	lw	t9,fprintf[0m
  40fe08:	0320f809 	jalr	t9
  40fe0c:	24e7ec9c 	addiu	a3,a3,-4964
  40fe10:	8fbc0028 	lw	gp,40(sp)
  40fe14:	1000000a 	b	40fe40 <_ftext@@Base+0xede0>
  40fe18:	00000000 	nop
  40fe1c:	3c050042 	lui	a1,0x42
  40fe20:	24a5016c 	addiu	a1,a1,364
  40fe24:	3c060042 	lui	a2,0x42
  40fe28:	24c60304 	addiu	a2,a2,772
  40fe2c:	3c070042 	lui	a3,0x42
[31m  40fe30:	8f9980e8 	lw	t9,fprintf[0m
  40fe34:	0320f809 	jalr	t9
  40fe38:	24e7ec90 	addiu	a3,a3,-4976
--
  40fe50:	8f99809c 	lw	t9,-32612(gp)
  40fe54:	0320f809 	jalr	t9
  40fe58:	24a50314 	addiu	a1,a1,788
  40fe5c:	8fbc0028 	lw	gp,40(sp)
  40fe60:	1440001b 	bnez	v0,40fed0 <_ftext@@Base+0xee70>
  40fe64:	02002021 	move	a0,s0
  40fe68:	27b50030 	addiu	s5,sp,48
  40fe6c:	02a02021 	move	a0,s5
  40fe70:	00002821 	move	a1,zero
  40fe74:	8f9980ac 	lw	t9,-32596(gp)
  40fe78:	0320f809 	jalr	t9
  40fe7c:	24060100 	li	a2,256
  40fe80:	8fbc0028 	lw	gp,40(sp)
  40fe84:	3c040042 	lui	a0,0x42
  40fe88:	2484ea8c 	addiu	a0,a0,-5492
  40fe8c:	3c140042 	lui	s4,0x42
  40fe90:	26850314 	addiu	a1,s4,788
  40fe94:	8f998054 	lw	t9,-32684(gp)
  40fe98:	0320f809 	jalr	t9
  40fe9c:	02a03021 	move	a2,s5
  40fea0:	8fbc0028 	lw	gp,40(sp)
  40fea4:	02202021 	move	a0,s1
  40fea8:	3c050042 	lui	a1,0x42
  40feac:	24a5016c 	addiu	a1,a1,364
  40feb0:	26860314 	addiu	a2,s4,788
[31m  40feb4:	8f9980e8 	lw	t9,fprintf[0m
  40feb8:	0320f809 	jalr	t9
  40febc:	02a03821 	move	a3,s5
--
  40fed4:	8f99809c 	lw	t9,-32612(gp)
  40fed8:	0320f809 	jalr	t9
  40fedc:	24a5031c 	addiu	a1,a1,796
  40fee0:	8fbc0028 	lw	gp,40(sp)
  40fee4:	1440001b 	bnez	v0,40ff54 <_ftext@@Base+0xeef4>
  40fee8:	02002021 	move	a0,s0
  40feec:	27b50030 	addiu	s5,sp,48
  40fef0:	02a02021 	move	a0,s5
  40fef4:	00002821 	move	a1,zero
  40fef8:	8f9980ac 	lw	t9,-32596(gp)
  40fefc:	0320f809 	jalr	t9
  40ff00:	24060100 	li	a2,256
  40ff04:	8fbc0028 	lw	gp,40(sp)
  40ff08:	3c040042 	lui	a0,0x42
  40ff0c:	2484ea8c 	addiu	a0,a0,-5492
  40ff10:	3c140042 	lui	s4,0x42
  40ff14:	2685031c 	addiu	a1,s4,796
  40ff18:	8f998054 	lw	t9,-32684(gp)
  40ff1c:	0320f809 	jalr	t9
  40ff20:	02a03021 	move	a2,s5
  40ff24:	8fbc0028 	lw	gp,40(sp)
  40ff28:	02202021 	move	a0,s1
  40ff2c:	3c050042 	lui	a1,0x42
  40ff30:	24a5016c 	addiu	a1,a1,364
  40ff34:	2686031c 	addiu	a2,s4,796
[31m  40ff38:	8f9980e8 	lw	t9,fprintf[0m
  40ff3c:	0320f809 	jalr	t9
  40ff40:	02a03821 	move	a3,s5
--
  40ff50:	02002021 	move	a0,s0
  40ff54:	3c050042 	lui	a1,0x42
  40ff58:	8f99809c 	lw	t9,-32612(gp)
  40ff5c:	0320f809 	jalr	t9
  40ff60:	24a50320 	addiu	a1,a1,800
  40ff64:	8fbc0028 	lw	gp,40(sp)
  40ff68:	14400024 	bnez	v0,40fffc <_ftext@@Base+0xef9c>
  40ff6c:	02002021 	move	a0,s0
  40ff70:	afa00130 	sw	zero,304(sp)
  40ff74:	3c040042 	lui	a0,0x42
  40ff78:	2484ea8c 	addiu	a0,a0,-5492
  40ff7c:	3c050042 	lui	a1,0x42
  40ff80:	24a50320 	addiu	a1,a1,800
  40ff84:	8f998054 	lw	t9,-32684(gp)
  40ff88:	0320f809 	jalr	t9
  40ff8c:	27a60130 	addiu	a2,sp,304
  40ff90:	8fbc0028 	lw	gp,40(sp)
  40ff94:	8fa20130 	lw	v0,304(sp)
  40ff98:	1040000c 	beqz	v0,40ffcc <_ftext@@Base+0xef6c>
  40ff9c:	02202021 	move	a0,s1
  40ffa0:	3c050042 	lui	a1,0x42
  40ffa4:	24a5016c 	addiu	a1,a1,364
  40ffa8:	3c060042 	lui	a2,0x42
  40ffac:	24c60320 	addiu	a2,a2,800
  40ffb0:	3c070042 	lui	a3,0x42
[31m  40ffb4:	8f9980e8 	lw	t9,fprintf[0m
  40ffb8:	0320f809 	jalr	t9
  40ffbc:	24e7ec9c 	addiu	a3,a3,-4964
  40ffc0:	8fbc0028 	lw	gp,40(sp)
  40ffc4:	1000000a 	b	40fff0 <_ftext@@Base+0xef90>
  40ffc8:	00000000 	nop
  40ffcc:	3c050042 	lui	a1,0x42
  40ffd0:	24a5016c 	addiu	a1,a1,364
  40ffd4:	3c060042 	lui	a2,0x42
  40ffd8:	24c60320 	addiu	a2,a2,800
  40ffdc:	3c070042 	lui	a3,0x42
[31m  40ffe0:	8f9980e8 	lw	t9,fprintf[0m
  40ffe4:	0320f809 	jalr	t9
  40ffe8:	24e7ec90 	addiu	a3,a3,-4976
--
  40fff8:	02002021 	move	a0,s0
  40fffc:	3c050042 	lui	a1,0x42
  410000:	8f99809c 	lw	t9,-32612(gp)
  410004:	0320f809 	jalr	t9
  410008:	24a5eb08 	addiu	a1,a1,-5368
  41000c:	8fbc0028 	lw	gp,40(sp)
  410010:	14401919 	bnez	v0,416478 <_ftext@@Base+0x15418>
  410014:	02402021 	move	a0,s2
  410018:	afa00130 	sw	zero,304(sp)
  41001c:	3c040042 	lui	a0,0x42
  410020:	2484ea8c 	addiu	a0,a0,-5492
  410024:	3c050042 	lui	a1,0x42
  410028:	24a5eb08 	addiu	a1,a1,-5368
  41002c:	8f998054 	lw	t9,-32684(gp)
  410030:	0320f809 	jalr	t9
  410034:	27a60130 	addiu	a2,sp,304
  410038:	8fbc0028 	lw	gp,40(sp)
  41003c:	8fa20130 	lw	v0,304(sp)
  410040:	1040000c 	beqz	v0,410074 <_ftext@@Base+0xf014>
  410044:	3c060042 	lui	a2,0x42
  410048:	02202021 	move	a0,s1
  41004c:	3c050042 	lui	a1,0x42
  410050:	24a5016c 	addiu	a1,a1,364
  410054:	24c6eb08 	addiu	a2,a2,-5368
  410058:	3c070042 	lui	a3,0x42
[31m  41005c:	8f9980e8 	lw	t9,fprintf[0m
  410060:	0320f809 	jalr	t9
  410064:	24e7ec9c 	addiu	a3,a3,-4964
  410068:	8fbc0028 	lw	gp,40(sp)
  41006c:	10001902 	b	416478 <_ftext@@Base+0x15418>
  410070:	02402021 	move	a0,s2
  410074:	02202021 	move	a0,s1
  410078:	3c050042 	lui	a1,0x42
  41007c:	24a5016c 	addiu	a1,a1,364
  410080:	24c6eb08 	addiu	a2,a2,-5368
  410084:	3c070042 	lui	a3,0x42
[31m  410088:	8f9980e8 	lw	t9,fprintf[0m
  41008c:	0320f809 	jalr	t9
  410090:	24e7ec90 	addiu	a3,a3,-4976
--
  41010c:	3c050042 	lui	a1,0x42
  410110:	8f99809c 	lw	t9,-32612(gp)
  410114:	0320f809 	jalr	t9
  410118:	24a5ee80 	addiu	a1,a1,-4480
  41011c:	8fbc0028 	lw	gp,40(sp)
  410120:	14400035 	bnez	v0,4101f8 <_ftext@@Base+0xf198>
  410124:	02002021 	move	a0,s0
  410128:	afa00130 	sw	zero,304(sp)
  41012c:	3c040042 	lui	a0,0x42
  410130:	2484ee94 	addiu	a0,a0,-4460
  410134:	3c050042 	lui	a1,0x42
  410138:	24a5ee80 	addiu	a1,a1,-4480
  41013c:	8f998054 	lw	t9,-32684(gp)
  410140:	0320f809 	jalr	t9
  410144:	27a60130 	addiu	a2,sp,304
  410148:	8fbc0028 	lw	gp,40(sp)
  41014c:	8fa20130 	lw	v0,304(sp)
  410150:	1440000d 	bnez	v0,410188 <_ftext@@Base+0xf128>
  410154:	24030001 	li	v1,1
  410158:	02202021 	move	a0,s1
  41015c:	3c050042 	lui	a1,0x42
  410160:	24a5016c 	addiu	a1,a1,364
  410164:	3c060042 	lui	a2,0x42
  410168:	24c6ee80 	addiu	a2,a2,-4480
  41016c:	3c070042 	lui	a3,0x42
[31m  410170:	8f9980e8 	lw	t9,fprintf[0m
  410174:	0320f809 	jalr	t9
  410178:	24e7eea0 	addiu	a3,a3,-4448
  41017c:	8fbc0028 	lw	gp,40(sp)
  410180:	1000001a 	b	4101ec <_ftext@@Base+0xf18c>
  410184:	00000000 	nop
  410188:	1443000d 	bne	v0,v1,4101c0 <_ftext@@Base+0xf160>
  41018c:	24030002 	li	v1,2
  410190:	02202021 	move	a0,s1
  410194:	3c050042 	lui	a1,0x42
  410198:	24a5016c 	addiu	a1,a1,364
  41019c:	3c060042 	lui	a2,0x42
  4101a0:	24c6ee80 	addiu	a2,a2,-4480
  4101a4:	3c070042 	lui	a3,0x42
[31m  4101a8:	8f9980e8 	lw	t9,fprintf[0m
  4101ac:	0320f809 	jalr	t9
  4101b0:	24e7ee8c 	addiu	a3,a3,-4468
  4101b4:	8fbc0028 	lw	gp,40(sp)
  4101b8:	1000000c 	b	4101ec <_ftext@@Base+0xf18c>
  4101bc:	00000000 	nop
  4101c0:	1443000a 	bne	v0,v1,4101ec <_ftext@@Base+0xf18c>
  4101c4:	02202021 	move	a0,s1
  4101c8:	3c050042 	lui	a1,0x42
  4101cc:	24a5016c 	addiu	a1,a1,364
  4101d0:	3c060042 	lui	a2,0x42
  4101d4:	24c6ee80 	addiu	a2,a2,-4480
  4101d8:	3c070042 	lui	a3,0x42
[31m  4101dc:	8f9980e8 	lw	t9,fprintf[0m
  4101e0:	0320f809 	jalr	t9
  4101e4:	24e7eea8 	addiu	a3,a3,-4440
--
  4101f8:	3c050042 	lui	a1,0x42
  4101fc:	8f99809c 	lw	t9,-32612(gp)
  410200:	0320f809 	jalr	t9
  410204:	24a50338 	addiu	a1,a1,824
  410208:	8fbc0028 	lw	gp,40(sp)
  41020c:	1440001a 	bnez	v0,410278 <_ftext@@Base+0xf218>
  410210:	02002021 	move	a0,s0
  410214:	afa00138 	sw	zero,312(sp)
  410218:	27b40138 	addiu	s4,sp,312
  41021c:	3c040042 	lui	a0,0x42
  410220:	24840284 	addiu	a0,a0,644
  410224:	8f9980e0 	lw	t9,-32544(gp)
  410228:	0320f809 	jalr	t9
  41022c:	02802821 	move	a1,s4
  410230:	8fbc0028 	lw	gp,40(sp)
  410234:	8e840000 	lw	a0,0(s4)
  410238:	8f9980a0 	lw	t9,-32608(gp)
  41023c:	0320f809 	jalr	t9
  410240:	00000000 	nop
  410244:	8fbc0028 	lw	gp,40(sp)
  410248:	02202021 	move	a0,s1
  41024c:	3c050042 	lui	a1,0x42
  410250:	24a5016c 	addiu	a1,a1,364
  410254:	3c060042 	lui	a2,0x42
  410258:	24c60338 	addiu	a2,a2,824
[31m  41025c:	8f9980e8 	lw	t9,fprintf[0m
  410260:	0320f809 	jalr	t9
  410264:	00403821 	move	a3,v0
--
  410270:	10400008 	beqz	v0,410294 <_ftext@@Base+0xf234>
  410274:	02002021 	move	a0,s0
  410278:	3c050042 	lui	a1,0x42
  41027c:	8f99809c 	lw	t9,-32612(gp)
  410280:	0320f809 	jalr	t9
  410284:	24a5eeb0 	addiu	a1,a1,-4432
  410288:	8fbc0028 	lw	gp,40(sp)
  41028c:	14400018 	bnez	v0,4102f0 <_ftext@@Base+0xf290>
  410290:	02002021 	move	a0,s0
  410294:	afa00138 	sw	zero,312(sp)
  410298:	27b40138 	addiu	s4,sp,312
  41029c:	8f998044 	lw	t9,-32700(gp)
  4102a0:	0320f809 	jalr	t9
  4102a4:	02802021 	move	a0,s4
  4102a8:	8fbc0028 	lw	gp,40(sp)
  4102ac:	8e840000 	lw	a0,0(s4)
  4102b0:	8f9980a0 	lw	t9,-32608(gp)
  4102b4:	0320f809 	jalr	t9
  4102b8:	00000000 	nop
  4102bc:	8fbc0028 	lw	gp,40(sp)
  4102c0:	02202021 	move	a0,s1
  4102c4:	3c050042 	lui	a1,0x42
  4102c8:	24a5016c 	addiu	a1,a1,364
  4102cc:	3c060042 	lui	a2,0x42
  4102d0:	24c6eeb0 	addiu	a2,a2,-4432
[31m  4102d4:	8f9980e8 	lw	t9,fprintf[0m
  4102d8:	0320f809 	jalr	t9
  4102dc:	00403821 	move	a3,v0
--
  4102e8:	10400008 	beqz	v0,41030c <_ftext@@Base+0xf2ac>
  4102ec:	02002021 	move	a0,s0
  4102f0:	3c050042 	lui	a1,0x42
  4102f4:	8f99809c 	lw	t9,-32612(gp)
  4102f8:	0320f809 	jalr	t9
  4102fc:	24a5eed0 	addiu	a1,a1,-4400
  410300:	8fbc0028 	lw	gp,40(sp)
  410304:	14400018 	bnez	v0,410368 <_ftext@@Base+0xf308>
  410308:	02002021 	move	a0,s0
  41030c:	afa00138 	sw	zero,312(sp)
  410310:	27b40138 	addiu	s4,sp,312
  410314:	8f9980dc 	lw	t9,-32548(gp)
  410318:	0320f809 	jalr	t9
  41031c:	02802021 	move	a0,s4
  410320:	8fbc0028 	lw	gp,40(sp)
  410324:	8e840000 	lw	a0,0(s4)
  410328:	8f9980a0 	lw	t9,-32608(gp)
  41032c:	0320f809 	jalr	t9
  410330:	00000000 	nop
  410334:	8fbc0028 	lw	gp,40(sp)
  410338:	02202021 	move	a0,s1
  41033c:	3c050042 	lui	a1,0x42
  410340:	24a5016c 	addiu	a1,a1,364
  410344:	3c060042 	lui	a2,0x42
  410348:	24c6eed0 	addiu	a2,a2,-4400
[31m  41034c:	8f9980e8 	lw	t9,fprintf[0m
  410350:	0320f809 	jalr	t9
  410354:	00403821 	move	a3,v0
--
  410360:	10400008 	beqz	v0,410384 <_ftext@@Base+0xf324>
  410364:	02002021 	move	a0,s0
  410368:	3c050042 	lui	a1,0x42
  41036c:	8f99809c 	lw	t9,-32612(gp)
  410370:	0320f809 	jalr	t9
  410374:	24a5eee4 	addiu	a1,a1,-4380
  410378:	8fbc0028 	lw	gp,40(sp)
  41037c:	14400018 	bnez	v0,4103e0 <_ftext@@Base+0xf380>
  410380:	02002021 	move	a0,s0
  410384:	afa00138 	sw	zero,312(sp)
  410388:	27b40138 	addiu	s4,sp,312
  41038c:	8f9980b0 	lw	t9,-32592(gp)
  410390:	0320f809 	jalr	t9
  410394:	02802021 	move	a0,s4
  410398:	8fbc0028 	lw	gp,40(sp)
  41039c:	8e840000 	lw	a0,0(s4)
  4103a0:	8f9980a0 	lw	t9,-32608(gp)
  4103a4:	0320f809 	jalr	t9
  4103a8:	00000000 	nop
  4103ac:	8fbc0028 	lw	gp,40(sp)
  4103b0:	02202021 	move	a0,s1
  4103b4:	3c050042 	lui	a1,0x42
  4103b8:	24a5016c 	addiu	a1,a1,364
  4103bc:	3c060042 	lui	a2,0x42
  4103c0:	24c6eee4 	addiu	a2,a2,-4380
[31m  4103c4:	8f9980e8 	lw	t9,fprintf[0m
  4103c8:	0320f809 	jalr	t9
  4103cc:	00403821 	move	a3,v0
--
  410428:	3c050042 	lui	a1,0x42
  41042c:	8f99809c 	lw	t9,-32612(gp)
  410430:	0320f809 	jalr	t9
  410434:	24a5eef8 	addiu	a1,a1,-4360
  410438:	8fbc0028 	lw	gp,40(sp)
  41043c:	1440001b 	bnez	v0,4104ac <_ftext@@Base+0xf44c>
  410440:	02002021 	move	a0,s0
  410444:	afa00138 	sw	zero,312(sp)
  410448:	27b40138 	addiu	s4,sp,312
  41044c:	3c040042 	lui	a0,0x42
  410450:	24840284 	addiu	a0,a0,644
  410454:	8f998104 	lw	t9,-32508(gp)
  410458:	0320f809 	jalr	t9
  41045c:	02802821 	move	a1,s4
  410460:	8fbc0028 	lw	gp,40(sp)
  410464:	8e840000 	lw	a0,0(s4)
  410468:	8f9980a0 	lw	t9,-32608(gp)
  41046c:	0320f809 	jalr	t9
  410470:	00000000 	nop
  410474:	8fbc0028 	lw	gp,40(sp)
  410478:	02202021 	move	a0,s1
  41047c:	3c050042 	lui	a1,0x42
  410480:	24a5016c 	addiu	a1,a1,364
  410484:	3c060042 	lui	a2,0x42
  410488:	24c6eef8 	addiu	a2,a2,-4360
[31m  41048c:	8f9980e8 	lw	t9,fprintf[0m
  410490:	0320f809 	jalr	t9
  410494:	00403821 	move	a3,v0
--
  4104ac:	3c050042 	lui	a1,0x42
  4104b0:	8f99809c 	lw	t9,-32612(gp)
  4104b4:	0320f809 	jalr	t9
  4104b8:	24a5ef08 	addiu	a1,a1,-4344
  4104bc:	8fbc0028 	lw	gp,40(sp)
  4104c0:	144017ec 	bnez	v0,416474 <_ftext@@Base+0x15414>
  4104c4:	00000000 	nop
  4104c8:	afa00138 	sw	zero,312(sp)
  4104cc:	27b30138 	addiu	s3,sp,312
  4104d0:	3c040042 	lui	a0,0x42
  4104d4:	24840284 	addiu	a0,a0,644
  4104d8:	8f9980a4 	lw	t9,-32604(gp)
  4104dc:	0320f809 	jalr	t9
  4104e0:	02602821 	move	a1,s3
  4104e4:	8fbc0028 	lw	gp,40(sp)
  4104e8:	8e640000 	lw	a0,0(s3)
  4104ec:	8f9980a0 	lw	t9,-32608(gp)
  4104f0:	0320f809 	jalr	t9
  4104f4:	00000000 	nop
  4104f8:	8fbc0028 	lw	gp,40(sp)
  4104fc:	02202021 	move	a0,s1
  410500:	3c050042 	lui	a1,0x42
  410504:	24a5016c 	addiu	a1,a1,364
  410508:	3c060042 	lui	a2,0x42
  41050c:	24c6ef08 	addiu	a2,a2,-4344
[31m  410510:	8f9980e8 	lw	t9,fprintf[0m
  410514:	0320f809 	jalr	t9
  410518:	00403821 	move	a3,v0
--
  410598:	0320f809 	jalr	t9
  41059c:	24a5ef24 	addiu	a1,a1,-4316
  4105a0:	8fbc0028 	lw	gp,40(sp)
  4105a4:	1440001d 	bnez	v0,41061c <_ftext@@Base+0xf5bc>
  4105a8:	02002021 	move	a0,s0
  4105ac:	27b30030 	addiu	s3,sp,48
  4105b0:	02602021 	move	a0,s3
  4105b4:	00002821 	move	a1,zero
  4105b8:	8f9980ac 	lw	t9,-32596(gp)
  4105bc:	0320f809 	jalr	t9
  4105c0:	24060100 	li	a2,256
  4105c4:	8fbc0028 	lw	gp,40(sp)
  4105c8:	3c040042 	lui	a0,0x42
  4105cc:	2484ee94 	addiu	a0,a0,-4460
  4105d0:	3c050042 	lui	a1,0x42
  4105d4:	24a5ef30 	addiu	a1,a1,-4304
  4105d8:	8f998054 	lw	t9,-32684(gp)
  4105dc:	0320f809 	jalr	t9
  4105e0:	02603021 	move	a2,s3
  4105e4:	8fbc0028 	lw	gp,40(sp)
  4105e8:	02202021 	move	a0,s1
  4105ec:	3c050042 	lui	a1,0x42
  4105f0:	24a5016c 	addiu	a1,a1,364
  4105f4:	3c060042 	lui	a2,0x42
  4105f8:	24c6ef24 	addiu	a2,a2,-4316
[31m  4105fc:	8f9980e8 	lw	t9,fprintf[0m
  410600:	0320f809 	jalr	t9
  410604:	02603821 	move	a3,s3
--
  410624:	0320f809 	jalr	t9
  410628:	24a5ef3c 	addiu	a1,a1,-4292
  41062c:	8fbc0028 	lw	gp,40(sp)
  410630:	14401790 	bnez	v0,416474 <_ftext@@Base+0x15414>
  410634:	00000000 	nop
  410638:	27b30030 	addiu	s3,sp,48
  41063c:	02602021 	move	a0,s3
  410640:	00002821 	move	a1,zero
  410644:	8f9980ac 	lw	t9,-32596(gp)
  410648:	0320f809 	jalr	t9
  41064c:	24060100 	li	a2,256
  410650:	8fbc0028 	lw	gp,40(sp)
  410654:	3c040042 	lui	a0,0x42
  410658:	2484ee94 	addiu	a0,a0,-4460
  41065c:	3c050042 	lui	a1,0x42
  410660:	24a5ef48 	addiu	a1,a1,-4280
  410664:	8f998054 	lw	t9,-32684(gp)
  410668:	0320f809 	jalr	t9
  41066c:	02603021 	move	a2,s3
  410670:	8fbc0028 	lw	gp,40(sp)
  410674:	02202021 	move	a0,s1
  410678:	3c050042 	lui	a1,0x42
  41067c:	24a5016c 	addiu	a1,a1,364
  410680:	3c060042 	lui	a2,0x42
  410684:	24c6ef3c 	addiu	a2,a2,-4292
[31m  410688:	8f9980e8 	lw	t9,fprintf[0m
  41068c:	0320f809 	jalr	t9
  410690:	02603821 	move	a3,s3
--
  410710:	3c050042 	lui	a1,0x42
  410714:	8f99809c 	lw	t9,-32612(gp)
  410718:	0320f809 	jalr	t9
  41071c:	24a5ef68 	addiu	a1,a1,-4248
  410720:	8fbc0028 	lw	gp,40(sp)
  410724:	14400043 	bnez	v0,410834 <_ftext@@Base+0xf7d4>
  410728:	02002021 	move	a0,s0
  41072c:	afa00130 	sw	zero,304(sp)
  410730:	3c040042 	lui	a0,0x42
  410734:	2484ef80 	addiu	a0,a0,-4224
  410738:	3c050042 	lui	a1,0x42
  41073c:	24a5ef88 	addiu	a1,a1,-4216
  410740:	8f998054 	lw	t9,-32684(gp)
  410744:	0320f809 	jalr	t9
  410748:	27a60130 	addiu	a2,sp,304
  41074c:	8fbc0028 	lw	gp,40(sp)
  410750:	8fa20130 	lw	v0,304(sp)
  410754:	1440000d 	bnez	v0,41078c <_ftext@@Base+0xf72c>
  410758:	24030001 	li	v1,1
  41075c:	02202021 	move	a0,s1
  410760:	3c050042 	lui	a1,0x42
  410764:	24a5016c 	addiu	a1,a1,364
  410768:	3c060042 	lui	a2,0x42
  41076c:	24c6ef68 	addiu	a2,a2,-4248
  410770:	3c070042 	lui	a3,0x42
[31m  410774:	8f9980e8 	lw	t9,fprintf[0m
  410778:	0320f809 	jalr	t9
  41077c:	24e7ef74 	addiu	a3,a3,-4236
  410780:	8fbc0028 	lw	gp,40(sp)
  410784:	10000028 	b	410828 <_ftext@@Base+0xf7c8>
  410788:	00000000 	nop
  41078c:	1443000d 	bne	v0,v1,4107c4 <_ftext@@Base+0xf764>
  410790:	24030002 	li	v1,2
  410794:	02202021 	move	a0,s1
  410798:	3c050042 	lui	a1,0x42
  41079c:	24a5016c 	addiu	a1,a1,364
  4107a0:	3c060042 	lui	a2,0x42
  4107a4:	24c6ef68 	addiu	a2,a2,-4248
  4107a8:	3c070042 	lui	a3,0x42
[31m  4107ac:	8f9980e8 	lw	t9,fprintf[0m
  4107b0:	0320f809 	jalr	t9
  4107b4:	24e7ef94 	addiu	a3,a3,-4204
  4107b8:	8fbc0028 	lw	gp,40(sp)
  4107bc:	1000001a 	b	410828 <_ftext@@Base+0xf7c8>
  4107c0:	00000000 	nop
  4107c4:	1443000d 	bne	v0,v1,4107fc <_ftext@@Base+0xf79c>
  4107c8:	24030003 	li	v1,3
  4107cc:	02202021 	move	a0,s1
  4107d0:	3c050042 	lui	a1,0x42
  4107d4:	24a5016c 	addiu	a1,a1,364
  4107d8:	3c060042 	lui	a2,0x42
  4107dc:	24c6ef68 	addiu	a2,a2,-4248
  4107e0:	3c070042 	lui	a3,0x42
[31m  4107e4:	8f9980e8 	lw	t9,fprintf[0m
  4107e8:	0320f809 	jalr	t9
  4107ec:	24e7efa4 	addiu	a3,a3,-4188
  4107f0:	8fbc0028 	lw	gp,40(sp)
  4107f4:	1000000c 	b	410828 <_ftext@@Base+0xf7c8>
  4107f8:	00000000 	nop
  4107fc:	1443000a 	bne	v0,v1,410828 <_ftext@@Base+0xf7c8>
  410800:	02202021 	move	a0,s1
  410804:	3c050042 	lui	a1,0x42
  410808:	24a5016c 	addiu	a1,a1,364
  41080c:	3c060042 	lui	a2,0x42
  410810:	24c6ef68 	addiu	a2,a2,-4248
  410814:	3c070042 	lui	a3,0x42
[31m  410818:	8f9980e8 	lw	t9,fprintf[0m
  41081c:	0320f809 	jalr	t9
  410820:	24e7efb0 	addiu	a3,a3,-4176
--
  41083c:	0320f809 	jalr	t9
  410840:	24a5efc0 	addiu	a1,a1,-4160
  410844:	8fbc0028 	lw	gp,40(sp)
  410848:	1440001c 	bnez	v0,4108bc <_ftext@@Base+0xf85c>
  41084c:	02002021 	move	a0,s0
  410850:	27b40030 	addiu	s4,sp,48
  410854:	02802021 	move	a0,s4
  410858:	00002821 	move	a1,zero
  41085c:	8f9980ac 	lw	t9,-32596(gp)
  410860:	0320f809 	jalr	t9
  410864:	24060100 	li	a2,256
  410868:	8fbc0028 	lw	gp,40(sp)
  41086c:	3c040042 	lui	a0,0x42
  410870:	2484ef80 	addiu	a0,a0,-4224
  410874:	3c050042 	lui	a1,0x42
  410878:	24a5efc8 	addiu	a1,a1,-4152
  41087c:	8f998054 	lw	t9,-32684(gp)
  410880:	0320f809 	jalr	t9
  410884:	02803021 	move	a2,s4
  410888:	8fbc0028 	lw	gp,40(sp)
  41088c:	02202021 	move	a0,s1
  410890:	3c050042 	lui	a1,0x42
  410894:	24a5016c 	addiu	a1,a1,364
  410898:	3c060042 	lui	a2,0x42
  41089c:	24c6efc0 	addiu	a2,a2,-4160
[31m  4108a0:	8f9980e8 	lw	t9,fprintf[0m
  4108a4:	0320f809 	jalr	t9
  4108a8:	02803821 	move	a3,s4
--
  4108b8:	02002021 	move	a0,s0
  4108bc:	3c050042 	lui	a1,0x42
  4108c0:	8f99809c 	lw	t9,-32612(gp)
  4108c4:	0320f809 	jalr	t9
  4108c8:	24a5ec88 	addiu	a1,a1,-4984
  4108cc:	8fbc0028 	lw	gp,40(sp)
  4108d0:	14400024 	bnez	v0,410964 <_ftext@@Base+0xf904>
  4108d4:	02002021 	move	a0,s0
  4108d8:	afa00130 	sw	zero,304(sp)
  4108dc:	3c040042 	lui	a0,0x42
  4108e0:	2484ef80 	addiu	a0,a0,-4224
  4108e4:	3c050042 	lui	a1,0x42
  4108e8:	24a5ec94 	addiu	a1,a1,-4972
  4108ec:	8f998054 	lw	t9,-32684(gp)
  4108f0:	0320f809 	jalr	t9
  4108f4:	27a60130 	addiu	a2,sp,304
  4108f8:	8fbc0028 	lw	gp,40(sp)
  4108fc:	8fa20130 	lw	v0,304(sp)
  410900:	1040000c 	beqz	v0,410934 <_ftext@@Base+0xf8d4>
  410904:	02202021 	move	a0,s1
  410908:	3c050042 	lui	a1,0x42
  41090c:	24a5016c 	addiu	a1,a1,364
  410910:	3c060042 	lui	a2,0x42
  410914:	24c6ec88 	addiu	a2,a2,-4984
  410918:	3c070042 	lui	a3,0x42
[31m  41091c:	8f9980e8 	lw	t9,fprintf[0m
  410920:	0320f809 	jalr	t9
  410924:	24e7ec9c 	addiu	a3,a3,-4964
  410928:	8fbc0028 	lw	gp,40(sp)
  41092c:	1000000a 	b	410958 <_ftext@@Base+0xf8f8>
  410930:	00000000 	nop
  410934:	3c050042 	lui	a1,0x42
  410938:	24a5016c 	addiu	a1,a1,364
  41093c:	3c060042 	lui	a2,0x42
  410940:	24c6ec88 	addiu	a2,a2,-4984
  410944:	3c070042 	lui	a3,0x42
[31m  410948:	8f9980e8 	lw	t9,fprintf[0m
  41094c:	0320f809 	jalr	t9
  410950:	24e7ec90 	addiu	a3,a3,-4976
--
  41096c:	0320f809 	jalr	t9
  410970:	24a5ef24 	addiu	a1,a1,-4316
  410974:	8fbc0028 	lw	gp,40(sp)
  410978:	1440001c 	bnez	v0,4109ec <_ftext@@Base+0xf98c>
  41097c:	02002021 	move	a0,s0
  410980:	27b40030 	addiu	s4,sp,48
  410984:	02802021 	move	a0,s4
  410988:	00002821 	move	a1,zero
  41098c:	8f9980ac 	lw	t9,-32596(gp)
  410990:	0320f809 	jalr	t9
  410994:	24060100 	li	a2,256
  410998:	8fbc0028 	lw	gp,40(sp)
  41099c:	3c040042 	lui	a0,0x42
  4109a0:	2484ef80 	addiu	a0,a0,-4224
  4109a4:	3c050042 	lui	a1,0x42
  4109a8:	24a5efd0 	addiu	a1,a1,-4144
  4109ac:	8f998054 	lw	t9,-32684(gp)
  4109b0:	0320f809 	jalr	t9
  4109b4:	02803021 	move	a2,s4
  4109b8:	8fbc0028 	lw	gp,40(sp)
  4109bc:	02202021 	move	a0,s1
  4109c0:	3c050042 	lui	a1,0x42
  4109c4:	24a5016c 	addiu	a1,a1,364
  4109c8:	3c060042 	lui	a2,0x42
  4109cc:	24c6ef24 	addiu	a2,a2,-4316
[31m  4109d0:	8f9980e8 	lw	t9,fprintf[0m
  4109d4:	0320f809 	jalr	t9
  4109d8:	02803821 	move	a3,s4
--
  4109f4:	0320f809 	jalr	t9
  4109f8:	24a5ef3c 	addiu	a1,a1,-4292
  4109fc:	8fbc0028 	lw	gp,40(sp)
  410a00:	1440001d 	bnez	v0,410a78 <_ftext@@Base+0xfa18>
  410a04:	02002021 	move	a0,s0
  410a08:	27b40030 	addiu	s4,sp,48
  410a0c:	02802021 	move	a0,s4
  410a10:	00002821 	move	a1,zero
  410a14:	8f9980ac 	lw	t9,-32596(gp)
  410a18:	0320f809 	jalr	t9
  410a1c:	24060100 	li	a2,256
  410a20:	8fbc0028 	lw	gp,40(sp)
  410a24:	3c040042 	lui	a0,0x42
  410a28:	2484ef80 	addiu	a0,a0,-4224
  410a2c:	3c050042 	lui	a1,0x42
  410a30:	24a5efd4 	addiu	a1,a1,-4140
  410a34:	8f998054 	lw	t9,-32684(gp)
  410a38:	0320f809 	jalr	t9
  410a3c:	02803021 	move	a2,s4
  410a40:	8fbc0028 	lw	gp,40(sp)
  410a44:	02202021 	move	a0,s1
  410a48:	3c050042 	lui	a1,0x42
  410a4c:	24a5016c 	addiu	a1,a1,364
  410a50:	3c060042 	lui	a2,0x42
  410a54:	24c6ef3c 	addiu	a2,a2,-4292
[31m  410a58:	8f9980e8 	lw	t9,fprintf[0m
  410a5c:	0320f809 	jalr	t9
  410a60:	02803821 	move	a3,s4
  410a64:	8fbc0028 	lw	gp,40(sp)
  410a68:	92620000 	lbu	v0,0(s3)
  410a6c:	10400009 	beqz	v0,410a94 <_ftext@@Base+0xfa34>
  410a70:	02202021 	move	a0,s1
  410a74:	02002021 	move	a0,s0
  410a78:	3c050042 	lui	a1,0x42
  410a7c:	8f99809c 	lw	t9,-32612(gp)
  410a80:	0320f809 	jalr	t9
  410a84:	24a503a0 	addiu	a1,a1,928
  410a88:	8fbc0028 	lw	gp,40(sp)
  410a8c:	14401679 	bnez	v0,416474 <_ftext@@Base+0x15414>
  410a90:	02202021 	move	a0,s1
  410a94:	3c050042 	lui	a1,0x42
  410a98:	24a5016c 	addiu	a1,a1,364
  410a9c:	3c060042 	lui	a2,0x42
  410aa0:	24c603a0 	addiu	a2,a2,928
  410aa4:	3c070042 	lui	a3,0x42
[31m  410aa8:	8f9980e8 	lw	t9,fprintf[0m
  410aac:	0320f809 	jalr	t9
  410ab0:	24e703b0 	addiu	a3,a3,944
--
  410b24:	02002021 	move	a0,s0
  410b28:	3c050042 	lui	a1,0x42
  410b2c:	8f99809c 	lw	t9,-32612(gp)
  410b30:	0320f809 	jalr	t9
  410b34:	24a5ec88 	addiu	a1,a1,-4984
  410b38:	8fbc0028 	lw	gp,40(sp)
  410b3c:	14400025 	bnez	v0,410bd4 <_ftext@@Base+0xfb74>
  410b40:	02002021 	move	a0,s0
  410b44:	afa00130 	sw	zero,304(sp)
  410b48:	3c040042 	lui	a0,0x42
  410b4c:	2484efe0 	addiu	a0,a0,-4128
  410b50:	3c050042 	lui	a1,0x42
  410b54:	24a5ec94 	addiu	a1,a1,-4972
  410b58:	8f998054 	lw	t9,-32684(gp)
  410b5c:	0320f809 	jalr	t9
  410b60:	27a60130 	addiu	a2,sp,304
  410b64:	8fbc0028 	lw	gp,40(sp)
  410b68:	8fa20130 	lw	v0,304(sp)
  410b6c:	1040000c 	beqz	v0,410ba0 <_ftext@@Base+0xfb40>
  410b70:	02202021 	move	a0,s1
  410b74:	3c050042 	lui	a1,0x42
  410b78:	24a5016c 	addiu	a1,a1,364
  410b7c:	3c060042 	lui	a2,0x42
  410b80:	24c6ec88 	addiu	a2,a2,-4984
  410b84:	3c070042 	lui	a3,0x42
[31m  410b88:	8f9980e8 	lw	t9,fprintf[0m
  410b8c:	0320f809 	jalr	t9
  410b90:	24e7ec9c 	addiu	a3,a3,-4964
  410b94:	8fbc0028 	lw	gp,40(sp)
  410b98:	1000000a 	b	410bc4 <_ftext@@Base+0xfb64>
  410b9c:	00000000 	nop
  410ba0:	3c050042 	lui	a1,0x42
  410ba4:	24a5016c 	addiu	a1,a1,364
  410ba8:	3c060042 	lui	a2,0x42
  410bac:	24c6ec88 	addiu	a2,a2,-4984
  410bb0:	3c070042 	lui	a3,0x42
[31m  410bb4:	8f9980e8 	lw	t9,fprintf[0m
  410bb8:	0320f809 	jalr	t9
  410bbc:	24e7ec90 	addiu	a3,a3,-4976
--
  410bd8:	8f99809c 	lw	t9,-32612(gp)
  410bdc:	0320f809 	jalr	t9
  410be0:	24a5f038 	addiu	a1,a1,-4040
  410be4:	8fbc0028 	lw	gp,40(sp)
  410be8:	14401622 	bnez	v0,416474 <_ftext@@Base+0x15414>
  410bec:	27b30030 	addiu	s3,sp,48
  410bf0:	02602021 	move	a0,s3
  410bf4:	00002821 	move	a1,zero
  410bf8:	8f9980ac 	lw	t9,-32596(gp)
  410bfc:	0320f809 	jalr	t9
  410c00:	24060100 	li	a2,256
  410c04:	8fbc0028 	lw	gp,40(sp)
  410c08:	3c040042 	lui	a0,0x42
  410c0c:	2484ef80 	addiu	a0,a0,-4224
  410c10:	3c050042 	lui	a1,0x42
  410c14:	24a50184 	addiu	a1,a1,388
  410c18:	8f998054 	lw	t9,-32684(gp)
  410c1c:	0320f809 	jalr	t9
  410c20:	02603021 	move	a2,s3
  410c24:	8fbc0028 	lw	gp,40(sp)
  410c28:	02202021 	move	a0,s1
  410c2c:	3c050042 	lui	a1,0x42
  410c30:	24a5016c 	addiu	a1,a1,364
  410c34:	3c060042 	lui	a2,0x42
  410c38:	24c6f038 	addiu	a2,a2,-4040
[31m  410c3c:	8f9980e8 	lw	t9,fprintf[0m
  410c40:	0320f809 	jalr	t9
  410c44:	02603821 	move	a3,s3
--
  410cd8:	0320f809 	jalr	t9
  410cdc:	24a5ec80 	addiu	a1,a1,-4992
  410ce0:	8fbc0028 	lw	gp,40(sp)
  410ce4:	1440001c 	bnez	v0,410d58 <_ftext@@Base+0xfcf8>
  410ce8:	02002021 	move	a0,s0
  410cec:	27b40030 	addiu	s4,sp,48
  410cf0:	02802021 	move	a0,s4
  410cf4:	00002821 	move	a1,zero
  410cf8:	8f9980ac 	lw	t9,-32596(gp)
  410cfc:	0320f809 	jalr	t9
  410d00:	24060100 	li	a2,256
  410d04:	8fbc0028 	lw	gp,40(sp)
  410d08:	3c040042 	lui	a0,0x42
  410d0c:	2484eb78 	addiu	a0,a0,-5256
  410d10:	3c050042 	lui	a1,0x42
  410d14:	24a5eb84 	addiu	a1,a1,-5244
  410d18:	8f998054 	lw	t9,-32684(gp)
  410d1c:	0320f809 	jalr	t9
  410d20:	02803021 	move	a2,s4
  410d24:	8fbc0028 	lw	gp,40(sp)
  410d28:	02202021 	move	a0,s1
  410d2c:	3c050042 	lui	a1,0x42
  410d30:	24a5016c 	addiu	a1,a1,364
  410d34:	3c060042 	lui	a2,0x42
  410d38:	24c6ec80 	addiu	a2,a2,-4992
[31m  410d3c:	8f9980e8 	lw	t9,fprintf[0m
  410d40:	0320f809 	jalr	t9
  410d44:	02803821 	move	a3,s4
--
  410d54:	02002021 	move	a0,s0
  410d58:	3c050042 	lui	a1,0x42
  410d5c:	8f99809c 	lw	t9,-32612(gp)
  410d60:	0320f809 	jalr	t9
  410d64:	24a5f5d0 	addiu	a1,a1,-2608
  410d68:	8fbc0028 	lw	gp,40(sp)
  410d6c:	14400024 	bnez	v0,410e00 <_ftext@@Base+0xfda0>
  410d70:	02002021 	move	a0,s0
  410d74:	afa00130 	sw	zero,304(sp)
  410d78:	3c040042 	lui	a0,0x42
  410d7c:	2484eb78 	addiu	a0,a0,-5256
  410d80:	3c050042 	lui	a1,0x42
  410d84:	24a5f5d0 	addiu	a1,a1,-2608
  410d88:	8f998054 	lw	t9,-32684(gp)
  410d8c:	0320f809 	jalr	t9
  410d90:	27a60130 	addiu	a2,sp,304
  410d94:	8fbc0028 	lw	gp,40(sp)
  410d98:	8fa20130 	lw	v0,304(sp)
  410d9c:	1440000c 	bnez	v0,410dd0 <_ftext@@Base+0xfd70>
  410da0:	02202021 	move	a0,s1
  410da4:	3c050042 	lui	a1,0x42
  410da8:	24a5016c 	addiu	a1,a1,364
  410dac:	3c060042 	lui	a2,0x42
  410db0:	24c6f5d0 	addiu	a2,a2,-2608
  410db4:	3c070042 	lui	a3,0x42
[31m  410db8:	8f9980e8 	lw	t9,fprintf[0m
  410dbc:	0320f809 	jalr	t9
  410dc0:	24e7eca0 	addiu	a3,a3,-4960
  410dc4:	8fbc0028 	lw	gp,40(sp)
  410dc8:	1000000a 	b	410df4 <_ftext@@Base+0xfd94>
  410dcc:	00000000 	nop
  410dd0:	3c050042 	lui	a1,0x42
  410dd4:	24a5016c 	addiu	a1,a1,364
  410dd8:	3c060042 	lui	a2,0x42
  410ddc:	24c6f5d0 	addiu	a2,a2,-2608
  410de0:	3c070042 	lui	a3,0x42
[31m  410de4:	8f9980e8 	lw	t9,fprintf[0m
  410de8:	0320f809 	jalr	t9
  410dec:	24e7eca8 	addiu	a3,a3,-4952
--
  410dfc:	02002021 	move	a0,s0
  410e00:	3c050042 	lui	a1,0x42
  410e04:	8f99809c 	lw	t9,-32612(gp)
  410e08:	0320f809 	jalr	t9
  410e0c:	24a5ec88 	addiu	a1,a1,-4984
  410e10:	8fbc0028 	lw	gp,40(sp)
  410e14:	14400025 	bnez	v0,410eac <_ftext@@Base+0xfe4c>
  410e18:	02002021 	move	a0,s0
  410e1c:	afa00130 	sw	zero,304(sp)
  410e20:	3c040042 	lui	a0,0x42
  410e24:	2484eb78 	addiu	a0,a0,-5256
  410e28:	3c050042 	lui	a1,0x42
  410e2c:	24a5ec94 	addiu	a1,a1,-4972
  410e30:	8f998054 	lw	t9,-32684(gp)
  410e34:	0320f809 	jalr	t9
  410e38:	27a60130 	addiu	a2,sp,304
  410e3c:	8fbc0028 	lw	gp,40(sp)
  410e40:	8fa20130 	lw	v0,304(sp)
  410e44:	1040000c 	beqz	v0,410e78 <_ftext@@Base+0xfe18>
  410e48:	02202021 	move	a0,s1
  410e4c:	3c050042 	lui	a1,0x42
  410e50:	24a5016c 	addiu	a1,a1,364
  410e54:	3c060042 	lui	a2,0x42
  410e58:	24c6ec88 	addiu	a2,a2,-4984
  410e5c:	3c070042 	lui	a3,0x42
[31m  410e60:	8f9980e8 	lw	t9,fprintf[0m
  410e64:	0320f809 	jalr	t9
  410e68:	24e7ec9c 	addiu	a3,a3,-4964
  410e6c:	8fbc0028 	lw	gp,40(sp)
  410e70:	1000000a 	b	410e9c <_ftext@@Base+0xfe3c>
  410e74:	00000000 	nop
  410e78:	3c050042 	lui	a1,0x42
  410e7c:	24a5016c 	addiu	a1,a1,364
  410e80:	3c060042 	lui	a2,0x42
  410e84:	24c6ec88 	addiu	a2,a2,-4984
  410e88:	3c070042 	lui	a3,0x42
[31m  410e8c:	8f9980e8 	lw	t9,fprintf[0m
  410e90:	0320f809 	jalr	t9
  410e94:	24e7ec90 	addiu	a3,a3,-4976
  410e98:	8fbc0028 	lw	gp,40(sp)
  410e9c:	92620000 	lbu	v0,0(s3)
  410ea0:	10400009 	beqz	v0,410ec8 <_ftext@@Base+0xfe68>
  410ea4:	00000000 	nop
  410ea8:	02002021 	move	a0,s0
  410eac:	3c050042 	lui	a1,0x42
  410eb0:	8f99809c 	lw	t9,-32612(gp)
  410eb4:	0320f809 	jalr	t9
  410eb8:	24a5eb8c 	addiu	a1,a1,-5236
  410ebc:	8fbc0028 	lw	gp,40(sp)
  410ec0:	1440156c 	bnez	v0,416474 <_ftext@@Base+0x15414>
  410ec4:	00000000 	nop
  410ec8:	afa00130 	sw	zero,304(sp)
  410ecc:	3c040042 	lui	a0,0x42
  410ed0:	2484eb78 	addiu	a0,a0,-5256
  410ed4:	3c130042 	lui	s3,0x42
  410ed8:	2665eb8c 	addiu	a1,s3,-5236
  410edc:	8f998054 	lw	t9,-32684(gp)
  410ee0:	0320f809 	jalr	t9
  410ee4:	27a60130 	addiu	a2,sp,304
  410ee8:	8fbc0028 	lw	gp,40(sp)
  410eec:	02202021 	move	a0,s1
  410ef0:	3c050042 	lui	a1,0x42
  410ef4:	24a501f4 	addiu	a1,a1,500
  410ef8:	8fa70130 	lw	a3,304(sp)
[31m  410efc:	8f9980e8 	lw	t9,fprintf[0m
  410f00:	0320f809 	jalr	t9
  410f04:	2666eb8c 	addiu	a2,s3,-5236
--
  4112d4:	0320f809 	jalr	t9
  4112d8:	24a5ecf0 	addiu	a1,a1,-4880
  4112dc:	8fbc0028 	lw	gp,40(sp)
  4112e0:	1440001d 	bnez	v0,411358 <_ftext@@Base+0x102f8>
  4112e4:	02002021 	move	a0,s0
  4112e8:	27b40030 	addiu	s4,sp,48
  4112ec:	02802021 	move	a0,s4
  4112f0:	00002821 	move	a1,zero
  4112f4:	8f9980ac 	lw	t9,-32596(gp)
  4112f8:	0320f809 	jalr	t9
  4112fc:	24060100 	li	a2,256
  411300:	8fbc0028 	lw	gp,40(sp)
  411304:	3c040042 	lui	a0,0x42
  411308:	2484eb78 	addiu	a0,a0,-5256
  41130c:	3c050042 	lui	a1,0x42
  411310:	24a5ec00 	addiu	a1,a1,-5120
  411314:	8f998054 	lw	t9,-32684(gp)
  411318:	0320f809 	jalr	t9
  41131c:	02803021 	move	a2,s4
  411320:	8fbc0028 	lw	gp,40(sp)
  411324:	02202021 	move	a0,s1
  411328:	3c050042 	lui	a1,0x42
  41132c:	24a5016c 	addiu	a1,a1,364
  411330:	3c060042 	lui	a2,0x42
  411334:	24c6ecf0 	addiu	a2,a2,-4880
[31m  411338:	8f9980e8 	lw	t9,fprintf[0m
  41133c:	0320f809 	jalr	t9
  411340:	02803821 	move	a3,s4
--
  41135c:	8f99809c 	lw	t9,-32612(gp)
  411360:	0320f809 	jalr	t9
  411364:	24a5ecfc 	addiu	a1,a1,-4868
  411368:	8fbc0028 	lw	gp,40(sp)
  41136c:	14401441 	bnez	v0,416474 <_ftext@@Base+0x15414>
  411370:	27b30030 	addiu	s3,sp,48
  411374:	02602021 	move	a0,s3
  411378:	00002821 	move	a1,zero
  41137c:	8f9980ac 	lw	t9,-32596(gp)
  411380:	0320f809 	jalr	t9
  411384:	24060100 	li	a2,256
  411388:	8fbc0028 	lw	gp,40(sp)
  41138c:	3c040042 	lui	a0,0x42
  411390:	2484eb78 	addiu	a0,a0,-5256
  411394:	3c050042 	lui	a1,0x42
  411398:	24a5ec00 	addiu	a1,a1,-5120
  41139c:	8f998054 	lw	t9,-32684(gp)
  4113a0:	0320f809 	jalr	t9
  4113a4:	02603021 	move	a2,s3
  4113a8:	8fbc0028 	lw	gp,40(sp)
  4113ac:	02202021 	move	a0,s1
  4113b0:	3c050042 	lui	a1,0x42
  4113b4:	24a5016c 	addiu	a1,a1,364
  4113b8:	3c060042 	lui	a2,0x42
  4113bc:	24c6ecfc 	addiu	a2,a2,-4868
[31m  4113c0:	8f9980e8 	lw	t9,fprintf[0m
  4113c4:	0320f809 	jalr	t9
  4113c8:	02603821 	move	a3,s3
--
  41170c:	0320f809 	jalr	t9
  411710:	24a5ed5c 	addiu	a1,a1,-4772
  411714:	8fbc0028 	lw	gp,40(sp)
  411718:	1440001c 	bnez	v0,41178c <_ftext@@Base+0x1072c>
  41171c:	02002021 	move	a0,s0
  411720:	27b40030 	addiu	s4,sp,48
  411724:	02802021 	move	a0,s4
  411728:	00002821 	move	a1,zero
  41172c:	8f9980ac 	lw	t9,-32596(gp)
  411730:	0320f809 	jalr	t9
  411734:	24060100 	li	a2,256
  411738:	8fbc0028 	lw	gp,40(sp)
  41173c:	3c040042 	lui	a0,0x42
  411740:	2484eb78 	addiu	a0,a0,-5256
  411744:	3c050042 	lui	a1,0x42
  411748:	24a5ed64 	addiu	a1,a1,-4764
  41174c:	8f998054 	lw	t9,-32684(gp)
  411750:	0320f809 	jalr	t9
  411754:	02803021 	move	a2,s4
  411758:	8fbc0028 	lw	gp,40(sp)
  41175c:	02202021 	move	a0,s1
  411760:	3c050042 	lui	a1,0x42
  411764:	24a5016c 	addiu	a1,a1,364
  411768:	3c060042 	lui	a2,0x42
  41176c:	24c6ed5c 	addiu	a2,a2,-4772
[31m  411770:	8f9980e8 	lw	t9,fprintf[0m
  411774:	0320f809 	jalr	t9
  411778:	02803821 	move	a3,s4
--
  411794:	0320f809 	jalr	t9
  411798:	24a5ed6c 	addiu	a1,a1,-4756
  41179c:	8fbc0028 	lw	gp,40(sp)
  4117a0:	1440001c 	bnez	v0,411814 <_ftext@@Base+0x107b4>
  4117a4:	02002021 	move	a0,s0
  4117a8:	27b40030 	addiu	s4,sp,48
  4117ac:	02802021 	move	a0,s4
  4117b0:	00002821 	move	a1,zero
  4117b4:	8f9980ac 	lw	t9,-32596(gp)
  4117b8:	0320f809 	jalr	t9
  4117bc:	24060100 	li	a2,256
  4117c0:	8fbc0028 	lw	gp,40(sp)
  4117c4:	3c040042 	lui	a0,0x42
  4117c8:	2484eb78 	addiu	a0,a0,-5256
  4117cc:	3c050042 	lui	a1,0x42
  4117d0:	24a5ed74 	addiu	a1,a1,-4748
  4117d4:	8f998054 	lw	t9,-32684(gp)
  4117d8:	0320f809 	jalr	t9
  4117dc:	02803021 	move	a2,s4
  4117e0:	8fbc0028 	lw	gp,40(sp)
  4117e4:	02202021 	move	a0,s1
  4117e8:	3c050042 	lui	a1,0x42
  4117ec:	24a5016c 	addiu	a1,a1,364
  4117f0:	3c060042 	lui	a2,0x42
  4117f4:	24c6ed6c 	addiu	a2,a2,-4756
[31m  4117f8:	8f9980e8 	lw	t9,fprintf[0m
  4117fc:	0320f809 	jalr	t9
  411800:	02803821 	move	a3,s4
--
  41181c:	0320f809 	jalr	t9
  411820:	24a5ed7c 	addiu	a1,a1,-4740
  411824:	8fbc0028 	lw	gp,40(sp)
  411828:	1440001c 	bnez	v0,41189c <_ftext@@Base+0x1083c>
  41182c:	02002021 	move	a0,s0
  411830:	27b40030 	addiu	s4,sp,48
  411834:	02802021 	move	a0,s4
  411838:	00002821 	move	a1,zero
  41183c:	8f9980ac 	lw	t9,-32596(gp)
  411840:	0320f809 	jalr	t9
  411844:	24060100 	li	a2,256
  411848:	8fbc0028 	lw	gp,40(sp)
  41184c:	3c040042 	lui	a0,0x42
  411850:	2484eb78 	addiu	a0,a0,-5256
  411854:	3c050042 	lui	a1,0x42
  411858:	24a5ed84 	addiu	a1,a1,-4732
  41185c:	8f998054 	lw	t9,-32684(gp)
  411860:	0320f809 	jalr	t9
  411864:	02803021 	move	a2,s4
  411868:	8fbc0028 	lw	gp,40(sp)
  41186c:	02202021 	move	a0,s1
  411870:	3c050042 	lui	a1,0x42
  411874:	24a5016c 	addiu	a1,a1,364
  411878:	3c060042 	lui	a2,0x42
  41187c:	24c6ed7c 	addiu	a2,a2,-4740
[31m  411880:	8f9980e8 	lw	t9,fprintf[0m
  411884:	0320f809 	jalr	t9
  411888:	02803821 	move	a3,s4
--
  4118a4:	0320f809 	jalr	t9
  4118a8:	24a5ed8c 	addiu	a1,a1,-4724
  4118ac:	8fbc0028 	lw	gp,40(sp)
  4118b0:	1440001d 	bnez	v0,411928 <_ftext@@Base+0x108c8>
  4118b4:	02002021 	move	a0,s0
  4118b8:	27b40030 	addiu	s4,sp,48
  4118bc:	02802021 	move	a0,s4
  4118c0:	00002821 	move	a1,zero
  4118c4:	8f9980ac 	lw	t9,-32596(gp)
  4118c8:	0320f809 	jalr	t9
  4118cc:	24060100 	li	a2,256
  4118d0:	8fbc0028 	lw	gp,40(sp)
  4118d4:	3c040042 	lui	a0,0x42
  4118d8:	2484eb78 	addiu	a0,a0,-5256
  4118dc:	3c050042 	lui	a1,0x42
  4118e0:	24a5ed94 	addiu	a1,a1,-4716
  4118e4:	8f998054 	lw	t9,-32684(gp)
  4118e8:	0320f809 	jalr	t9
  4118ec:	02803021 	move	a2,s4
  4118f0:	8fbc0028 	lw	gp,40(sp)
  4118f4:	02202021 	move	a0,s1
  4118f8:	3c050042 	lui	a1,0x42
  4118fc:	24a5016c 	addiu	a1,a1,364
  411900:	3c060042 	lui	a2,0x42
  411904:	24c6ed8c 	addiu	a2,a2,-4724
[31m  411908:	8f9980e8 	lw	t9,fprintf[0m
  41190c:	0320f809 	jalr	t9
  411910:	02803821 	move	a3,s4
--
  41191c:	10400009 	beqz	v0,411944 <_ftext@@Base+0x108e4>
  411920:	00000000 	nop
  411924:	02002021 	move	a0,s0
  411928:	3c050042 	lui	a1,0x42
  41192c:	8f99809c 	lw	t9,-32612(gp)
  411930:	0320f809 	jalr	t9
  411934:	24a5ed9c 	addiu	a1,a1,-4708
  411938:	8fbc0028 	lw	gp,40(sp)
  41193c:	144012cd 	bnez	v0,416474 <_ftext@@Base+0x15414>
  411940:	00000000 	nop
  411944:	afa00130 	sw	zero,304(sp)
  411948:	3c040042 	lui	a0,0x42
  41194c:	2484eb78 	addiu	a0,a0,-5256
  411950:	3c050042 	lui	a1,0x42
  411954:	24a5eda8 	addiu	a1,a1,-4696
  411958:	8f998054 	lw	t9,-32684(gp)
  41195c:	0320f809 	jalr	t9
  411960:	27a60130 	addiu	a2,sp,304
  411964:	8fbc0028 	lw	gp,40(sp)
  411968:	02202021 	move	a0,s1
  41196c:	3c050042 	lui	a1,0x42
  411970:	24a501f4 	addiu	a1,a1,500
  411974:	3c060042 	lui	a2,0x42
  411978:	24c6ed9c 	addiu	a2,a2,-4708
  41197c:	8fa70130 	lw	a3,304(sp)
[31m  411980:	8f9980e8 	lw	t9,fprintf[0m
  411984:	0320f809 	jalr	t9
  411988:	24e70001 	addiu	a3,a3,1
--
  4119fc:	02002021 	move	a0,s0
  411a00:	3c050042 	lui	a1,0x42
  411a04:	8f99809c 	lw	t9,-32612(gp)
  411a08:	0320f809 	jalr	t9
  411a0c:	24a5ec88 	addiu	a1,a1,-4984
  411a10:	8fbc0028 	lw	gp,40(sp)
  411a14:	14400025 	bnez	v0,411aac <_ftext@@Base+0x10a4c>
  411a18:	02002021 	move	a0,s0
  411a1c:	afa00130 	sw	zero,304(sp)
  411a20:	3c040042 	lui	a0,0x42
  411a24:	2484f000 	addiu	a0,a0,-4096
  411a28:	3c050042 	lui	a1,0x42
  411a2c:	24a5ec94 	addiu	a1,a1,-4972
  411a30:	8f998054 	lw	t9,-32684(gp)
  411a34:	0320f809 	jalr	t9
  411a38:	27a60130 	addiu	a2,sp,304
  411a3c:	8fbc0028 	lw	gp,40(sp)
  411a40:	8fa20130 	lw	v0,304(sp)
  411a44:	1040000c 	beqz	v0,411a78 <_ftext@@Base+0x10a18>
  411a48:	02202021 	move	a0,s1
  411a4c:	3c050042 	lui	a1,0x42
  411a50:	24a5016c 	addiu	a1,a1,364
  411a54:	3c060042 	lui	a2,0x42
  411a58:	24c6ec88 	addiu	a2,a2,-4984
  411a5c:	3c070042 	lui	a3,0x42
[31m  411a60:	8f9980e8 	lw	t9,fprintf[0m
  411a64:	0320f809 	jalr	t9
  411a68:	24e7ec9c 	addiu	a3,a3,-4964
  411a6c:	8fbc0028 	lw	gp,40(sp)
  411a70:	1000000a 	b	411a9c <_ftext@@Base+0x10a3c>
  411a74:	00000000 	nop
  411a78:	3c050042 	lui	a1,0x42
  411a7c:	24a5016c 	addiu	a1,a1,364
  411a80:	3c060042 	lui	a2,0x42
  411a84:	24c6ec88 	addiu	a2,a2,-4984
  411a88:	3c070042 	lui	a3,0x42
[31m  411a8c:	8f9980e8 	lw	t9,fprintf[0m
  411a90:	0320f809 	jalr	t9
  411a94:	24e7ec90 	addiu	a3,a3,-4976
--
  411a9c:	92620000 	lbu	v0,0(s3)
  411aa0:	10400009 	beqz	v0,411ac8 <_ftext@@Base+0x10a68>
  411aa4:	00000000 	nop
  411aa8:	02002021 	move	a0,s0
  411aac:	3c050042 	lui	a1,0x42
  411ab0:	8f99809c 	lw	t9,-32612(gp)
  411ab4:	0320f809 	jalr	t9
  411ab8:	24a5f008 	addiu	a1,a1,-4088
  411abc:	8fbc0028 	lw	gp,40(sp)
  411ac0:	1440126c 	bnez	v0,416474 <_ftext@@Base+0x15414>
  411ac4:	00000000 	nop
  411ac8:	afa00130 	sw	zero,304(sp)
  411acc:	3c040042 	lui	a0,0x42
  411ad0:	2484f000 	addiu	a0,a0,-4096
  411ad4:	3c050042 	lui	a1,0x42
  411ad8:	24a5f488 	addiu	a1,a1,-2936
  411adc:	8f998054 	lw	t9,-32684(gp)
  411ae0:	0320f809 	jalr	t9
  411ae4:	27a60130 	addiu	a2,sp,304
  411ae8:	8fbc0028 	lw	gp,40(sp)
  411aec:	02202021 	move	a0,s1
  411af0:	3c050042 	lui	a1,0x42
  411af4:	24a501f4 	addiu	a1,a1,500
  411af8:	3c060042 	lui	a2,0x42
  411afc:	8fa70130 	lw	a3,304(sp)
[31m  411b00:	8f9980e8 	lw	t9,fprintf[0m
  411b04:	0320f809 	jalr	t9
  411b08:	24c6f008 	addiu	a2,a2,-4088
--
  411b84:	02002021 	move	a0,s0
  411b88:	3c050042 	lui	a1,0x42
  411b8c:	8f99809c 	lw	t9,-32612(gp)
  411b90:	0320f809 	jalr	t9
  411b94:	24a5ec88 	addiu	a1,a1,-4984
  411b98:	8fbc0028 	lw	gp,40(sp)
  411b9c:	14400025 	bnez	v0,411c34 <_ftext@@Base+0x10bd4>
  411ba0:	02002021 	move	a0,s0
  411ba4:	afa00130 	sw	zero,304(sp)
  411ba8:	3c040042 	lui	a0,0x42
  411bac:	2484f030 	addiu	a0,a0,-4048
  411bb0:	3c050042 	lui	a1,0x42
  411bb4:	24a5ec94 	addiu	a1,a1,-4972
  411bb8:	8f998054 	lw	t9,-32684(gp)
  411bbc:	0320f809 	jalr	t9
  411bc0:	27a60130 	addiu	a2,sp,304
  411bc4:	8fbc0028 	lw	gp,40(sp)
  411bc8:	8fa20130 	lw	v0,304(sp)
  411bcc:	1040000c 	beqz	v0,411c00 <_ftext@@Base+0x10ba0>
  411bd0:	02202021 	move	a0,s1
  411bd4:	3c050042 	lui	a1,0x42
  411bd8:	24a5016c 	addiu	a1,a1,364
  411bdc:	3c060042 	lui	a2,0x42
  411be0:	24c6ec88 	addiu	a2,a2,-4984
  411be4:	3c070042 	lui	a3,0x42
[31m  411be8:	8f9980e8 	lw	t9,fprintf[0m
  411bec:	0320f809 	jalr	t9
  411bf0:	24e7ec9c 	addiu	a3,a3,-4964
  411bf4:	8fbc0028 	lw	gp,40(sp)
  411bf8:	1000000a 	b	411c24 <_ftext@@Base+0x10bc4>
  411bfc:	00000000 	nop
  411c00:	3c050042 	lui	a1,0x42
  411c04:	24a5016c 	addiu	a1,a1,364
  411c08:	3c060042 	lui	a2,0x42
  411c0c:	24c6ec88 	addiu	a2,a2,-4984
  411c10:	3c070042 	lui	a3,0x42
[31m  411c14:	8f9980e8 	lw	t9,fprintf[0m
  411c18:	0320f809 	jalr	t9
  411c1c:	24e7ec90 	addiu	a3,a3,-4976
--
  411c38:	8f99809c 	lw	t9,-32612(gp)
  411c3c:	0320f809 	jalr	t9
  411c40:	24a5f038 	addiu	a1,a1,-4040
  411c44:	8fbc0028 	lw	gp,40(sp)
  411c48:	1440120a 	bnez	v0,416474 <_ftext@@Base+0x15414>
  411c4c:	27b30030 	addiu	s3,sp,48
  411c50:	02602021 	move	a0,s3
  411c54:	00002821 	move	a1,zero
  411c58:	8f9980ac 	lw	t9,-32596(gp)
  411c5c:	0320f809 	jalr	t9
  411c60:	24060100 	li	a2,256
  411c64:	8fbc0028 	lw	gp,40(sp)
  411c68:	3c040042 	lui	a0,0x42
  411c6c:	2484f030 	addiu	a0,a0,-4048
  411c70:	3c050042 	lui	a1,0x42
  411c74:	24a5017c 	addiu	a1,a1,380
  411c78:	8f998054 	lw	t9,-32684(gp)
  411c7c:	0320f809 	jalr	t9
  411c80:	02603021 	move	a2,s3
  411c84:	8fbc0028 	lw	gp,40(sp)
  411c88:	02202021 	move	a0,s1
  411c8c:	3c050042 	lui	a1,0x42
  411c90:	24a5016c 	addiu	a1,a1,364
  411c94:	3c060042 	lui	a2,0x42
  411c98:	24c6f038 	addiu	a2,a2,-4040
[31m  411c9c:	8f9980e8 	lw	t9,fprintf[0m
  411ca0:	0320f809 	jalr	t9
  411ca4:	02603821 	move	a3,s3
--
  411d08:	8fbc0028 	lw	gp,40(sp)
  411d0c:	92020000 	lbu	v0,0(s0)
  411d10:	10400009 	beqz	v0,411d38 <_ftext@@Base+0x10cd8>
  411d14:	00000000 	nop
  411d18:	02002021 	move	a0,s0
  411d1c:	3c050042 	lui	a1,0x42
  411d20:	8f99809c 	lw	t9,-32612(gp)
  411d24:	0320f809 	jalr	t9
  411d28:	24a5f060 	addiu	a1,a1,-4000
  411d2c:	8fbc0028 	lw	gp,40(sp)
  411d30:	14400016 	bnez	v0,411d8c <_ftext@@Base+0x10d2c>
  411d34:	02002021 	move	a0,s0
  411d38:	afa00130 	sw	zero,304(sp)
  411d3c:	3c040042 	lui	a0,0x42
  411d40:	2484f06c 	addiu	a0,a0,-3988
  411d44:	3c130042 	lui	s3,0x42
  411d48:	2665f060 	addiu	a1,s3,-4000
  411d4c:	8f998054 	lw	t9,-32684(gp)
  411d50:	0320f809 	jalr	t9
  411d54:	27a60130 	addiu	a2,sp,304
  411d58:	8fbc0028 	lw	gp,40(sp)
  411d5c:	02202021 	move	a0,s1
  411d60:	3c050042 	lui	a1,0x42
  411d64:	24a501f4 	addiu	a1,a1,500
  411d68:	8fa70130 	lw	a3,304(sp)
[31m  411d6c:	8f9980e8 	lw	t9,fprintf[0m
  411d70:	0320f809 	jalr	t9
  411d74:	2666f060 	addiu	a2,s3,-4000
  411d78:	8fbc0028 	lw	gp,40(sp)
  411d7c:	92820000 	lbu	v0,0(s4)
  411d80:	10400009 	beqz	v0,411da8 <_ftext@@Base+0x10d48>
  411d84:	00000000 	nop
  411d88:	02002021 	move	a0,s0
  411d8c:	3c050042 	lui	a1,0x42
  411d90:	8f99809c 	lw	t9,-32612(gp)
  411d94:	0320f809 	jalr	t9
  411d98:	24a5f070 	addiu	a1,a1,-3984
  411d9c:	8fbc0028 	lw	gp,40(sp)
  411da0:	144011b4 	bnez	v0,416474 <_ftext@@Base+0x15414>
  411da4:	00000000 	nop
  411da8:	afa00130 	sw	zero,304(sp)
  411dac:	3c040042 	lui	a0,0x42
  411db0:	2484f06c 	addiu	a0,a0,-3988
  411db4:	3c130042 	lui	s3,0x42
  411db8:	2665f070 	addiu	a1,s3,-3984
  411dbc:	8f998054 	lw	t9,-32684(gp)
  411dc0:	0320f809 	jalr	t9
  411dc4:	27a60130 	addiu	a2,sp,304
  411dc8:	8fbc0028 	lw	gp,40(sp)
  411dcc:	02202021 	move	a0,s1
  411dd0:	3c050042 	lui	a1,0x42
  411dd4:	24a501f4 	addiu	a1,a1,500
  411dd8:	8fa70130 	lw	a3,304(sp)
[31m  411ddc:	8f9980e8 	lw	t9,fprintf[0m
  411de0:	0320f809 	jalr	t9
  411de4:	2666f070 	addiu	a2,s3,-3984
--
  411e60:	3c050042 	lui	a1,0x42
  411e64:	8f99809c 	lw	t9,-32612(gp)
  411e68:	0320f809 	jalr	t9
  411e6c:	24a5f08c 	addiu	a1,a1,-3956
  411e70:	8fbc0028 	lw	gp,40(sp)
  411e74:	14401180 	bnez	v0,416478 <_ftext@@Base+0x15418>
  411e78:	02402021 	move	a0,s2
  411e7c:	afa00130 	sw	zero,304(sp)
  411e80:	3c040042 	lui	a0,0x42
  411e84:	2484ee24 	addiu	a0,a0,-4572
  411e88:	3c050042 	lui	a1,0x42
  411e8c:	24a5f094 	addiu	a1,a1,-3948
  411e90:	8f998054 	lw	t9,-32684(gp)
  411e94:	0320f809 	jalr	t9
  411e98:	27a60130 	addiu	a2,sp,304
  411e9c:	8fbc0028 	lw	gp,40(sp)
  411ea0:	24020001 	li	v0,1
  411ea4:	8fa30130 	lw	v1,304(sp)
  411ea8:	1462000c 	bne	v1,v0,411edc <_ftext@@Base+0x10e7c>
  411eac:	3c060042 	lui	a2,0x42
  411eb0:	02202021 	move	a0,s1
  411eb4:	3c050042 	lui	a1,0x42
  411eb8:	24a5016c 	addiu	a1,a1,364
  411ebc:	24c6f08c 	addiu	a2,a2,-3956
  411ec0:	3c070042 	lui	a3,0x42
[31m  411ec4:	8f9980e8 	lw	t9,fprintf[0m
  411ec8:	0320f809 	jalr	t9
  411ecc:	24e7eba0 	addiu	a3,a3,-5216
  411ed0:	8fbc0028 	lw	gp,40(sp)
  411ed4:	10001168 	b	416478 <_ftext@@Base+0x15418>
  411ed8:	02402021 	move	a0,s2
  411edc:	02202021 	move	a0,s1
  411ee0:	3c050042 	lui	a1,0x42
  411ee4:	24a5016c 	addiu	a1,a1,364
  411ee8:	24c6f08c 	addiu	a2,a2,-3956
  411eec:	3c070042 	lui	a3,0x42
[31m  411ef0:	8f9980e8 	lw	t9,fprintf[0m
  411ef4:	0320f809 	jalr	t9
  411ef8:	24e7f124 	addiu	a3,a3,-3804
--
  411f80:	3c050042 	lui	a1,0x42
  411f84:	8f99809c 	lw	t9,-32612(gp)
  411f88:	0320f809 	jalr	t9
  411f8c:	24a5f08c 	addiu	a1,a1,-3956
  411f90:	8fbc0028 	lw	gp,40(sp)
  411f94:	14400043 	bnez	v0,4120a4 <_ftext@@Base+0x11044>
  411f98:	02002021 	move	a0,s0
  411f9c:	afa00130 	sw	zero,304(sp)
  411fa0:	3c040042 	lui	a0,0x42
  411fa4:	2484ea60 	addiu	a0,a0,-5536
  411fa8:	3c050042 	lui	a1,0x42
  411fac:	24a5ead4 	addiu	a1,a1,-5420
  411fb0:	8f998054 	lw	t9,-32684(gp)
  411fb4:	0320f809 	jalr	t9
  411fb8:	27a60130 	addiu	a2,sp,304
  411fbc:	8fbc0028 	lw	gp,40(sp)
  411fc0:	8fa20130 	lw	v0,304(sp)
  411fc4:	1440000d 	bnez	v0,411ffc <_ftext@@Base+0x10f9c>
  411fc8:	24030002 	li	v1,2
  411fcc:	02202021 	move	a0,s1
  411fd0:	3c050042 	lui	a1,0x42
  411fd4:	24a5016c 	addiu	a1,a1,364
  411fd8:	3c060042 	lui	a2,0x42
  411fdc:	24c6f08c 	addiu	a2,a2,-3956
  411fe0:	3c070042 	lui	a3,0x42
[31m  411fe4:	8f9980e8 	lw	t9,fprintf[0m
  411fe8:	0320f809 	jalr	t9
  411fec:	24e7f1b0 	addiu	a3,a3,-3664
  411ff0:	8fbc0028 	lw	gp,40(sp)
  411ff4:	10000028 	b	412098 <_ftext@@Base+0x11038>
  411ff8:	00000000 	nop
  411ffc:	1443000d 	bne	v0,v1,412034 <_ftext@@Base+0x10fd4>
  412000:	24030003 	li	v1,3
  412004:	02202021 	move	a0,s1
  412008:	3c050042 	lui	a1,0x42
  41200c:	24a5016c 	addiu	a1,a1,364
  412010:	3c060042 	lui	a2,0x42
  412014:	24c6f08c 	addiu	a2,a2,-3956
  412018:	3c070042 	lui	a3,0x42
[31m  41201c:	8f9980e8 	lw	t9,fprintf[0m
  412020:	0320f809 	jalr	t9
  412024:	24e7f1cc 	addiu	a3,a3,-3636
  412028:	8fbc0028 	lw	gp,40(sp)
  41202c:	1000001a 	b	412098 <_ftext@@Base+0x11038>
  412030:	00000000 	nop
  412034:	1443000d 	bne	v0,v1,41206c <_ftext@@Base+0x1100c>
  412038:	24030004 	li	v1,4
  41203c:	02202021 	move	a0,s1
  412040:	3c050042 	lui	a1,0x42
  412044:	24a5016c 	addiu	a1,a1,364
  412048:	3c060042 	lui	a2,0x42
  41204c:	24c6f08c 	addiu	a2,a2,-3956
  412050:	3c070042 	lui	a3,0x42
[31m  412054:	8f9980e8 	lw	t9,fprintf[0m
  412058:	0320f809 	jalr	t9
  41205c:	24e7f1d0 	addiu	a3,a3,-3632
  412060:	8fbc0028 	lw	gp,40(sp)
  412064:	1000000c 	b	412098 <_ftext@@Base+0x11038>
  412068:	00000000 	nop
  41206c:	1443000a 	bne	v0,v1,412098 <_ftext@@Base+0x11038>
  412070:	02202021 	move	a0,s1
  412074:	3c050042 	lui	a1,0x42
  412078:	24a5016c 	addiu	a1,a1,364
  41207c:	3c060042 	lui	a2,0x42
  412080:	24c6f08c 	addiu	a2,a2,-3956
  412084:	3c070042 	lui	a3,0x42
[31m  412088:	8f9980e8 	lw	t9,fprintf[0m
  41208c:	0320f809 	jalr	t9
  412090:	24e7f1d8 	addiu	a3,a3,-3624
--
  4120b8:	1440001f 	bnez	v0,412138 <_ftext@@Base+0x110d8>
  4120bc:	02002021 	move	a0,s0
  4120c0:	afa00130 	sw	zero,304(sp)
  4120c4:	3c040042 	lui	a0,0x42
  4120c8:	2484ea60 	addiu	a0,a0,-5536
  4120cc:	3c050042 	lui	a1,0x42
  4120d0:	24a50644 	addiu	a1,a1,1604
  4120d4:	8f998054 	lw	t9,-32684(gp)
  4120d8:	0320f809 	jalr	t9
  4120dc:	27a60130 	addiu	a2,sp,304
  4120e0:	8fbc0028 	lw	gp,40(sp)
  4120e4:	8fa20130 	lw	v0,304(sp)
  4120e8:	3c038888 	lui	v1,0x8888
  4120ec:	34638889 	ori	v1,v1,0x8889
  4120f0:	00430018 	mult	v0,v1
  4120f4:	00001810 	mfhi	v1
  4120f8:	00623821 	addu	a3,v1,v0
  4120fc:	00073943 	sra	a3,a3,0x5
  412100:	000217c3 	sra	v0,v0,0x1f
  412104:	00e23823 	subu	a3,a3,v0
  412108:	afa70130 	sw	a3,304(sp)
  41210c:	02202021 	move	a0,s1
  412110:	3c050042 	lui	a1,0x42
  412114:	24a50650 	addiu	a1,a1,1616
  412118:	3c060042 	lui	a2,0x42
[31m  41211c:	8f9980e8 	lw	t9,fprintf[0m
  412120:	0320f809 	jalr	t9
  412124:	24c60638 	addiu	a2,a2,1592
--
  41215c:	2484ea60 	addiu	a0,a0,-5536
  412160:	3c050042 	lui	a1,0x42
  412164:	24a50644 	addiu	a1,a1,1604
  412168:	8f998054 	lw	t9,-32684(gp)
  41216c:	0320f809 	jalr	t9
  412170:	27a60130 	addiu	a2,sp,304
  412174:	8fbc0028 	lw	gp,40(sp)
  412178:	8fa20130 	lw	v0,304(sp)
  41217c:	3c038888 	lui	v1,0x8888
  412180:	34638889 	ori	v1,v1,0x8889
  412184:	00430018 	mult	v0,v1
  412188:	00001810 	mfhi	v1
  41218c:	00623821 	addu	a3,v1,v0
  412190:	00073943 	sra	a3,a3,0x5
  412194:	000227c3 	sra	a0,v0,0x1f
  412198:	00e43823 	subu	a3,a3,a0
  41219c:	00071880 	sll	v1,a3,0x2
  4121a0:	00073980 	sll	a3,a3,0x6
  4121a4:	00e33823 	subu	a3,a3,v1
  4121a8:	00473823 	subu	a3,v0,a3
  4121ac:	afa70130 	sw	a3,304(sp)
  4121b0:	02202021 	move	a0,s1
  4121b4:	3c050042 	lui	a1,0x42
  4121b8:	24a50650 	addiu	a1,a1,1616
  4121bc:	3c060042 	lui	a2,0x42
[31m  4121c0:	8f9980e8 	lw	t9,fprintf[0m
  4121c4:	0320f809 	jalr	t9
  4121c8:	24c6065c 	addiu	a2,a2,1628
--
  4121f0:	14400020 	bnez	v0,412274 <_ftext@@Base+0x11214>
  4121f4:	02002021 	move	a0,s0
  4121f8:	afa00130 	sw	zero,304(sp)
  4121fc:	3c040042 	lui	a0,0x42
  412200:	2484ea60 	addiu	a0,a0,-5536
  412204:	3c050042 	lui	a1,0x42
  412208:	24a50670 	addiu	a1,a1,1648
  41220c:	8f998054 	lw	t9,-32684(gp)
  412210:	0320f809 	jalr	t9
  412214:	27a60130 	addiu	a2,sp,304
  412218:	8fbc0028 	lw	gp,40(sp)
  41221c:	8fa20130 	lw	v0,304(sp)
  412220:	3c038888 	lui	v1,0x8888
  412224:	34638889 	ori	v1,v1,0x8889
  412228:	00430018 	mult	v0,v1
  41222c:	00001810 	mfhi	v1
  412230:	00623821 	addu	a3,v1,v0
  412234:	00073943 	sra	a3,a3,0x5
  412238:	000217c3 	sra	v0,v0,0x1f
  41223c:	00e23823 	subu	a3,a3,v0
  412240:	afa70130 	sw	a3,304(sp)
  412244:	02202021 	move	a0,s1
  412248:	3c050042 	lui	a1,0x42
  41224c:	24a50650 	addiu	a1,a1,1616
  412250:	3c060042 	lui	a2,0x42
[31m  412254:	8f9980e8 	lw	t9,fprintf[0m
  412258:	0320f809 	jalr	t9
  41225c:	24c60668 	addiu	a2,a2,1640
--
  412298:	2484ea60 	addiu	a0,a0,-5536
  41229c:	3c050042 	lui	a1,0x42
  4122a0:	24a50670 	addiu	a1,a1,1648
  4122a4:	8f998054 	lw	t9,-32684(gp)
  4122a8:	0320f809 	jalr	t9
  4122ac:	27a60130 	addiu	a2,sp,304
  4122b0:	8fbc0028 	lw	gp,40(sp)
  4122b4:	8fa20130 	lw	v0,304(sp)
  4122b8:	3c038888 	lui	v1,0x8888
  4122bc:	34638889 	ori	v1,v1,0x8889
  4122c0:	00430018 	mult	v0,v1
  4122c4:	00001810 	mfhi	v1
  4122c8:	00623821 	addu	a3,v1,v0
  4122cc:	00073943 	sra	a3,a3,0x5
  4122d0:	000227c3 	sra	a0,v0,0x1f
  4122d4:	00e43823 	subu	a3,a3,a0
  4122d8:	00071880 	sll	v1,a3,0x2
  4122dc:	00073980 	sll	a3,a3,0x6
  4122e0:	00e33823 	subu	a3,a3,v1
  4122e4:	00473823 	subu	a3,v0,a3
  4122e8:	afa70130 	sw	a3,304(sp)
  4122ec:	02202021 	move	a0,s1
  4122f0:	3c050042 	lui	a1,0x42
  4122f4:	24a50650 	addiu	a1,a1,1616
  4122f8:	3c060042 	lui	a2,0x42
[31m  4122fc:	8f9980e8 	lw	t9,fprintf[0m
  412300:	0320f809 	jalr	t9
  412304:	24c6067c 	addiu	a2,a2,1660
--
  41238c:	0320f809 	jalr	t9
  412390:	24a5f1ec 	addiu	a1,a1,-3604
  412394:	8fbc0028 	lw	gp,40(sp)
  412398:	1440001c 	bnez	v0,41240c <_ftext@@Base+0x113ac>
  41239c:	02002021 	move	a0,s0
  4123a0:	27b40030 	addiu	s4,sp,48
  4123a4:	02802021 	move	a0,s4
  4123a8:	00002821 	move	a1,zero
  4123ac:	8f9980ac 	lw	t9,-32596(gp)
  4123b0:	0320f809 	jalr	t9
  4123b4:	24060100 	li	a2,256
  4123b8:	8fbc0028 	lw	gp,40(sp)
  4123bc:	3c040042 	lui	a0,0x42
  4123c0:	2484f1f8 	addiu	a0,a0,-3592
  4123c4:	3c050042 	lui	a1,0x42
  4123c8:	24a5f20c 	addiu	a1,a1,-3572
  4123cc:	8f998054 	lw	t9,-32684(gp)
  4123d0:	0320f809 	jalr	t9
  4123d4:	02803021 	move	a2,s4
  4123d8:	8fbc0028 	lw	gp,40(sp)
  4123dc:	02202021 	move	a0,s1
  4123e0:	3c050042 	lui	a1,0x42
  4123e4:	24a5016c 	addiu	a1,a1,364
  4123e8:	3c060042 	lui	a2,0x42
  4123ec:	24c6f1ec 	addiu	a2,a2,-3604
[31m  4123f0:	8f9980e8 	lw	t9,fprintf[0m
  4123f4:	0320f809 	jalr	t9
  4123f8:	02803821 	move	a3,s4
--
  412414:	0320f809 	jalr	t9
  412418:	24a5f218 	addiu	a1,a1,-3560
  41241c:	8fbc0028 	lw	gp,40(sp)
  412420:	1440001c 	bnez	v0,412494 <_ftext@@Base+0x11434>
  412424:	02002021 	move	a0,s0
  412428:	27b40030 	addiu	s4,sp,48
  41242c:	02802021 	move	a0,s4
  412430:	00002821 	move	a1,zero
  412434:	8f9980ac 	lw	t9,-32596(gp)
  412438:	0320f809 	jalr	t9
  41243c:	24060100 	li	a2,256
  412440:	8fbc0028 	lw	gp,40(sp)
  412444:	3c040042 	lui	a0,0x42
  412448:	2484f1f8 	addiu	a0,a0,-3592
  41244c:	3c050042 	lui	a1,0x42
  412450:	24a5f224 	addiu	a1,a1,-3548
  412454:	8f998054 	lw	t9,-32684(gp)
  412458:	0320f809 	jalr	t9
  41245c:	02803021 	move	a2,s4
  412460:	8fbc0028 	lw	gp,40(sp)
  412464:	02202021 	move	a0,s1
  412468:	3c050042 	lui	a1,0x42
  41246c:	24a5016c 	addiu	a1,a1,364
  412470:	3c060042 	lui	a2,0x42
  412474:	24c6f218 	addiu	a2,a2,-3560
[31m  412478:	8f9980e8 	lw	t9,fprintf[0m
  41247c:	0320f809 	jalr	t9
  412480:	02803821 	move	a3,s4
  412484:	8fbc0028 	lw	gp,40(sp)
  412488:	92620000 	lbu	v0,0(s3)
  41248c:	10400008 	beqz	v0,4124b0 <_ftext@@Base+0x11450>
  412490:	02002021 	move	a0,s0
  412494:	3c050042 	lui	a1,0x42
  412498:	8f99809c 	lw	t9,-32612(gp)
  41249c:	0320f809 	jalr	t9
  4124a0:	24a5f230 	addiu	a1,a1,-3536
  4124a4:	8fbc0028 	lw	gp,40(sp)
  4124a8:	14400016 	bnez	v0,412504 <_ftext@@Base+0x114a4>
  4124ac:	02002021 	move	a0,s0
  4124b0:	afa00130 	sw	zero,304(sp)
  4124b4:	3c040042 	lui	a0,0x42
  4124b8:	2484f1f8 	addiu	a0,a0,-3592
  4124bc:	3c050042 	lui	a1,0x42
  4124c0:	24a5f23c 	addiu	a1,a1,-3524
  4124c4:	8f998054 	lw	t9,-32684(gp)
  4124c8:	0320f809 	jalr	t9
  4124cc:	27a60130 	addiu	a2,sp,304
  4124d0:	8fbc0028 	lw	gp,40(sp)
  4124d4:	02202021 	move	a0,s1
  4124d8:	3c050042 	lui	a1,0x42
  4124dc:	24a501f4 	addiu	a1,a1,500
  4124e0:	3c060042 	lui	a2,0x42
  4124e4:	8fa70130 	lw	a3,304(sp)
[31m  4124e8:	8f9980e8 	lw	t9,fprintf[0m
  4124ec:	0320f809 	jalr	t9
  4124f0:	24c6f230 	addiu	a2,a2,-3536
--
  412500:	02002021 	move	a0,s0
  412504:	3c050042 	lui	a1,0x42
  412508:	8f99809c 	lw	t9,-32612(gp)
  41250c:	0320f809 	jalr	t9
  412510:	24a5f248 	addiu	a1,a1,-3512
  412514:	8fbc0028 	lw	gp,40(sp)
  412518:	14400024 	bnez	v0,4125ac <_ftext@@Base+0x1154c>
  41251c:	02002021 	move	a0,s0
  412520:	afa00130 	sw	zero,304(sp)
  412524:	3c040042 	lui	a0,0x42
  412528:	2484f1f8 	addiu	a0,a0,-3592
  41252c:	3c050042 	lui	a1,0x42
  412530:	24a5f248 	addiu	a1,a1,-3512
  412534:	8f998054 	lw	t9,-32684(gp)
  412538:	0320f809 	jalr	t9
  41253c:	27a60130 	addiu	a2,sp,304
  412540:	8fbc0028 	lw	gp,40(sp)
  412544:	8fa20130 	lw	v0,304(sp)
  412548:	1040000c 	beqz	v0,41257c <_ftext@@Base+0x1151c>
  41254c:	02202021 	move	a0,s1
  412550:	3c050042 	lui	a1,0x42
  412554:	24a5016c 	addiu	a1,a1,364
  412558:	3c060042 	lui	a2,0x42
  41255c:	24c6f248 	addiu	a2,a2,-3512
  412560:	3c070042 	lui	a3,0x42
[31m  412564:	8f9980e8 	lw	t9,fprintf[0m
  412568:	0320f809 	jalr	t9
  41256c:	24e7ec9c 	addiu	a3,a3,-4964
  412570:	8fbc0028 	lw	gp,40(sp)
  412574:	1000000a 	b	4125a0 <_ftext@@Base+0x11540>
  412578:	00000000 	nop
  41257c:	3c050042 	lui	a1,0x42
  412580:	24a5016c 	addiu	a1,a1,364
  412584:	3c060042 	lui	a2,0x42
  412588:	24c6f248 	addiu	a2,a2,-3512
  41258c:	3c070042 	lui	a3,0x42
[31m  412590:	8f9980e8 	lw	t9,fprintf[0m
  412594:	0320f809 	jalr	t9
  412598:	24e7ec90 	addiu	a3,a3,-4976
--
  4125a8:	02002021 	move	a0,s0
  4125ac:	3c050042 	lui	a1,0x42
  4125b0:	8f99809c 	lw	t9,-32612(gp)
  4125b4:	0320f809 	jalr	t9
  4125b8:	24a5f24c 	addiu	a1,a1,-3508
  4125bc:	8fbc0028 	lw	gp,40(sp)
  4125c0:	14400024 	bnez	v0,412654 <_ftext@@Base+0x115f4>
  4125c4:	02002021 	move	a0,s0
  4125c8:	afa00130 	sw	zero,304(sp)
  4125cc:	3c040042 	lui	a0,0x42
  4125d0:	2484f1f8 	addiu	a0,a0,-3592
  4125d4:	3c050042 	lui	a1,0x42
  4125d8:	24a5f24c 	addiu	a1,a1,-3508
  4125dc:	8f998054 	lw	t9,-32684(gp)
  4125e0:	0320f809 	jalr	t9
  4125e4:	27a60130 	addiu	a2,sp,304
  4125e8:	8fbc0028 	lw	gp,40(sp)
  4125ec:	8fa20130 	lw	v0,304(sp)
  4125f0:	1040000c 	beqz	v0,412624 <_ftext@@Base+0x115c4>
  4125f4:	02202021 	move	a0,s1
  4125f8:	3c050042 	lui	a1,0x42
  4125fc:	24a5016c 	addiu	a1,a1,364
  412600:	3c060042 	lui	a2,0x42
  412604:	24c6f24c 	addiu	a2,a2,-3508
  412608:	3c070042 	lui	a3,0x42
[31m  41260c:	8f9980e8 	lw	t9,fprintf[0m
  412610:	0320f809 	jalr	t9
  412614:	24e7ec9c 	addiu	a3,a3,-4964
  412618:	8fbc0028 	lw	gp,40(sp)
  41261c:	1000000a 	b	412648 <_ftext@@Base+0x115e8>
  412620:	00000000 	nop
  412624:	3c050042 	lui	a1,0x42
  412628:	24a5016c 	addiu	a1,a1,364
  41262c:	3c060042 	lui	a2,0x42
  412630:	24c6f24c 	addiu	a2,a2,-3508
  412634:	3c070042 	lui	a3,0x42
[31m  412638:	8f9980e8 	lw	t9,fprintf[0m
  41263c:	0320f809 	jalr	t9
  412640:	24e7ec90 	addiu	a3,a3,-4976
--
  41265c:	0320f809 	jalr	t9
  412660:	24a5f258 	addiu	a1,a1,-3496
  412664:	8fbc0028 	lw	gp,40(sp)
  412668:	1440001c 	bnez	v0,4126dc <_ftext@@Base+0x1167c>
  41266c:	02002021 	move	a0,s0
  412670:	27b40030 	addiu	s4,sp,48
  412674:	02802021 	move	a0,s4
  412678:	00002821 	move	a1,zero
  41267c:	8f9980ac 	lw	t9,-32596(gp)
  412680:	0320f809 	jalr	t9
  412684:	24060100 	li	a2,256
  412688:	8fbc0028 	lw	gp,40(sp)
  41268c:	3c040042 	lui	a0,0x42
  412690:	2484f1f8 	addiu	a0,a0,-3592
  412694:	3c050042 	lui	a1,0x42
  412698:	24a5f260 	addiu	a1,a1,-3488
  41269c:	8f998054 	lw	t9,-32684(gp)
  4126a0:	0320f809 	jalr	t9
  4126a4:	02803021 	move	a2,s4
  4126a8:	8fbc0028 	lw	gp,40(sp)
  4126ac:	02202021 	move	a0,s1
  4126b0:	3c050042 	lui	a1,0x42
  4126b4:	24a5016c 	addiu	a1,a1,364
  4126b8:	3c060042 	lui	a2,0x42
  4126bc:	24c6f258 	addiu	a2,a2,-3496
[31m  4126c0:	8f9980e8 	lw	t9,fprintf[0m
  4126c4:	0320f809 	jalr	t9
  4126c8:	02803821 	move	a3,s4
--
  4126e4:	0320f809 	jalr	t9
  4126e8:	24a5f270 	addiu	a1,a1,-3472
  4126ec:	8fbc0028 	lw	gp,40(sp)
  4126f0:	1440001c 	bnez	v0,412764 <_ftext@@Base+0x11704>
  4126f4:	02002021 	move	a0,s0
  4126f8:	27b40030 	addiu	s4,sp,48
  4126fc:	02802021 	move	a0,s4
  412700:	00002821 	move	a1,zero
  412704:	8f9980ac 	lw	t9,-32596(gp)
  412708:	0320f809 	jalr	t9
  41270c:	24060100 	li	a2,256
  412710:	8fbc0028 	lw	gp,40(sp)
  412714:	3c040042 	lui	a0,0x42
  412718:	2484f1f8 	addiu	a0,a0,-3592
  41271c:	3c050042 	lui	a1,0x42
  412720:	24a5f27c 	addiu	a1,a1,-3460
  412724:	8f998054 	lw	t9,-32684(gp)
  412728:	0320f809 	jalr	t9
  41272c:	02803021 	move	a2,s4
  412730:	8fbc0028 	lw	gp,40(sp)
  412734:	02202021 	move	a0,s1
  412738:	3c050042 	lui	a1,0x42
  41273c:	24a5016c 	addiu	a1,a1,364
  412740:	3c060042 	lui	a2,0x42
  412744:	24c6f270 	addiu	a2,a2,-3472
[31m  412748:	8f9980e8 	lw	t9,fprintf[0m
  41274c:	0320f809 	jalr	t9
  412750:	02803821 	move	a3,s4
--
  412760:	02002021 	move	a0,s0
  412764:	3c050042 	lui	a1,0x42
  412768:	8f99809c 	lw	t9,-32612(gp)
  41276c:	0320f809 	jalr	t9
  412770:	24a5eb94 	addiu	a1,a1,-5228
  412774:	8fbc0028 	lw	gp,40(sp)
  412778:	14400024 	bnez	v0,41280c <_ftext@@Base+0x117ac>
  41277c:	02002021 	move	a0,s0
  412780:	afa00130 	sw	zero,304(sp)
  412784:	3c040042 	lui	a0,0x42
  412788:	2484f1f8 	addiu	a0,a0,-3592
  41278c:	3c050042 	lui	a1,0x42
  412790:	24a5eb94 	addiu	a1,a1,-5228
  412794:	8f998054 	lw	t9,-32684(gp)
  412798:	0320f809 	jalr	t9
  41279c:	27a60130 	addiu	a2,sp,304
  4127a0:	8fbc0028 	lw	gp,40(sp)
  4127a4:	8fa20130 	lw	v0,304(sp)
  4127a8:	1040000c 	beqz	v0,4127dc <_ftext@@Base+0x1177c>
  4127ac:	02202021 	move	a0,s1
  4127b0:	3c050042 	lui	a1,0x42
  4127b4:	24a5016c 	addiu	a1,a1,364
  4127b8:	3c060042 	lui	a2,0x42
  4127bc:	24c6eb94 	addiu	a2,a2,-5228
  4127c0:	3c070042 	lui	a3,0x42
[31m  4127c4:	8f9980e8 	lw	t9,fprintf[0m
  4127c8:	0320f809 	jalr	t9
  4127cc:	24e7ec9c 	addiu	a3,a3,-4964
  4127d0:	8fbc0028 	lw	gp,40(sp)
  4127d4:	1000000a 	b	412800 <_ftext@@Base+0x117a0>
  4127d8:	00000000 	nop
  4127dc:	3c050042 	lui	a1,0x42
  4127e0:	24a5016c 	addiu	a1,a1,364
  4127e4:	3c060042 	lui	a2,0x42
  4127e8:	24c6eb94 	addiu	a2,a2,-5228
  4127ec:	3c070042 	lui	a3,0x42
[31m  4127f0:	8f9980e8 	lw	t9,fprintf[0m
  4127f4:	0320f809 	jalr	t9
  4127f8:	24e7ec90 	addiu	a3,a3,-4976
--
  412814:	0320f809 	jalr	t9
  412818:	24a5ef24 	addiu	a1,a1,-4316
  41281c:	8fbc0028 	lw	gp,40(sp)
  412820:	1440001d 	bnez	v0,412898 <_ftext@@Base+0x11838>
  412824:	02002021 	move	a0,s0
  412828:	27b40030 	addiu	s4,sp,48
  41282c:	02802021 	move	a0,s4
  412830:	00002821 	move	a1,zero
  412834:	8f9980ac 	lw	t9,-32596(gp)
  412838:	0320f809 	jalr	t9
  41283c:	24060100 	li	a2,256
  412840:	8fbc0028 	lw	gp,40(sp)
  412844:	3c040042 	lui	a0,0x42
  412848:	2484f1f8 	addiu	a0,a0,-3592
  41284c:	3c050042 	lui	a1,0x42
  412850:	24a5efd0 	addiu	a1,a1,-4144
  412854:	8f998054 	lw	t9,-32684(gp)
  412858:	0320f809 	jalr	t9
  41285c:	02803021 	move	a2,s4
  412860:	8fbc0028 	lw	gp,40(sp)
  412864:	02202021 	move	a0,s1
  412868:	3c050042 	lui	a1,0x42
  41286c:	24a5016c 	addiu	a1,a1,364
  412870:	3c060042 	lui	a2,0x42
  412874:	24c6ef24 	addiu	a2,a2,-4316
[31m  412878:	8f9980e8 	lw	t9,fprintf[0m
  41287c:	0320f809 	jalr	t9
  412880:	02803821 	move	a3,s4
--
  41289c:	8f99809c 	lw	t9,-32612(gp)
  4128a0:	0320f809 	jalr	t9
  4128a4:	24a5ef3c 	addiu	a1,a1,-4292
  4128a8:	8fbc0028 	lw	gp,40(sp)
  4128ac:	14400ef1 	bnez	v0,416474 <_ftext@@Base+0x15414>
  4128b0:	27b30030 	addiu	s3,sp,48
  4128b4:	02602021 	move	a0,s3
  4128b8:	00002821 	move	a1,zero
  4128bc:	8f9980ac 	lw	t9,-32596(gp)
  4128c0:	0320f809 	jalr	t9
  4128c4:	24060100 	li	a2,256
  4128c8:	8fbc0028 	lw	gp,40(sp)
  4128cc:	3c040042 	lui	a0,0x42
  4128d0:	2484f1f8 	addiu	a0,a0,-3592
  4128d4:	3c050042 	lui	a1,0x42
  4128d8:	24a5efd4 	addiu	a1,a1,-4140
  4128dc:	8f998054 	lw	t9,-32684(gp)
  4128e0:	0320f809 	jalr	t9
  4128e4:	02603021 	move	a2,s3
  4128e8:	8fbc0028 	lw	gp,40(sp)
  4128ec:	02202021 	move	a0,s1
  4128f0:	3c050042 	lui	a1,0x42
  4128f4:	24a5016c 	addiu	a1,a1,364
  4128f8:	3c060042 	lui	a2,0x42
  4128fc:	24c6ef3c 	addiu	a2,a2,-4292
[31m  412900:	8f9980e8 	lw	t9,fprintf[0m
  412904:	0320f809 	jalr	t9
  412908:	02603821 	move	a3,s3
--
  412988:	0320f809 	jalr	t9
  41298c:	24a5f294 	addiu	a1,a1,-3436
  412990:	8fbc0028 	lw	gp,40(sp)
  412994:	1440001c 	bnez	v0,412a08 <_ftext@@Base+0x119a8>
  412998:	02002021 	move	a0,s0
  41299c:	27b40030 	addiu	s4,sp,48
  4129a0:	02802021 	move	a0,s4
  4129a4:	00002821 	move	a1,zero
  4129a8:	8f9980ac 	lw	t9,-32596(gp)
  4129ac:	0320f809 	jalr	t9
  4129b0:	24060100 	li	a2,256
  4129b4:	8fbc0028 	lw	gp,40(sp)
  4129b8:	3c040042 	lui	a0,0x42
  4129bc:	2484f2a0 	addiu	a0,a0,-3424
  4129c0:	3c050042 	lui	a1,0x42
  4129c4:	24a5f224 	addiu	a1,a1,-3548
  4129c8:	8f998054 	lw	t9,-32684(gp)
  4129cc:	0320f809 	jalr	t9
  4129d0:	02803021 	move	a2,s4
  4129d4:	8fbc0028 	lw	gp,40(sp)
  4129d8:	02202021 	move	a0,s1
  4129dc:	3c050042 	lui	a1,0x42
  4129e0:	24a5016c 	addiu	a1,a1,364
  4129e4:	3c060042 	lui	a2,0x42
  4129e8:	24c6f294 	addiu	a2,a2,-3436
[31m  4129ec:	8f9980e8 	lw	t9,fprintf[0m
  4129f0:	0320f809 	jalr	t9
  4129f4:	02803821 	move	a3,s4
  4129f8:	8fbc0028 	lw	gp,40(sp)
  4129fc:	92620000 	lbu	v0,0(s3)
  412a00:	10400008 	beqz	v0,412a24 <_ftext@@Base+0x119c4>
  412a04:	02002021 	move	a0,s0
  412a08:	3c050042 	lui	a1,0x42
  412a0c:	8f99809c 	lw	t9,-32612(gp)
  412a10:	0320f809 	jalr	t9
  412a14:	24a5f488 	addiu	a1,a1,-2936
  412a18:	8fbc0028 	lw	gp,40(sp)
  412a1c:	14400016 	bnez	v0,412a78 <_ftext@@Base+0x11a18>
  412a20:	02002021 	move	a0,s0
  412a24:	afa00130 	sw	zero,304(sp)
  412a28:	3c040042 	lui	a0,0x42
  412a2c:	2484f2a0 	addiu	a0,a0,-3424
  412a30:	3c050042 	lui	a1,0x42
  412a34:	24a5f23c 	addiu	a1,a1,-3524
  412a38:	8f998054 	lw	t9,-32684(gp)
  412a3c:	0320f809 	jalr	t9
  412a40:	27a60130 	addiu	a2,sp,304
  412a44:	8fbc0028 	lw	gp,40(sp)
  412a48:	02202021 	move	a0,s1
  412a4c:	3c050042 	lui	a1,0x42
  412a50:	24a501f4 	addiu	a1,a1,500
  412a54:	3c060042 	lui	a2,0x42
  412a58:	8fa70130 	lw	a3,304(sp)
[31m  412a5c:	8f9980e8 	lw	t9,fprintf[0m
  412a60:	0320f809 	jalr	t9
  412a64:	24c6f488 	addiu	a2,a2,-2936
--
  412a80:	0320f809 	jalr	t9
  412a84:	24a5ef24 	addiu	a1,a1,-4316
  412a88:	8fbc0028 	lw	gp,40(sp)
  412a8c:	1440001c 	bnez	v0,412b00 <_ftext@@Base+0x11aa0>
  412a90:	02002021 	move	a0,s0
  412a94:	27b40030 	addiu	s4,sp,48
  412a98:	02802021 	move	a0,s4
  412a9c:	00002821 	move	a1,zero
  412aa0:	8f9980ac 	lw	t9,-32596(gp)
  412aa4:	0320f809 	jalr	t9
  412aa8:	24060100 	li	a2,256
  412aac:	8fbc0028 	lw	gp,40(sp)
  412ab0:	3c040042 	lui	a0,0x42
  412ab4:	2484f2a0 	addiu	a0,a0,-3424
  412ab8:	3c050042 	lui	a1,0x42
  412abc:	24a5efd0 	addiu	a1,a1,-4144
  412ac0:	8f998054 	lw	t9,-32684(gp)
  412ac4:	0320f809 	jalr	t9
  412ac8:	02803021 	move	a2,s4
  412acc:	8fbc0028 	lw	gp,40(sp)
  412ad0:	02202021 	move	a0,s1
  412ad4:	3c050042 	lui	a1,0x42
  412ad8:	24a5016c 	addiu	a1,a1,364
  412adc:	3c060042 	lui	a2,0x42
  412ae0:	24c6ef24 	addiu	a2,a2,-4316
[31m  412ae4:	8f9980e8 	lw	t9,fprintf[0m
  412ae8:	0320f809 	jalr	t9
  412aec:	02803821 	move	a3,s4
--
  412b08:	0320f809 	jalr	t9
  412b0c:	24a5ef3c 	addiu	a1,a1,-4292
  412b10:	8fbc0028 	lw	gp,40(sp)
  412b14:	1440001d 	bnez	v0,412b8c <_ftext@@Base+0x11b2c>
  412b18:	02002021 	move	a0,s0
  412b1c:	27b40030 	addiu	s4,sp,48
  412b20:	02802021 	move	a0,s4
  412b24:	00002821 	move	a1,zero
  412b28:	8f9980ac 	lw	t9,-32596(gp)
  412b2c:	0320f809 	jalr	t9
  412b30:	24060100 	li	a2,256
  412b34:	8fbc0028 	lw	gp,40(sp)
  412b38:	3c040042 	lui	a0,0x42
  412b3c:	2484f2a0 	addiu	a0,a0,-3424
  412b40:	3c050042 	lui	a1,0x42
  412b44:	24a5efd4 	addiu	a1,a1,-4140
  412b48:	8f998054 	lw	t9,-32684(gp)
  412b4c:	0320f809 	jalr	t9
  412b50:	02803021 	move	a2,s4
  412b54:	8fbc0028 	lw	gp,40(sp)
  412b58:	02202021 	move	a0,s1
  412b5c:	3c050042 	lui	a1,0x42
  412b60:	24a5016c 	addiu	a1,a1,364
  412b64:	3c060042 	lui	a2,0x42
  412b68:	24c6ef3c 	addiu	a2,a2,-4292
[31m  412b6c:	8f9980e8 	lw	t9,fprintf[0m
  412b70:	0320f809 	jalr	t9
  412b74:	02803821 	move	a3,s4
--
  412b90:	8f99809c 	lw	t9,-32612(gp)
  412b94:	0320f809 	jalr	t9
  412b98:	24a5f2b4 	addiu	a1,a1,-3404
  412b9c:	8fbc0028 	lw	gp,40(sp)
  412ba0:	14400e34 	bnez	v0,416474 <_ftext@@Base+0x15414>
  412ba4:	00000000 	nop
  412ba8:	27b30030 	addiu	s3,sp,48
  412bac:	02602021 	move	a0,s3
  412bb0:	00002821 	move	a1,zero
  412bb4:	8f9980ac 	lw	t9,-32596(gp)
  412bb8:	0320f809 	jalr	t9
  412bbc:	24060100 	li	a2,256
  412bc0:	8fbc0028 	lw	gp,40(sp)
  412bc4:	3c040042 	lui	a0,0x42
  412bc8:	2484f2a0 	addiu	a0,a0,-3424
  412bcc:	3c140042 	lui	s4,0x42
  412bd0:	2685f2b4 	addiu	a1,s4,-3404
  412bd4:	8f998054 	lw	t9,-32684(gp)
  412bd8:	0320f809 	jalr	t9
  412bdc:	02603021 	move	a2,s3
  412be0:	8fbc0028 	lw	gp,40(sp)
  412be4:	02202021 	move	a0,s1
  412be8:	3c050042 	lui	a1,0x42
  412bec:	24a5016c 	addiu	a1,a1,364
  412bf0:	2686f2b4 	addiu	a2,s4,-3404
[31m  412bf4:	8f9980e8 	lw	t9,fprintf[0m
  412bf8:	0320f809 	jalr	t9
  412bfc:	02603821 	move	a3,s3
--
  412c84:	0320f809 	jalr	t9
  412c88:	24a5f2c0 	addiu	a1,a1,-3392
  412c8c:	8fbc0028 	lw	gp,40(sp)
  412c90:	1440001c 	bnez	v0,412d04 <_ftext@@Base+0x11ca4>
  412c94:	02002021 	move	a0,s0
  412c98:	27b40030 	addiu	s4,sp,48
  412c9c:	02802021 	move	a0,s4
  412ca0:	00002821 	move	a1,zero
  412ca4:	8f9980ac 	lw	t9,-32596(gp)
  412ca8:	0320f809 	jalr	t9
  412cac:	24060100 	li	a2,256
  412cb0:	8fbc0028 	lw	gp,40(sp)
  412cb4:	3c040042 	lui	a0,0x42
  412cb8:	2484f2cc 	addiu	a0,a0,-3380
  412cbc:	3c050042 	lui	a1,0x42
  412cc0:	24a5f224 	addiu	a1,a1,-3548
  412cc4:	8f998054 	lw	t9,-32684(gp)
  412cc8:	0320f809 	jalr	t9
  412ccc:	02803021 	move	a2,s4
  412cd0:	8fbc0028 	lw	gp,40(sp)
  412cd4:	02202021 	move	a0,s1
  412cd8:	3c050042 	lui	a1,0x42
  412cdc:	24a5016c 	addiu	a1,a1,364
  412ce0:	3c060042 	lui	a2,0x42
  412ce4:	24c6f2c0 	addiu	a2,a2,-3392
[31m  412ce8:	8f9980e8 	lw	t9,fprintf[0m
  412cec:	0320f809 	jalr	t9
  412cf0:	02803821 	move	a3,s4
  412cf4:	8fbc0028 	lw	gp,40(sp)
  412cf8:	92620000 	lbu	v0,0(s3)
  412cfc:	10400008 	beqz	v0,412d20 <_ftext@@Base+0x11cc0>
  412d00:	02002021 	move	a0,s0
  412d04:	3c050042 	lui	a1,0x42
  412d08:	8f99809c 	lw	t9,-32612(gp)
  412d0c:	0320f809 	jalr	t9
  412d10:	24a5f488 	addiu	a1,a1,-2936
  412d14:	8fbc0028 	lw	gp,40(sp)
  412d18:	14400016 	bnez	v0,412d74 <_ftext@@Base+0x11d14>
  412d1c:	02002021 	move	a0,s0
  412d20:	afa00130 	sw	zero,304(sp)
  412d24:	3c040042 	lui	a0,0x42
  412d28:	2484f2cc 	addiu	a0,a0,-3380
  412d2c:	3c050042 	lui	a1,0x42
  412d30:	24a5f23c 	addiu	a1,a1,-3524
  412d34:	8f998054 	lw	t9,-32684(gp)
  412d38:	0320f809 	jalr	t9
  412d3c:	27a60130 	addiu	a2,sp,304
  412d40:	8fbc0028 	lw	gp,40(sp)
  412d44:	02202021 	move	a0,s1
  412d48:	3c050042 	lui	a1,0x42
  412d4c:	24a501f4 	addiu	a1,a1,500
  412d50:	3c060042 	lui	a2,0x42
  412d54:	8fa70130 	lw	a3,304(sp)
[31m  412d58:	8f9980e8 	lw	t9,fprintf[0m
  412d5c:	0320f809 	jalr	t9
  412d60:	24c6f488 	addiu	a2,a2,-2936
--
  412d7c:	0320f809 	jalr	t9
  412d80:	24a5ef24 	addiu	a1,a1,-4316
  412d84:	8fbc0028 	lw	gp,40(sp)
  412d88:	1440001c 	bnez	v0,412dfc <_ftext@@Base+0x11d9c>
  412d8c:	02002021 	move	a0,s0
  412d90:	27b40030 	addiu	s4,sp,48
  412d94:	02802021 	move	a0,s4
  412d98:	00002821 	move	a1,zero
  412d9c:	8f9980ac 	lw	t9,-32596(gp)
  412da0:	0320f809 	jalr	t9
  412da4:	24060100 	li	a2,256
  412da8:	8fbc0028 	lw	gp,40(sp)
  412dac:	3c040042 	lui	a0,0x42
  412db0:	2484f2cc 	addiu	a0,a0,-3380
  412db4:	3c050042 	lui	a1,0x42
  412db8:	24a5efd0 	addiu	a1,a1,-4144
  412dbc:	8f998054 	lw	t9,-32684(gp)
  412dc0:	0320f809 	jalr	t9
  412dc4:	02803021 	move	a2,s4
  412dc8:	8fbc0028 	lw	gp,40(sp)
  412dcc:	02202021 	move	a0,s1
  412dd0:	3c050042 	lui	a1,0x42
  412dd4:	24a5016c 	addiu	a1,a1,364
  412dd8:	3c060042 	lui	a2,0x42
  412ddc:	24c6ef24 	addiu	a2,a2,-4316
[31m  412de0:	8f9980e8 	lw	t9,fprintf[0m
  412de4:	0320f809 	jalr	t9
  412de8:	02803821 	move	a3,s4
--
  412e04:	0320f809 	jalr	t9
  412e08:	24a5ef3c 	addiu	a1,a1,-4292
  412e0c:	8fbc0028 	lw	gp,40(sp)
  412e10:	1440001c 	bnez	v0,412e84 <_ftext@@Base+0x11e24>
  412e14:	02002021 	move	a0,s0
  412e18:	27b40030 	addiu	s4,sp,48
  412e1c:	02802021 	move	a0,s4
  412e20:	00002821 	move	a1,zero
  412e24:	8f9980ac 	lw	t9,-32596(gp)
  412e28:	0320f809 	jalr	t9
  412e2c:	24060100 	li	a2,256
  412e30:	8fbc0028 	lw	gp,40(sp)
  412e34:	3c040042 	lui	a0,0x42
  412e38:	2484f2cc 	addiu	a0,a0,-3380
  412e3c:	3c050042 	lui	a1,0x42
  412e40:	24a5efd4 	addiu	a1,a1,-4140
  412e44:	8f998054 	lw	t9,-32684(gp)
  412e48:	0320f809 	jalr	t9
  412e4c:	02803021 	move	a2,s4
  412e50:	8fbc0028 	lw	gp,40(sp)
  412e54:	02202021 	move	a0,s1
  412e58:	3c050042 	lui	a1,0x42
  412e5c:	24a5016c 	addiu	a1,a1,364
  412e60:	3c060042 	lui	a2,0x42
  412e64:	24c6ef3c 	addiu	a2,a2,-4292
[31m  412e68:	8f9980e8 	lw	t9,fprintf[0m
  412e6c:	0320f809 	jalr	t9
  412e70:	02803821 	move	a3,s4
--
  412e8c:	0320f809 	jalr	t9
  412e90:	24a5f2e8 	addiu	a1,a1,-3352
  412e94:	8fbc0028 	lw	gp,40(sp)
  412e98:	1440001c 	bnez	v0,412f0c <_ftext@@Base+0x11eac>
  412e9c:	02002021 	move	a0,s0
  412ea0:	27b40030 	addiu	s4,sp,48
  412ea4:	02802021 	move	a0,s4
  412ea8:	00002821 	move	a1,zero
  412eac:	8f9980ac 	lw	t9,-32596(gp)
  412eb0:	0320f809 	jalr	t9
  412eb4:	24060100 	li	a2,256
  412eb8:	8fbc0028 	lw	gp,40(sp)
  412ebc:	3c040042 	lui	a0,0x42
  412ec0:	2484f2cc 	addiu	a0,a0,-3380
  412ec4:	3c050042 	lui	a1,0x42
  412ec8:	24a5f2f4 	addiu	a1,a1,-3340
  412ecc:	8f998054 	lw	t9,-32684(gp)
  412ed0:	0320f809 	jalr	t9
  412ed4:	02803021 	move	a2,s4
  412ed8:	8fbc0028 	lw	gp,40(sp)
  412edc:	02202021 	move	a0,s1
  412ee0:	3c050042 	lui	a1,0x42
  412ee4:	24a5016c 	addiu	a1,a1,364
  412ee8:	3c060042 	lui	a2,0x42
  412eec:	24c6f2e8 	addiu	a2,a2,-3352
[31m  412ef0:	8f9980e8 	lw	t9,fprintf[0m
  412ef4:	0320f809 	jalr	t9
  412ef8:	02803821 	move	a3,s4
--
  412f08:	02002021 	move	a0,s0
  412f0c:	3c050042 	lui	a1,0x42
  412f10:	8f99809c 	lw	t9,-32612(gp)
  412f14:	0320f809 	jalr	t9
  412f18:	24a5f2e0 	addiu	a1,a1,-3360
  412f1c:	8fbc0028 	lw	gp,40(sp)
  412f20:	14400d55 	bnez	v0,416478 <_ftext@@Base+0x15418>
  412f24:	02402021 	move	a0,s2
  412f28:	afa00130 	sw	zero,304(sp)
  412f2c:	3c040042 	lui	a0,0x42
  412f30:	2484f2cc 	addiu	a0,a0,-3380
  412f34:	3c050042 	lui	a1,0x42
  412f38:	24a5f2e0 	addiu	a1,a1,-3360
  412f3c:	8f998054 	lw	t9,-32684(gp)
  412f40:	0320f809 	jalr	t9
  412f44:	27a60130 	addiu	a2,sp,304
  412f48:	8fbc0028 	lw	gp,40(sp)
  412f4c:	8fa20130 	lw	v0,304(sp)
  412f50:	1040000c 	beqz	v0,412f84 <_ftext@@Base+0x11f24>
  412f54:	3c060042 	lui	a2,0x42
  412f58:	02202021 	move	a0,s1
  412f5c:	3c050042 	lui	a1,0x42
  412f60:	24a5016c 	addiu	a1,a1,364
  412f64:	24c6f2e0 	addiu	a2,a2,-3360
  412f68:	3c070042 	lui	a3,0x42
[31m  412f6c:	8f9980e8 	lw	t9,fprintf[0m
  412f70:	0320f809 	jalr	t9
  412f74:	24e7ec9c 	addiu	a3,a3,-4964
  412f78:	8fbc0028 	lw	gp,40(sp)
  412f7c:	10000d3e 	b	416478 <_ftext@@Base+0x15418>
  412f80:	02402021 	move	a0,s2
  412f84:	02202021 	move	a0,s1
  412f88:	3c050042 	lui	a1,0x42
  412f8c:	24a5016c 	addiu	a1,a1,364
  412f90:	24c6f2e0 	addiu	a2,a2,-3360
  412f94:	3c070042 	lui	a3,0x42
[31m  412f98:	8f9980e8 	lw	t9,fprintf[0m
  412f9c:	0320f809 	jalr	t9
  412fa0:	24e7ec90 	addiu	a3,a3,-4976
--
  413020:	0320f809 	jalr	t9
  413024:	24a5f308 	addiu	a1,a1,-3320
  413028:	8fbc0028 	lw	gp,40(sp)
  41302c:	1440001c 	bnez	v0,4130a0 <_ftext@@Base+0x12040>
  413030:	02002021 	move	a0,s0
  413034:	27b40030 	addiu	s4,sp,48
  413038:	02802021 	move	a0,s4
  41303c:	00002821 	move	a1,zero
  413040:	8f9980ac 	lw	t9,-32596(gp)
  413044:	0320f809 	jalr	t9
  413048:	24060100 	li	a2,256
  41304c:	8fbc0028 	lw	gp,40(sp)
  413050:	3c040042 	lui	a0,0x42
  413054:	2484f314 	addiu	a0,a0,-3308
  413058:	3c050042 	lui	a1,0x42
  41305c:	24a5f224 	addiu	a1,a1,-3548
  413060:	8f998054 	lw	t9,-32684(gp)
  413064:	0320f809 	jalr	t9
  413068:	02803021 	move	a2,s4
  41306c:	8fbc0028 	lw	gp,40(sp)
  413070:	02202021 	move	a0,s1
  413074:	3c050042 	lui	a1,0x42
  413078:	24a5016c 	addiu	a1,a1,364
  41307c:	3c060042 	lui	a2,0x42
  413080:	24c6f308 	addiu	a2,a2,-3320
[31m  413084:	8f9980e8 	lw	t9,fprintf[0m
  413088:	0320f809 	jalr	t9
  41308c:	02803821 	move	a3,s4
--
  4130a4:	8f99809c 	lw	t9,-32612(gp)
  4130a8:	0320f809 	jalr	t9
  4130ac:	24a5f328 	addiu	a1,a1,-3288
  4130b0:	8fbc0028 	lw	gp,40(sp)
  4130b4:	1440001b 	bnez	v0,413124 <_ftext@@Base+0x120c4>
  4130b8:	02002021 	move	a0,s0
  4130bc:	27b40030 	addiu	s4,sp,48
  4130c0:	02802021 	move	a0,s4
  4130c4:	00002821 	move	a1,zero
  4130c8:	8f9980ac 	lw	t9,-32596(gp)
  4130cc:	0320f809 	jalr	t9
  4130d0:	24060100 	li	a2,256
  4130d4:	8fbc0028 	lw	gp,40(sp)
  4130d8:	3c040042 	lui	a0,0x42
  4130dc:	2484f314 	addiu	a0,a0,-3308
  4130e0:	3c150042 	lui	s5,0x42
  4130e4:	26a5f328 	addiu	a1,s5,-3288
  4130e8:	8f998054 	lw	t9,-32684(gp)
  4130ec:	0320f809 	jalr	t9
  4130f0:	02803021 	move	a2,s4
  4130f4:	8fbc0028 	lw	gp,40(sp)
  4130f8:	02202021 	move	a0,s1
  4130fc:	3c050042 	lui	a1,0x42
  413100:	24a5016c 	addiu	a1,a1,364
  413104:	26a6f328 	addiu	a2,s5,-3288
[31m  413108:	8f9980e8 	lw	t9,fprintf[0m
  41310c:	0320f809 	jalr	t9
  413110:	02803821 	move	a3,s4
--
  413128:	8f99809c 	lw	t9,-32612(gp)
  41312c:	0320f809 	jalr	t9
  413130:	24a5f2e8 	addiu	a1,a1,-3352
  413134:	8fbc0028 	lw	gp,40(sp)
  413138:	1440001b 	bnez	v0,4131a8 <_ftext@@Base+0x12148>
  41313c:	02002021 	move	a0,s0
  413140:	27b40030 	addiu	s4,sp,48
  413144:	02802021 	move	a0,s4
  413148:	00002821 	move	a1,zero
  41314c:	8f9980ac 	lw	t9,-32596(gp)
  413150:	0320f809 	jalr	t9
  413154:	24060100 	li	a2,256
  413158:	8fbc0028 	lw	gp,40(sp)
  41315c:	3c040042 	lui	a0,0x42
  413160:	2484f314 	addiu	a0,a0,-3308
  413164:	3c150042 	lui	s5,0x42
  413168:	26a5f2e8 	addiu	a1,s5,-3352
  41316c:	8f998054 	lw	t9,-32684(gp)
  413170:	0320f809 	jalr	t9
  413174:	02803021 	move	a2,s4
  413178:	8fbc0028 	lw	gp,40(sp)
  41317c:	02202021 	move	a0,s1
  413180:	3c050042 	lui	a1,0x42
  413184:	24a5016c 	addiu	a1,a1,364
  413188:	26a6f2e8 	addiu	a2,s5,-3352
[31m  41318c:	8f9980e8 	lw	t9,fprintf[0m
  413190:	0320f809 	jalr	t9
  413194:	02803821 	move	a3,s4
--
  4131b0:	0320f809 	jalr	t9
  4131b4:	24a5ef24 	addiu	a1,a1,-4316
  4131b8:	8fbc0028 	lw	gp,40(sp)
  4131bc:	1440001c 	bnez	v0,413230 <_ftext@@Base+0x121d0>
  4131c0:	02002021 	move	a0,s0
  4131c4:	27b40030 	addiu	s4,sp,48
  4131c8:	02802021 	move	a0,s4
  4131cc:	00002821 	move	a1,zero
  4131d0:	8f9980ac 	lw	t9,-32596(gp)
  4131d4:	0320f809 	jalr	t9
  4131d8:	24060100 	li	a2,256
  4131dc:	8fbc0028 	lw	gp,40(sp)
  4131e0:	3c040042 	lui	a0,0x42
  4131e4:	2484f314 	addiu	a0,a0,-3308
  4131e8:	3c050042 	lui	a1,0x42
  4131ec:	24a5efd0 	addiu	a1,a1,-4144
  4131f0:	8f998054 	lw	t9,-32684(gp)
  4131f4:	0320f809 	jalr	t9
  4131f8:	02803021 	move	a2,s4
  4131fc:	8fbc0028 	lw	gp,40(sp)
  413200:	02202021 	move	a0,s1
  413204:	3c050042 	lui	a1,0x42
  413208:	24a5016c 	addiu	a1,a1,364
  41320c:	3c060042 	lui	a2,0x42
  413210:	24c6ef24 	addiu	a2,a2,-4316
[31m  413214:	8f9980e8 	lw	t9,fprintf[0m
  413218:	0320f809 	jalr	t9
  41321c:	02803821 	move	a3,s4
--
  413238:	0320f809 	jalr	t9
  41323c:	24a5ef3c 	addiu	a1,a1,-4292
  413240:	8fbc0028 	lw	gp,40(sp)
  413244:	1440001c 	bnez	v0,4132b8 <_ftext@@Base+0x12258>
  413248:	02002021 	move	a0,s0
  41324c:	27b40030 	addiu	s4,sp,48
  413250:	02802021 	move	a0,s4
  413254:	00002821 	move	a1,zero
  413258:	8f9980ac 	lw	t9,-32596(gp)
  41325c:	0320f809 	jalr	t9
  413260:	24060100 	li	a2,256
  413264:	8fbc0028 	lw	gp,40(sp)
  413268:	3c040042 	lui	a0,0x42
  41326c:	2484f314 	addiu	a0,a0,-3308
  413270:	3c050042 	lui	a1,0x42
  413274:	24a5efd4 	addiu	a1,a1,-4140
  413278:	8f998054 	lw	t9,-32684(gp)
  41327c:	0320f809 	jalr	t9
  413280:	02803021 	move	a2,s4
  413284:	8fbc0028 	lw	gp,40(sp)
  413288:	02202021 	move	a0,s1
  41328c:	3c050042 	lui	a1,0x42
  413290:	24a5016c 	addiu	a1,a1,364
  413294:	3c060042 	lui	a2,0x42
  413298:	24c6ef3c 	addiu	a2,a2,-4292
[31m  41329c:	8f9980e8 	lw	t9,fprintf[0m
  4132a0:	0320f809 	jalr	t9
  4132a4:	02803821 	move	a3,s4
--
  4132b4:	02002021 	move	a0,s0
  4132b8:	3c050042 	lui	a1,0x42
  4132bc:	8f99809c 	lw	t9,-32612(gp)
  4132c0:	0320f809 	jalr	t9
  4132c4:	24a5f330 	addiu	a1,a1,-3280
  4132c8:	8fbc0028 	lw	gp,40(sp)
  4132cc:	14400c6a 	bnez	v0,416478 <_ftext@@Base+0x15418>
  4132d0:	02402021 	move	a0,s2
  4132d4:	afa00130 	sw	zero,304(sp)
  4132d8:	3c040042 	lui	a0,0x42
  4132dc:	2484f314 	addiu	a0,a0,-3308
  4132e0:	3c050042 	lui	a1,0x42
  4132e4:	24a5f330 	addiu	a1,a1,-3280
  4132e8:	8f998054 	lw	t9,-32684(gp)
  4132ec:	0320f809 	jalr	t9
  4132f0:	27a60130 	addiu	a2,sp,304
  4132f4:	8fbc0028 	lw	gp,40(sp)
  4132f8:	8fa20130 	lw	v0,304(sp)
  4132fc:	1040000c 	beqz	v0,413330 <_ftext@@Base+0x122d0>
  413300:	3c060042 	lui	a2,0x42
  413304:	02202021 	move	a0,s1
  413308:	3c050042 	lui	a1,0x42
  41330c:	24a5016c 	addiu	a1,a1,364
  413310:	24c6f330 	addiu	a2,a2,-3280
  413314:	3c070042 	lui	a3,0x42
[31m  413318:	8f9980e8 	lw	t9,fprintf[0m
  41331c:	0320f809 	jalr	t9
  413320:	24e7ec9c 	addiu	a3,a3,-4964
  413324:	8fbc0028 	lw	gp,40(sp)
  413328:	10000c53 	b	416478 <_ftext@@Base+0x15418>
  41332c:	02402021 	move	a0,s2
  413330:	02202021 	move	a0,s1
  413334:	3c050042 	lui	a1,0x42
  413338:	24a5016c 	addiu	a1,a1,364
  41333c:	24c6f330 	addiu	a2,a2,-3280
  413340:	3c070042 	lui	a3,0x42
[31m  413344:	8f9980e8 	lw	t9,fprintf[0m
  413348:	0320f809 	jalr	t9
  41334c:	24e7ec90 	addiu	a3,a3,-4976
--
  4133d0:	24050001 	li	a1,1
  4133d4:	24060010 	li	a2,16
  4133d8:	8f998078 	lw	t9,-32648(gp)
  4133dc:	0320f809 	jalr	t9
  4133e0:	02203821 	move	a3,s1
  4133e4:	8fbc0028 	lw	gp,40(sp)
  4133e8:	92020000 	lbu	v0,0(s0)
  4133ec:	10400009 	beqz	v0,413414 <_ftext@@Base+0x123b4>
  4133f0:	00000000 	nop
  4133f4:	02002021 	move	a0,s0
  4133f8:	3c050042 	lui	a1,0x42
  4133fc:	8f99809c 	lw	t9,-32612(gp)
  413400:	0320f809 	jalr	t9
  413404:	24a5f34c 	addiu	a1,a1,-3252
  413408:	8fbc0028 	lw	gp,40(sp)
  41340c:	14400018 	bnez	v0,413470 <_ftext@@Base+0x12410>
  413410:	00000000 	nop
  413414:	8fa20138 	lw	v0,312(sp)
  413418:	1040000c 	beqz	v0,41344c <_ftext@@Base+0x123ec>
  41341c:	02202021 	move	a0,s1
  413420:	3c050042 	lui	a1,0x42
  413424:	24a5016c 	addiu	a1,a1,364
  413428:	3c060042 	lui	a2,0x42
  41342c:	24c6f34c 	addiu	a2,a2,-3252
  413430:	3c070042 	lui	a3,0x42
[31m  413434:	8f9980e8 	lw	t9,fprintf[0m
  413438:	0320f809 	jalr	t9
  41343c:	24e7ec9c 	addiu	a3,a3,-4964
  413440:	8fbc0028 	lw	gp,40(sp)
  413444:	1000000a 	b	413470 <_ftext@@Base+0x12410>
  413448:	00000000 	nop
  41344c:	3c050042 	lui	a1,0x42
  413450:	24a5016c 	addiu	a1,a1,364
  413454:	3c060042 	lui	a2,0x42
  413458:	24c6f34c 	addiu	a2,a2,-3252
  41345c:	3c070042 	lui	a3,0x42
[31m  413460:	8f9980e8 	lw	t9,fprintf[0m
  413464:	0320f809 	jalr	t9
  413468:	24e7ec90 	addiu	a3,a3,-4976
--
  413470:	8fa20138 	lw	v0,312(sp)
  413474:	10400c00 	beqz	v0,416478 <_ftext@@Base+0x15418>
  413478:	02402021 	move	a0,s2
  41347c:	92620000 	lbu	v0,0(s3)
  413480:	10400008 	beqz	v0,4134a4 <_ftext@@Base+0x12444>
  413484:	02002021 	move	a0,s0
  413488:	3c050042 	lui	a1,0x42
  41348c:	8f99809c 	lw	t9,-32612(gp)
  413490:	0320f809 	jalr	t9
  413494:	24a506c8 	addiu	a1,a1,1736
  413498:	8fbc0028 	lw	gp,40(sp)
  41349c:	14400015 	bnez	v0,4134f4 <_ftext@@Base+0x12494>
  4134a0:	02002021 	move	a0,s0
  4134a4:	8f998084 	lw	t9,-32636(gp)
  4134a8:	0320f809 	jalr	t9
  4134ac:	00000000 	nop
  4134b0:	8fbc0028 	lw	gp,40(sp)
  4134b4:	244303ff 	addiu	v1,v0,1023
  4134b8:	28440000 	slti	a0,v0,0
  4134bc:	0064100b 	0x64100b
  4134c0:	02202021 	move	a0,s1
  4134c4:	3c050042 	lui	a1,0x42
  4134c8:	24a506d4 	addiu	a1,a1,1748
  4134cc:	3c060042 	lui	a2,0x42
  4134d0:	24c606c8 	addiu	a2,a2,1736
[31m  4134d4:	8f9980e8 	lw	t9,fprintf[0m
  4134d8:	0320f809 	jalr	t9
  4134dc:	00023a83 	sra	a3,v0,0xa
  4134e0:	8fbc0028 	lw	gp,40(sp)
  4134e4:	92620000 	lbu	v0,0(s3)
  4134e8:	10400009 	beqz	v0,413510 <_ftext@@Base+0x124b0>
  4134ec:	00000000 	nop
  4134f0:	02002021 	move	a0,s0
  4134f4:	3c050042 	lui	a1,0x42
  4134f8:	8f99809c 	lw	t9,-32612(gp)
  4134fc:	0320f809 	jalr	t9
  413500:	24a506e0 	addiu	a1,a1,1760
  413504:	8fbc0028 	lw	gp,40(sp)
  413508:	14400bda 	bnez	v0,416474 <_ftext@@Base+0x15414>
  41350c:	00000000 	nop
  413510:	8f99803c 	lw	t9,-32708(gp)
  413514:	0320f809 	jalr	t9
  413518:	00000000 	nop
  41351c:	8fbc0028 	lw	gp,40(sp)
  413520:	244303ff 	addiu	v1,v0,1023
  413524:	28440000 	slti	a0,v0,0
  413528:	0064100b 	0x64100b
  41352c:	02202021 	move	a0,s1
  413530:	3c050042 	lui	a1,0x42
  413534:	24a506d4 	addiu	a1,a1,1748
  413538:	3c060042 	lui	a2,0x42
  41353c:	24c606e0 	addiu	a2,a2,1760
[31m  413540:	8f9980e8 	lw	t9,fprintf[0m
  413544:	0320f809 	jalr	t9
  413548:	00023a83 	sra	a3,v0,0xa
--
  4135c0:	3c050042 	lui	a1,0x42
  4135c4:	8f99809c 	lw	t9,-32612(gp)
  4135c8:	0320f809 	jalr	t9
  4135cc:	24a5f380 	addiu	a1,a1,-3200
  4135d0:	8fbc0028 	lw	gp,40(sp)
  4135d4:	1440001a 	bnez	v0,413640 <_ftext@@Base+0x125e0>
  4135d8:	3c020042 	lui	v0,0x42
  4135dc:	90421700 	lbu	v0,5888(v0)
  4135e0:	a3a20140 	sb	v0,320(sp)
  4135e4:	27a40141 	addiu	a0,sp,321
  4135e8:	00002821 	move	a1,zero
  4135ec:	8f9980ac 	lw	t9,-32596(gp)
  4135f0:	0320f809 	jalr	t9
  4135f4:	24060013 	li	a2,19
  4135f8:	8fbc0028 	lw	gp,40(sp)
  4135fc:	27b40140 	addiu	s4,sp,320
  413600:	8f99806c 	lw	t9,-32660(gp)
  413604:	0320f809 	jalr	t9
  413608:	02802021 	move	a0,s4
  41360c:	8fbc0028 	lw	gp,40(sp)
  413610:	02202021 	move	a0,s1
  413614:	3c050042 	lui	a1,0x42
  413618:	24a5016c 	addiu	a1,a1,364
  41361c:	3c060042 	lui	a2,0x42
  413620:	24c6f380 	addiu	a2,a2,-3200
[31m  413624:	8f9980e8 	lw	t9,fprintf[0m
  413628:	0320f809 	jalr	t9
  41362c:	02803821 	move	a3,s4
--
  413644:	3c050042 	lui	a1,0x42
  413648:	8f99809c 	lw	t9,-32612(gp)
  41364c:	0320f809 	jalr	t9
  413650:	24a5f3e0 	addiu	a1,a1,-3104
  413654:	8fbc0028 	lw	gp,40(sp)
  413658:	1440001a 	bnez	v0,4136c4 <_ftext@@Base+0x12664>
  41365c:	3c020042 	lui	v0,0x42
  413660:	90421700 	lbu	v0,5888(v0)
  413664:	a3a20140 	sb	v0,320(sp)
  413668:	27a40141 	addiu	a0,sp,321
  41366c:	00002821 	move	a1,zero
  413670:	8f9980ac 	lw	t9,-32596(gp)
  413674:	0320f809 	jalr	t9
  413678:	24060013 	li	a2,19
  41367c:	8fbc0028 	lw	gp,40(sp)
  413680:	27b40140 	addiu	s4,sp,320
  413684:	8f998050 	lw	t9,-32688(gp)
  413688:	0320f809 	jalr	t9
  41368c:	02802021 	move	a0,s4
  413690:	8fbc0028 	lw	gp,40(sp)
  413694:	02202021 	move	a0,s1
  413698:	3c050042 	lui	a1,0x42
  41369c:	24a5016c 	addiu	a1,a1,364
  4136a0:	3c060042 	lui	a2,0x42
  4136a4:	24c6f3e0 	addiu	a2,a2,-3104
[31m  4136a8:	8f9980e8 	lw	t9,fprintf[0m
  4136ac:	0320f809 	jalr	t9
  4136b0:	02803821 	move	a3,s4
--
  4136c8:	3c050042 	lui	a1,0x42
  4136cc:	8f99809c 	lw	t9,-32612(gp)
  4136d0:	0320f809 	jalr	t9
  4136d4:	24a5f3f8 	addiu	a1,a1,-3080
  4136d8:	8fbc0028 	lw	gp,40(sp)
  4136dc:	14400026 	bnez	v0,413778 <_ftext@@Base+0x12718>
  4136e0:	02002021 	move	a0,s0
  4136e4:	afa00130 	sw	zero,304(sp)
  4136e8:	3c040042 	lui	a0,0x42
  4136ec:	2484f410 	addiu	a0,a0,-3056
  4136f0:	3c050042 	lui	a1,0x42
  4136f4:	24a5f41c 	addiu	a1,a1,-3044
  4136f8:	8f998054 	lw	t9,-32684(gp)
  4136fc:	0320f809 	jalr	t9
  413700:	27a60130 	addiu	a2,sp,304
  413704:	8fbc0028 	lw	gp,40(sp)
  413708:	24020001 	li	v0,1
  41370c:	8fa30130 	lw	v1,304(sp)
  413710:	1462000c 	bne	v1,v0,413744 <_ftext@@Base+0x126e4>
  413714:	02202021 	move	a0,s1
  413718:	3c050042 	lui	a1,0x42
  41371c:	24a5016c 	addiu	a1,a1,364
  413720:	3c060042 	lui	a2,0x42
  413724:	24c6f3f8 	addiu	a2,a2,-3080
  413728:	3c070042 	lui	a3,0x42
[31m  41372c:	8f9980e8 	lw	t9,fprintf[0m
  413730:	0320f809 	jalr	t9
  413734:	24e7f428 	addiu	a3,a3,-3032
  413738:	8fbc0028 	lw	gp,40(sp)
  41373c:	1000000a 	b	413768 <_ftext@@Base+0x12708>
  413740:	00000000 	nop
  413744:	3c050042 	lui	a1,0x42
  413748:	24a5016c 	addiu	a1,a1,364
  41374c:	3c060042 	lui	a2,0x42
  413750:	24c6f3f8 	addiu	a2,a2,-3080
  413754:	3c070042 	lui	a3,0x42
[31m  413758:	8f9980e8 	lw	t9,fprintf[0m
  41375c:	0320f809 	jalr	t9
  413760:	24e7f404 	addiu	a3,a3,-3068
--
  41378c:	14400b39 	bnez	v0,416474 <_ftext@@Base+0x15414>
  413790:	27b30030 	addiu	s3,sp,48
  413794:	02602021 	move	a0,s3
  413798:	00002821 	move	a1,zero
  41379c:	8f9980ac 	lw	t9,-32596(gp)
  4137a0:	0320f809 	jalr	t9
  4137a4:	24060100 	li	a2,256
  4137a8:	8fbc0028 	lw	gp,40(sp)
  4137ac:	3c040042 	lui	a0,0x42
  4137b0:	2484f410 	addiu	a0,a0,-3056
  4137b4:	3c140042 	lui	s4,0x42
  4137b8:	2685f42c 	addiu	a1,s4,-3028
  4137bc:	8f998054 	lw	t9,-32684(gp)
  4137c0:	0320f809 	jalr	t9
  4137c4:	02603021 	move	a2,s3
  4137c8:	8fbc0028 	lw	gp,40(sp)
  4137cc:	8f998120 	lw	t9,-32480(gp)
  4137d0:	0320f809 	jalr	t9
  4137d4:	02602021 	move	a0,s3
  4137d8:	8fbc0028 	lw	gp,40(sp)
  4137dc:	afa20130 	sw	v0,304(sp)
  4137e0:	02202021 	move	a0,s1
  4137e4:	3c050042 	lui	a1,0x42
  4137e8:	24a501f4 	addiu	a1,a1,500
  4137ec:	2686f42c 	addiu	a2,s4,-3028
[31m  4137f0:	8f9980e8 	lw	t9,fprintf[0m
  4137f4:	0320f809 	jalr	t9
  4137f8:	00403821 	move	a3,v0
--
  413880:	0320f809 	jalr	t9
  413884:	24a5f298 	addiu	a1,a1,-3432
  413888:	8fbc0028 	lw	gp,40(sp)
  41388c:	1440001d 	bnez	v0,413904 <_ftext@@Base+0x128a4>
  413890:	02002021 	move	a0,s0
  413894:	27b30030 	addiu	s3,sp,48
  413898:	02602021 	move	a0,s3
  41389c:	00002821 	move	a1,zero
  4138a0:	8f9980ac 	lw	t9,-32596(gp)
  4138a4:	0320f809 	jalr	t9
  4138a8:	24060100 	li	a2,256
  4138ac:	8fbc0028 	lw	gp,40(sp)
  4138b0:	3c040042 	lui	a0,0x42
  4138b4:	2484f410 	addiu	a0,a0,-3056
  4138b8:	3c050042 	lui	a1,0x42
  4138bc:	24a5f448 	addiu	a1,a1,-3000
  4138c0:	8f998054 	lw	t9,-32684(gp)
  4138c4:	0320f809 	jalr	t9
  4138c8:	02603021 	move	a2,s3
  4138cc:	8fbc0028 	lw	gp,40(sp)
  4138d0:	02202021 	move	a0,s1
  4138d4:	3c050042 	lui	a1,0x42
  4138d8:	24a5016c 	addiu	a1,a1,364
  4138dc:	3c060042 	lui	a2,0x42
  4138e0:	24c6f298 	addiu	a2,a2,-3432
[31m  4138e4:	8f9980e8 	lw	t9,fprintf[0m
  4138e8:	0320f809 	jalr	t9
  4138ec:	02603821 	move	a3,s3
--
  4138f4:	92820000 	lbu	v0,0(s4)
  4138f8:	10400009 	beqz	v0,413920 <_ftext@@Base+0x128c0>
  4138fc:	00000000 	nop
  413900:	02002021 	move	a0,s0
  413904:	3c050042 	lui	a1,0x42
  413908:	8f99809c 	lw	t9,-32612(gp)
  41390c:	0320f809 	jalr	t9
  413910:	24a5f454 	addiu	a1,a1,-2988
  413914:	8fbc0028 	lw	gp,40(sp)
  413918:	14400ad6 	bnez	v0,416474 <_ftext@@Base+0x15414>
  41391c:	00000000 	nop
  413920:	afa00130 	sw	zero,304(sp)
  413924:	3c040042 	lui	a0,0x42
  413928:	2484f410 	addiu	a0,a0,-3056
  41392c:	3c050042 	lui	a1,0x42
  413930:	24a5f460 	addiu	a1,a1,-2976
  413934:	8f998054 	lw	t9,-32684(gp)
  413938:	0320f809 	jalr	t9
  41393c:	27a60130 	addiu	a2,sp,304
  413940:	8fbc0028 	lw	gp,40(sp)
  413944:	02202021 	move	a0,s1
  413948:	3c050042 	lui	a1,0x42
  41394c:	24a50700 	addiu	a1,a1,1792
  413950:	3c060042 	lui	a2,0x42
  413954:	8fa70130 	lw	a3,304(sp)
[31m  413958:	8f9980e8 	lw	t9,fprintf[0m
  41395c:	0320f809 	jalr	t9
  413960:	24c6f454 	addiu	a2,a2,-2988
--
  4139c8:	92020000 	lbu	v0,0(s0)
  4139cc:	10400009 	beqz	v0,4139f4 <_ftext@@Base+0x12994>
  4139d0:	00000000 	nop
  4139d4:	02002021 	move	a0,s0
  4139d8:	3c050042 	lui	a1,0x42
  4139dc:	8f99809c 	lw	t9,-32612(gp)
  4139e0:	0320f809 	jalr	t9
  4139e4:	24a5f478 	addiu	a1,a1,-2952
  4139e8:	8fbc0028 	lw	gp,40(sp)
  4139ec:	14400016 	bnez	v0,413a48 <_ftext@@Base+0x129e8>
  4139f0:	02002021 	move	a0,s0
  4139f4:	afa00130 	sw	zero,304(sp)
  4139f8:	3c040042 	lui	a0,0x42
  4139fc:	2484f28c 	addiu	a0,a0,-3444
  413a00:	3c050042 	lui	a1,0x42
  413a04:	24a5f488 	addiu	a1,a1,-2936
  413a08:	8f998054 	lw	t9,-32684(gp)
  413a0c:	0320f809 	jalr	t9
  413a10:	27a60130 	addiu	a2,sp,304
  413a14:	8fbc0028 	lw	gp,40(sp)
  413a18:	02202021 	move	a0,s1
  413a1c:	3c050042 	lui	a1,0x42
  413a20:	24a501f4 	addiu	a1,a1,500
  413a24:	3c060042 	lui	a2,0x42
  413a28:	8fa70130 	lw	a3,304(sp)
[31m  413a2c:	8f9980e8 	lw	t9,fprintf[0m
  413a30:	0320f809 	jalr	t9
  413a34:	24c6f478 	addiu	a2,a2,-2952
--
  413a48:	3c050042 	lui	a1,0x42
  413a4c:	8f99809c 	lw	t9,-32612(gp)
  413a50:	0320f809 	jalr	t9
  413a54:	24a5f498 	addiu	a1,a1,-2920
  413a58:	8fbc0028 	lw	gp,40(sp)
  413a5c:	14400036 	bnez	v0,413b38 <_ftext@@Base+0x12ad8>
  413a60:	02002021 	move	a0,s0
  413a64:	afa00130 	sw	zero,304(sp)
  413a68:	3c040042 	lui	a0,0x42
  413a6c:	2484f490 	addiu	a0,a0,-2928
  413a70:	3c050042 	lui	a1,0x42
  413a74:	24a5eb94 	addiu	a1,a1,-5228
  413a78:	8f998054 	lw	t9,-32684(gp)
  413a7c:	0320f809 	jalr	t9
  413a80:	27a60130 	addiu	a2,sp,304
  413a84:	8fbc0028 	lw	gp,40(sp)
  413a88:	8fa20130 	lw	v0,304(sp)
  413a8c:	1440000d 	bnez	v0,413ac4 <_ftext@@Base+0x12a64>
  413a90:	24030001 	li	v1,1
  413a94:	02202021 	move	a0,s1
  413a98:	3c050042 	lui	a1,0x42
  413a9c:	24a5016c 	addiu	a1,a1,364
  413aa0:	3c060042 	lui	a2,0x42
  413aa4:	24c6f498 	addiu	a2,a2,-2920
  413aa8:	3c070042 	lui	a3,0x42
[31m  413aac:	8f9980e8 	lw	t9,fprintf[0m
  413ab0:	0320f809 	jalr	t9
  413ab4:	24e7edf4 	addiu	a3,a3,-4620
  413ab8:	8fbc0028 	lw	gp,40(sp)
  413abc:	1000001a 	b	413b28 <_ftext@@Base+0x12ac8>
  413ac0:	00000000 	nop
  413ac4:	1443000d 	bne	v0,v1,413afc <_ftext@@Base+0x12a9c>
  413ac8:	24030002 	li	v1,2
  413acc:	02202021 	move	a0,s1
  413ad0:	3c050042 	lui	a1,0x42
  413ad4:	24a5016c 	addiu	a1,a1,364
  413ad8:	3c060042 	lui	a2,0x42
  413adc:	24c6f498 	addiu	a2,a2,-2920
  413ae0:	3c070042 	lui	a3,0x42
[31m  413ae4:	8f9980e8 	lw	t9,fprintf[0m
  413ae8:	0320f809 	jalr	t9
  413aec:	24e7f4a4 	addiu	a3,a3,-2908
  413af0:	8fbc0028 	lw	gp,40(sp)
  413af4:	1000000c 	b	413b28 <_ftext@@Base+0x12ac8>
  413af8:	00000000 	nop
  413afc:	1443000a 	bne	v0,v1,413b28 <_ftext@@Base+0x12ac8>
  413b00:	02202021 	move	a0,s1
  413b04:	3c050042 	lui	a1,0x42
  413b08:	24a5016c 	addiu	a1,a1,364
  413b0c:	3c060042 	lui	a2,0x42
  413b10:	24c6f498 	addiu	a2,a2,-2920
  413b14:	3c070042 	lui	a3,0x42
[31m  413b18:	8f9980e8 	lw	t9,fprintf[0m
  413b1c:	0320f809 	jalr	t9
  413b20:	24e7071c 	addiu	a3,a3,1820
--
  413b28:	92620000 	lbu	v0,0(s3)
  413b2c:	10400009 	beqz	v0,413b54 <_ftext@@Base+0x12af4>
  413b30:	00000000 	nop
  413b34:	02002021 	move	a0,s0
  413b38:	3c050042 	lui	a1,0x42
  413b3c:	8f99809c 	lw	t9,-32612(gp)
  413b40:	0320f809 	jalr	t9
  413b44:	24a5f484 	addiu	a1,a1,-2940
  413b48:	8fbc0028 	lw	gp,40(sp)
  413b4c:	14400a49 	bnez	v0,416474 <_ftext@@Base+0x15414>
  413b50:	00000000 	nop
  413b54:	afa00130 	sw	zero,304(sp)
  413b58:	3c040042 	lui	a0,0x42
  413b5c:	2484f490 	addiu	a0,a0,-2928
  413b60:	3c050042 	lui	a1,0x42
  413b64:	24a5f488 	addiu	a1,a1,-2936
  413b68:	8f998054 	lw	t9,-32684(gp)
  413b6c:	0320f809 	jalr	t9
  413b70:	27a60130 	addiu	a2,sp,304
  413b74:	8fbc0028 	lw	gp,40(sp)
  413b78:	02202021 	move	a0,s1
  413b7c:	3c050042 	lui	a1,0x42
  413b80:	24a501f4 	addiu	a1,a1,500
  413b84:	3c060042 	lui	a2,0x42
  413b88:	8fa70130 	lw	a3,304(sp)
[31m  413b8c:	8f9980e8 	lw	t9,fprintf[0m
  413b90:	0320f809 	jalr	t9
  413b94:	24c6f484 	addiu	a2,a2,-2940
--
  413c10:	02002021 	move	a0,s0
  413c14:	3c050042 	lui	a1,0x42
  413c18:	8f99809c 	lw	t9,-32612(gp)
  413c1c:	0320f809 	jalr	t9
  413c20:	24a5f4c0 	addiu	a1,a1,-2880
  413c24:	8fbc0028 	lw	gp,40(sp)
  413c28:	14400024 	bnez	v0,413cbc <_ftext@@Base+0x12c5c>
  413c2c:	02002021 	move	a0,s0
  413c30:	afa00130 	sw	zero,304(sp)
  413c34:	3c040042 	lui	a0,0x42
  413c38:	2484ea60 	addiu	a0,a0,-5536
  413c3c:	3c050042 	lui	a1,0x42
  413c40:	24a5f4c8 	addiu	a1,a1,-2872
  413c44:	8f998054 	lw	t9,-32684(gp)
  413c48:	0320f809 	jalr	t9
  413c4c:	27a60130 	addiu	a2,sp,304
  413c50:	8fbc0028 	lw	gp,40(sp)
  413c54:	8fa20130 	lw	v0,304(sp)
  413c58:	1040000c 	beqz	v0,413c8c <_ftext@@Base+0x12c2c>
  413c5c:	02202021 	move	a0,s1
  413c60:	3c050042 	lui	a1,0x42
  413c64:	24a5016c 	addiu	a1,a1,364
  413c68:	3c060042 	lui	a2,0x42
  413c6c:	24c6f4c0 	addiu	a2,a2,-2880
  413c70:	3c070042 	lui	a3,0x42
[31m  413c74:	8f9980e8 	lw	t9,fprintf[0m
  413c78:	0320f809 	jalr	t9
  413c7c:	24e7eba0 	addiu	a3,a3,-5216
  413c80:	8fbc0028 	lw	gp,40(sp)
  413c84:	1000000a 	b	413cb0 <_ftext@@Base+0x12c50>
  413c88:	00000000 	nop
  413c8c:	3c050042 	lui	a1,0x42
  413c90:	24a5016c 	addiu	a1,a1,364
  413c94:	3c060042 	lui	a2,0x42
  413c98:	24c6f4c0 	addiu	a2,a2,-2880
  413c9c:	3c070042 	lui	a3,0x42
[31m  413ca0:	8f9980e8 	lw	t9,fprintf[0m
  413ca4:	0320f809 	jalr	t9
  413ca8:	24e7f124 	addiu	a3,a3,-3804
--
  413cb8:	02002021 	move	a0,s0
  413cbc:	3c050042 	lui	a1,0x42
  413cc0:	8f99809c 	lw	t9,-32612(gp)
  413cc4:	0320f809 	jalr	t9
  413cc8:	24a5f4d4 	addiu	a1,a1,-2860
  413ccc:	8fbc0028 	lw	gp,40(sp)
  413cd0:	14400022 	bnez	v0,413d5c <_ftext@@Base+0x12cfc>
  413cd4:	3c020043 	lui	v0,0x43
  413cd8:	afa00130 	sw	zero,304(sp)
  413cdc:	3c040042 	lui	a0,0x42
  413ce0:	2484ea60 	addiu	a0,a0,-5536
  413ce4:	3c050042 	lui	a1,0x42
  413ce8:	24a5f4dc 	addiu	a1,a1,-2852
  413cec:	8f998054 	lw	t9,-32684(gp)
  413cf0:	0320f809 	jalr	t9
  413cf4:	27a60130 	addiu	a2,sp,304
  413cf8:	8fbc0028 	lw	gp,40(sp)
  413cfc:	8fa20130 	lw	v0,304(sp)
  413d00:	1040000c 	beqz	v0,413d34 <_ftext@@Base+0x12cd4>
  413d04:	02202021 	move	a0,s1
  413d08:	3c050042 	lui	a1,0x42
  413d0c:	24a5016c 	addiu	a1,a1,364
  413d10:	3c060042 	lui	a2,0x42
  413d14:	24c6f4d4 	addiu	a2,a2,-2860
  413d18:	3c070042 	lui	a3,0x42
[31m  413d1c:	8f9980e8 	lw	t9,fprintf[0m
  413d20:	0320f809 	jalr	t9
  413d24:	24e7eba0 	addiu	a3,a3,-5216
  413d28:	8fbc0028 	lw	gp,40(sp)
  413d2c:	1000000b 	b	413d5c <_ftext@@Base+0x12cfc>
  413d30:	3c020043 	lui	v0,0x43
  413d34:	3c050042 	lui	a1,0x42
  413d38:	24a5016c 	addiu	a1,a1,364
  413d3c:	3c060042 	lui	a2,0x42
  413d40:	24c6f4d4 	addiu	a2,a2,-2860
  413d44:	3c070042 	lui	a3,0x42
[31m  413d48:	8f9980e8 	lw	t9,fprintf[0m
  413d4c:	0320f809 	jalr	t9
  413d50:	24e7f124 	addiu	a3,a3,-3804
--
  413d74:	02002021 	move	a0,s0
  413d78:	3c050042 	lui	a1,0x42
  413d7c:	8f99809c 	lw	t9,-32612(gp)
  413d80:	0320f809 	jalr	t9
  413d84:	24a5f4e8 	addiu	a1,a1,-2840
  413d88:	8fbc0028 	lw	gp,40(sp)
  413d8c:	14400024 	bnez	v0,413e20 <_ftext@@Base+0x12dc0>
  413d90:	02002021 	move	a0,s0
  413d94:	afa00130 	sw	zero,304(sp)
  413d98:	3c040042 	lui	a0,0x42
  413d9c:	2484ea60 	addiu	a0,a0,-5536
  413da0:	3c050042 	lui	a1,0x42
  413da4:	24a5f4fc 	addiu	a1,a1,-2820
  413da8:	8f998054 	lw	t9,-32684(gp)
  413dac:	0320f809 	jalr	t9
  413db0:	27a60130 	addiu	a2,sp,304
  413db4:	8fbc0028 	lw	gp,40(sp)
  413db8:	8fa20130 	lw	v0,304(sp)
  413dbc:	1040000c 	beqz	v0,413df0 <_ftext@@Base+0x12d90>
  413dc0:	02202021 	move	a0,s1
  413dc4:	3c050042 	lui	a1,0x42
  413dc8:	24a5016c 	addiu	a1,a1,364
  413dcc:	3c060042 	lui	a2,0x42
  413dd0:	24c6f4e8 	addiu	a2,a2,-2840
  413dd4:	3c070042 	lui	a3,0x42
[31m  413dd8:	8f9980e8 	lw	t9,fprintf[0m
  413ddc:	0320f809 	jalr	t9
  413de0:	24e7f50c 	addiu	a3,a3,-2804
  413de4:	8fbc0028 	lw	gp,40(sp)
  413de8:	1000000a 	b	413e14 <_ftext@@Base+0x12db4>
  413dec:	00000000 	nop
  413df0:	3c050042 	lui	a1,0x42
  413df4:	24a5016c 	addiu	a1,a1,364
  413df8:	3c060042 	lui	a2,0x42
  413dfc:	24c6f4e8 	addiu	a2,a2,-2840
  413e00:	3c070042 	lui	a3,0x42
[31m  413e04:	8f9980e8 	lw	t9,fprintf[0m
  413e08:	0320f809 	jalr	t9
  413e0c:	24e7f4f4 	addiu	a3,a3,-2828
  413e10:	8fbc0028 	lw	gp,40(sp)
  413e14:	92620000 	lbu	v0,0(s3)
  413e18:	10400008 	beqz	v0,413e3c <_ftext@@Base+0x12ddc>
  413e1c:	02002021 	move	a0,s0
  413e20:	3c050042 	lui	a1,0x42
  413e24:	8f99809c 	lw	t9,-32612(gp)
  413e28:	0320f809 	jalr	t9
  413e2c:	24a5f514 	addiu	a1,a1,-2796
  413e30:	8fbc0028 	lw	gp,40(sp)
  413e34:	14400015 	bnez	v0,413e8c <_ftext@@Base+0x12e2c>
  413e38:	02002021 	move	a0,s0
  413e3c:	afa00130 	sw	zero,304(sp)
  413e40:	3c040042 	lui	a0,0x42
  413e44:	2484ea60 	addiu	a0,a0,-5536
  413e48:	3c140042 	lui	s4,0x42
  413e4c:	2685f514 	addiu	a1,s4,-2796
  413e50:	8f998054 	lw	t9,-32684(gp)
  413e54:	0320f809 	jalr	t9
  413e58:	27a60130 	addiu	a2,sp,304
  413e5c:	8fbc0028 	lw	gp,40(sp)
  413e60:	02202021 	move	a0,s1
  413e64:	3c050042 	lui	a1,0x42
  413e68:	24a501f4 	addiu	a1,a1,500
  413e6c:	8fa70130 	lw	a3,304(sp)
[31m  413e70:	8f9980e8 	lw	t9,fprintf[0m
  413e74:	0320f809 	jalr	t9
  413e78:	2686f514 	addiu	a2,s4,-2796
  413e7c:	8fbc0028 	lw	gp,40(sp)
  413e80:	92620000 	lbu	v0,0(s3)
  413e84:	10400008 	beqz	v0,413ea8 <_ftext@@Base+0x12e48>
  413e88:	02002021 	move	a0,s0
  413e8c:	3c050042 	lui	a1,0x42
  413e90:	8f99809c 	lw	t9,-32612(gp)
  413e94:	0320f809 	jalr	t9
  413e98:	24a5f520 	addiu	a1,a1,-2784
  413e9c:	8fbc0028 	lw	gp,40(sp)
  413ea0:	14400015 	bnez	v0,413ef8 <_ftext@@Base+0x12e98>
  413ea4:	02002021 	move	a0,s0
  413ea8:	afa00130 	sw	zero,304(sp)
  413eac:	3c040042 	lui	a0,0x42
  413eb0:	2484ea60 	addiu	a0,a0,-5536
  413eb4:	3c140042 	lui	s4,0x42
  413eb8:	2685f520 	addiu	a1,s4,-2784
  413ebc:	8f998054 	lw	t9,-32684(gp)
  413ec0:	0320f809 	jalr	t9
  413ec4:	27a60130 	addiu	a2,sp,304
  413ec8:	8fbc0028 	lw	gp,40(sp)
  413ecc:	02202021 	move	a0,s1
  413ed0:	3c050042 	lui	a1,0x42
  413ed4:	24a501f4 	addiu	a1,a1,500
  413ed8:	8fa70130 	lw	a3,304(sp)
[31m  413edc:	8f9980e8 	lw	t9,fprintf[0m
  413ee0:	0320f809 	jalr	t9
  413ee4:	2686f520 	addiu	a2,s4,-2784
  413ee8:	8fbc0028 	lw	gp,40(sp)
  413eec:	92620000 	lbu	v0,0(s3)
  413ef0:	10400008 	beqz	v0,413f14 <_ftext@@Base+0x12eb4>
  413ef4:	02002021 	move	a0,s0
  413ef8:	3c050042 	lui	a1,0x42
  413efc:	8f99809c 	lw	t9,-32612(gp)
  413f00:	0320f809 	jalr	t9
  413f04:	24a5f52c 	addiu	a1,a1,-2772
  413f08:	8fbc0028 	lw	gp,40(sp)
  413f0c:	14400013 	bnez	v0,413f5c <_ftext@@Base+0x12efc>
  413f10:	3c020043 	lui	v0,0x43
  413f14:	afa00130 	sw	zero,304(sp)
  413f18:	3c040042 	lui	a0,0x42
  413f1c:	2484ea60 	addiu	a0,a0,-5536
  413f20:	3c140042 	lui	s4,0x42
  413f24:	2685f52c 	addiu	a1,s4,-2772
  413f28:	8f998054 	lw	t9,-32684(gp)
  413f2c:	0320f809 	jalr	t9
  413f30:	27a60130 	addiu	a2,sp,304
  413f34:	8fbc0028 	lw	gp,40(sp)
  413f38:	02202021 	move	a0,s1
  413f3c:	3c050042 	lui	a1,0x42
  413f40:	24a501f4 	addiu	a1,a1,500
  413f44:	8fa70130 	lw	a3,304(sp)
[31m  413f48:	8f9980e8 	lw	t9,fprintf[0m
  413f4c:	0320f809 	jalr	t9
  413f50:	2686f52c 	addiu	a2,s4,-2772
--
  413f64:	10620021 	beq	v1,v0,413fec <_ftext@@Base+0x12f8c>
  413f68:	00000000 	nop
  413f6c:	92620000 	lbu	v0,0(s3)
  413f70:	10400008 	beqz	v0,413f94 <_ftext@@Base+0x12f34>
  413f74:	02002021 	move	a0,s0
  413f78:	3c050042 	lui	a1,0x42
  413f7c:	8f99809c 	lw	t9,-32612(gp)
  413f80:	0320f809 	jalr	t9
  413f84:	24a5f538 	addiu	a1,a1,-2760
  413f88:	8fbc0028 	lw	gp,40(sp)
  413f8c:	14400037 	bnez	v0,41406c <_ftext@@Base+0x1300c>
  413f90:	3c020043 	lui	v0,0x43
  413f94:	afa00130 	sw	zero,304(sp)
  413f98:	3c040042 	lui	a0,0x42
  413f9c:	2484ea60 	addiu	a0,a0,-5536
  413fa0:	3c140042 	lui	s4,0x42
  413fa4:	2685f538 	addiu	a1,s4,-2760
  413fa8:	8f998054 	lw	t9,-32684(gp)
  413fac:	0320f809 	jalr	t9
  413fb0:	27a60130 	addiu	a2,sp,304
  413fb4:	8fbc0028 	lw	gp,40(sp)
  413fb8:	02202021 	move	a0,s1
  413fbc:	3c050042 	lui	a1,0x42
  413fc0:	24a501f4 	addiu	a1,a1,500
  413fc4:	8fa70130 	lw	a3,304(sp)
[31m  413fc8:	8f9980e8 	lw	t9,fprintf[0m
  413fcc:	0320f809 	jalr	t9
  413fd0:	2686f538 	addiu	a2,s4,-2760
--
  413fe4:	14620021 	bne	v1,v0,41406c <_ftext@@Base+0x1300c>
  413fe8:	3c020043 	lui	v0,0x43
  413fec:	92620000 	lbu	v0,0(s3)
  413ff0:	10400008 	beqz	v0,414014 <_ftext@@Base+0x12fb4>
  413ff4:	02002021 	move	a0,s0
  413ff8:	3c050042 	lui	a1,0x42
  413ffc:	8f99809c 	lw	t9,-32612(gp)
  414000:	0320f809 	jalr	t9
  414004:	24a5f544 	addiu	a1,a1,-2748
  414008:	8fbc0028 	lw	gp,40(sp)
  41400c:	14400125 	bnez	v0,4144a4 <_ftext@@Base+0x13444>
  414010:	02002021 	move	a0,s0
  414014:	afa00130 	sw	zero,304(sp)
  414018:	3c040042 	lui	a0,0x42
  41401c:	2484ea60 	addiu	a0,a0,-5536
  414020:	3c140042 	lui	s4,0x42
  414024:	2685f544 	addiu	a1,s4,-2748
  414028:	8f998054 	lw	t9,-32684(gp)
  41402c:	0320f809 	jalr	t9
  414030:	27a60130 	addiu	a2,sp,304
  414034:	8fbc0028 	lw	gp,40(sp)
  414038:	02202021 	move	a0,s1
  41403c:	3c050042 	lui	a1,0x42
  414040:	24a501f4 	addiu	a1,a1,500
  414044:	8fa70130 	lw	a3,304(sp)
[31m  414048:	8f9980e8 	lw	t9,fprintf[0m
  41404c:	0320f809 	jalr	t9
  414050:	2686f544 	addiu	a2,s4,-2748
--
  414084:	3c050042 	lui	a1,0x42
  414088:	8f99809c 	lw	t9,-32612(gp)
  41408c:	0320f809 	jalr	t9
  414090:	24a5f548 	addiu	a1,a1,-2744
  414094:	8fbc0028 	lw	gp,40(sp)
  414098:	14400027 	bnez	v0,414138 <_ftext@@Base+0x130d8>
  41409c:	02002021 	move	a0,s0
  4140a0:	afa00130 	sw	zero,304(sp)
  4140a4:	3c040042 	lui	a0,0x42
  4140a8:	2484ea60 	addiu	a0,a0,-5536
  4140ac:	3c050042 	lui	a1,0x42
  4140b0:	24a5f55c 	addiu	a1,a1,-2724
  4140b4:	8f998054 	lw	t9,-32684(gp)
  4140b8:	0320f809 	jalr	t9
  4140bc:	27a60130 	addiu	a2,sp,304
  4140c0:	8fbc0028 	lw	gp,40(sp)
  4140c4:	8fa20130 	lw	v0,304(sp)
  4140c8:	1440000d 	bnez	v0,414100 <_ftext@@Base+0x130a0>
  4140cc:	24030001 	li	v1,1
  4140d0:	02202021 	move	a0,s1
  4140d4:	3c050042 	lui	a1,0x42
  4140d8:	24a5016c 	addiu	a1,a1,364
  4140dc:	3c060042 	lui	a2,0x42
  4140e0:	24c6f548 	addiu	a2,a2,-2744
  4140e4:	3c070042 	lui	a3,0x42
[31m  4140e8:	8f9980e8 	lw	t9,fprintf[0m
  4140ec:	0320f809 	jalr	t9
  4140f0:	24e7f554 	addiu	a3,a3,-2732
  4140f4:	8fbc0028 	lw	gp,40(sp)
  4140f8:	1000000c 	b	41412c <_ftext@@Base+0x130cc>
  4140fc:	00000000 	nop
  414100:	1443000a 	bne	v0,v1,41412c <_ftext@@Base+0x130cc>
  414104:	02202021 	move	a0,s1
  414108:	3c050042 	lui	a1,0x42
  41410c:	24a5016c 	addiu	a1,a1,364
  414110:	3c060042 	lui	a2,0x42
  414114:	24c6f548 	addiu	a2,a2,-2744
  414118:	3c070042 	lui	a3,0x42
[31m  41411c:	8f9980e8 	lw	t9,fprintf[0m
  414120:	0320f809 	jalr	t9
  414124:	24e7f564 	addiu	a3,a3,-2716
--
  414138:	3c050042 	lui	a1,0x42
  41413c:	8f99809c 	lw	t9,-32612(gp)
  414140:	0320f809 	jalr	t9
  414144:	24a5f568 	addiu	a1,a1,-2712
  414148:	8fbc0028 	lw	gp,40(sp)
  41414c:	14400027 	bnez	v0,4141ec <_ftext@@Base+0x1318c>
  414150:	02002021 	move	a0,s0
  414154:	afa00130 	sw	zero,304(sp)
  414158:	3c040042 	lui	a0,0x42
  41415c:	2484ea60 	addiu	a0,a0,-5536
  414160:	3c050042 	lui	a1,0x42
  414164:	24a5f568 	addiu	a1,a1,-2712
  414168:	8f998054 	lw	t9,-32684(gp)
  41416c:	0320f809 	jalr	t9
  414170:	27a60130 	addiu	a2,sp,304
  414174:	8fbc0028 	lw	gp,40(sp)
  414178:	8fa20130 	lw	v0,304(sp)
  41417c:	1440000d 	bnez	v0,4141b4 <_ftext@@Base+0x13154>
  414180:	24030001 	li	v1,1
  414184:	02202021 	move	a0,s1
  414188:	3c050042 	lui	a1,0x42
  41418c:	24a5016c 	addiu	a1,a1,364
  414190:	3c060042 	lui	a2,0x42
  414194:	24c6f568 	addiu	a2,a2,-2712
  414198:	3c070042 	lui	a3,0x42
[31m  41419c:	8f9980e8 	lw	t9,fprintf[0m
  4141a0:	0320f809 	jalr	t9
  4141a4:	24e7f574 	addiu	a3,a3,-2700
  4141a8:	8fbc0028 	lw	gp,40(sp)
  4141ac:	1000000c 	b	4141e0 <_ftext@@Base+0x13180>
  4141b0:	00000000 	nop
  4141b4:	1443000a 	bne	v0,v1,4141e0 <_ftext@@Base+0x13180>
  4141b8:	02202021 	move	a0,s1
  4141bc:	3c050042 	lui	a1,0x42
  4141c0:	24a5016c 	addiu	a1,a1,364
  4141c4:	3c060042 	lui	a2,0x42
  4141c8:	24c6f568 	addiu	a2,a2,-2712
  4141cc:	3c070042 	lui	a3,0x42
[31m  4141d0:	8f9980e8 	lw	t9,fprintf[0m
  4141d4:	0320f809 	jalr	t9
  4141d8:	24e7f57c 	addiu	a3,a3,-2692
--
  4141ec:	3c050042 	lui	a1,0x42
  4141f0:	8f99809c 	lw	t9,-32612(gp)
  4141f4:	0320f809 	jalr	t9
  4141f8:	24a5f584 	addiu	a1,a1,-2684
  4141fc:	8fbc0028 	lw	gp,40(sp)
  414200:	14400043 	bnez	v0,414310 <_ftext@@Base+0x132b0>
  414204:	02002021 	move	a0,s0
  414208:	afa00130 	sw	zero,304(sp)
  41420c:	3c040042 	lui	a0,0x42
  414210:	2484ea60 	addiu	a0,a0,-5536
  414214:	3c050042 	lui	a1,0x42
  414218:	24a5f584 	addiu	a1,a1,-2684
  41421c:	8f998054 	lw	t9,-32684(gp)
  414220:	0320f809 	jalr	t9
  414224:	27a60130 	addiu	a2,sp,304
  414228:	8fbc0028 	lw	gp,40(sp)
  41422c:	8fa20130 	lw	v0,304(sp)
  414230:	1440000d 	bnez	v0,414268 <_ftext@@Base+0x13208>
  414234:	24030001 	li	v1,1
  414238:	02202021 	move	a0,s1
  41423c:	3c050042 	lui	a1,0x42
  414240:	24a5016c 	addiu	a1,a1,364
  414244:	3c060042 	lui	a2,0x42
  414248:	24c6f584 	addiu	a2,a2,-2684
  41424c:	3c070042 	lui	a3,0x42
[31m  414250:	8f9980e8 	lw	t9,fprintf[0m
  414254:	0320f809 	jalr	t9
  414258:	24e7f590 	addiu	a3,a3,-2672
  41425c:	8fbc0028 	lw	gp,40(sp)
  414260:	10000028 	b	414304 <_ftext@@Base+0x132a4>
  414264:	00000000 	nop
  414268:	1443000d 	bne	v0,v1,4142a0 <_ftext@@Base+0x13240>
  41426c:	24030002 	li	v1,2
  414270:	02202021 	move	a0,s1
  414274:	3c050042 	lui	a1,0x42
  414278:	24a5016c 	addiu	a1,a1,364
  41427c:	3c060042 	lui	a2,0x42
  414280:	24c6f584 	addiu	a2,a2,-2684
  414284:	3c070042 	lui	a3,0x42
[31m  414288:	8f9980e8 	lw	t9,fprintf[0m
  41428c:	0320f809 	jalr	t9
  414290:	24e7f594 	addiu	a3,a3,-2668
  414294:	8fbc0028 	lw	gp,40(sp)
  414298:	1000001a 	b	414304 <_ftext@@Base+0x132a4>
  41429c:	00000000 	nop
  4142a0:	1443000d 	bne	v0,v1,4142d8 <_ftext@@Base+0x13278>
  4142a4:	24030003 	li	v1,3
  4142a8:	02202021 	move	a0,s1
  4142ac:	3c050042 	lui	a1,0x42
  4142b0:	24a5016c 	addiu	a1,a1,364
  4142b4:	3c060042 	lui	a2,0x42
  4142b8:	24c6f584 	addiu	a2,a2,-2684
  4142bc:	3c070042 	lui	a3,0x42
[31m  4142c0:	8f9980e8 	lw	t9,fprintf[0m
  4142c4:	0320f809 	jalr	t9
  4142c8:	24e7f598 	addiu	a3,a3,-2664
  4142cc:	8fbc0028 	lw	gp,40(sp)
  4142d0:	1000000c 	b	414304 <_ftext@@Base+0x132a4>
  4142d4:	00000000 	nop
  4142d8:	1443000a 	bne	v0,v1,414304 <_ftext@@Base+0x132a4>
  4142dc:	02202021 	move	a0,s1
  4142e0:	3c050042 	lui	a1,0x42
  4142e4:	24a5016c 	addiu	a1,a1,364
  4142e8:	3c060042 	lui	a2,0x42
  4142ec:	24c6f584 	addiu	a2,a2,-2684
  4142f0:	3c070042 	lui	a3,0x42
[31m  4142f4:	8f9980e8 	lw	t9,fprintf[0m
  4142f8:	0320f809 	jalr	t9
  4142fc:	24e7f59c 	addiu	a3,a3,-2660
--
  414310:	3c050042 	lui	a1,0x42
  414314:	8f99809c 	lw	t9,-32612(gp)
  414318:	0320f809 	jalr	t9
  41431c:	24a5f5a0 	addiu	a1,a1,-2656
  414320:	8fbc0028 	lw	gp,40(sp)
  414324:	1440005f 	bnez	v0,4144a4 <_ftext@@Base+0x13444>
  414328:	02002021 	move	a0,s0
  41432c:	afa00130 	sw	zero,304(sp)
  414330:	3c040042 	lui	a0,0x42
  414334:	2484ea60 	addiu	a0,a0,-5536
  414338:	3c050042 	lui	a1,0x42
  41433c:	24a5f5a0 	addiu	a1,a1,-2656
  414340:	8f998054 	lw	t9,-32684(gp)
  414344:	0320f809 	jalr	t9
  414348:	27a60130 	addiu	a2,sp,304
  41434c:	8fbc0028 	lw	gp,40(sp)
  414350:	8fa20130 	lw	v0,304(sp)
  414354:	1440000d 	bnez	v0,41438c <_ftext@@Base+0x1332c>
  414358:	24030001 	li	v1,1
  41435c:	02202021 	move	a0,s1
  414360:	3c050042 	lui	a1,0x42
  414364:	24a5016c 	addiu	a1,a1,364
  414368:	3c060042 	lui	a2,0x42
  41436c:	24c6f5a0 	addiu	a2,a2,-2656
  414370:	3c070042 	lui	a3,0x42
[31m  414374:	8f9980e8 	lw	t9,fprintf[0m
  414378:	0320f809 	jalr	t9
  41437c:	24e70734 	addiu	a3,a3,1844
  414380:	8fbc0028 	lw	gp,40(sp)
  414384:	10000044 	b	414498 <_ftext@@Base+0x13438>
  414388:	00000000 	nop
  41438c:	1443000d 	bne	v0,v1,4143c4 <_ftext@@Base+0x13364>
  414390:	24030002 	li	v1,2
  414394:	02202021 	move	a0,s1
  414398:	3c050042 	lui	a1,0x42
  41439c:	24a5016c 	addiu	a1,a1,364
  4143a0:	3c060042 	lui	a2,0x42
  4143a4:	24c6f5a0 	addiu	a2,a2,-2656
  4143a8:	3c070042 	lui	a3,0x42
[31m  4143ac:	8f9980e8 	lw	t9,fprintf[0m
  4143b0:	0320f809 	jalr	t9
  4143b4:	24e7073c 	addiu	a3,a3,1852
  4143b8:	8fbc0028 	lw	gp,40(sp)
  4143bc:	10000036 	b	414498 <_ftext@@Base+0x13438>
  4143c0:	00000000 	nop
  4143c4:	1443000d 	bne	v0,v1,4143fc <_ftext@@Base+0x1339c>
  4143c8:	24030003 	li	v1,3
  4143cc:	02202021 	move	a0,s1
  4143d0:	3c050042 	lui	a1,0x42
  4143d4:	24a5016c 	addiu	a1,a1,364
  4143d8:	3c060042 	lui	a2,0x42
  4143dc:	24c6f5a0 	addiu	a2,a2,-2656
  4143e0:	3c070042 	lui	a3,0x42
[31m  4143e4:	8f9980e8 	lw	t9,fprintf[0m
  4143e8:	0320f809 	jalr	t9
  4143ec:	24e70744 	addiu	a3,a3,1860
  4143f0:	8fbc0028 	lw	gp,40(sp)
  4143f4:	10000028 	b	414498 <_ftext@@Base+0x13438>
  4143f8:	00000000 	nop
  4143fc:	1443000d 	bne	v0,v1,414434 <_ftext@@Base+0x133d4>
  414400:	24030004 	li	v1,4
  414404:	02202021 	move	a0,s1
  414408:	3c050042 	lui	a1,0x42
  41440c:	24a5016c 	addiu	a1,a1,364
  414410:	3c060042 	lui	a2,0x42
  414414:	24c6f5a0 	addiu	a2,a2,-2656
  414418:	3c070042 	lui	a3,0x42
[31m  41441c:	8f9980e8 	lw	t9,fprintf[0m
  414420:	0320f809 	jalr	t9
  414424:	24e7074c 	addiu	a3,a3,1868
  414428:	8fbc0028 	lw	gp,40(sp)
  41442c:	1000001a 	b	414498 <_ftext@@Base+0x13438>
  414430:	00000000 	nop
  414434:	1443000d 	bne	v0,v1,41446c <_ftext@@Base+0x1340c>
  414438:	24030005 	li	v1,5
  41443c:	02202021 	move	a0,s1
  414440:	3c050042 	lui	a1,0x42
  414444:	24a5016c 	addiu	a1,a1,364
  414448:	3c060042 	lui	a2,0x42
  41444c:	24c6f5a0 	addiu	a2,a2,-2656
  414450:	3c070042 	lui	a3,0x42
[31m  414454:	8f9980e8 	lw	t9,fprintf[0m
  414458:	0320f809 	jalr	t9
  41445c:	24e70754 	addiu	a3,a3,1876
  414460:	8fbc0028 	lw	gp,40(sp)
  414464:	1000000c 	b	414498 <_ftext@@Base+0x13438>
  414468:	00000000 	nop
  41446c:	1443000a 	bne	v0,v1,414498 <_ftext@@Base+0x13438>
  414470:	02202021 	move	a0,s1
  414474:	3c050042 	lui	a1,0x42
  414478:	24a5016c 	addiu	a1,a1,364
  41447c:	3c060042 	lui	a2,0x42
  414480:	24c6f5a0 	addiu	a2,a2,-2656
  414484:	3c070042 	lui	a3,0x42
[31m  414488:	8f9980e8 	lw	t9,fprintf[0m
  41448c:	0320f809 	jalr	t9
  414490:	24e7075c 	addiu	a3,a3,1884
--
  4144a0:	02002021 	move	a0,s0
  4144a4:	3c050042 	lui	a1,0x42
  4144a8:	8f99809c 	lw	t9,-32612(gp)
  4144ac:	0320f809 	jalr	t9
  4144b0:	24a5f5cc 	addiu	a1,a1,-2612
  4144b4:	8fbc0028 	lw	gp,40(sp)
  4144b8:	14400022 	bnez	v0,414544 <_ftext@@Base+0x134e4>
  4144bc:	3c020043 	lui	v0,0x43
  4144c0:	afa00130 	sw	zero,304(sp)
  4144c4:	3c040042 	lui	a0,0x42
  4144c8:	2484ea60 	addiu	a0,a0,-5536
  4144cc:	3c050042 	lui	a1,0x42
  4144d0:	24a5f5cc 	addiu	a1,a1,-2612
  4144d4:	8f998054 	lw	t9,-32684(gp)
  4144d8:	0320f809 	jalr	t9
  4144dc:	27a60130 	addiu	a2,sp,304
  4144e0:	8fbc0028 	lw	gp,40(sp)
  4144e4:	8fa20130 	lw	v0,304(sp)
  4144e8:	1040000c 	beqz	v0,41451c <_ftext@@Base+0x134bc>
  4144ec:	02202021 	move	a0,s1
  4144f0:	3c050042 	lui	a1,0x42
  4144f4:	24a5016c 	addiu	a1,a1,364
  4144f8:	3c060042 	lui	a2,0x42
  4144fc:	24c6f5cc 	addiu	a2,a2,-2612
  414500:	3c070042 	lui	a3,0x42
[31m  414504:	8f9980e8 	lw	t9,fprintf[0m
  414508:	0320f809 	jalr	t9
  41450c:	24e7eba0 	addiu	a3,a3,-5216
  414510:	8fbc0028 	lw	gp,40(sp)
  414514:	1000000b 	b	414544 <_ftext@@Base+0x134e4>
  414518:	3c020043 	lui	v0,0x43
  41451c:	3c050042 	lui	a1,0x42
  414520:	24a5016c 	addiu	a1,a1,364
  414524:	3c060042 	lui	a2,0x42
  414528:	24c6f5cc 	addiu	a2,a2,-2612
  41452c:	3c070042 	lui	a3,0x42
[31m  414530:	8f9980e8 	lw	t9,fprintf[0m
  414534:	0320f809 	jalr	t9
  414538:	24e7f124 	addiu	a3,a3,-3804
--
  414558:	10400008 	beqz	v0,41457c <_ftext@@Base+0x1351c>
  41455c:	02002021 	move	a0,s0
  414560:	3c050042 	lui	a1,0x42
  414564:	8f99809c 	lw	t9,-32612(gp)
  414568:	0320f809 	jalr	t9
  41456c:	24a5f614 	addiu	a1,a1,-2540
  414570:	8fbc0028 	lw	gp,40(sp)
  414574:	14400018 	bnez	v0,4145d8 <_ftext@@Base+0x13578>
  414578:	02002021 	move	a0,s0
  41457c:	afa00130 	sw	zero,304(sp)
  414580:	3c040042 	lui	a0,0x42
  414584:	2484ea60 	addiu	a0,a0,-5536
  414588:	3c050042 	lui	a1,0x42
  41458c:	24a5f614 	addiu	a1,a1,-2540
  414590:	8f998054 	lw	t9,-32684(gp)
  414594:	0320f809 	jalr	t9
  414598:	27a60130 	addiu	a2,sp,304
  41459c:	8fbc0028 	lw	gp,40(sp)
  4145a0:	8fa20130 	lw	v0,304(sp)
  4145a4:	14400009 	bnez	v0,4145cc <_ftext@@Base+0x1356c>
  4145a8:	02202021 	move	a0,s1
  4145ac:	3c050042 	lui	a1,0x42
  4145b0:	24a501f4 	addiu	a1,a1,500
  4145b4:	3c060042 	lui	a2,0x42
  4145b8:	24c6f614 	addiu	a2,a2,-2540
[31m  4145bc:	8f9980e8 	lw	t9,fprintf[0m
  4145c0:	0320f809 	jalr	t9
  4145c4:	00003821 	move	a3,zero
--
  4145d8:	3c050042 	lui	a1,0x42
  4145dc:	8f99809c 	lw	t9,-32612(gp)
  4145e0:	0320f809 	jalr	t9
  4145e4:	24a5ea70 	addiu	a1,a1,-5520
  4145e8:	8fbc0028 	lw	gp,40(sp)
  4145ec:	144007a2 	bnez	v0,416478 <_ftext@@Base+0x15418>
  4145f0:	02402021 	move	a0,s2
  4145f4:	afa00130 	sw	zero,304(sp)
  4145f8:	3c040042 	lui	a0,0x42
  4145fc:	2484ea60 	addiu	a0,a0,-5536
  414600:	3c050042 	lui	a1,0x42
  414604:	24a5ea70 	addiu	a1,a1,-5520
  414608:	8f998054 	lw	t9,-32684(gp)
  41460c:	0320f809 	jalr	t9
  414610:	27a60130 	addiu	a2,sp,304
  414614:	8fbc0028 	lw	gp,40(sp)
  414618:	8fa20130 	lw	v0,304(sp)
  41461c:	1440000d 	bnez	v0,414654 <_ftext@@Base+0x135f4>
  414620:	24030001 	li	v1,1
  414624:	02202021 	move	a0,s1
  414628:	3c050042 	lui	a1,0x42
  41462c:	24a5016c 	addiu	a1,a1,364
  414630:	3c060042 	lui	a2,0x42
  414634:	24c6ea70 	addiu	a2,a2,-5520
  414638:	3c070042 	lui	a3,0x42
[31m  41463c:	8f9980e8 	lw	t9,fprintf[0m
  414640:	0320f809 	jalr	t9
  414644:	24e7f554 	addiu	a3,a3,-2732
  414648:	8fbc0028 	lw	gp,40(sp)
  41464c:	1000078a 	b	416478 <_ftext@@Base+0x15418>
  414650:	02402021 	move	a0,s2
  414654:	14430787 	bne	v0,v1,416474 <_ftext@@Base+0x15414>
  414658:	02202021 	move	a0,s1
  41465c:	3c050042 	lui	a1,0x42
  414660:	24a5016c 	addiu	a1,a1,364
  414664:	3c060042 	lui	a2,0x42
  414668:	24c6ea70 	addiu	a2,a2,-5520
  41466c:	3c070042 	lui	a3,0x42
[31m  414670:	8f9980e8 	lw	t9,fprintf[0m
  414674:	0320f809 	jalr	t9
  414678:	24e7f564 	addiu	a3,a3,-2716
--
  4146ec:	02002021 	move	a0,s0
  4146f0:	3c050042 	lui	a1,0x42
  4146f4:	8f99809c 	lw	t9,-32612(gp)
  4146f8:	0320f809 	jalr	t9
  4146fc:	24a5f648 	addiu	a1,a1,-2488
  414700:	8fbc0028 	lw	gp,40(sp)
  414704:	14400024 	bnez	v0,414798 <_ftext@@Base+0x13738>
  414708:	02002021 	move	a0,s0
  41470c:	afa00130 	sw	zero,304(sp)
  414710:	3c040042 	lui	a0,0x42
  414714:	2484f654 	addiu	a0,a0,-2476
  414718:	3c050042 	lui	a1,0x42
  41471c:	24a5f664 	addiu	a1,a1,-2460
  414720:	8f998054 	lw	t9,-32684(gp)
  414724:	0320f809 	jalr	t9
  414728:	27a60130 	addiu	a2,sp,304
  41472c:	8fbc0028 	lw	gp,40(sp)
  414730:	8fa20130 	lw	v0,304(sp)
  414734:	1040000c 	beqz	v0,414768 <_ftext@@Base+0x13708>
  414738:	02202021 	move	a0,s1
  41473c:	3c050042 	lui	a1,0x42
  414740:	24a5016c 	addiu	a1,a1,364
  414744:	3c060042 	lui	a2,0x42
  414748:	24c6f648 	addiu	a2,a2,-2488
  41474c:	3c070042 	lui	a3,0x42
[31m  414750:	8f9980e8 	lw	t9,fprintf[0m
  414754:	0320f809 	jalr	t9
  414758:	24e7eba0 	addiu	a3,a3,-5216
  41475c:	8fbc0028 	lw	gp,40(sp)
  414760:	1000000a 	b	41478c <_ftext@@Base+0x1372c>
  414764:	00000000 	nop
  414768:	3c050042 	lui	a1,0x42
  41476c:	24a5016c 	addiu	a1,a1,364
  414770:	3c060042 	lui	a2,0x42
  414774:	24c6f648 	addiu	a2,a2,-2488
  414778:	3c070042 	lui	a3,0x42
[31m  41477c:	8f9980e8 	lw	t9,fprintf[0m
  414780:	0320f809 	jalr	t9
  414784:	24e7f124 	addiu	a3,a3,-3804
--
  4147a0:	0320f809 	jalr	t9
  4147a4:	24a5f670 	addiu	a1,a1,-2448
  4147a8:	8fbc0028 	lw	gp,40(sp)
  4147ac:	1440001c 	bnez	v0,414820 <_ftext@@Base+0x137c0>
  4147b0:	02002021 	move	a0,s0
  4147b4:	27b40030 	addiu	s4,sp,48
  4147b8:	02802021 	move	a0,s4
  4147bc:	00002821 	move	a1,zero
  4147c0:	8f9980ac 	lw	t9,-32596(gp)
  4147c4:	0320f809 	jalr	t9
  4147c8:	24060100 	li	a2,256
  4147cc:	8fbc0028 	lw	gp,40(sp)
  4147d0:	3c040042 	lui	a0,0x42
  4147d4:	2484f654 	addiu	a0,a0,-2476
  4147d8:	3c050042 	lui	a1,0x42
  4147dc:	24a5f674 	addiu	a1,a1,-2444
  4147e0:	8f998054 	lw	t9,-32684(gp)
  4147e4:	0320f809 	jalr	t9
  4147e8:	02803021 	move	a2,s4
  4147ec:	8fbc0028 	lw	gp,40(sp)
  4147f0:	02202021 	move	a0,s1
  4147f4:	3c050042 	lui	a1,0x42
  4147f8:	24a5016c 	addiu	a1,a1,364
  4147fc:	3c060042 	lui	a2,0x42
  414800:	24c6f670 	addiu	a2,a2,-2448
[31m  414804:	8f9980e8 	lw	t9,fprintf[0m
  414808:	0320f809 	jalr	t9
  41480c:	02803821 	move	a3,s4
--
  41481c:	02002021 	move	a0,s0
  414820:	3c050042 	lui	a1,0x42
  414824:	8f99809c 	lw	t9,-32612(gp)
  414828:	0320f809 	jalr	t9
  41482c:	24a5f67c 	addiu	a1,a1,-2436
  414830:	8fbc0028 	lw	gp,40(sp)
  414834:	14400024 	bnez	v0,4148c8 <_ftext@@Base+0x13868>
  414838:	02002021 	move	a0,s0
  41483c:	afa00130 	sw	zero,304(sp)
  414840:	3c040042 	lui	a0,0x42
  414844:	2484f654 	addiu	a0,a0,-2476
  414848:	3c050042 	lui	a1,0x42
  41484c:	24a5f688 	addiu	a1,a1,-2424
  414850:	8f998054 	lw	t9,-32684(gp)
  414854:	0320f809 	jalr	t9
  414858:	27a60130 	addiu	a2,sp,304
  41485c:	8fbc0028 	lw	gp,40(sp)
  414860:	8fa20130 	lw	v0,304(sp)
  414864:	1040000c 	beqz	v0,414898 <_ftext@@Base+0x13838>
  414868:	02202021 	move	a0,s1
  41486c:	3c050042 	lui	a1,0x42
  414870:	24a5016c 	addiu	a1,a1,364
  414874:	3c060042 	lui	a2,0x42
  414878:	24c6f67c 	addiu	a2,a2,-2436
  41487c:	3c070042 	lui	a3,0x42
[31m  414880:	8f9980e8 	lw	t9,fprintf[0m
  414884:	0320f809 	jalr	t9
  414888:	24e7eba0 	addiu	a3,a3,-5216
  41488c:	8fbc0028 	lw	gp,40(sp)
  414890:	1000000a 	b	4148bc <_ftext@@Base+0x1385c>
  414894:	00000000 	nop
  414898:	3c050042 	lui	a1,0x42
  41489c:	24a5016c 	addiu	a1,a1,364
  4148a0:	3c060042 	lui	a2,0x42
  4148a4:	24c6f67c 	addiu	a2,a2,-2436
  4148a8:	3c070042 	lui	a3,0x42
[31m  4148ac:	8f9980e8 	lw	t9,fprintf[0m
  4148b0:	0320f809 	jalr	t9
  4148b4:	24e7f124 	addiu	a3,a3,-3804
--
  4148c4:	02002021 	move	a0,s0
  4148c8:	3c050042 	lui	a1,0x42
  4148cc:	8f99809c 	lw	t9,-32612(gp)
  4148d0:	0320f809 	jalr	t9
  4148d4:	24a5f698 	addiu	a1,a1,-2408
  4148d8:	8fbc0028 	lw	gp,40(sp)
  4148dc:	144006e6 	bnez	v0,416478 <_ftext@@Base+0x15418>
  4148e0:	02402021 	move	a0,s2
  4148e4:	afa00130 	sw	zero,304(sp)
  4148e8:	3c040042 	lui	a0,0x42
  4148ec:	2484f654 	addiu	a0,a0,-2476
  4148f0:	3c050042 	lui	a1,0x42
  4148f4:	24a5f6a0 	addiu	a1,a1,-2400
  4148f8:	8f998054 	lw	t9,-32684(gp)
  4148fc:	0320f809 	jalr	t9
  414900:	27a60130 	addiu	a2,sp,304
  414904:	8fbc0028 	lw	gp,40(sp)
  414908:	8fa20130 	lw	v0,304(sp)
  41490c:	1040000c 	beqz	v0,414940 <_ftext@@Base+0x138e0>
  414910:	3c060042 	lui	a2,0x42
  414914:	02202021 	move	a0,s1
  414918:	3c050042 	lui	a1,0x42
  41491c:	24a5016c 	addiu	a1,a1,364
  414920:	24c6f698 	addiu	a2,a2,-2408
  414924:	3c070042 	lui	a3,0x42
[31m  414928:	8f9980e8 	lw	t9,fprintf[0m
  41492c:	0320f809 	jalr	t9
  414930:	24e7eba0 	addiu	a3,a3,-5216
  414934:	8fbc0028 	lw	gp,40(sp)
  414938:	100006cf 	b	416478 <_ftext@@Base+0x15418>
  41493c:	02402021 	move	a0,s2
  414940:	02202021 	move	a0,s1
  414944:	3c050042 	lui	a1,0x42
  414948:	24a5016c 	addiu	a1,a1,364
  41494c:	24c6f698 	addiu	a2,a2,-2408
  414950:	3c070042 	lui	a3,0x42
[31m  414954:	8f9980e8 	lw	t9,fprintf[0m
  414958:	0320f809 	jalr	t9
  41495c:	24e7f124 	addiu	a3,a3,-3804
--
  414a08:	3c050042 	lui	a1,0x42
  414a0c:	24a5ea7c 	addiu	a1,a1,-5508
  414a10:	8f998054 	lw	t9,-32684(gp)
  414a14:	0320f809 	jalr	t9
  414a18:	27a60138 	addiu	a2,sp,312
  414a1c:	8fbc0028 	lw	gp,40(sp)
  414a20:	2684f604 	addiu	a0,s4,-2556
  414a24:	3c050042 	lui	a1,0x42
  414a28:	24a5ea84 	addiu	a1,a1,-5500
  414a2c:	8f998054 	lw	t9,-32684(gp)
  414a30:	0320f809 	jalr	t9
  414a34:	27a6013c 	addiu	a2,sp,316
  414a38:	8fbc0028 	lw	gp,40(sp)
  414a3c:	8fa40138 	lw	a0,312(sp)
  414a40:	8fa5013c 	lw	a1,316(sp)
  414a44:	8f99813c 	lw	t9,-32452(gp)
  414a48:	0320f809 	jalr	t9
  414a4c:	00000000 	nop
  414a50:	8fbc0028 	lw	gp,40(sp)
  414a54:	afa20130 	sw	v0,304(sp)
  414a58:	02202021 	move	a0,s1
  414a5c:	3c050042 	lui	a1,0x42
  414a60:	24a501f4 	addiu	a1,a1,500
  414a64:	3c060042 	lui	a2,0x42
  414a68:	24c6f6f8 	addiu	a2,a2,-2312
[31m  414a6c:	8f9980e8 	lw	t9,fprintf[0m
  414a70:	0320f809 	jalr	t9
  414a74:	00403821 	move	a3,v0
  414a78:	8fbc0028 	lw	gp,40(sp)
  414a7c:	92620000 	lbu	v0,0(s3)
  414a80:	10400008 	beqz	v0,414aa4 <_ftext@@Base+0x13a44>
  414a84:	02002021 	move	a0,s0
  414a88:	3c050042 	lui	a1,0x42
  414a8c:	8f99809c 	lw	t9,-32612(gp)
  414a90:	0320f809 	jalr	t9
  414a94:	24a5f738 	addiu	a1,a1,-2248
  414a98:	8fbc0028 	lw	gp,40(sp)
  414a9c:	14400016 	bnez	v0,414af8 <_ftext@@Base+0x13a98>
  414aa0:	02002021 	move	a0,s0
  414aa4:	afa00130 	sw	zero,304(sp)
  414aa8:	3c040042 	lui	a0,0x42
  414aac:	2484f604 	addiu	a0,a0,-2556
  414ab0:	3c050042 	lui	a1,0x42
  414ab4:	24a5f5e8 	addiu	a1,a1,-2584
  414ab8:	8f998054 	lw	t9,-32684(gp)
  414abc:	0320f809 	jalr	t9
  414ac0:	27a60130 	addiu	a2,sp,304
  414ac4:	8fbc0028 	lw	gp,40(sp)
  414ac8:	02202021 	move	a0,s1
  414acc:	3c050042 	lui	a1,0x42
  414ad0:	24a501f4 	addiu	a1,a1,500
  414ad4:	3c060042 	lui	a2,0x42
  414ad8:	8fa70130 	lw	a3,304(sp)
[31m  414adc:	8f9980e8 	lw	t9,fprintf[0m
  414ae0:	0320f809 	jalr	t9
  414ae4:	24c6f738 	addiu	a2,a2,-2248
  414ae8:	8fbc0028 	lw	gp,40(sp)
  414aec:	92620000 	lbu	v0,0(s3)
  414af0:	10400008 	beqz	v0,414b14 <_ftext@@Base+0x13ab4>
  414af4:	02002021 	move	a0,s0
  414af8:	3c050042 	lui	a1,0x42
  414afc:	8f99809c 	lw	t9,-32612(gp)
  414b00:	0320f809 	jalr	t9
  414b04:	24a5f744 	addiu	a1,a1,-2236
  414b08:	8fbc0028 	lw	gp,40(sp)
  414b0c:	14400015 	bnez	v0,414b64 <_ftext@@Base+0x13b04>
  414b10:	02002021 	move	a0,s0
  414b14:	afa00130 	sw	zero,304(sp)
  414b18:	3c040042 	lui	a0,0x42
  414b1c:	2484f604 	addiu	a0,a0,-2556
  414b20:	3c140042 	lui	s4,0x42
  414b24:	2685f744 	addiu	a1,s4,-2236
  414b28:	8f998054 	lw	t9,-32684(gp)
  414b2c:	0320f809 	jalr	t9
  414b30:	27a60130 	addiu	a2,sp,304
  414b34:	8fbc0028 	lw	gp,40(sp)
  414b38:	02202021 	move	a0,s1
  414b3c:	3c050042 	lui	a1,0x42
  414b40:	24a501f4 	addiu	a1,a1,500
  414b44:	8fa70130 	lw	a3,304(sp)
[31m  414b48:	8f9980e8 	lw	t9,fprintf[0m
  414b4c:	0320f809 	jalr	t9
  414b50:	2686f744 	addiu	a2,s4,-2236
--
  414b64:	3c050042 	lui	a1,0x42
  414b68:	8f99809c 	lw	t9,-32612(gp)
  414b6c:	0320f809 	jalr	t9
  414b70:	24a5f74c 	addiu	a1,a1,-2228
  414b74:	8fbc0028 	lw	gp,40(sp)
  414b78:	1440063f 	bnez	v0,416478 <_ftext@@Base+0x15418>
  414b7c:	02402021 	move	a0,s2
  414b80:	afa00130 	sw	zero,304(sp)
  414b84:	3c040042 	lui	a0,0x42
  414b88:	2484f604 	addiu	a0,a0,-2556
  414b8c:	3c050042 	lui	a1,0x42
  414b90:	24a5f760 	addiu	a1,a1,-2208
  414b94:	8f998054 	lw	t9,-32684(gp)
  414b98:	0320f809 	jalr	t9
  414b9c:	27a60130 	addiu	a2,sp,304
  414ba0:	8fbc0028 	lw	gp,40(sp)
  414ba4:	8fa20130 	lw	v0,304(sp)
  414ba8:	1440000d 	bnez	v0,414be0 <_ftext@@Base+0x13b80>
  414bac:	24030001 	li	v1,1
  414bb0:	02202021 	move	a0,s1
  414bb4:	3c050042 	lui	a1,0x42
  414bb8:	24a5016c 	addiu	a1,a1,364
  414bbc:	3c060042 	lui	a2,0x42
  414bc0:	24c6f74c 	addiu	a2,a2,-2228
  414bc4:	3c070042 	lui	a3,0x42
[31m  414bc8:	8f9980e8 	lw	t9,fprintf[0m
  414bcc:	0320f809 	jalr	t9
  414bd0:	24e7f758 	addiu	a3,a3,-2216
  414bd4:	8fbc0028 	lw	gp,40(sp)
  414bd8:	10000627 	b	416478 <_ftext@@Base+0x15418>
  414bdc:	02402021 	move	a0,s2
  414be0:	1443000d 	bne	v0,v1,414c18 <_ftext@@Base+0x13bb8>
  414be4:	24030002 	li	v1,2
  414be8:	02202021 	move	a0,s1
  414bec:	3c050042 	lui	a1,0x42
  414bf0:	24a5016c 	addiu	a1,a1,364
  414bf4:	3c060042 	lui	a2,0x42
  414bf8:	24c6f74c 	addiu	a2,a2,-2228
  414bfc:	3c070042 	lui	a3,0x42
[31m  414c00:	8f9980e8 	lw	t9,fprintf[0m
  414c04:	0320f809 	jalr	t9
  414c08:	24e7f76c 	addiu	a3,a3,-2196
  414c0c:	8fbc0028 	lw	gp,40(sp)
  414c10:	10000619 	b	416478 <_ftext@@Base+0x15418>
  414c14:	02402021 	move	a0,s2
  414c18:	14430616 	bne	v0,v1,416474 <_ftext@@Base+0x15414>
  414c1c:	02202021 	move	a0,s1
  414c20:	3c050042 	lui	a1,0x42
  414c24:	24a5016c 	addiu	a1,a1,364
  414c28:	3c060042 	lui	a2,0x42
  414c2c:	24c6f74c 	addiu	a2,a2,-2228
  414c30:	3c070042 	lui	a3,0x42
[31m  414c34:	8f9980e8 	lw	t9,fprintf[0m
  414c38:	0320f809 	jalr	t9
  414c3c:	24e7f778 	addiu	a3,a3,-2184
--
  414ce0:	3c050042 	lui	a1,0x42
  414ce4:	24a5ea7c 	addiu	a1,a1,-5508
  414ce8:	8f998054 	lw	t9,-32684(gp)
  414cec:	0320f809 	jalr	t9
  414cf0:	27a6013c 	addiu	a2,sp,316
  414cf4:	8fbc0028 	lw	gp,40(sp)
  414cf8:	2684f5f4 	addiu	a0,s4,-2572
  414cfc:	3c050042 	lui	a1,0x42
  414d00:	24a5ea84 	addiu	a1,a1,-5500
  414d04:	8f998054 	lw	t9,-32684(gp)
  414d08:	0320f809 	jalr	t9
  414d0c:	27a60138 	addiu	a2,sp,312
  414d10:	8fbc0028 	lw	gp,40(sp)
  414d14:	8fa4013c 	lw	a0,316(sp)
  414d18:	8fa50138 	lw	a1,312(sp)
  414d1c:	8f99813c 	lw	t9,-32452(gp)
  414d20:	0320f809 	jalr	t9
  414d24:	00000000 	nop
  414d28:	8fbc0028 	lw	gp,40(sp)
  414d2c:	afa20130 	sw	v0,304(sp)
  414d30:	02202021 	move	a0,s1
  414d34:	3c050042 	lui	a1,0x42
  414d38:	24a501f4 	addiu	a1,a1,500
  414d3c:	3c060042 	lui	a2,0x42
  414d40:	24c6f6f8 	addiu	a2,a2,-2312
[31m  414d44:	8f9980e8 	lw	t9,fprintf[0m
  414d48:	0320f809 	jalr	t9
  414d4c:	00403821 	move	a3,v0
  414d50:	8fbc0028 	lw	gp,40(sp)
  414d54:	92620000 	lbu	v0,0(s3)
  414d58:	10400008 	beqz	v0,414d7c <_ftext@@Base+0x13d1c>
  414d5c:	02002021 	move	a0,s0
  414d60:	3c050042 	lui	a1,0x42
  414d64:	8f99809c 	lw	t9,-32612(gp)
  414d68:	0320f809 	jalr	t9
  414d6c:	24a5f738 	addiu	a1,a1,-2248
  414d70:	8fbc0028 	lw	gp,40(sp)
  414d74:	14400017 	bnez	v0,414dd4 <_ftext@@Base+0x13d74>
  414d78:	02002021 	move	a0,s0
  414d7c:	afa00130 	sw	zero,304(sp)
  414d80:	3c040042 	lui	a0,0x42
  414d84:	2484f5f4 	addiu	a0,a0,-2572
  414d88:	3c050042 	lui	a1,0x42
  414d8c:	24a5f5e8 	addiu	a1,a1,-2584
  414d90:	8f998054 	lw	t9,-32684(gp)
  414d94:	0320f809 	jalr	t9
  414d98:	27a60130 	addiu	a2,sp,304
  414d9c:	8fbc0028 	lw	gp,40(sp)
  414da0:	02202021 	move	a0,s1
  414da4:	3c050042 	lui	a1,0x42
  414da8:	24a501f4 	addiu	a1,a1,500
  414dac:	3c060042 	lui	a2,0x42
  414db0:	8fa70130 	lw	a3,304(sp)
[31m  414db4:	8f9980e8 	lw	t9,fprintf[0m
  414db8:	0320f809 	jalr	t9
  414dbc:	24c6f738 	addiu	a2,a2,-2248
  414dc0:	8fbc0028 	lw	gp,40(sp)
  414dc4:	92620000 	lbu	v0,0(s3)
  414dc8:	10400009 	beqz	v0,414df0 <_ftext@@Base+0x13d90>
  414dcc:	00000000 	nop
  414dd0:	02002021 	move	a0,s0
  414dd4:	3c050042 	lui	a1,0x42
  414dd8:	8f99809c 	lw	t9,-32612(gp)
  414ddc:	0320f809 	jalr	t9
  414de0:	24a5f744 	addiu	a1,a1,-2236
  414de4:	8fbc0028 	lw	gp,40(sp)
  414de8:	144005a2 	bnez	v0,416474 <_ftext@@Base+0x15414>
  414dec:	00000000 	nop
  414df0:	afa00130 	sw	zero,304(sp)
  414df4:	3c040042 	lui	a0,0x42
  414df8:	2484f5f4 	addiu	a0,a0,-2572
  414dfc:	3c130042 	lui	s3,0x42
  414e00:	2665f744 	addiu	a1,s3,-2236
  414e04:	8f998054 	lw	t9,-32684(gp)
  414e08:	0320f809 	jalr	t9
  414e0c:	27a60130 	addiu	a2,sp,304
  414e10:	8fbc0028 	lw	gp,40(sp)
  414e14:	02202021 	move	a0,s1
  414e18:	3c050042 	lui	a1,0x42
  414e1c:	24a501f4 	addiu	a1,a1,500
  414e20:	8fa70130 	lw	a3,304(sp)
[31m  414e24:	8f9980e8 	lw	t9,fprintf[0m
  414e28:	0320f809 	jalr	t9
  414e2c:	2666f744 	addiu	a2,s3,-2236
--
  414ed8:	3c050042 	lui	a1,0x42
  414edc:	24a5ea7c 	addiu	a1,a1,-5508
  414ee0:	8f998054 	lw	t9,-32684(gp)
  414ee4:	0320f809 	jalr	t9
  414ee8:	27a60138 	addiu	a2,sp,312
  414eec:	8fbc0028 	lw	gp,40(sp)
  414ef0:	2684f5d8 	addiu	a0,s4,-2600
  414ef4:	3c050042 	lui	a1,0x42
  414ef8:	24a5ea84 	addiu	a1,a1,-5500
  414efc:	8f998054 	lw	t9,-32684(gp)
  414f00:	0320f809 	jalr	t9
  414f04:	27a6013c 	addiu	a2,sp,316
  414f08:	8fbc0028 	lw	gp,40(sp)
  414f0c:	8fa40138 	lw	a0,312(sp)
  414f10:	8fa5013c 	lw	a1,316(sp)
  414f14:	8f99813c 	lw	t9,-32452(gp)
  414f18:	0320f809 	jalr	t9
  414f1c:	00000000 	nop
  414f20:	8fbc0028 	lw	gp,40(sp)
  414f24:	afa20130 	sw	v0,304(sp)
  414f28:	02202021 	move	a0,s1
  414f2c:	3c050042 	lui	a1,0x42
  414f30:	24a501f4 	addiu	a1,a1,500
  414f34:	3c060042 	lui	a2,0x42
  414f38:	24c6f6f8 	addiu	a2,a2,-2312
[31m  414f3c:	8f9980e8 	lw	t9,fprintf[0m
  414f40:	0320f809 	jalr	t9
  414f44:	00403821 	move	a3,v0
  414f48:	8fbc0028 	lw	gp,40(sp)
  414f4c:	92620000 	lbu	v0,0(s3)
  414f50:	10400008 	beqz	v0,414f74 <_ftext@@Base+0x13f14>
  414f54:	02002021 	move	a0,s0
  414f58:	3c050042 	lui	a1,0x42
  414f5c:	8f99809c 	lw	t9,-32612(gp)
  414f60:	0320f809 	jalr	t9
  414f64:	24a5f738 	addiu	a1,a1,-2248
  414f68:	8fbc0028 	lw	gp,40(sp)
  414f6c:	14400017 	bnez	v0,414fcc <_ftext@@Base+0x13f6c>
  414f70:	02002021 	move	a0,s0
  414f74:	afa00130 	sw	zero,304(sp)
  414f78:	3c040042 	lui	a0,0x42
  414f7c:	2484f5d8 	addiu	a0,a0,-2600
  414f80:	3c050042 	lui	a1,0x42
  414f84:	24a5f5e8 	addiu	a1,a1,-2584
  414f88:	8f998054 	lw	t9,-32684(gp)
  414f8c:	0320f809 	jalr	t9
  414f90:	27a60130 	addiu	a2,sp,304
  414f94:	8fbc0028 	lw	gp,40(sp)
  414f98:	02202021 	move	a0,s1
  414f9c:	3c050042 	lui	a1,0x42
  414fa0:	24a501f4 	addiu	a1,a1,500
  414fa4:	3c060042 	lui	a2,0x42
  414fa8:	8fa70130 	lw	a3,304(sp)
[31m  414fac:	8f9980e8 	lw	t9,fprintf[0m
  414fb0:	0320f809 	jalr	t9
  414fb4:	24c6f738 	addiu	a2,a2,-2248
  414fb8:	8fbc0028 	lw	gp,40(sp)
  414fbc:	92620000 	lbu	v0,0(s3)
  414fc0:	10400009 	beqz	v0,414fe8 <_ftext@@Base+0x13f88>
  414fc4:	00000000 	nop
  414fc8:	02002021 	move	a0,s0
  414fcc:	3c050042 	lui	a1,0x42
  414fd0:	8f99809c 	lw	t9,-32612(gp)
  414fd4:	0320f809 	jalr	t9
  414fd8:	24a5f744 	addiu	a1,a1,-2236
  414fdc:	8fbc0028 	lw	gp,40(sp)
  414fe0:	14400524 	bnez	v0,416474 <_ftext@@Base+0x15414>
  414fe4:	00000000 	nop
  414fe8:	afa00130 	sw	zero,304(sp)
  414fec:	3c040042 	lui	a0,0x42
  414ff0:	2484f5d8 	addiu	a0,a0,-2600
  414ff4:	3c130042 	lui	s3,0x42
  414ff8:	2665f744 	addiu	a1,s3,-2236
  414ffc:	8f998054 	lw	t9,-32684(gp)
  415000:	0320f809 	jalr	t9
  415004:	27a60130 	addiu	a2,sp,304
  415008:	8fbc0028 	lw	gp,40(sp)
  41500c:	02202021 	move	a0,s1
  415010:	3c050042 	lui	a1,0x42
  415014:	24a501f4 	addiu	a1,a1,500
  415018:	8fa70130 	lw	a3,304(sp)
[31m  41501c:	8f9980e8 	lw	t9,fprintf[0m
  415020:	0320f809 	jalr	t9
  415024:	2666f744 	addiu	a2,s3,-2236
--
  415088:	02002021 	move	a0,s0
  41508c:	3c050042 	lui	a1,0x42
  415090:	8f99809c 	lw	t9,-32612(gp)
  415094:	0320f809 	jalr	t9
  415098:	24a5f78c 	addiu	a1,a1,-2164
  41509c:	8fbc0028 	lw	gp,40(sp)
  4150a0:	14400024 	bnez	v0,415134 <_ftext@@Base+0x140d4>
  4150a4:	02002021 	move	a0,s0
  4150a8:	a3a00134 	sb	zero,308(sp)
  4150ac:	3c040042 	lui	a0,0x42
  4150b0:	2484f798 	addiu	a0,a0,-2152
  4150b4:	3c050042 	lui	a1,0x42
  4150b8:	24a5f7a8 	addiu	a1,a1,-2136
  4150bc:	8f998054 	lw	t9,-32684(gp)
  4150c0:	0320f809 	jalr	t9
  4150c4:	27a60134 	addiu	a2,sp,308
  4150c8:	8fbc0028 	lw	gp,40(sp)
  4150cc:	93a20134 	lbu	v0,308(sp)
  4150d0:	1040000c 	beqz	v0,415104 <_ftext@@Base+0x140a4>
  4150d4:	02202021 	move	a0,s1
  4150d8:	3c050042 	lui	a1,0x42
  4150dc:	24a5016c 	addiu	a1,a1,364
  4150e0:	3c060042 	lui	a2,0x42
  4150e4:	24c6f78c 	addiu	a2,a2,-2164
  4150e8:	3c070042 	lui	a3,0x42
[31m  4150ec:	8f9980e8 	lw	t9,fprintf[0m
  4150f0:	0320f809 	jalr	t9
  4150f4:	24e7ec9c 	addiu	a3,a3,-4964
  4150f8:	8fbc0028 	lw	gp,40(sp)
  4150fc:	1000000a 	b	415128 <_ftext@@Base+0x140c8>
  415100:	00000000 	nop
  415104:	3c050042 	lui	a1,0x42
  415108:	24a5016c 	addiu	a1,a1,364
  41510c:	3c060042 	lui	a2,0x42
  415110:	24c6f78c 	addiu	a2,a2,-2164
  415114:	3c070042 	lui	a3,0x42
[31m  415118:	8f9980e8 	lw	t9,fprintf[0m
  41511c:	0320f809 	jalr	t9
  415120:	24e7ec90 	addiu	a3,a3,-4976
--
  415130:	02002021 	move	a0,s0
  415134:	3c050042 	lui	a1,0x42
  415138:	8f99809c 	lw	t9,-32612(gp)
  41513c:	0320f809 	jalr	t9
  415140:	24a5f7b4 	addiu	a1,a1,-2124
  415144:	8fbc0028 	lw	gp,40(sp)
  415148:	1440004f 	bnez	v0,415288 <_ftext@@Base+0x14228>
  41514c:	02002021 	move	a0,s0
  415150:	a3a00134 	sb	zero,308(sp)
  415154:	3c040042 	lui	a0,0x42
  415158:	2484f798 	addiu	a0,a0,-2152
  41515c:	3c050042 	lui	a1,0x42
  415160:	24a5f7c4 	addiu	a1,a1,-2108
  415164:	8f998054 	lw	t9,-32684(gp)
  415168:	0320f809 	jalr	t9
  41516c:	27a60134 	addiu	a2,sp,308
  415170:	8fbc0028 	lw	gp,40(sp)
  415174:	93a20134 	lbu	v0,308(sp)
  415178:	1040000c 	beqz	v0,4151ac <_ftext@@Base+0x1414c>
  41517c:	02202021 	move	a0,s1
  415180:	3c050042 	lui	a1,0x42
  415184:	24a5016c 	addiu	a1,a1,364
  415188:	3c060042 	lui	a2,0x42
  41518c:	24c6f7b4 	addiu	a2,a2,-2124
  415190:	3c070042 	lui	a3,0x42
[31m  415194:	8f9980e8 	lw	t9,fprintf[0m
  415198:	0320f809 	jalr	t9
  41519c:	24e7ec9c 	addiu	a3,a3,-4964
  4151a0:	8fbc0028 	lw	gp,40(sp)
  4151a4:	1000000a 	b	4151d0 <_ftext@@Base+0x14170>
  4151a8:	00000000 	nop
  4151ac:	3c050042 	lui	a1,0x42
  4151b0:	24a5016c 	addiu	a1,a1,364
  4151b4:	3c060042 	lui	a2,0x42
  4151b8:	24c6f7b4 	addiu	a2,a2,-2124
  4151bc:	3c070042 	lui	a3,0x42
[31m  4151c0:	8f9980e8 	lw	t9,fprintf[0m
  4151c4:	0320f809 	jalr	t9
  4151c8:	24e7ec90 	addiu	a3,a3,-4976
--
  4151d8:	02002021 	move	a0,s0
  4151dc:	3c050042 	lui	a1,0x42
  4151e0:	8f99809c 	lw	t9,-32612(gp)
  4151e4:	0320f809 	jalr	t9
  4151e8:	24a5f7b4 	addiu	a1,a1,-2124
  4151ec:	8fbc0028 	lw	gp,40(sp)
  4151f0:	14400025 	bnez	v0,415288 <_ftext@@Base+0x14228>
  4151f4:	02002021 	move	a0,s0
  4151f8:	a3a00134 	sb	zero,308(sp)
  4151fc:	3c040042 	lui	a0,0x42
  415200:	2484f798 	addiu	a0,a0,-2152
  415204:	3c050042 	lui	a1,0x42
  415208:	24a5f7c4 	addiu	a1,a1,-2108
  41520c:	8f998054 	lw	t9,-32684(gp)
  415210:	0320f809 	jalr	t9
  415214:	27a60134 	addiu	a2,sp,308
  415218:	8fbc0028 	lw	gp,40(sp)
  41521c:	93a20134 	lbu	v0,308(sp)
  415220:	1040000c 	beqz	v0,415254 <_ftext@@Base+0x141f4>
  415224:	02202021 	move	a0,s1
  415228:	3c050042 	lui	a1,0x42
  41522c:	24a5016c 	addiu	a1,a1,364
  415230:	3c060042 	lui	a2,0x42
  415234:	24c6f7b4 	addiu	a2,a2,-2124
  415238:	3c070042 	lui	a3,0x42
[31m  41523c:	8f9980e8 	lw	t9,fprintf[0m
  415240:	0320f809 	jalr	t9
  415244:	24e7ec9c 	addiu	a3,a3,-4964
  415248:	8fbc0028 	lw	gp,40(sp)
  41524c:	1000000a 	b	415278 <_ftext@@Base+0x14218>
  415250:	00000000 	nop
  415254:	3c050042 	lui	a1,0x42
  415258:	24a5016c 	addiu	a1,a1,364
  41525c:	3c060042 	lui	a2,0x42
  415260:	24c6f7b4 	addiu	a2,a2,-2124
  415264:	3c070042 	lui	a3,0x42
[31m  415268:	8f9980e8 	lw	t9,fprintf[0m
  41526c:	0320f809 	jalr	t9
  415270:	24e7ec90 	addiu	a3,a3,-4976
  415274:	8fbc0028 	lw	gp,40(sp)
  415278:	92620000 	lbu	v0,0(s3)
  41527c:	10400009 	beqz	v0,4152a4 <_ftext@@Base+0x14244>
  415280:	00000000 	nop
  415284:	02002021 	move	a0,s0
  415288:	3c050042 	lui	a1,0x42
  41528c:	8f99809c 	lw	t9,-32612(gp)
  415290:	0320f809 	jalr	t9
  415294:	24a5f7d4 	addiu	a1,a1,-2092
  415298:	8fbc0028 	lw	gp,40(sp)
  41529c:	14400475 	bnez	v0,416474 <_ftext@@Base+0x15414>
  4152a0:	00000000 	nop
  4152a4:	afa00130 	sw	zero,304(sp)
  4152a8:	3c040042 	lui	a0,0x42
  4152ac:	2484f798 	addiu	a0,a0,-2152
  4152b0:	3c130042 	lui	s3,0x42
  4152b4:	2665f7d4 	addiu	a1,s3,-2092
  4152b8:	8f998054 	lw	t9,-32684(gp)
  4152bc:	0320f809 	jalr	t9
  4152c0:	27a60130 	addiu	a2,sp,304
  4152c4:	8fbc0028 	lw	gp,40(sp)
  4152c8:	02202021 	move	a0,s1
  4152cc:	3c050042 	lui	a1,0x42
  4152d0:	24a501f4 	addiu	a1,a1,500
  4152d4:	8fa70130 	lw	a3,304(sp)
[31m  4152d8:	8f9980e8 	lw	t9,fprintf[0m
  4152dc:	0320f809 	jalr	t9
  4152e0:	2666f7d4 	addiu	a2,s3,-2092
--
  415360:	2484eaac 	addiu	a0,a0,-5460
  415364:	3c050042 	lui	a1,0x42
  415368:	24a5ec94 	addiu	a1,a1,-4972
  41536c:	8f998054 	lw	t9,-32684(gp)
  415370:	0320f809 	jalr	t9
  415374:	27a6013c 	addiu	a2,sp,316
  415378:	8fbc0028 	lw	gp,40(sp)
  41537c:	92620000 	lbu	v0,0(s3)
  415380:	10400008 	beqz	v0,4153a4 <_ftext@@Base+0x14344>
  415384:	02002021 	move	a0,s0
  415388:	3c050042 	lui	a1,0x42
  41538c:	8f99809c 	lw	t9,-32612(gp)
  415390:	0320f809 	jalr	t9
  415394:	24a5ec88 	addiu	a1,a1,-4984
  415398:	8fbc0028 	lw	gp,40(sp)
  41539c:	14400017 	bnez	v0,4153fc <_ftext@@Base+0x1439c>
  4153a0:	00000000 	nop
  4153a4:	8fa2013c 	lw	v0,316(sp)
  4153a8:	1040000b 	beqz	v0,4153d8 <_ftext@@Base+0x14378>
  4153ac:	02202021 	move	a0,s1
  4153b0:	3c050042 	lui	a1,0x42
  4153b4:	24a5016c 	addiu	a1,a1,364
  4153b8:	3c060042 	lui	a2,0x42
  4153bc:	24c6ec88 	addiu	a2,a2,-4984
  4153c0:	3c070042 	lui	a3,0x42
[31m  4153c4:	8f9980e8 	lw	t9,fprintf[0m
  4153c8:	0320f809 	jalr	t9
  4153cc:	24e7ec9c 	addiu	a3,a3,-4964
  4153d0:	10001854 	b	41b524 <_ftext@@Base+0x1a4c4>
  4153d4:	00000000 	nop
  4153d8:	3c050042 	lui	a1,0x42
  4153dc:	24a5016c 	addiu	a1,a1,364
  4153e0:	3c060042 	lui	a2,0x42
  4153e4:	24c6ec88 	addiu	a2,a2,-4984
  4153e8:	3c070042 	lui	a3,0x42
[31m  4153ec:	8f9980e8 	lw	t9,fprintf[0m
  4153f0:	0320f809 	jalr	t9
  4153f4:	24e7ec90 	addiu	a3,a3,-4976
--
  415410:	02002021 	move	a0,s0
  415414:	3c050042 	lui	a1,0x42
  415418:	8f99809c 	lw	t9,-32612(gp)
  41541c:	0320f809 	jalr	t9
  415420:	24a5f41c 	addiu	a1,a1,-3044
  415424:	8fbc0028 	lw	gp,40(sp)
  415428:	14400024 	bnez	v0,4154bc <_ftext@@Base+0x1445c>
  41542c:	02002021 	move	a0,s0
  415430:	afa00130 	sw	zero,304(sp)
  415434:	3c040042 	lui	a0,0x42
  415438:	2484eaac 	addiu	a0,a0,-5460
  41543c:	3c050042 	lui	a1,0x42
  415440:	24a5f41c 	addiu	a1,a1,-3044
  415444:	8f998054 	lw	t9,-32684(gp)
  415448:	0320f809 	jalr	t9
  41544c:	27a60130 	addiu	a2,sp,304
  415450:	8fbc0028 	lw	gp,40(sp)
  415454:	8fa20130 	lw	v0,304(sp)
  415458:	1040000c 	beqz	v0,41548c <_ftext@@Base+0x1442c>
  41545c:	02202021 	move	a0,s1
  415460:	3c050042 	lui	a1,0x42
  415464:	24a5016c 	addiu	a1,a1,364
  415468:	3c060042 	lui	a2,0x42
  41546c:	24c6f41c 	addiu	a2,a2,-3044
  415470:	3c070042 	lui	a3,0x42
[31m  415474:	8f9980e8 	lw	t9,fprintf[0m
  415478:	0320f809 	jalr	t9
  41547c:	24e7fb04 	addiu	a3,a3,-1276
  415480:	8fbc0028 	lw	gp,40(sp)
  415484:	1000000a 	b	4154b0 <_ftext@@Base+0x14450>
  415488:	00000000 	nop
  41548c:	3c050042 	lui	a1,0x42
  415490:	24a5016c 	addiu	a1,a1,364
  415494:	3c060042 	lui	a2,0x42
  415498:	24c6f41c 	addiu	a2,a2,-3044
  41549c:	3c070042 	lui	a3,0x42
[31m  4154a0:	8f9980e8 	lw	t9,fprintf[0m
  4154a4:	0320f809 	jalr	t9
  4154a8:	24e7fb0c 	addiu	a3,a3,-1268
--
  4154b8:	02002021 	move	a0,s0
  4154bc:	3c050042 	lui	a1,0x42
  4154c0:	8f99809c 	lw	t9,-32612(gp)
  4154c4:	0320f809 	jalr	t9
  4154c8:	24a5fb14 	addiu	a1,a1,-1260
  4154cc:	8fbc0028 	lw	gp,40(sp)
  4154d0:	14400024 	bnez	v0,415564 <_ftext@@Base+0x14504>
  4154d4:	02002021 	move	a0,s0
  4154d8:	afa00130 	sw	zero,304(sp)
  4154dc:	3c040042 	lui	a0,0x42
  4154e0:	2484eaac 	addiu	a0,a0,-5460
  4154e4:	3c050042 	lui	a1,0x42
  4154e8:	24a5fb14 	addiu	a1,a1,-1260
  4154ec:	8f998054 	lw	t9,-32684(gp)
  4154f0:	0320f809 	jalr	t9
  4154f4:	27a60130 	addiu	a2,sp,304
  4154f8:	8fbc0028 	lw	gp,40(sp)
  4154fc:	8fa20130 	lw	v0,304(sp)
  415500:	1040000c 	beqz	v0,415534 <_ftext@@Base+0x144d4>
  415504:	02202021 	move	a0,s1
  415508:	3c050042 	lui	a1,0x42
  41550c:	24a5016c 	addiu	a1,a1,364
  415510:	3c060042 	lui	a2,0x42
  415514:	24c6fb14 	addiu	a2,a2,-1260
  415518:	3c070042 	lui	a3,0x42
[31m  41551c:	8f9980e8 	lw	t9,fprintf[0m
  415520:	0320f809 	jalr	t9
  415524:	24e7fb30 	addiu	a3,a3,-1232
  415528:	8fbc0028 	lw	gp,40(sp)
  41552c:	1000000a 	b	415558 <_ftext@@Base+0x144f8>
  415530:	00000000 	nop
  415534:	3c050042 	lui	a1,0x42
  415538:	24a5016c 	addiu	a1,a1,364
  41553c:	3c060042 	lui	a2,0x42
  415540:	24c6fb14 	addiu	a2,a2,-1260
  415544:	3c070042 	lui	a3,0x42
[31m  415548:	8f9980e8 	lw	t9,fprintf[0m
  41554c:	0320f809 	jalr	t9
  415550:	24e7fb38 	addiu	a3,a3,-1224
  415554:	8fbc0028 	lw	gp,40(sp)
  415558:	92620000 	lbu	v0,0(s3)
  41555c:	10400008 	beqz	v0,415580 <_ftext@@Base+0x14520>
  415560:	02002021 	move	a0,s0
  415564:	3c050042 	lui	a1,0x42
  415568:	8f99809c 	lw	t9,-32612(gp)
  41556c:	0320f809 	jalr	t9
  415570:	24a5fb40 	addiu	a1,a1,-1216
  415574:	8fbc0028 	lw	gp,40(sp)
  415578:	14400016 	bnez	v0,4155d4 <_ftext@@Base+0x14574>
  41557c:	02002021 	move	a0,s0
  415580:	afa00130 	sw	zero,304(sp)
  415584:	3c040042 	lui	a0,0x42
  415588:	2484eaac 	addiu	a0,a0,-5460
  41558c:	3c050042 	lui	a1,0x42
  415590:	24a5fb80 	addiu	a1,a1,-1152
  415594:	8f998054 	lw	t9,-32684(gp)
  415598:	0320f809 	jalr	t9
  41559c:	27a60130 	addiu	a2,sp,304
  4155a0:	8fbc0028 	lw	gp,40(sp)
  4155a4:	02202021 	move	a0,s1
  4155a8:	3c050042 	lui	a1,0x42
  4155ac:	24a501f4 	addiu	a1,a1,500
  4155b0:	3c060042 	lui	a2,0x42
  4155b4:	8fa70130 	lw	a3,304(sp)
[31m  4155b8:	8f9980e8 	lw	t9,fprintf[0m
  4155bc:	0320f809 	jalr	t9
  4155c0:	24c6fb40 	addiu	a2,a2,-1216
  4155c4:	8fbc0028 	lw	gp,40(sp)
  4155c8:	92620000 	lbu	v0,0(s3)
  4155cc:	10400008 	beqz	v0,4155f0 <_ftext@@Base+0x14590>
  4155d0:	02002021 	move	a0,s0
  4155d4:	3c050042 	lui	a1,0x42
  4155d8:	8f99809c 	lw	t9,-32612(gp)
  4155dc:	0320f809 	jalr	t9
  4155e0:	24a5fb24 	addiu	a1,a1,-1244
  4155e4:	8fbc0028 	lw	gp,40(sp)
  4155e8:	14400015 	bnez	v0,415640 <_ftext@@Base+0x145e0>
  4155ec:	02002021 	move	a0,s0
  4155f0:	afa00130 	sw	zero,304(sp)
  4155f4:	3c040042 	lui	a0,0x42
  4155f8:	2484eaac 	addiu	a0,a0,-5460
  4155fc:	3c140042 	lui	s4,0x42
  415600:	2685fb24 	addiu	a1,s4,-1244
  415604:	8f998054 	lw	t9,-32684(gp)
  415608:	0320f809 	jalr	t9
  41560c:	27a60130 	addiu	a2,sp,304
  415610:	8fbc0028 	lw	gp,40(sp)
  415614:	02202021 	move	a0,s1
  415618:	3c050042 	lui	a1,0x42
  41561c:	24a501f4 	addiu	a1,a1,500
  415620:	8fa70130 	lw	a3,304(sp)
[31m  415624:	8f9980e8 	lw	t9,fprintf[0m
  415628:	0320f809 	jalr	t9
  41562c:	2686fb24 	addiu	a2,s4,-1244
--
  415644:	8f99809c 	lw	t9,-32612(gp)
  415648:	0320f809 	jalr	t9
  41564c:	24a5fb8c 	addiu	a1,a1,-1140
  415650:	8fbc0028 	lw	gp,40(sp)
  415654:	1440001b 	bnez	v0,4156c4 <_ftext@@Base+0x14664>
  415658:	02002021 	move	a0,s0
  41565c:	27b40030 	addiu	s4,sp,48
  415660:	02802021 	move	a0,s4
  415664:	00002821 	move	a1,zero
  415668:	8f9980ac 	lw	t9,-32596(gp)
  41566c:	0320f809 	jalr	t9
  415670:	24060100 	li	a2,256
  415674:	8fbc0028 	lw	gp,40(sp)
  415678:	3c040042 	lui	a0,0x42
  41567c:	2484eaac 	addiu	a0,a0,-5460
  415680:	3c150042 	lui	s5,0x42
  415684:	26a5fb8c 	addiu	a1,s5,-1140
  415688:	8f998054 	lw	t9,-32684(gp)
  41568c:	0320f809 	jalr	t9
  415690:	02803021 	move	a2,s4
  415694:	8fbc0028 	lw	gp,40(sp)
  415698:	02202021 	move	a0,s1
  41569c:	3c050042 	lui	a1,0x42
  4156a0:	24a5016c 	addiu	a1,a1,364
  4156a4:	26a6fb8c 	addiu	a2,s5,-1140
[31m  4156a8:	8f9980e8 	lw	t9,fprintf[0m
  4156ac:	0320f809 	jalr	t9
  4156b0:	02803821 	move	a3,s4
--
  4156c8:	8f99809c 	lw	t9,-32612(gp)
  4156cc:	0320f809 	jalr	t9
  4156d0:	24a5fb94 	addiu	a1,a1,-1132
  4156d4:	8fbc0028 	lw	gp,40(sp)
  4156d8:	1440001b 	bnez	v0,415748 <_ftext@@Base+0x146e8>
  4156dc:	02002021 	move	a0,s0
  4156e0:	27b40030 	addiu	s4,sp,48
  4156e4:	02802021 	move	a0,s4
  4156e8:	00002821 	move	a1,zero
  4156ec:	8f9980ac 	lw	t9,-32596(gp)
  4156f0:	0320f809 	jalr	t9
  4156f4:	24060100 	li	a2,256
  4156f8:	8fbc0028 	lw	gp,40(sp)
  4156fc:	3c040042 	lui	a0,0x42
  415700:	2484eaac 	addiu	a0,a0,-5460
  415704:	3c150042 	lui	s5,0x42
  415708:	26a5fb94 	addiu	a1,s5,-1132
  41570c:	8f998054 	lw	t9,-32684(gp)
  415710:	0320f809 	jalr	t9
  415714:	02803021 	move	a2,s4
  415718:	8fbc0028 	lw	gp,40(sp)
  41571c:	02202021 	move	a0,s1
  415720:	3c050042 	lui	a1,0x42
  415724:	24a5016c 	addiu	a1,a1,364
  415728:	26a6fb94 	addiu	a2,s5,-1132
[31m  41572c:	8f9980e8 	lw	t9,fprintf[0m
  415730:	0320f809 	jalr	t9
  415734:	02803821 	move	a3,s4
--
  41574c:	8f99809c 	lw	t9,-32612(gp)
  415750:	0320f809 	jalr	t9
  415754:	24a5fb98 	addiu	a1,a1,-1128
  415758:	8fbc0028 	lw	gp,40(sp)
  41575c:	1440001b 	bnez	v0,4157cc <_ftext@@Base+0x1476c>
  415760:	02002021 	move	a0,s0
  415764:	27b40030 	addiu	s4,sp,48
  415768:	02802021 	move	a0,s4
  41576c:	00002821 	move	a1,zero
  415770:	8f9980ac 	lw	t9,-32596(gp)
  415774:	0320f809 	jalr	t9
  415778:	24060100 	li	a2,256
  41577c:	8fbc0028 	lw	gp,40(sp)
  415780:	3c040042 	lui	a0,0x42
  415784:	2484eaac 	addiu	a0,a0,-5460
  415788:	3c150042 	lui	s5,0x42
  41578c:	26a5fb98 	addiu	a1,s5,-1128
  415790:	8f998054 	lw	t9,-32684(gp)
  415794:	0320f809 	jalr	t9
  415798:	02803021 	move	a2,s4
  41579c:	8fbc0028 	lw	gp,40(sp)
  4157a0:	02202021 	move	a0,s1
  4157a4:	3c050042 	lui	a1,0x42
  4157a8:	24a5016c 	addiu	a1,a1,364
  4157ac:	26a6fb98 	addiu	a2,s5,-1128
[31m  4157b0:	8f9980e8 	lw	t9,fprintf[0m
  4157b4:	0320f809 	jalr	t9
  4157b8:	02803821 	move	a3,s4
--
  4157d0:	8f99809c 	lw	t9,-32612(gp)
  4157d4:	0320f809 	jalr	t9
  4157d8:	24a5fba0 	addiu	a1,a1,-1120
  4157dc:	8fbc0028 	lw	gp,40(sp)
  4157e0:	1440001b 	bnez	v0,415850 <_ftext@@Base+0x147f0>
  4157e4:	02002021 	move	a0,s0
  4157e8:	27b40030 	addiu	s4,sp,48
  4157ec:	02802021 	move	a0,s4
  4157f0:	00002821 	move	a1,zero
  4157f4:	8f9980ac 	lw	t9,-32596(gp)
  4157f8:	0320f809 	jalr	t9
  4157fc:	24060100 	li	a2,256
  415800:	8fbc0028 	lw	gp,40(sp)
  415804:	3c040042 	lui	a0,0x42
  415808:	2484eaac 	addiu	a0,a0,-5460
  41580c:	3c150042 	lui	s5,0x42
  415810:	26a5fba0 	addiu	a1,s5,-1120
  415814:	8f998054 	lw	t9,-32684(gp)
  415818:	0320f809 	jalr	t9
  41581c:	02803021 	move	a2,s4
  415820:	8fbc0028 	lw	gp,40(sp)
  415824:	02202021 	move	a0,s1
  415828:	3c050042 	lui	a1,0x42
  41582c:	24a5016c 	addiu	a1,a1,364
  415830:	26a6fba0 	addiu	a2,s5,-1120
[31m  415834:	8f9980e8 	lw	t9,fprintf[0m
  415838:	0320f809 	jalr	t9
  41583c:	02803821 	move	a3,s4
--
  415854:	8f99809c 	lw	t9,-32612(gp)
  415858:	0320f809 	jalr	t9
  41585c:	24a5fba8 	addiu	a1,a1,-1112
  415860:	8fbc0028 	lw	gp,40(sp)
  415864:	1440001b 	bnez	v0,4158d4 <_ftext@@Base+0x14874>
  415868:	02002021 	move	a0,s0
  41586c:	27b40030 	addiu	s4,sp,48
  415870:	02802021 	move	a0,s4
  415874:	00002821 	move	a1,zero
  415878:	8f9980ac 	lw	t9,-32596(gp)
  41587c:	0320f809 	jalr	t9
  415880:	24060100 	li	a2,256
  415884:	8fbc0028 	lw	gp,40(sp)
  415888:	3c040042 	lui	a0,0x42
  41588c:	2484eaac 	addiu	a0,a0,-5460
  415890:	3c150042 	lui	s5,0x42
  415894:	26a5fba8 	addiu	a1,s5,-1112
  415898:	8f998054 	lw	t9,-32684(gp)
  41589c:	0320f809 	jalr	t9
  4158a0:	02803021 	move	a2,s4
  4158a4:	8fbc0028 	lw	gp,40(sp)
  4158a8:	02202021 	move	a0,s1
  4158ac:	3c050042 	lui	a1,0x42
  4158b0:	24a5016c 	addiu	a1,a1,364
  4158b4:	26a6fba8 	addiu	a2,s5,-1112
[31m  4158b8:	8f9980e8 	lw	t9,fprintf[0m
  4158bc:	0320f809 	jalr	t9
  4158c0:	02803821 	move	a3,s4
--
  4158d8:	8f99809c 	lw	t9,-32612(gp)
  4158dc:	0320f809 	jalr	t9
  4158e0:	24a5fbb0 	addiu	a1,a1,-1104
  4158e4:	8fbc0028 	lw	gp,40(sp)
  4158e8:	1440001b 	bnez	v0,415958 <_ftext@@Base+0x148f8>
  4158ec:	02002021 	move	a0,s0
  4158f0:	27b40030 	addiu	s4,sp,48
  4158f4:	02802021 	move	a0,s4
  4158f8:	00002821 	move	a1,zero
  4158fc:	8f9980ac 	lw	t9,-32596(gp)
  415900:	0320f809 	jalr	t9
  415904:	24060100 	li	a2,256
  415908:	8fbc0028 	lw	gp,40(sp)
  41590c:	3c040042 	lui	a0,0x42
  415910:	2484eaac 	addiu	a0,a0,-5460
  415914:	3c150042 	lui	s5,0x42
  415918:	26a5fbb0 	addiu	a1,s5,-1104
  41591c:	8f998054 	lw	t9,-32684(gp)
  415920:	0320f809 	jalr	t9
  415924:	02803021 	move	a2,s4
  415928:	8fbc0028 	lw	gp,40(sp)
  41592c:	02202021 	move	a0,s1
  415930:	3c050042 	lui	a1,0x42
  415934:	24a5016c 	addiu	a1,a1,364
  415938:	26a6fbb0 	addiu	a2,s5,-1104
[31m  41593c:	8f9980e8 	lw	t9,fprintf[0m
  415940:	0320f809 	jalr	t9
  415944:	02803821 	move	a3,s4
--
  415960:	0320f809 	jalr	t9
  415964:	24a5f8e4 	addiu	a1,a1,-1820
  415968:	8fbc0028 	lw	gp,40(sp)
  41596c:	1440001c 	bnez	v0,4159e0 <_ftext@@Base+0x14980>
  415970:	02002021 	move	a0,s0
  415974:	27b40030 	addiu	s4,sp,48
  415978:	02802021 	move	a0,s4
  41597c:	00002821 	move	a1,zero
  415980:	8f9980ac 	lw	t9,-32596(gp)
  415984:	0320f809 	jalr	t9
  415988:	24060100 	li	a2,256
  41598c:	8fbc0028 	lw	gp,40(sp)
  415990:	3c040042 	lui	a0,0x42
  415994:	2484eaac 	addiu	a0,a0,-5460
  415998:	3c050042 	lui	a1,0x42
  41599c:	24a507c4 	addiu	a1,a1,1988
  4159a0:	8f998054 	lw	t9,-32684(gp)
  4159a4:	0320f809 	jalr	t9
  4159a8:	02803021 	move	a2,s4
  4159ac:	8fbc0028 	lw	gp,40(sp)
  4159b0:	02202021 	move	a0,s1
  4159b4:	3c050042 	lui	a1,0x42
  4159b8:	24a5016c 	addiu	a1,a1,364
  4159bc:	3c060042 	lui	a2,0x42
  4159c0:	24c6f8e4 	addiu	a2,a2,-1820
[31m  4159c4:	8f9980e8 	lw	t9,fprintf[0m
  4159c8:	0320f809 	jalr	t9
  4159cc:	02803821 	move	a3,s4
--
  4159e8:	0320f809 	jalr	t9
  4159ec:	24a5f928 	addiu	a1,a1,-1752
  4159f0:	8fbc0028 	lw	gp,40(sp)
  4159f4:	1440001c 	bnez	v0,415a68 <_ftext@@Base+0x14a08>
  4159f8:	02002021 	move	a0,s0
  4159fc:	27b40030 	addiu	s4,sp,48
  415a00:	02802021 	move	a0,s4
  415a04:	00002821 	move	a1,zero
  415a08:	8f9980ac 	lw	t9,-32596(gp)
  415a0c:	0320f809 	jalr	t9
  415a10:	24060100 	li	a2,256
  415a14:	8fbc0028 	lw	gp,40(sp)
  415a18:	3c040042 	lui	a0,0x42
  415a1c:	2484eaac 	addiu	a0,a0,-5460
  415a20:	3c050042 	lui	a1,0x42
  415a24:	24a5fc4c 	addiu	a1,a1,-948
  415a28:	8f998054 	lw	t9,-32684(gp)
  415a2c:	0320f809 	jalr	t9
  415a30:	02803021 	move	a2,s4
  415a34:	8fbc0028 	lw	gp,40(sp)
  415a38:	02202021 	move	a0,s1
  415a3c:	3c050042 	lui	a1,0x42
  415a40:	24a5016c 	addiu	a1,a1,364
  415a44:	3c060042 	lui	a2,0x42
  415a48:	24c6f928 	addiu	a2,a2,-1752
[31m  415a4c:	8f9980e8 	lw	t9,fprintf[0m
  415a50:	0320f809 	jalr	t9
  415a54:	02803821 	move	a3,s4
--
  415a70:	0320f809 	jalr	t9
  415a74:	24a5f96c 	addiu	a1,a1,-1684
  415a78:	8fbc0028 	lw	gp,40(sp)
  415a7c:	1440001c 	bnez	v0,415af0 <_ftext@@Base+0x14a90>
  415a80:	02002021 	move	a0,s0
  415a84:	27b40030 	addiu	s4,sp,48
  415a88:	02802021 	move	a0,s4
  415a8c:	00002821 	move	a1,zero
  415a90:	8f9980ac 	lw	t9,-32596(gp)
  415a94:	0320f809 	jalr	t9
  415a98:	24060100 	li	a2,256
  415a9c:	8fbc0028 	lw	gp,40(sp)
  415aa0:	3c040042 	lui	a0,0x42
  415aa4:	2484eaac 	addiu	a0,a0,-5460
  415aa8:	3c050042 	lui	a1,0x42
  415aac:	24a5fc5c 	addiu	a1,a1,-932
  415ab0:	8f998054 	lw	t9,-32684(gp)
  415ab4:	0320f809 	jalr	t9
  415ab8:	02803021 	move	a2,s4
  415abc:	8fbc0028 	lw	gp,40(sp)
  415ac0:	02202021 	move	a0,s1
  415ac4:	3c050042 	lui	a1,0x42
  415ac8:	24a5016c 	addiu	a1,a1,364
  415acc:	3c060042 	lui	a2,0x42
  415ad0:	24c6f96c 	addiu	a2,a2,-1684
[31m  415ad4:	8f9980e8 	lw	t9,fprintf[0m
  415ad8:	0320f809 	jalr	t9
  415adc:	02803821 	move	a3,s4
--
  415af8:	0320f809 	jalr	t9
  415afc:	24a5f9b0 	addiu	a1,a1,-1616
  415b00:	8fbc0028 	lw	gp,40(sp)
  415b04:	1440001c 	bnez	v0,415b78 <_ftext@@Base+0x14b18>
  415b08:	02002021 	move	a0,s0
  415b0c:	27b40030 	addiu	s4,sp,48
  415b10:	02802021 	move	a0,s4
  415b14:	00002821 	move	a1,zero
  415b18:	8f9980ac 	lw	t9,-32596(gp)
  415b1c:	0320f809 	jalr	t9
  415b20:	24060100 	li	a2,256
  415b24:	8fbc0028 	lw	gp,40(sp)
  415b28:	3c040042 	lui	a0,0x42
  415b2c:	2484eaac 	addiu	a0,a0,-5460
  415b30:	3c050042 	lui	a1,0x42
  415b34:	24a5fc6c 	addiu	a1,a1,-916
  415b38:	8f998054 	lw	t9,-32684(gp)
  415b3c:	0320f809 	jalr	t9
  415b40:	02803021 	move	a2,s4
  415b44:	8fbc0028 	lw	gp,40(sp)
  415b48:	02202021 	move	a0,s1
  415b4c:	3c050042 	lui	a1,0x42
  415b50:	24a5016c 	addiu	a1,a1,364
  415b54:	3c060042 	lui	a2,0x42
  415b58:	24c6f9b0 	addiu	a2,a2,-1616
[31m  415b5c:	8f9980e8 	lw	t9,fprintf[0m
  415b60:	0320f809 	jalr	t9
  415b64:	02803821 	move	a3,s4
--
  415b80:	0320f809 	jalr	t9
  415b84:	24a5f9f4 	addiu	a1,a1,-1548
  415b88:	8fbc0028 	lw	gp,40(sp)
  415b8c:	1440001c 	bnez	v0,415c00 <_ftext@@Base+0x14ba0>
  415b90:	02002021 	move	a0,s0
  415b94:	27b40030 	addiu	s4,sp,48
  415b98:	02802021 	move	a0,s4
  415b9c:	00002821 	move	a1,zero
  415ba0:	8f9980ac 	lw	t9,-32596(gp)
  415ba4:	0320f809 	jalr	t9
  415ba8:	24060100 	li	a2,256
  415bac:	8fbc0028 	lw	gp,40(sp)
  415bb0:	3c040042 	lui	a0,0x42
  415bb4:	2484eaac 	addiu	a0,a0,-5460
  415bb8:	3c050042 	lui	a1,0x42
  415bbc:	24a5fc7c 	addiu	a1,a1,-900
  415bc0:	8f998054 	lw	t9,-32684(gp)
  415bc4:	0320f809 	jalr	t9
  415bc8:	02803021 	move	a2,s4
  415bcc:	8fbc0028 	lw	gp,40(sp)
  415bd0:	02202021 	move	a0,s1
  415bd4:	3c050042 	lui	a1,0x42
  415bd8:	24a5016c 	addiu	a1,a1,364
  415bdc:	3c060042 	lui	a2,0x42
  415be0:	24c6f9f4 	addiu	a2,a2,-1548
[31m  415be4:	8f9980e8 	lw	t9,fprintf[0m
  415be8:	0320f809 	jalr	t9
  415bec:	02803821 	move	a3,s4
--
  415c08:	0320f809 	jalr	t9
  415c0c:	24a5fa38 	addiu	a1,a1,-1480
  415c10:	8fbc0028 	lw	gp,40(sp)
  415c14:	1440001c 	bnez	v0,415c88 <_ftext@@Base+0x14c28>
  415c18:	02002021 	move	a0,s0
  415c1c:	27b40030 	addiu	s4,sp,48
  415c20:	02802021 	move	a0,s4
  415c24:	00002821 	move	a1,zero
  415c28:	8f9980ac 	lw	t9,-32596(gp)
  415c2c:	0320f809 	jalr	t9
  415c30:	24060100 	li	a2,256
  415c34:	8fbc0028 	lw	gp,40(sp)
  415c38:	3c040042 	lui	a0,0x42
  415c3c:	2484eaac 	addiu	a0,a0,-5460
  415c40:	3c050042 	lui	a1,0x42
  415c44:	24a5fc8c 	addiu	a1,a1,-884
  415c48:	8f998054 	lw	t9,-32684(gp)
  415c4c:	0320f809 	jalr	t9
  415c50:	02803021 	move	a2,s4
  415c54:	8fbc0028 	lw	gp,40(sp)
  415c58:	02202021 	move	a0,s1
  415c5c:	3c050042 	lui	a1,0x42
  415c60:	24a5016c 	addiu	a1,a1,364
  415c64:	3c060042 	lui	a2,0x42
  415c68:	24c6fa38 	addiu	a2,a2,-1480
[31m  415c6c:	8f9980e8 	lw	t9,fprintf[0m
  415c70:	0320f809 	jalr	t9
  415c74:	02803821 	move	a3,s4
--
  415c90:	0320f809 	jalr	t9
  415c94:	24a5fa7c 	addiu	a1,a1,-1412
  415c98:	8fbc0028 	lw	gp,40(sp)
  415c9c:	1440001c 	bnez	v0,415d10 <_ftext@@Base+0x14cb0>
  415ca0:	02002021 	move	a0,s0
  415ca4:	27b40030 	addiu	s4,sp,48
  415ca8:	02802021 	move	a0,s4
  415cac:	00002821 	move	a1,zero
  415cb0:	8f9980ac 	lw	t9,-32596(gp)
  415cb4:	0320f809 	jalr	t9
  415cb8:	24060100 	li	a2,256
  415cbc:	8fbc0028 	lw	gp,40(sp)
  415cc0:	3c040042 	lui	a0,0x42
  415cc4:	2484eaac 	addiu	a0,a0,-5460
  415cc8:	3c050042 	lui	a1,0x42
  415ccc:	24a5fc9c 	addiu	a1,a1,-868
  415cd0:	8f998054 	lw	t9,-32684(gp)
  415cd4:	0320f809 	jalr	t9
  415cd8:	02803021 	move	a2,s4
  415cdc:	8fbc0028 	lw	gp,40(sp)
  415ce0:	02202021 	move	a0,s1
  415ce4:	3c050042 	lui	a1,0x42
  415ce8:	24a5016c 	addiu	a1,a1,364
  415cec:	3c060042 	lui	a2,0x42
  415cf0:	24c6fa7c 	addiu	a2,a2,-1412
[31m  415cf4:	8f9980e8 	lw	t9,fprintf[0m
  415cf8:	0320f809 	jalr	t9
  415cfc:	02803821 	move	a3,s4
--
  415d18:	0320f809 	jalr	t9
  415d1c:	24a5fac0 	addiu	a1,a1,-1344
  415d20:	8fbc0028 	lw	gp,40(sp)
  415d24:	1440001c 	bnez	v0,415d98 <_ftext@@Base+0x14d38>
  415d28:	02002021 	move	a0,s0
  415d2c:	27b40030 	addiu	s4,sp,48
  415d30:	02802021 	move	a0,s4
  415d34:	00002821 	move	a1,zero
  415d38:	8f9980ac 	lw	t9,-32596(gp)
  415d3c:	0320f809 	jalr	t9
  415d40:	24060100 	li	a2,256
  415d44:	8fbc0028 	lw	gp,40(sp)
  415d48:	3c040042 	lui	a0,0x42
  415d4c:	2484eaac 	addiu	a0,a0,-5460
  415d50:	3c050042 	lui	a1,0x42
  415d54:	24a5fcac 	addiu	a1,a1,-852
  415d58:	8f998054 	lw	t9,-32684(gp)
  415d5c:	0320f809 	jalr	t9
  415d60:	02803021 	move	a2,s4
  415d64:	8fbc0028 	lw	gp,40(sp)
  415d68:	02202021 	move	a0,s1
  415d6c:	3c050042 	lui	a1,0x42
  415d70:	24a5016c 	addiu	a1,a1,364
  415d74:	3c060042 	lui	a2,0x42
  415d78:	24c6fac0 	addiu	a2,a2,-1344
[31m  415d7c:	8f9980e8 	lw	t9,fprintf[0m
  415d80:	0320f809 	jalr	t9
  415d84:	02803821 	move	a3,s4
--
  415da0:	0320f809 	jalr	t9
  415da4:	24a5fbb8 	addiu	a1,a1,-1096
  415da8:	8fbc0028 	lw	gp,40(sp)
  415dac:	1440001c 	bnez	v0,415e20 <_ftext@@Base+0x14dc0>
  415db0:	02002021 	move	a0,s0
  415db4:	27b40030 	addiu	s4,sp,48
  415db8:	02802021 	move	a0,s4
  415dbc:	00002821 	move	a1,zero
  415dc0:	8f9980ac 	lw	t9,-32596(gp)
  415dc4:	0320f809 	jalr	t9
  415dc8:	24060100 	li	a2,256
  415dcc:	8fbc0028 	lw	gp,40(sp)
  415dd0:	3c040042 	lui	a0,0x42
  415dd4:	2484eaac 	addiu	a0,a0,-5460
  415dd8:	3c050042 	lui	a1,0x42
  415ddc:	24a5fbc0 	addiu	a1,a1,-1088
  415de0:	8f998054 	lw	t9,-32684(gp)
  415de4:	0320f809 	jalr	t9
  415de8:	02803021 	move	a2,s4
  415dec:	8fbc0028 	lw	gp,40(sp)
  415df0:	02202021 	move	a0,s1
  415df4:	3c050042 	lui	a1,0x42
  415df8:	24a5016c 	addiu	a1,a1,364
  415dfc:	3c060042 	lui	a2,0x42
  415e00:	24c6fbb8 	addiu	a2,a2,-1096
[31m  415e04:	8f9980e8 	lw	t9,fprintf[0m
  415e08:	0320f809 	jalr	t9
  415e0c:	02803821 	move	a3,s4
--
  415e28:	0320f809 	jalr	t9
  415e2c:	24a5fbe8 	addiu	a1,a1,-1048
  415e30:	8fbc0028 	lw	gp,40(sp)
  415e34:	1440001c 	bnez	v0,415ea8 <_ftext@@Base+0x14e48>
  415e38:	02002021 	move	a0,s0
  415e3c:	27b40030 	addiu	s4,sp,48
  415e40:	02802021 	move	a0,s4
  415e44:	00002821 	move	a1,zero
  415e48:	8f9980ac 	lw	t9,-32596(gp)
  415e4c:	0320f809 	jalr	t9
  415e50:	24060100 	li	a2,256
  415e54:	8fbc0028 	lw	gp,40(sp)
  415e58:	3c040042 	lui	a0,0x42
  415e5c:	2484eaac 	addiu	a0,a0,-5460
  415e60:	3c050042 	lui	a1,0x42
  415e64:	24a5fbf4 	addiu	a1,a1,-1036
  415e68:	8f998054 	lw	t9,-32684(gp)
  415e6c:	0320f809 	jalr	t9
  415e70:	02803021 	move	a2,s4
  415e74:	8fbc0028 	lw	gp,40(sp)
  415e78:	02202021 	move	a0,s1
  415e7c:	3c050042 	lui	a1,0x42
  415e80:	24a5016c 	addiu	a1,a1,364
  415e84:	3c060042 	lui	a2,0x42
  415e88:	24c6fbe8 	addiu	a2,a2,-1048
[31m  415e8c:	8f9980e8 	lw	t9,fprintf[0m
  415e90:	0320f809 	jalr	t9
  415e94:	02803821 	move	a3,s4
--
  415eb0:	0320f809 	jalr	t9
  415eb4:	24a5fbc8 	addiu	a1,a1,-1080
  415eb8:	8fbc0028 	lw	gp,40(sp)
  415ebc:	1440001c 	bnez	v0,415f30 <_ftext@@Base+0x14ed0>
  415ec0:	02002021 	move	a0,s0
  415ec4:	27b40030 	addiu	s4,sp,48
  415ec8:	02802021 	move	a0,s4
  415ecc:	00002821 	move	a1,zero
  415ed0:	8f9980ac 	lw	t9,-32596(gp)
  415ed4:	0320f809 	jalr	t9
  415ed8:	24060100 	li	a2,256
  415edc:	8fbc0028 	lw	gp,40(sp)
  415ee0:	3c040042 	lui	a0,0x42
  415ee4:	2484eaac 	addiu	a0,a0,-5460
  415ee8:	3c050042 	lui	a1,0x42
  415eec:	24a5fbb8 	addiu	a1,a1,-1096
  415ef0:	8f998054 	lw	t9,-32684(gp)
  415ef4:	0320f809 	jalr	t9
  415ef8:	02803021 	move	a2,s4
  415efc:	8fbc0028 	lw	gp,40(sp)
  415f00:	02202021 	move	a0,s1
  415f04:	3c050042 	lui	a1,0x42
  415f08:	24a5016c 	addiu	a1,a1,364
  415f0c:	3c060042 	lui	a2,0x42
  415f10:	24c6fbc8 	addiu	a2,a2,-1080
[31m  415f14:	8f9980e8 	lw	t9,fprintf[0m
  415f18:	0320f809 	jalr	t9
  415f1c:	02803821 	move	a3,s4
--
  415f38:	0320f809 	jalr	t9
  415f3c:	24a5fbfc 	addiu	a1,a1,-1028
  415f40:	8fbc0028 	lw	gp,40(sp)
  415f44:	1440001c 	bnez	v0,415fb8 <_ftext@@Base+0x14f58>
  415f48:	02002021 	move	a0,s0
  415f4c:	27b40030 	addiu	s4,sp,48
  415f50:	02802021 	move	a0,s4
  415f54:	00002821 	move	a1,zero
  415f58:	8f9980ac 	lw	t9,-32596(gp)
  415f5c:	0320f809 	jalr	t9
  415f60:	24060100 	li	a2,256
  415f64:	8fbc0028 	lw	gp,40(sp)
  415f68:	3c040042 	lui	a0,0x42
  415f6c:	2484eaac 	addiu	a0,a0,-5460
  415f70:	3c050042 	lui	a1,0x42
  415f74:	24a5fc08 	addiu	a1,a1,-1016
  415f78:	8f998054 	lw	t9,-32684(gp)
  415f7c:	0320f809 	jalr	t9
  415f80:	02803021 	move	a2,s4
  415f84:	8fbc0028 	lw	gp,40(sp)
  415f88:	02202021 	move	a0,s1
  415f8c:	3c050042 	lui	a1,0x42
  415f90:	24a5016c 	addiu	a1,a1,364
  415f94:	3c060042 	lui	a2,0x42
  415f98:	24c6fbfc 	addiu	a2,a2,-1028
[31m  415f9c:	8f9980e8 	lw	t9,fprintf[0m
  415fa0:	0320f809 	jalr	t9
  415fa4:	02803821 	move	a3,s4
--
  415fc0:	0320f809 	jalr	t9
  415fc4:	24a5fbd0 	addiu	a1,a1,-1072
  415fc8:	8fbc0028 	lw	gp,40(sp)
  415fcc:	1440001c 	bnez	v0,416040 <_ftext@@Base+0x14fe0>
  415fd0:	02002021 	move	a0,s0
  415fd4:	27b40030 	addiu	s4,sp,48
  415fd8:	02802021 	move	a0,s4
  415fdc:	00002821 	move	a1,zero
  415fe0:	8f9980ac 	lw	t9,-32596(gp)
  415fe4:	0320f809 	jalr	t9
  415fe8:	24060100 	li	a2,256
  415fec:	8fbc0028 	lw	gp,40(sp)
  415ff0:	3c040042 	lui	a0,0x42
  415ff4:	2484eaac 	addiu	a0,a0,-5460
  415ff8:	3c050042 	lui	a1,0x42
  415ffc:	24a5fbc8 	addiu	a1,a1,-1080
  416000:	8f998054 	lw	t9,-32684(gp)
  416004:	0320f809 	jalr	t9
  416008:	02803021 	move	a2,s4
  41600c:	8fbc0028 	lw	gp,40(sp)
  416010:	02202021 	move	a0,s1
  416014:	3c050042 	lui	a1,0x42
  416018:	24a5016c 	addiu	a1,a1,364
  41601c:	3c060042 	lui	a2,0x42
  416020:	24c6fbd0 	addiu	a2,a2,-1072
[31m  416024:	8f9980e8 	lw	t9,fprintf[0m
  416028:	0320f809 	jalr	t9
  41602c:	02803821 	move	a3,s4
--
  416048:	0320f809 	jalr	t9
  41604c:	24a5fc10 	addiu	a1,a1,-1008
  416050:	8fbc0028 	lw	gp,40(sp)
  416054:	1440001c 	bnez	v0,4160c8 <_ftext@@Base+0x15068>
  416058:	02002021 	move	a0,s0
  41605c:	27b40030 	addiu	s4,sp,48
  416060:	02802021 	move	a0,s4
  416064:	00002821 	move	a1,zero
  416068:	8f9980ac 	lw	t9,-32596(gp)
  41606c:	0320f809 	jalr	t9
  416070:	24060100 	li	a2,256
  416074:	8fbc0028 	lw	gp,40(sp)
  416078:	3c040042 	lui	a0,0x42
  41607c:	2484eaac 	addiu	a0,a0,-5460
  416080:	3c050042 	lui	a1,0x42
  416084:	24a5fc1c 	addiu	a1,a1,-996
  416088:	8f998054 	lw	t9,-32684(gp)
  41608c:	0320f809 	jalr	t9
  416090:	02803021 	move	a2,s4
  416094:	8fbc0028 	lw	gp,40(sp)
  416098:	02202021 	move	a0,s1
  41609c:	3c050042 	lui	a1,0x42
  4160a0:	24a5016c 	addiu	a1,a1,364
  4160a4:	3c060042 	lui	a2,0x42
  4160a8:	24c6fc10 	addiu	a2,a2,-1008
[31m  4160ac:	8f9980e8 	lw	t9,fprintf[0m
  4160b0:	0320f809 	jalr	t9
  4160b4:	02803821 	move	a3,s4
--
  4160d0:	0320f809 	jalr	t9
  4160d4:	24a5fbd8 	addiu	a1,a1,-1064
  4160d8:	8fbc0028 	lw	gp,40(sp)
  4160dc:	1440001c 	bnez	v0,416150 <_ftext@@Base+0x150f0>
  4160e0:	02002021 	move	a0,s0
  4160e4:	27b40030 	addiu	s4,sp,48
  4160e8:	02802021 	move	a0,s4
  4160ec:	00002821 	move	a1,zero
  4160f0:	8f9980ac 	lw	t9,-32596(gp)
  4160f4:	0320f809 	jalr	t9
  4160f8:	24060100 	li	a2,256
  4160fc:	8fbc0028 	lw	gp,40(sp)
  416100:	3c040042 	lui	a0,0x42
  416104:	2484eaac 	addiu	a0,a0,-5460
  416108:	3c050042 	lui	a1,0x42
  41610c:	24a5fbd0 	addiu	a1,a1,-1072
  416110:	8f998054 	lw	t9,-32684(gp)
  416114:	0320f809 	jalr	t9
  416118:	02803021 	move	a2,s4
  41611c:	8fbc0028 	lw	gp,40(sp)
  416120:	02202021 	move	a0,s1
  416124:	3c050042 	lui	a1,0x42
  416128:	24a5016c 	addiu	a1,a1,364
  41612c:	3c060042 	lui	a2,0x42
  416130:	24c6fbd8 	addiu	a2,a2,-1064
[31m  416134:	8f9980e8 	lw	t9,fprintf[0m
  416138:	0320f809 	jalr	t9
  41613c:	02803821 	move	a3,s4
--
  416158:	0320f809 	jalr	t9
  41615c:	24a5fc24 	addiu	a1,a1,-988
  416160:	8fbc0028 	lw	gp,40(sp)
  416164:	1440001c 	bnez	v0,4161d8 <_ftext@@Base+0x15178>
  416168:	02002021 	move	a0,s0
  41616c:	27b40030 	addiu	s4,sp,48
  416170:	02802021 	move	a0,s4
  416174:	00002821 	move	a1,zero
  416178:	8f9980ac 	lw	t9,-32596(gp)
  41617c:	0320f809 	jalr	t9
  416180:	24060100 	li	a2,256
  416184:	8fbc0028 	lw	gp,40(sp)
  416188:	3c040042 	lui	a0,0x42
  41618c:	2484eaac 	addiu	a0,a0,-5460
  416190:	3c050042 	lui	a1,0x42
  416194:	24a5fc30 	addiu	a1,a1,-976
  416198:	8f998054 	lw	t9,-32684(gp)
  41619c:	0320f809 	jalr	t9
  4161a0:	02803021 	move	a2,s4
  4161a4:	8fbc0028 	lw	gp,40(sp)
  4161a8:	02202021 	move	a0,s1
  4161ac:	3c050042 	lui	a1,0x42
  4161b0:	24a5016c 	addiu	a1,a1,364
  4161b4:	3c060042 	lui	a2,0x42
  4161b8:	24c6fc24 	addiu	a2,a2,-988
[31m  4161bc:	8f9980e8 	lw	t9,fprintf[0m
  4161c0:	0320f809 	jalr	t9
  4161c4:	02803821 	move	a3,s4
--
  4161e0:	0320f809 	jalr	t9
  4161e4:	24a5fbe0 	addiu	a1,a1,-1056
  4161e8:	8fbc0028 	lw	gp,40(sp)
  4161ec:	1440001d 	bnez	v0,416264 <_ftext@@Base+0x15204>
  4161f0:	02002021 	move	a0,s0
  4161f4:	27b40030 	addiu	s4,sp,48
  4161f8:	02802021 	move	a0,s4
  4161fc:	00002821 	move	a1,zero
  416200:	8f9980ac 	lw	t9,-32596(gp)
  416204:	0320f809 	jalr	t9
  416208:	24060100 	li	a2,256
  41620c:	8fbc0028 	lw	gp,40(sp)
  416210:	3c040042 	lui	a0,0x42
  416214:	2484eaac 	addiu	a0,a0,-5460
  416218:	3c050042 	lui	a1,0x42
  41621c:	24a5fbd8 	addiu	a1,a1,-1064
  416220:	8f998054 	lw	t9,-32684(gp)
  416224:	0320f809 	jalr	t9
  416228:	02803021 	move	a2,s4
  41622c:	8fbc0028 	lw	gp,40(sp)
  416230:	02202021 	move	a0,s1
  416234:	3c050042 	lui	a1,0x42
  416238:	24a5016c 	addiu	a1,a1,364
  41623c:	3c060042 	lui	a2,0x42
  416240:	24c6fbe0 	addiu	a2,a2,-1056
[31m  416244:	8f9980e8 	lw	t9,fprintf[0m
  416248:	0320f809 	jalr	t9
  41624c:	02803821 	move	a3,s4
--
  41626c:	0320f809 	jalr	t9
  416270:	24a5fc38 	addiu	a1,a1,-968
  416274:	8fbc0028 	lw	gp,40(sp)
  416278:	1440007e 	bnez	v0,416474 <_ftext@@Base+0x15414>
  41627c:	00000000 	nop
  416280:	27b30030 	addiu	s3,sp,48
  416284:	02602021 	move	a0,s3
  416288:	00002821 	move	a1,zero
  41628c:	8f9980ac 	lw	t9,-32596(gp)
  416290:	0320f809 	jalr	t9
  416294:	24060100 	li	a2,256
  416298:	8fbc0028 	lw	gp,40(sp)
  41629c:	3c040042 	lui	a0,0x42
  4162a0:	2484eaac 	addiu	a0,a0,-5460
  4162a4:	3c050042 	lui	a1,0x42
  4162a8:	24a5fc44 	addiu	a1,a1,-956
  4162ac:	8f998054 	lw	t9,-32684(gp)
  4162b0:	0320f809 	jalr	t9
  4162b4:	02603021 	move	a2,s3
  4162b8:	8fbc0028 	lw	gp,40(sp)
  4162bc:	02202021 	move	a0,s1
  4162c0:	3c050042 	lui	a1,0x42
  4162c4:	24a5016c 	addiu	a1,a1,364
  4162c8:	3c060042 	lui	a2,0x42
  4162cc:	24c6fc38 	addiu	a2,a2,-968
[31m  4162d0:	8f9980e8 	lw	t9,fprintf[0m
  4162d4:	0320f809 	jalr	t9
  4162d8:	02603821 	move	a3,s3
--
  416358:	3c050042 	lui	a1,0x42
  41635c:	8f99809c 	lw	t9,-32612(gp)
  416360:	0320f809 	jalr	t9
  416364:	24a5f7e8 	addiu	a1,a1,-2072
  416368:	8fbc0028 	lw	gp,40(sp)
  41636c:	14400042 	bnez	v0,416478 <_ftext@@Base+0x15418>
  416370:	02402021 	move	a0,s2
  416374:	afa00130 	sw	zero,304(sp)
  416378:	3c040042 	lui	a0,0x42
  41637c:	2484f7e0 	addiu	a0,a0,-2080
  416380:	3c050042 	lui	a1,0x42
  416384:	24a5f7e8 	addiu	a1,a1,-2072
  416388:	8f998054 	lw	t9,-32684(gp)
  41638c:	0320f809 	jalr	t9
  416390:	27a60130 	addiu	a2,sp,304
  416394:	8fbc0028 	lw	gp,40(sp)
  416398:	8fa20130 	lw	v0,304(sp)
  41639c:	1440000d 	bnez	v0,4163d4 <_ftext@@Base+0x15374>
  4163a0:	24030001 	li	v1,1
  4163a4:	02202021 	move	a0,s1
  4163a8:	3c050042 	lui	a1,0x42
  4163ac:	24a5016c 	addiu	a1,a1,364
  4163b0:	3c060042 	lui	a2,0x42
  4163b4:	24c6f7e8 	addiu	a2,a2,-2072
  4163b8:	3c070042 	lui	a3,0x42
[31m  4163bc:	8f9980e8 	lw	t9,fprintf[0m
  4163c0:	0320f809 	jalr	t9
  4163c4:	24e7f7f4 	addiu	a3,a3,-2060
  4163c8:	8fbc0028 	lw	gp,40(sp)
  4163cc:	1000002a 	b	416478 <_ftext@@Base+0x15418>
  4163d0:	02402021 	move	a0,s2
  4163d4:	1443000d 	bne	v0,v1,41640c <_ftext@@Base+0x153ac>
  4163d8:	24030002 	li	v1,2
  4163dc:	02202021 	move	a0,s1
  4163e0:	3c050042 	lui	a1,0x42
  4163e4:	24a5016c 	addiu	a1,a1,364
  4163e8:	3c060042 	lui	a2,0x42
  4163ec:	24c6f7e8 	addiu	a2,a2,-2072
  4163f0:	3c070042 	lui	a3,0x42
[31m  4163f4:	8f9980e8 	lw	t9,fprintf[0m
  4163f8:	0320f809 	jalr	t9
  4163fc:	24e7f800 	addiu	a3,a3,-2048
  416400:	8fbc0028 	lw	gp,40(sp)
  416404:	1000001c 	b	416478 <_ftext@@Base+0x15418>
  416408:	02402021 	move	a0,s2
  41640c:	1443000d 	bne	v0,v1,416444 <_ftext@@Base+0x153e4>
  416410:	24030003 	li	v1,3
  416414:	02202021 	move	a0,s1
  416418:	3c050042 	lui	a1,0x42
  41641c:	24a5016c 	addiu	a1,a1,364
  416420:	3c060042 	lui	a2,0x42
  416424:	24c6f7e8 	addiu	a2,a2,-2072
  416428:	3c070042 	lui	a3,0x42
[31m  41642c:	8f9980e8 	lw	t9,fprintf[0m
  416430:	0320f809 	jalr	t9
  416434:	24e7f80c 	addiu	a3,a3,-2036
  416438:	8fbc0028 	lw	gp,40(sp)
  41643c:	1000000e 	b	416478 <_ftext@@Base+0x15418>
  416440:	02402021 	move	a0,s2
  416444:	1443000c 	bne	v0,v1,416478 <_ftext@@Base+0x15418>
  416448:	02402021 	move	a0,s2
  41644c:	02202021 	move	a0,s1
  416450:	3c050042 	lui	a1,0x42
  416454:	24a5016c 	addiu	a1,a1,364
  416458:	3c060042 	lui	a2,0x42
  41645c:	24c6f7e8 	addiu	a2,a2,-2072
  416460:	3c070042 	lui	a3,0x42
[31m  416464:	8f9980e8 	lw	t9,fprintf[0m
  416468:	0320f809 	jalr	t9
  41646c:	24e7f818 	addiu	a3,a3,-2024
--
  4167b0:	8f998078 	lw	t9,-32648(gp)
  4167b4:	0320f809 	jalr	t9
  4167b8:	02203821 	move	a3,s1
  4167bc:	8fbc0028 	lw	gp,40(sp)
  4167c0:	92420000 	lbu	v0,0(s2)
  4167c4:	10400008 	beqz	v0,4167e8 <_ftext@@Base+0x15788>
  4167c8:	02002021 	move	a0,s0
  4167cc:	3c050042 	lui	a1,0x42
  4167d0:	8f99809c 	lw	t9,-32612(gp)
  4167d4:	0320f809 	jalr	t9
  4167d8:	24a5f89c 	addiu	a1,a1,-1892
  4167dc:	8fbc0028 	lw	gp,40(sp)
  4167e0:	14400013 	bnez	v0,416830 <_ftext@@Base+0x157d0>
  4167e4:	02002021 	move	a0,s0
  4167e8:	3c040042 	lui	a0,0x42
  4167ec:	2484f840 	addiu	a0,a0,-1984
  4167f0:	3c050042 	lui	a1,0x42
  4167f4:	24a5f8a4 	addiu	a1,a1,-1884
  4167f8:	8f998054 	lw	t9,-32684(gp)
  4167fc:	0320f809 	jalr	t9
  416800:	27a6013c 	addiu	a2,sp,316
  416804:	8fbc0028 	lw	gp,40(sp)
  416808:	02202021 	move	a0,s1
  41680c:	3c050042 	lui	a1,0x42
  416810:	8fa6013c 	lw	a2,316(sp)
[31m  416814:	8f9980e8 	lw	t9,fprintf[0m
  416818:	0320f809 	jalr	t9
  41681c:	24a508ac 	addiu	a1,a1,2220
  416820:	8fbc0028 	lw	gp,40(sp)
  416824:	92420000 	lbu	v0,0(s2)
  416828:	10400008 	beqz	v0,41684c <_ftext@@Base+0x157ec>
  41682c:	02002021 	move	a0,s0
  416830:	3c050042 	lui	a1,0x42
  416834:	8f99809c 	lw	t9,-32612(gp)
  416838:	0320f809 	jalr	t9
  41683c:	24a5f8b0 	addiu	a1,a1,-1872
  416840:	8fbc0028 	lw	gp,40(sp)
  416844:	14400013 	bnez	v0,416894 <_ftext@@Base+0x15834>
  416848:	02002021 	move	a0,s0
  41684c:	3c040042 	lui	a0,0x42
  416850:	2484f840 	addiu	a0,a0,-1984
  416854:	3c050042 	lui	a1,0x42
  416858:	24a5f8bc 	addiu	a1,a1,-1860
  41685c:	8f998054 	lw	t9,-32684(gp)
  416860:	0320f809 	jalr	t9
  416864:	27a6013c 	addiu	a2,sp,316
  416868:	8fbc0028 	lw	gp,40(sp)
  41686c:	02202021 	move	a0,s1
  416870:	3c050042 	lui	a1,0x42
  416874:	8fa6013c 	lw	a2,316(sp)
[31m  416878:	8f9980e8 	lw	t9,fprintf[0m
  41687c:	0320f809 	jalr	t9
  416880:	24a508bc 	addiu	a1,a1,2236
  416884:	8fbc0028 	lw	gp,40(sp)
  416888:	92420000 	lbu	v0,0(s2)
  41688c:	10400008 	beqz	v0,4168b0 <_ftext@@Base+0x15850>
  416890:	02002021 	move	a0,s0
  416894:	3c050042 	lui	a1,0x42
  416898:	8f99809c 	lw	t9,-32612(gp)
  41689c:	0320f809 	jalr	t9
  4168a0:	24a5f8c8 	addiu	a1,a1,-1848
  4168a4:	8fbc0028 	lw	gp,40(sp)
  4168a8:	14400013 	bnez	v0,4168f8 <_ftext@@Base+0x15898>
  4168ac:	02002021 	move	a0,s0
  4168b0:	3c040042 	lui	a0,0x42
  4168b4:	2484f840 	addiu	a0,a0,-1984
  4168b8:	3c050042 	lui	a1,0x42
  4168bc:	24a5f8d8 	addiu	a1,a1,-1832
  4168c0:	8f998054 	lw	t9,-32684(gp)
  4168c4:	0320f809 	jalr	t9
  4168c8:	27a6013c 	addiu	a2,sp,316
  4168cc:	8fbc0028 	lw	gp,40(sp)
  4168d0:	02202021 	move	a0,s1
  4168d4:	3c050042 	lui	a1,0x42
  4168d8:	8fa6013c 	lw	a2,316(sp)
[31m  4168dc:	8f9980e8 	lw	t9,fprintf[0m
  4168e0:	0320f809 	jalr	t9
  4168e4:	24a508cc 	addiu	a1,a1,2252
  4168e8:	8fbc0028 	lw	gp,40(sp)
  4168ec:	92420000 	lbu	v0,0(s2)
  4168f0:	10400008 	beqz	v0,416914 <_ftext@@Base+0x158b4>
  4168f4:	02002021 	move	a0,s0
  4168f8:	3c050042 	lui	a1,0x42
  4168fc:	8f99809c 	lw	t9,-32612(gp)
  416900:	0320f809 	jalr	t9
  416904:	24a5f8e4 	addiu	a1,a1,-1820
  416908:	8fbc0028 	lw	gp,40(sp)
  41690c:	14400014 	bnez	v0,416960 <_ftext@@Base+0x15900>
  416910:	02002021 	move	a0,s0
  416914:	27b30140 	addiu	s3,sp,320
  416918:	3c040042 	lui	a0,0x42
  41691c:	2484f840 	addiu	a0,a0,-1984
  416920:	3c050042 	lui	a1,0x42
  416924:	24a507c4 	addiu	a1,a1,1988
  416928:	8f998054 	lw	t9,-32684(gp)
  41692c:	0320f809 	jalr	t9
  416930:	02603021 	move	a2,s3
  416934:	8fbc0028 	lw	gp,40(sp)
  416938:	02202021 	move	a0,s1
  41693c:	3c050042 	lui	a1,0x42
  416940:	24a508e0 	addiu	a1,a1,2272
[31m  416944:	8f9980e8 	lw	t9,fprintf[0m
  416948:	0320f809 	jalr	t9
  41694c:	02603021 	move	a2,s3
  416950:	8fbc0028 	lw	gp,40(sp)
  416954:	92420000 	lbu	v0,0(s2)
  416958:	10400008 	beqz	v0,41697c <_ftext@@Base+0x1591c>
  41695c:	02002021 	move	a0,s0
  416960:	3c050042 	lui	a1,0x42
  416964:	8f99809c 	lw	t9,-32612(gp)
  416968:	0320f809 	jalr	t9
  41696c:	24a5f928 	addiu	a1,a1,-1752
  416970:	8fbc0028 	lw	gp,40(sp)
  416974:	14400014 	bnez	v0,4169c8 <_ftext@@Base+0x15968>
  416978:	02002021 	move	a0,s0
  41697c:	27b30140 	addiu	s3,sp,320
  416980:	3c040042 	lui	a0,0x42
  416984:	2484f840 	addiu	a0,a0,-1984
  416988:	3c050042 	lui	a1,0x42
  41698c:	24a5fc4c 	addiu	a1,a1,-948
  416990:	8f998054 	lw	t9,-32684(gp)
  416994:	0320f809 	jalr	t9
  416998:	02603021 	move	a2,s3
  41699c:	8fbc0028 	lw	gp,40(sp)
  4169a0:	02202021 	move	a0,s1
  4169a4:	3c050042 	lui	a1,0x42
  4169a8:	24a508f0 	addiu	a1,a1,2288
[31m  4169ac:	8f9980e8 	lw	t9,fprintf[0m
  4169b0:	0320f809 	jalr	t9
  4169b4:	02603021 	move	a2,s3
  4169b8:	8fbc0028 	lw	gp,40(sp)
  4169bc:	92420000 	lbu	v0,0(s2)
  4169c0:	10400008 	beqz	v0,4169e4 <_ftext@@Base+0x15984>
  4169c4:	02002021 	move	a0,s0
  4169c8:	3c050042 	lui	a1,0x42
  4169cc:	8f99809c 	lw	t9,-32612(gp)
  4169d0:	0320f809 	jalr	t9
  4169d4:	24a5f96c 	addiu	a1,a1,-1684
  4169d8:	8fbc0028 	lw	gp,40(sp)
  4169dc:	14400014 	bnez	v0,416a30 <_ftext@@Base+0x159d0>
  4169e0:	02002021 	move	a0,s0
  4169e4:	27b30140 	addiu	s3,sp,320
  4169e8:	3c040042 	lui	a0,0x42
  4169ec:	2484f840 	addiu	a0,a0,-1984
  4169f0:	3c050042 	lui	a1,0x42
  4169f4:	24a5fc5c 	addiu	a1,a1,-932
  4169f8:	8f998054 	lw	t9,-32684(gp)
  4169fc:	0320f809 	jalr	t9
  416a00:	02603021 	move	a2,s3
  416a04:	8fbc0028 	lw	gp,40(sp)
  416a08:	02202021 	move	a0,s1
  416a0c:	3c050042 	lui	a1,0x42
  416a10:	24a50900 	addiu	a1,a1,2304
[31m  416a14:	8f9980e8 	lw	t9,fprintf[0m
  416a18:	0320f809 	jalr	t9
  416a1c:	02603021 	move	a2,s3
  416a20:	8fbc0028 	lw	gp,40(sp)
  416a24:	92420000 	lbu	v0,0(s2)
  416a28:	10400008 	beqz	v0,416a4c <_ftext@@Base+0x159ec>
  416a2c:	02002021 	move	a0,s0
  416a30:	3c050042 	lui	a1,0x42
  416a34:	8f99809c 	lw	t9,-32612(gp)
  416a38:	0320f809 	jalr	t9
  416a3c:	24a5f9b0 	addiu	a1,a1,-1616
  416a40:	8fbc0028 	lw	gp,40(sp)
  416a44:	14400014 	bnez	v0,416a98 <_ftext@@Base+0x15a38>
  416a48:	02002021 	move	a0,s0
  416a4c:	27b30140 	addiu	s3,sp,320
  416a50:	3c040042 	lui	a0,0x42
  416a54:	2484f840 	addiu	a0,a0,-1984
  416a58:	3c050042 	lui	a1,0x42
  416a5c:	24a5fc6c 	addiu	a1,a1,-916
  416a60:	8f998054 	lw	t9,-32684(gp)
  416a64:	0320f809 	jalr	t9
  416a68:	02603021 	move	a2,s3
  416a6c:	8fbc0028 	lw	gp,40(sp)
  416a70:	02202021 	move	a0,s1
  416a74:	3c050042 	lui	a1,0x42
  416a78:	24a50910 	addiu	a1,a1,2320
[31m  416a7c:	8f9980e8 	lw	t9,fprintf[0m
  416a80:	0320f809 	jalr	t9
  416a84:	02603021 	move	a2,s3
  416a88:	8fbc0028 	lw	gp,40(sp)
  416a8c:	92420000 	lbu	v0,0(s2)
  416a90:	10400008 	beqz	v0,416ab4 <_ftext@@Base+0x15a54>
  416a94:	02002021 	move	a0,s0
  416a98:	3c050042 	lui	a1,0x42
  416a9c:	8f99809c 	lw	t9,-32612(gp)
  416aa0:	0320f809 	jalr	t9
  416aa4:	24a5f9f4 	addiu	a1,a1,-1548
  416aa8:	8fbc0028 	lw	gp,40(sp)
  416aac:	14400014 	bnez	v0,416b00 <_ftext@@Base+0x15aa0>
  416ab0:	02002021 	move	a0,s0
  416ab4:	27b30140 	addiu	s3,sp,320
  416ab8:	3c040042 	lui	a0,0x42
  416abc:	2484f840 	addiu	a0,a0,-1984
  416ac0:	3c050042 	lui	a1,0x42
  416ac4:	24a5fc7c 	addiu	a1,a1,-900
  416ac8:	8f998054 	lw	t9,-32684(gp)
  416acc:	0320f809 	jalr	t9
  416ad0:	02603021 	move	a2,s3
  416ad4:	8fbc0028 	lw	gp,40(sp)
  416ad8:	02202021 	move	a0,s1
  416adc:	3c050042 	lui	a1,0x42
  416ae0:	24a50920 	addiu	a1,a1,2336
[31m  416ae4:	8f9980e8 	lw	t9,fprintf[0m
  416ae8:	0320f809 	jalr	t9
  416aec:	02603021 	move	a2,s3
  416af0:	8fbc0028 	lw	gp,40(sp)
  416af4:	92420000 	lbu	v0,0(s2)
  416af8:	10400008 	beqz	v0,416b1c <_ftext@@Base+0x15abc>
  416afc:	02002021 	move	a0,s0
  416b00:	3c050042 	lui	a1,0x42
  416b04:	8f99809c 	lw	t9,-32612(gp)
  416b08:	0320f809 	jalr	t9
  416b0c:	24a5fa38 	addiu	a1,a1,-1480
  416b10:	8fbc0028 	lw	gp,40(sp)
  416b14:	14400014 	bnez	v0,416b68 <_ftext@@Base+0x15b08>
  416b18:	02002021 	move	a0,s0
  416b1c:	27b30140 	addiu	s3,sp,320
  416b20:	3c040042 	lui	a0,0x42
  416b24:	2484f840 	addiu	a0,a0,-1984
  416b28:	3c050042 	lui	a1,0x42
  416b2c:	24a5fc8c 	addiu	a1,a1,-884
  416b30:	8f998054 	lw	t9,-32684(gp)
  416b34:	0320f809 	jalr	t9
  416b38:	02603021 	move	a2,s3
  416b3c:	8fbc0028 	lw	gp,40(sp)
  416b40:	02202021 	move	a0,s1
  416b44:	3c050042 	lui	a1,0x42
  416b48:	24a50930 	addiu	a1,a1,2352
[31m  416b4c:	8f9980e8 	lw	t9,fprintf[0m
  416b50:	0320f809 	jalr	t9
  416b54:	02603021 	move	a2,s3
  416b58:	8fbc0028 	lw	gp,40(sp)
  416b5c:	92420000 	lbu	v0,0(s2)
  416b60:	10400008 	beqz	v0,416b84 <_ftext@@Base+0x15b24>
  416b64:	02002021 	move	a0,s0
  416b68:	3c050042 	lui	a1,0x42
  416b6c:	8f99809c 	lw	t9,-32612(gp)
  416b70:	0320f809 	jalr	t9
  416b74:	24a5fa7c 	addiu	a1,a1,-1412
  416b78:	8fbc0028 	lw	gp,40(sp)
  416b7c:	14400014 	bnez	v0,416bd0 <_ftext@@Base+0x15b70>
  416b80:	02002021 	move	a0,s0
  416b84:	27b30140 	addiu	s3,sp,320
  416b88:	3c040042 	lui	a0,0x42
  416b8c:	2484f840 	addiu	a0,a0,-1984
  416b90:	3c050042 	lui	a1,0x42
  416b94:	24a5fc9c 	addiu	a1,a1,-868
  416b98:	8f998054 	lw	t9,-32684(gp)
  416b9c:	0320f809 	jalr	t9
  416ba0:	02603021 	move	a2,s3
  416ba4:	8fbc0028 	lw	gp,40(sp)
  416ba8:	02202021 	move	a0,s1
  416bac:	3c050042 	lui	a1,0x42
  416bb0:	24a50940 	addiu	a1,a1,2368
[31m  416bb4:	8f9980e8 	lw	t9,fprintf[0m
  416bb8:	0320f809 	jalr	t9
  416bbc:	02603021 	move	a2,s3
  416bc0:	8fbc0028 	lw	gp,40(sp)
  416bc4:	92420000 	lbu	v0,0(s2)
  416bc8:	10400008 	beqz	v0,416bec <_ftext@@Base+0x15b8c>
  416bcc:	02002021 	move	a0,s0
  416bd0:	3c050042 	lui	a1,0x42
  416bd4:	8f99809c 	lw	t9,-32612(gp)
  416bd8:	0320f809 	jalr	t9
  416bdc:	24a5fac0 	addiu	a1,a1,-1344
  416be0:	8fbc0028 	lw	gp,40(sp)
  416be4:	1440124f 	bnez	v0,41b524 <_ftext@@Base+0x1a4c4>
  416be8:	00000000 	nop
  416bec:	27b00140 	addiu	s0,sp,320
  416bf0:	3c040042 	lui	a0,0x42
  416bf4:	2484f840 	addiu	a0,a0,-1984
  416bf8:	3c050042 	lui	a1,0x42
  416bfc:	24a5fcac 	addiu	a1,a1,-852
  416c00:	8f998054 	lw	t9,-32684(gp)
  416c04:	0320f809 	jalr	t9
  416c08:	02003021 	move	a2,s0
  416c0c:	8fbc0028 	lw	gp,40(sp)
  416c10:	02202021 	move	a0,s1
  416c14:	3c050042 	lui	a1,0x42
  416c18:	24a50950 	addiu	a1,a1,2384
[31m  416c1c:	8f9980e8 	lw	t9,fprintf[0m
  416c20:	0320f809 	jalr	t9
  416c24:	02003021 	move	a2,s0
--
  416d18:	8f99809c 	lw	t9,-32612(gp)
  416d1c:	0320f809 	jalr	t9
  416d20:	24a5fccc 	addiu	a1,a1,-820
  416d24:	8fbc0028 	lw	gp,40(sp)
  416d28:	1440001b 	bnez	v0,416d98 <_ftext@@Base+0x15d38>
  416d2c:	02002021 	move	a0,s0
  416d30:	27b40030 	addiu	s4,sp,48
  416d34:	02802021 	move	a0,s4
  416d38:	00002821 	move	a1,zero
  416d3c:	8f9980ac 	lw	t9,-32596(gp)
  416d40:	0320f809 	jalr	t9
  416d44:	24060100 	li	a2,256
  416d48:	8fbc0028 	lw	gp,40(sp)
  416d4c:	3c040042 	lui	a0,0x42
  416d50:	2484fcd8 	addiu	a0,a0,-808
  416d54:	3c130042 	lui	s3,0x42
  416d58:	2665fccc 	addiu	a1,s3,-820
  416d5c:	8f998054 	lw	t9,-32684(gp)
  416d60:	0320f809 	jalr	t9
  416d64:	02803021 	move	a2,s4
  416d68:	8fbc0028 	lw	gp,40(sp)
  416d6c:	02202021 	move	a0,s1
  416d70:	3c050042 	lui	a1,0x42
  416d74:	24a5016c 	addiu	a1,a1,364
  416d78:	2666fccc 	addiu	a2,s3,-820
[31m  416d7c:	8f9980e8 	lw	t9,fprintf[0m
  416d80:	0320f809 	jalr	t9
  416d84:	02803821 	move	a3,s4
--
  416d94:	02002021 	move	a0,s0
  416d98:	3c050042 	lui	a1,0x42
  416d9c:	8f99809c 	lw	t9,-32612(gp)
  416da0:	0320f809 	jalr	t9
  416da4:	24a5fcf0 	addiu	a1,a1,-784
  416da8:	8fbc0028 	lw	gp,40(sp)
  416dac:	14400024 	bnez	v0,416e40 <_ftext@@Base+0x15de0>
  416db0:	02002021 	move	a0,s0
  416db4:	afa00130 	sw	zero,304(sp)
  416db8:	3c040042 	lui	a0,0x42
  416dbc:	2484fcd8 	addiu	a0,a0,-808
  416dc0:	3c050042 	lui	a1,0x42
  416dc4:	24a5fd04 	addiu	a1,a1,-764
  416dc8:	8f998054 	lw	t9,-32684(gp)
  416dcc:	0320f809 	jalr	t9
  416dd0:	27a60130 	addiu	a2,sp,304
  416dd4:	8fbc0028 	lw	gp,40(sp)
  416dd8:	8fa20130 	lw	v0,304(sp)
  416ddc:	1040000c 	beqz	v0,416e10 <_ftext@@Base+0x15db0>
  416de0:	02202021 	move	a0,s1
  416de4:	3c050042 	lui	a1,0x42
  416de8:	24a5016c 	addiu	a1,a1,364
  416dec:	3c060042 	lui	a2,0x42
  416df0:	24c6fcf0 	addiu	a2,a2,-784
  416df4:	3c070042 	lui	a3,0x42
[31m  416df8:	8f9980e8 	lw	t9,fprintf[0m
  416dfc:	0320f809 	jalr	t9
  416e00:	24e7fcfc 	addiu	a3,a3,-772
  416e04:	8fbc0028 	lw	gp,40(sp)
  416e08:	1000000a 	b	416e34 <_ftext@@Base+0x15dd4>
  416e0c:	00000000 	nop
  416e10:	3c050042 	lui	a1,0x42
  416e14:	24a5016c 	addiu	a1,a1,364
  416e18:	3c060042 	lui	a2,0x42
  416e1c:	24c6fcf0 	addiu	a2,a2,-784
  416e20:	3c070042 	lui	a3,0x42
[31m  416e24:	8f9980e8 	lw	t9,fprintf[0m
  416e28:	0320f809 	jalr	t9
  416e2c:	24e7fd0c 	addiu	a3,a3,-756
--
  416e3c:	02002021 	move	a0,s0
  416e40:	3c050042 	lui	a1,0x42
  416e44:	8f99809c 	lw	t9,-32612(gp)
  416e48:	0320f809 	jalr	t9
  416e4c:	24a5fd14 	addiu	a1,a1,-748
  416e50:	8fbc0028 	lw	gp,40(sp)
  416e54:	14400024 	bnez	v0,416ee8 <_ftext@@Base+0x15e88>
  416e58:	02002021 	move	a0,s0
  416e5c:	afa00130 	sw	zero,304(sp)
  416e60:	3c040042 	lui	a0,0x42
  416e64:	2484fcd8 	addiu	a0,a0,-808
  416e68:	3c050042 	lui	a1,0x42
  416e6c:	24a5fd14 	addiu	a1,a1,-748
  416e70:	8f998054 	lw	t9,-32684(gp)
  416e74:	0320f809 	jalr	t9
  416e78:	27a60130 	addiu	a2,sp,304
  416e7c:	8fbc0028 	lw	gp,40(sp)
  416e80:	8fa20130 	lw	v0,304(sp)
  416e84:	1040000c 	beqz	v0,416eb8 <_ftext@@Base+0x15e58>
  416e88:	02202021 	move	a0,s1
  416e8c:	3c050042 	lui	a1,0x42
  416e90:	24a5016c 	addiu	a1,a1,364
  416e94:	3c060042 	lui	a2,0x42
  416e98:	24c6fd14 	addiu	a2,a2,-748
  416e9c:	3c070042 	lui	a3,0x42
[31m  416ea0:	8f9980e8 	lw	t9,fprintf[0m
  416ea4:	0320f809 	jalr	t9
  416ea8:	24e7eba0 	addiu	a3,a3,-5216
  416eac:	8fbc0028 	lw	gp,40(sp)
  416eb0:	1000000a 	b	416edc <_ftext@@Base+0x15e7c>
  416eb4:	00000000 	nop
  416eb8:	3c050042 	lui	a1,0x42
  416ebc:	24a5016c 	addiu	a1,a1,364
  416ec0:	3c060042 	lui	a2,0x42
  416ec4:	24c6fd14 	addiu	a2,a2,-748
  416ec8:	3c070042 	lui	a3,0x42
[31m  416ecc:	8f9980e8 	lw	t9,fprintf[0m
  416ed0:	0320f809 	jalr	t9
  416ed4:	24e7f124 	addiu	a3,a3,-3804
  416ed8:	8fbc0028 	lw	gp,40(sp)
  416edc:	92420000 	lbu	v0,0(s2)
  416ee0:	10400008 	beqz	v0,416f04 <_ftext@@Base+0x15ea4>
  416ee4:	02002021 	move	a0,s0
  416ee8:	3c050042 	lui	a1,0x42
  416eec:	8f99809c 	lw	t9,-32612(gp)
  416ef0:	0320f809 	jalr	t9
  416ef4:	24a5fd20 	addiu	a1,a1,-736
  416ef8:	8fbc0028 	lw	gp,40(sp)
  416efc:	14400015 	bnez	v0,416f54 <_ftext@@Base+0x15ef4>
  416f00:	02002021 	move	a0,s0
  416f04:	afa00130 	sw	zero,304(sp)
  416f08:	3c040042 	lui	a0,0x42
  416f0c:	2484fcd8 	addiu	a0,a0,-808
  416f10:	3c130042 	lui	s3,0x42
  416f14:	2665fd20 	addiu	a1,s3,-736
  416f18:	8f998054 	lw	t9,-32684(gp)
  416f1c:	0320f809 	jalr	t9
  416f20:	27a60130 	addiu	a2,sp,304
  416f24:	8fbc0028 	lw	gp,40(sp)
  416f28:	02202021 	move	a0,s1
  416f2c:	3c050042 	lui	a1,0x42
  416f30:	24a501f4 	addiu	a1,a1,500
  416f34:	8fa70130 	lw	a3,304(sp)
[31m  416f38:	8f9980e8 	lw	t9,fprintf[0m
  416f3c:	0320f809 	jalr	t9
  416f40:	2666fd20 	addiu	a2,s3,-736
--
  416f54:	3c050042 	lui	a1,0x42
  416f58:	8f99809c 	lw	t9,-32612(gp)
  416f5c:	0320f809 	jalr	t9
  416f60:	24a5fd28 	addiu	a1,a1,-728
  416f64:	8fbc0028 	lw	gp,40(sp)
  416f68:	14400027 	bnez	v0,417008 <_ftext@@Base+0x15fa8>
  416f6c:	02002021 	move	a0,s0
  416f70:	a3a00138 	sb	zero,312(sp)
  416f74:	3c040042 	lui	a0,0x42
  416f78:	2484fcd8 	addiu	a0,a0,-808
  416f7c:	3c050042 	lui	a1,0x42
  416f80:	24a5fd28 	addiu	a1,a1,-728
  416f84:	8f998054 	lw	t9,-32684(gp)
  416f88:	0320f809 	jalr	t9
  416f8c:	27a60138 	addiu	a2,sp,312
  416f90:	8fbc0028 	lw	gp,40(sp)
  416f94:	93a20138 	lbu	v0,312(sp)
  416f98:	1440000d 	bnez	v0,416fd0 <_ftext@@Base+0x15f70>
  416f9c:	24030001 	li	v1,1
  416fa0:	02202021 	move	a0,s1
  416fa4:	3c050042 	lui	a1,0x42
  416fa8:	24a5016c 	addiu	a1,a1,364
  416fac:	3c060042 	lui	a2,0x42
  416fb0:	24c6fd28 	addiu	a2,a2,-728
  416fb4:	3c070042 	lui	a3,0x42
[31m  416fb8:	8f9980e8 	lw	t9,fprintf[0m
  416fbc:	0320f809 	jalr	t9
  416fc0:	24e7fd38 	addiu	a3,a3,-712
  416fc4:	8fbc0028 	lw	gp,40(sp)
  416fc8:	1000000c 	b	416ffc <_ftext@@Base+0x15f9c>
  416fcc:	00000000 	nop
  416fd0:	1443000a 	bne	v0,v1,416ffc <_ftext@@Base+0x15f9c>
  416fd4:	02202021 	move	a0,s1
  416fd8:	3c050042 	lui	a1,0x42
  416fdc:	24a5016c 	addiu	a1,a1,364
  416fe0:	3c060042 	lui	a2,0x42
  416fe4:	24c6fd28 	addiu	a2,a2,-728
  416fe8:	3c070042 	lui	a3,0x42
[31m  416fec:	8f9980e8 	lw	t9,fprintf[0m
  416ff0:	0320f809 	jalr	t9
  416ff4:	24e7fd34 	addiu	a3,a3,-716
--
  417008:	3c050042 	lui	a1,0x42
  41700c:	8f99809c 	lw	t9,-32612(gp)
  417010:	0320f809 	jalr	t9
  417014:	24a5fd3c 	addiu	a1,a1,-708
  417018:	8fbc0028 	lw	gp,40(sp)
  41701c:	14400025 	bnez	v0,4170b4 <_ftext@@Base+0x16054>
  417020:	02002021 	move	a0,s0
  417024:	a3a00138 	sb	zero,312(sp)
  417028:	3c040042 	lui	a0,0x42
  41702c:	2484fcd8 	addiu	a0,a0,-808
  417030:	3c050042 	lui	a1,0x42
  417034:	24a5fd3c 	addiu	a1,a1,-708
  417038:	8f998054 	lw	t9,-32684(gp)
  41703c:	0320f809 	jalr	t9
  417040:	27a60138 	addiu	a2,sp,312
  417044:	8fbc0028 	lw	gp,40(sp)
  417048:	93a30138 	lbu	v1,312(sp)
  41704c:	24020002 	li	v0,2
  417050:	1462000c 	bne	v1,v0,417084 <_ftext@@Base+0x16024>
  417054:	02202021 	move	a0,s1
  417058:	3c050042 	lui	a1,0x42
  41705c:	24a5016c 	addiu	a1,a1,364
  417060:	3c060042 	lui	a2,0x42
  417064:	24c6fd3c 	addiu	a2,a2,-708
  417068:	3c070042 	lui	a3,0x42
[31m  41706c:	8f9980e8 	lw	t9,fprintf[0m
  417070:	0320f809 	jalr	t9
  417074:	24e7fd4c 	addiu	a3,a3,-692
  417078:	8fbc0028 	lw	gp,40(sp)
  41707c:	1000000a 	b	4170a8 <_ftext@@Base+0x16048>
  417080:	00000000 	nop
  417084:	3c050042 	lui	a1,0x42
  417088:	24a5016c 	addiu	a1,a1,364
  41708c:	3c060042 	lui	a2,0x42
  417090:	24c6fd3c 	addiu	a2,a2,-708
  417094:	3c070042 	lui	a3,0x42
[31m  417098:	8f9980e8 	lw	t9,fprintf[0m
  41709c:	0320f809 	jalr	t9
  4170a0:	24e7fd54 	addiu	a3,a3,-684
  4170a4:	8fbc0028 	lw	gp,40(sp)
  4170a8:	92420000 	lbu	v0,0(s2)
  4170ac:	10400008 	beqz	v0,4170d0 <_ftext@@Base+0x16070>
  4170b0:	02002021 	move	a0,s0
  4170b4:	3c050042 	lui	a1,0x42
  4170b8:	8f99809c 	lw	t9,-32612(gp)
  4170bc:	0320f809 	jalr	t9
  4170c0:	24a5fd5c 	addiu	a1,a1,-676
  4170c4:	8fbc0028 	lw	gp,40(sp)
  4170c8:	14400015 	bnez	v0,417120 <_ftext@@Base+0x160c0>
  4170cc:	02002021 	move	a0,s0
  4170d0:	afa00130 	sw	zero,304(sp)
  4170d4:	3c040042 	lui	a0,0x42
  4170d8:	2484fcd8 	addiu	a0,a0,-808
  4170dc:	3c130042 	lui	s3,0x42
  4170e0:	2665fd5c 	addiu	a1,s3,-676
  4170e4:	8f998054 	lw	t9,-32684(gp)
  4170e8:	0320f809 	jalr	t9
  4170ec:	27a60130 	addiu	a2,sp,304
  4170f0:	8fbc0028 	lw	gp,40(sp)
  4170f4:	02202021 	move	a0,s1
  4170f8:	3c050042 	lui	a1,0x42
  4170fc:	24a501f4 	addiu	a1,a1,500
  417100:	8fa70130 	lw	a3,304(sp)
[31m  417104:	8f9980e8 	lw	t9,fprintf[0m
  417108:	0320f809 	jalr	t9
  41710c:	2666fd5c 	addiu	a2,s3,-676
  417110:	8fbc0028 	lw	gp,40(sp)
  417114:	92420000 	lbu	v0,0(s2)
  417118:	10400008 	beqz	v0,41713c <_ftext@@Base+0x160dc>
  41711c:	02002021 	move	a0,s0
  417120:	3c050042 	lui	a1,0x42
  417124:	8f99809c 	lw	t9,-32612(gp)
  417128:	0320f809 	jalr	t9
  41712c:	24a5fd6c 	addiu	a1,a1,-660
  417130:	8fbc0028 	lw	gp,40(sp)
  417134:	14400016 	bnez	v0,417190 <_ftext@@Base+0x16130>
  417138:	02002021 	move	a0,s0
  41713c:	afa00130 	sw	zero,304(sp)
  417140:	3c040042 	lui	a0,0x42
  417144:	2484fcd8 	addiu	a0,a0,-808
  417148:	3c130042 	lui	s3,0x42
  41714c:	2665fd6c 	addiu	a1,s3,-660
  417150:	8f998054 	lw	t9,-32684(gp)
  417154:	0320f809 	jalr	t9
  417158:	27a60130 	addiu	a2,sp,304
  41715c:	8fbc0028 	lw	gp,40(sp)
  417160:	02202021 	move	a0,s1
  417164:	3c050042 	lui	a1,0x42
  417168:	24a501f4 	addiu	a1,a1,500
  41716c:	8fa70130 	lw	a3,304(sp)
[31m  417170:	8f9980e8 	lw	t9,fprintf[0m
  417174:	0320f809 	jalr	t9
  417178:	2666fd6c 	addiu	a2,s3,-660
--
  417184:	10400009 	beqz	v0,4171ac <_ftext@@Base+0x1614c>
  417188:	3c020043 	lui	v0,0x43
  41718c:	02002021 	move	a0,s0
  417190:	3c050042 	lui	a1,0x42
  417194:	8f99809c 	lw	t9,-32612(gp)
  417198:	0320f809 	jalr	t9
  41719c:	24a5fd7c 	addiu	a1,a1,-644
  4171a0:	8fbc0028 	lw	gp,40(sp)
  4171a4:	144010df 	bnez	v0,41b524 <_ftext@@Base+0x1a4c4>
  4171a8:	3c020043 	lui	v0,0x43
  4171ac:	8c421d10 	lw	v0,7440(v0)
  4171b0:	184010dc 	blez	v0,41b524 <_ftext@@Base+0x1a4c4>
  4171b4:	3c040042 	lui	a0,0x42
  4171b8:	afa00130 	sw	zero,304(sp)
  4171bc:	2484fcd8 	addiu	a0,a0,-808
  4171c0:	3c100042 	lui	s0,0x42
  4171c4:	2605fd7c 	addiu	a1,s0,-644
  4171c8:	8f998054 	lw	t9,-32684(gp)
  4171cc:	0320f809 	jalr	t9
  4171d0:	27a60130 	addiu	a2,sp,304
  4171d4:	8fbc0028 	lw	gp,40(sp)
  4171d8:	02202021 	move	a0,s1
  4171dc:	3c050042 	lui	a1,0x42
  4171e0:	24a501f4 	addiu	a1,a1,500
  4171e4:	8fa70130 	lw	a3,304(sp)
[31m  4171e8:	8f9980e8 	lw	t9,fprintf[0m
  4171ec:	0320f809 	jalr	t9
  4171f0:	2606fd7c 	addiu	a2,s0,-644
--
  417260:	02002021 	move	a0,s0
  417264:	3c050042 	lui	a1,0x42
  417268:	8f99809c 	lw	t9,-32612(gp)
  41726c:	0320f809 	jalr	t9
  417270:	24a5ec88 	addiu	a1,a1,-4984
  417274:	8fbc0028 	lw	gp,40(sp)
  417278:	14400024 	bnez	v0,41730c <_ftext@@Base+0x162ac>
  41727c:	02002021 	move	a0,s0
  417280:	afa00130 	sw	zero,304(sp)
  417284:	3c040042 	lui	a0,0x42
  417288:	2484fda0 	addiu	a0,a0,-608
  41728c:	3c050042 	lui	a1,0x42
  417290:	24a5ec94 	addiu	a1,a1,-4972
  417294:	8f998054 	lw	t9,-32684(gp)
  417298:	0320f809 	jalr	t9
  41729c:	27a60130 	addiu	a2,sp,304
  4172a0:	8fbc0028 	lw	gp,40(sp)
  4172a4:	8fa20130 	lw	v0,304(sp)
  4172a8:	1040000c 	beqz	v0,4172dc <_ftext@@Base+0x1627c>
  4172ac:	02202021 	move	a0,s1
  4172b0:	3c050042 	lui	a1,0x42
  4172b4:	24a5016c 	addiu	a1,a1,364
  4172b8:	3c060042 	lui	a2,0x42
  4172bc:	24c6ec88 	addiu	a2,a2,-4984
  4172c0:	3c070042 	lui	a3,0x42
[31m  4172c4:	8f9980e8 	lw	t9,fprintf[0m
  4172c8:	0320f809 	jalr	t9
  4172cc:	24e7ec9c 	addiu	a3,a3,-4964
  4172d0:	8fbc0028 	lw	gp,40(sp)
  4172d4:	1000000a 	b	417300 <_ftext@@Base+0x162a0>
  4172d8:	00000000 	nop
  4172dc:	3c050042 	lui	a1,0x42
  4172e0:	24a5016c 	addiu	a1,a1,364
  4172e4:	3c060042 	lui	a2,0x42
  4172e8:	24c6ec88 	addiu	a2,a2,-4984
  4172ec:	3c070042 	lui	a3,0x42
[31m  4172f0:	8f9980e8 	lw	t9,fprintf[0m
  4172f4:	0320f809 	jalr	t9
  4172f8:	24e7ec90 	addiu	a3,a3,-4976
--
  417310:	8f99809c 	lw	t9,-32612(gp)
  417314:	0320f809 	jalr	t9
  417318:	24a5fdbc 	addiu	a1,a1,-580
  41731c:	8fbc0028 	lw	gp,40(sp)
  417320:	1440001b 	bnez	v0,417390 <_ftext@@Base+0x16330>
  417324:	02002021 	move	a0,s0
  417328:	27b40030 	addiu	s4,sp,48
  41732c:	02802021 	move	a0,s4
  417330:	00002821 	move	a1,zero
  417334:	8f9980ac 	lw	t9,-32596(gp)
  417338:	0320f809 	jalr	t9
  41733c:	24060100 	li	a2,256
  417340:	8fbc0028 	lw	gp,40(sp)
  417344:	3c040042 	lui	a0,0x42
  417348:	2484fda0 	addiu	a0,a0,-608
  41734c:	3c130042 	lui	s3,0x42
  417350:	2665fdbc 	addiu	a1,s3,-580
  417354:	8f998054 	lw	t9,-32684(gp)
  417358:	0320f809 	jalr	t9
  41735c:	02803021 	move	a2,s4
  417360:	8fbc0028 	lw	gp,40(sp)
  417364:	02202021 	move	a0,s1
  417368:	3c050042 	lui	a1,0x42
  41736c:	24a5016c 	addiu	a1,a1,364
  417370:	2666fdbc 	addiu	a2,s3,-580
[31m  417374:	8f9980e8 	lw	t9,fprintf[0m
  417378:	0320f809 	jalr	t9
  41737c:	02803821 	move	a3,s4
  417380:	8fbc0028 	lw	gp,40(sp)
  417384:	92420000 	lbu	v0,0(s2)
  417388:	10400008 	beqz	v0,4173ac <_ftext@@Base+0x1634c>
  41738c:	02002021 	move	a0,s0
  417390:	3c050042 	lui	a1,0x42
  417394:	8f99809c 	lw	t9,-32612(gp)
  417398:	0320f809 	jalr	t9
  41739c:	24a5fdcc 	addiu	a1,a1,-564
  4173a0:	8fbc0028 	lw	gp,40(sp)
  4173a4:	14400015 	bnez	v0,4173fc <_ftext@@Base+0x1639c>
  4173a8:	02002021 	move	a0,s0
  4173ac:	afa00130 	sw	zero,304(sp)
  4173b0:	3c040042 	lui	a0,0x42
  4173b4:	2484fda0 	addiu	a0,a0,-608
  4173b8:	3c130042 	lui	s3,0x42
  4173bc:	2665fdcc 	addiu	a1,s3,-564
  4173c0:	8f998054 	lw	t9,-32684(gp)
  4173c4:	0320f809 	jalr	t9
  4173c8:	27a60130 	addiu	a2,sp,304
  4173cc:	8fbc0028 	lw	gp,40(sp)
  4173d0:	02202021 	move	a0,s1
  4173d4:	3c050042 	lui	a1,0x42
  4173d8:	24a501f4 	addiu	a1,a1,500
  4173dc:	8fa70130 	lw	a3,304(sp)
[31m  4173e0:	8f9980e8 	lw	t9,fprintf[0m
  4173e4:	0320f809 	jalr	t9
  4173e8:	2666fdcc 	addiu	a2,s3,-564
--
  417404:	0320f809 	jalr	t9
  417408:	24a5fdd8 	addiu	a1,a1,-552
  41740c:	8fbc0028 	lw	gp,40(sp)
  417410:	1440001d 	bnez	v0,417488 <_ftext@@Base+0x16428>
  417414:	02002021 	move	a0,s0
  417418:	27b30030 	addiu	s3,sp,48
  41741c:	02602021 	move	a0,s3
  417420:	00002821 	move	a1,zero
  417424:	8f9980ac 	lw	t9,-32596(gp)
  417428:	0320f809 	jalr	t9
  41742c:	24060100 	li	a2,256
  417430:	8fbc0028 	lw	gp,40(sp)
  417434:	3c040042 	lui	a0,0x42
  417438:	2484fda0 	addiu	a0,a0,-608
  41743c:	3c050042 	lui	a1,0x42
  417440:	24a5fde0 	addiu	a1,a1,-544
  417444:	8f998054 	lw	t9,-32684(gp)
  417448:	0320f809 	jalr	t9
  41744c:	02603021 	move	a2,s3
  417450:	8fbc0028 	lw	gp,40(sp)
  417454:	02202021 	move	a0,s1
  417458:	3c050042 	lui	a1,0x42
  41745c:	24a5016c 	addiu	a1,a1,364
  417460:	3c060042 	lui	a2,0x42
  417464:	24c6fdd8 	addiu	a2,a2,-552
[31m  417468:	8f9980e8 	lw	t9,fprintf[0m
  41746c:	0320f809 	jalr	t9
  417470:	02603821 	move	a3,s3
--
  417490:	0320f809 	jalr	t9
  417494:	24a5eaa0 	addiu	a1,a1,-5472
  417498:	8fbc0028 	lw	gp,40(sp)
  41749c:	14400027 	bnez	v0,41753c <_ftext@@Base+0x164dc>
  4174a0:	02002021 	move	a0,s0
  4174a4:	3c020043 	lui	v0,0x43
  4174a8:	8c421d10 	lw	v0,7440(v0)
  4174ac:	18400020 	blez	v0,417530 <_ftext@@Base+0x164d0>
  4174b0:	3c040042 	lui	a0,0x42
  4174b4:	afa00130 	sw	zero,304(sp)
  4174b8:	2484fda0 	addiu	a0,a0,-608
  4174bc:	3c050042 	lui	a1,0x42
  4174c0:	24a5eaa0 	addiu	a1,a1,-5472
  4174c4:	8f998054 	lw	t9,-32684(gp)
  4174c8:	0320f809 	jalr	t9
  4174cc:	27a60130 	addiu	a2,sp,304
  4174d0:	8fbc0028 	lw	gp,40(sp)
  4174d4:	8fa20130 	lw	v0,304(sp)
  4174d8:	1040000c 	beqz	v0,41750c <_ftext@@Base+0x164ac>
  4174dc:	02202021 	move	a0,s1
  4174e0:	3c050042 	lui	a1,0x42
  4174e4:	24a5016c 	addiu	a1,a1,364
  4174e8:	3c060042 	lui	a2,0x42
  4174ec:	24c6eaa0 	addiu	a2,a2,-5472
  4174f0:	3c070042 	lui	a3,0x42
[31m  4174f4:	8f9980e8 	lw	t9,fprintf[0m
  4174f8:	0320f809 	jalr	t9
  4174fc:	24e7ec9c 	addiu	a3,a3,-4964
  417500:	8fbc0028 	lw	gp,40(sp)
  417504:	1000000a 	b	417530 <_ftext@@Base+0x164d0>
  417508:	00000000 	nop
  41750c:	3c050042 	lui	a1,0x42
  417510:	24a5016c 	addiu	a1,a1,364
  417514:	3c060042 	lui	a2,0x42
  417518:	24c6eaa0 	addiu	a2,a2,-5472
  41751c:	3c070042 	lui	a3,0x42
[31m  417520:	8f9980e8 	lw	t9,fprintf[0m
  417524:	0320f809 	jalr	t9
  417528:	24e7ec90 	addiu	a3,a3,-4976
--
  417538:	02002021 	move	a0,s0
  41753c:	3c050042 	lui	a1,0x42
  417540:	8f99809c 	lw	t9,-32612(gp)
  417544:	0320f809 	jalr	t9
  417548:	24a5fde8 	addiu	a1,a1,-536
  41754c:	8fbc0028 	lw	gp,40(sp)
  417550:	14400022 	bnez	v0,4175dc <_ftext@@Base+0x1657c>
  417554:	3c020043 	lui	v0,0x43
  417558:	afa00130 	sw	zero,304(sp)
  41755c:	3c040042 	lui	a0,0x42
  417560:	2484fda0 	addiu	a0,a0,-608
  417564:	3c050042 	lui	a1,0x42
  417568:	24a5fdf8 	addiu	a1,a1,-520
  41756c:	8f998054 	lw	t9,-32684(gp)
  417570:	0320f809 	jalr	t9
  417574:	27a60130 	addiu	a2,sp,304
  417578:	8fbc0028 	lw	gp,40(sp)
  41757c:	8fa20130 	lw	v0,304(sp)
  417580:	1040000c 	beqz	v0,4175b4 <_ftext@@Base+0x16554>
  417584:	02202021 	move	a0,s1
  417588:	3c050042 	lui	a1,0x42
  41758c:	24a5016c 	addiu	a1,a1,364
  417590:	3c060042 	lui	a2,0x42
  417594:	24c6fde8 	addiu	a2,a2,-536
  417598:	3c070042 	lui	a3,0x42
[31m  41759c:	8f9980e8 	lw	t9,fprintf[0m
  4175a0:	0320f809 	jalr	t9
  4175a4:	24e7ec9c 	addiu	a3,a3,-4964
  4175a8:	8fbc0028 	lw	gp,40(sp)
  4175ac:	1000000b 	b	4175dc <_ftext@@Base+0x1657c>
  4175b0:	3c020043 	lui	v0,0x43
  4175b4:	3c050042 	lui	a1,0x42
  4175b8:	24a5016c 	addiu	a1,a1,364
  4175bc:	3c060042 	lui	a2,0x42
  4175c0:	24c6fde8 	addiu	a2,a2,-536
  4175c4:	3c070042 	lui	a3,0x42
[31m  4175c8:	8f9980e8 	lw	t9,fprintf[0m
  4175cc:	0320f809 	jalr	t9
  4175d0:	24e7ec90 	addiu	a3,a3,-4976
--
  4175fc:	02002021 	move	a0,s0
  417600:	3c050042 	lui	a1,0x42
  417604:	8f99809c 	lw	t9,-32612(gp)
  417608:	0320f809 	jalr	t9
  41760c:	24a5fe08 	addiu	a1,a1,-504
  417610:	8fbc0028 	lw	gp,40(sp)
  417614:	14400024 	bnez	v0,4176a8 <_ftext@@Base+0x16648>
  417618:	02002021 	move	a0,s0
  41761c:	afa00130 	sw	zero,304(sp)
  417620:	3c040042 	lui	a0,0x42
  417624:	2484fda0 	addiu	a0,a0,-608
  417628:	3c050042 	lui	a1,0x42
  41762c:	24a5fe18 	addiu	a1,a1,-488
  417630:	8f998054 	lw	t9,-32684(gp)
  417634:	0320f809 	jalr	t9
  417638:	27a60130 	addiu	a2,sp,304
  41763c:	8fbc0028 	lw	gp,40(sp)
  417640:	8fa20130 	lw	v0,304(sp)
  417644:	1040000c 	beqz	v0,417678 <_ftext@@Base+0x16618>
  417648:	02202021 	move	a0,s1
  41764c:	3c050042 	lui	a1,0x42
  417650:	24a5016c 	addiu	a1,a1,364
  417654:	3c060042 	lui	a2,0x42
  417658:	24c6fe08 	addiu	a2,a2,-504
  41765c:	3c070042 	lui	a3,0x42
[31m  417660:	8f9980e8 	lw	t9,fprintf[0m
  417664:	0320f809 	jalr	t9
  417668:	24e7ec9c 	addiu	a3,a3,-4964
  41766c:	8fbc0028 	lw	gp,40(sp)
  417670:	1000000a 	b	41769c <_ftext@@Base+0x1663c>
  417674:	00000000 	nop
  417678:	3c050042 	lui	a1,0x42
  41767c:	24a5016c 	addiu	a1,a1,364
  417680:	3c060042 	lui	a2,0x42
  417684:	24c6fe08 	addiu	a2,a2,-504
  417688:	3c070042 	lui	a3,0x42
[31m  41768c:	8f9980e8 	lw	t9,fprintf[0m
  417690:	0320f809 	jalr	t9
  417694:	24e7ec90 	addiu	a3,a3,-4976
--
  4176a4:	02002021 	move	a0,s0
  4176a8:	3c050042 	lui	a1,0x42
  4176ac:	8f99809c 	lw	t9,-32612(gp)
  4176b0:	0320f809 	jalr	t9
  4176b4:	24a5fe28 	addiu	a1,a1,-472
  4176b8:	8fbc0028 	lw	gp,40(sp)
  4176bc:	14400024 	bnez	v0,417750 <_ftext@@Base+0x166f0>
  4176c0:	02002021 	move	a0,s0
  4176c4:	afa00130 	sw	zero,304(sp)
  4176c8:	3c040042 	lui	a0,0x42
  4176cc:	2484fda0 	addiu	a0,a0,-608
  4176d0:	3c050042 	lui	a1,0x42
  4176d4:	24a5fe28 	addiu	a1,a1,-472
  4176d8:	8f998054 	lw	t9,-32684(gp)
  4176dc:	0320f809 	jalr	t9
  4176e0:	27a60130 	addiu	a2,sp,304
  4176e4:	8fbc0028 	lw	gp,40(sp)
  4176e8:	8fa20130 	lw	v0,304(sp)
  4176ec:	1040000c 	beqz	v0,417720 <_ftext@@Base+0x166c0>
  4176f0:	02202021 	move	a0,s1
  4176f4:	3c050042 	lui	a1,0x42
  4176f8:	24a5016c 	addiu	a1,a1,364
  4176fc:	3c060042 	lui	a2,0x42
  417700:	24c6fe28 	addiu	a2,a2,-472
  417704:	3c070042 	lui	a3,0x42
[31m  417708:	8f9980e8 	lw	t9,fprintf[0m
  41770c:	0320f809 	jalr	t9
  417710:	24e7ec9c 	addiu	a3,a3,-4964
  417714:	8fbc0028 	lw	gp,40(sp)
  417718:	1000000a 	b	417744 <_ftext@@Base+0x166e4>
  41771c:	00000000 	nop
  417720:	3c050042 	lui	a1,0x42
  417724:	24a5016c 	addiu	a1,a1,364
  417728:	3c060042 	lui	a2,0x42
  41772c:	24c6fe28 	addiu	a2,a2,-472
  417730:	3c070042 	lui	a3,0x42
[31m  417734:	8f9980e8 	lw	t9,fprintf[0m
  417738:	0320f809 	jalr	t9
  41773c:	24e7ec90 	addiu	a3,a3,-4976
--
  41774c:	02002021 	move	a0,s0
  417750:	3c050042 	lui	a1,0x42
  417754:	8f99809c 	lw	t9,-32612(gp)
  417758:	0320f809 	jalr	t9
  41775c:	24a5fe34 	addiu	a1,a1,-460
  417760:	8fbc0028 	lw	gp,40(sp)
  417764:	14400024 	bnez	v0,4177f8 <_ftext@@Base+0x16798>
  417768:	02002021 	move	a0,s0
  41776c:	afa00130 	sw	zero,304(sp)
  417770:	3c040042 	lui	a0,0x42
  417774:	2484fda0 	addiu	a0,a0,-608
  417778:	3c050042 	lui	a1,0x42
  41777c:	24a5fe34 	addiu	a1,a1,-460
  417780:	8f998054 	lw	t9,-32684(gp)
  417784:	0320f809 	jalr	t9
  417788:	27a60130 	addiu	a2,sp,304
  41778c:	8fbc0028 	lw	gp,40(sp)
  417790:	8fa20130 	lw	v0,304(sp)
  417794:	1040000c 	beqz	v0,4177c8 <_ftext@@Base+0x16768>
  417798:	02202021 	move	a0,s1
  41779c:	3c050042 	lui	a1,0x42
  4177a0:	24a5016c 	addiu	a1,a1,364
  4177a4:	3c060042 	lui	a2,0x42
  4177a8:	24c6fe34 	addiu	a2,a2,-460
  4177ac:	3c070042 	lui	a3,0x42
[31m  4177b0:	8f9980e8 	lw	t9,fprintf[0m
  4177b4:	0320f809 	jalr	t9
  4177b8:	24e7ec9c 	addiu	a3,a3,-4964
  4177bc:	8fbc0028 	lw	gp,40(sp)
  4177c0:	1000000a 	b	4177ec <_ftext@@Base+0x1678c>
  4177c4:	00000000 	nop
  4177c8:	3c050042 	lui	a1,0x42
  4177cc:	24a5016c 	addiu	a1,a1,364
  4177d0:	3c060042 	lui	a2,0x42
  4177d4:	24c6fe34 	addiu	a2,a2,-460
  4177d8:	3c070042 	lui	a3,0x42
[31m  4177dc:	8f9980e8 	lw	t9,fprintf[0m
  4177e0:	0320f809 	jalr	t9
  4177e4:	24e7ec90 	addiu	a3,a3,-4976
--
  4177f4:	02002021 	move	a0,s0
  4177f8:	3c050042 	lui	a1,0x42
  4177fc:	8f99809c 	lw	t9,-32612(gp)
  417800:	0320f809 	jalr	t9
  417804:	24a5fe40 	addiu	a1,a1,-448
  417808:	8fbc0028 	lw	gp,40(sp)
  41780c:	14400025 	bnez	v0,4178a4 <_ftext@@Base+0x16844>
  417810:	02002021 	move	a0,s0
  417814:	afa00130 	sw	zero,304(sp)
  417818:	3c040042 	lui	a0,0x42
  41781c:	2484fda0 	addiu	a0,a0,-608
  417820:	3c050042 	lui	a1,0x42
  417824:	24a5fe40 	addiu	a1,a1,-448
  417828:	8f998054 	lw	t9,-32684(gp)
  41782c:	0320f809 	jalr	t9
  417830:	27a60130 	addiu	a2,sp,304
  417834:	8fbc0028 	lw	gp,40(sp)
  417838:	8fa20130 	lw	v0,304(sp)
  41783c:	1040000c 	beqz	v0,417870 <_ftext@@Base+0x16810>
  417840:	02202021 	move	a0,s1
  417844:	3c050042 	lui	a1,0x42
  417848:	24a5016c 	addiu	a1,a1,364
  41784c:	3c060042 	lui	a2,0x42
  417850:	24c6fe40 	addiu	a2,a2,-448
  417854:	3c070042 	lui	a3,0x42
[31m  417858:	8f9980e8 	lw	t9,fprintf[0m
  41785c:	0320f809 	jalr	t9
  417860:	24e7ec9c 	addiu	a3,a3,-4964
  417864:	8fbc0028 	lw	gp,40(sp)
  417868:	1000000a 	b	417894 <_ftext@@Base+0x16834>
  41786c:	00000000 	nop
  417870:	3c050042 	lui	a1,0x42
  417874:	24a5016c 	addiu	a1,a1,364
  417878:	3c060042 	lui	a2,0x42
  41787c:	24c6fe40 	addiu	a2,a2,-448
  417880:	3c070042 	lui	a3,0x42
[31m  417884:	8f9980e8 	lw	t9,fprintf[0m
  417888:	0320f809 	jalr	t9
  41788c:	24e7ec90 	addiu	a3,a3,-4976
--
  4178a8:	8f99809c 	lw	t9,-32612(gp)
  4178ac:	0320f809 	jalr	t9
  4178b0:	24a5eb08 	addiu	a1,a1,-5368
  4178b4:	8fbc0028 	lw	gp,40(sp)
  4178b8:	14400f1a 	bnez	v0,41b524 <_ftext@@Base+0x1a4c4>
  4178bc:	3c020043 	lui	v0,0x43
  4178c0:	90421d24 	lbu	v0,7460(v0)
  4178c4:	10400f17 	beqz	v0,41b524 <_ftext@@Base+0x1a4c4>
  4178c8:	3c040042 	lui	a0,0x42
  4178cc:	afa00130 	sw	zero,304(sp)
  4178d0:	2484fda0 	addiu	a0,a0,-608
  4178d4:	3c050042 	lui	a1,0x42
  4178d8:	24a5eb08 	addiu	a1,a1,-5368
  4178dc:	8f998054 	lw	t9,-32684(gp)
  4178e0:	0320f809 	jalr	t9
  4178e4:	27a60130 	addiu	a2,sp,304
  4178e8:	8fbc0028 	lw	gp,40(sp)
  4178ec:	8fa20130 	lw	v0,304(sp)
  4178f0:	1040000b 	beqz	v0,417920 <_ftext@@Base+0x168c0>
  4178f4:	02202021 	move	a0,s1
  4178f8:	3c050042 	lui	a1,0x42
  4178fc:	24a5016c 	addiu	a1,a1,364
  417900:	3c060042 	lui	a2,0x42
  417904:	24c6eb08 	addiu	a2,a2,-5368
  417908:	3c070042 	lui	a3,0x42
[31m  41790c:	8f9980e8 	lw	t9,fprintf[0m
  417910:	0320f809 	jalr	t9
  417914:	24e7ec9c 	addiu	a3,a3,-4964
  417918:	10000f02 	b	41b524 <_ftext@@Base+0x1a4c4>
  41791c:	00000000 	nop
  417920:	3c050042 	lui	a1,0x42
  417924:	24a5016c 	addiu	a1,a1,364
  417928:	3c060042 	lui	a2,0x42
  41792c:	24c6eb08 	addiu	a2,a2,-5368
  417930:	3c070042 	lui	a3,0x42
[31m  417934:	8f9980e8 	lw	t9,fprintf[0m
  417938:	0320f809 	jalr	t9
  41793c:	24e7ec90 	addiu	a3,a3,-4976
--
  4179c4:	02002021 	move	a0,s0
  4179c8:	3c050042 	lui	a1,0x42
  4179cc:	8f99809c 	lw	t9,-32612(gp)
  4179d0:	0320f809 	jalr	t9
  4179d4:	24a5ec88 	addiu	a1,a1,-4984
  4179d8:	8fbc0028 	lw	gp,40(sp)
  4179dc:	14400024 	bnez	v0,417a70 <_ftext@@Base+0x16a10>
  4179e0:	02002021 	move	a0,s0
  4179e4:	afa00130 	sw	zero,304(sp)
  4179e8:	3c040042 	lui	a0,0x42
  4179ec:	2484fe60 	addiu	a0,a0,-416
  4179f0:	3c050042 	lui	a1,0x42
  4179f4:	24a5ec94 	addiu	a1,a1,-4972
  4179f8:	8f998054 	lw	t9,-32684(gp)
  4179fc:	0320f809 	jalr	t9
  417a00:	27a60130 	addiu	a2,sp,304
  417a04:	8fbc0028 	lw	gp,40(sp)
  417a08:	8fa20130 	lw	v0,304(sp)
  417a0c:	1040000c 	beqz	v0,417a40 <_ftext@@Base+0x169e0>
  417a10:	02202021 	move	a0,s1
  417a14:	3c050042 	lui	a1,0x42
  417a18:	24a5016c 	addiu	a1,a1,364
  417a1c:	3c060042 	lui	a2,0x42
  417a20:	24c6ec88 	addiu	a2,a2,-4984
  417a24:	3c070042 	lui	a3,0x42
[31m  417a28:	8f9980e8 	lw	t9,fprintf[0m
  417a2c:	0320f809 	jalr	t9
  417a30:	24e7ec9c 	addiu	a3,a3,-4964
  417a34:	8fbc0028 	lw	gp,40(sp)
  417a38:	1000000a 	b	417a64 <_ftext@@Base+0x16a04>
  417a3c:	00000000 	nop
  417a40:	3c050042 	lui	a1,0x42
  417a44:	24a5016c 	addiu	a1,a1,364
  417a48:	3c060042 	lui	a2,0x42
  417a4c:	24c6ec88 	addiu	a2,a2,-4984
  417a50:	3c070042 	lui	a3,0x42
[31m  417a54:	8f9980e8 	lw	t9,fprintf[0m
  417a58:	0320f809 	jalr	t9
  417a5c:	24e7ec90 	addiu	a3,a3,-4976
--
  417a74:	8f99809c 	lw	t9,-32612(gp)
  417a78:	0320f809 	jalr	t9
  417a7c:	24a5fdbc 	addiu	a1,a1,-580
  417a80:	8fbc0028 	lw	gp,40(sp)
  417a84:	1440001b 	bnez	v0,417af4 <_ftext@@Base+0x16a94>
  417a88:	02002021 	move	a0,s0
  417a8c:	27b40030 	addiu	s4,sp,48
  417a90:	02802021 	move	a0,s4
  417a94:	00002821 	move	a1,zero
  417a98:	8f9980ac 	lw	t9,-32596(gp)
  417a9c:	0320f809 	jalr	t9
  417aa0:	24060100 	li	a2,256
  417aa4:	8fbc0028 	lw	gp,40(sp)
  417aa8:	3c040042 	lui	a0,0x42
  417aac:	2484fe60 	addiu	a0,a0,-416
  417ab0:	3c130042 	lui	s3,0x42
  417ab4:	2665fdbc 	addiu	a1,s3,-580
  417ab8:	8f998054 	lw	t9,-32684(gp)
  417abc:	0320f809 	jalr	t9
  417ac0:	02803021 	move	a2,s4
  417ac4:	8fbc0028 	lw	gp,40(sp)
  417ac8:	02202021 	move	a0,s1
  417acc:	3c050042 	lui	a1,0x42
  417ad0:	24a5016c 	addiu	a1,a1,364
  417ad4:	2666fdbc 	addiu	a2,s3,-580
[31m  417ad8:	8f9980e8 	lw	t9,fprintf[0m
  417adc:	0320f809 	jalr	t9
  417ae0:	02803821 	move	a3,s4
  417ae4:	8fbc0028 	lw	gp,40(sp)
  417ae8:	92420000 	lbu	v0,0(s2)
  417aec:	10400008 	beqz	v0,417b10 <_ftext@@Base+0x16ab0>
  417af0:	02002021 	move	a0,s0
  417af4:	3c050042 	lui	a1,0x42
  417af8:	8f99809c 	lw	t9,-32612(gp)
  417afc:	0320f809 	jalr	t9
  417b00:	24a5fdcc 	addiu	a1,a1,-564
  417b04:	8fbc0028 	lw	gp,40(sp)
  417b08:	14400015 	bnez	v0,417b60 <_ftext@@Base+0x16b00>
  417b0c:	02002021 	move	a0,s0
  417b10:	afa00130 	sw	zero,304(sp)
  417b14:	3c040042 	lui	a0,0x42
  417b18:	2484fe60 	addiu	a0,a0,-416
  417b1c:	3c130042 	lui	s3,0x42
  417b20:	2665fdcc 	addiu	a1,s3,-564
  417b24:	8f998054 	lw	t9,-32684(gp)
  417b28:	0320f809 	jalr	t9
  417b2c:	27a60130 	addiu	a2,sp,304
  417b30:	8fbc0028 	lw	gp,40(sp)
  417b34:	02202021 	move	a0,s1
  417b38:	3c050042 	lui	a1,0x42
  417b3c:	24a501f4 	addiu	a1,a1,500
  417b40:	8fa70130 	lw	a3,304(sp)
[31m  417b44:	8f9980e8 	lw	t9,fprintf[0m
  417b48:	0320f809 	jalr	t9
  417b4c:	2666fdcc 	addiu	a2,s3,-564
--
  417b68:	0320f809 	jalr	t9
  417b6c:	24a5fdd8 	addiu	a1,a1,-552
  417b70:	8fbc0028 	lw	gp,40(sp)
  417b74:	1440001d 	bnez	v0,417bec <_ftext@@Base+0x16b8c>
  417b78:	02002021 	move	a0,s0
  417b7c:	27b30030 	addiu	s3,sp,48
  417b80:	02602021 	move	a0,s3
  417b84:	00002821 	move	a1,zero
  417b88:	8f9980ac 	lw	t9,-32596(gp)
  417b8c:	0320f809 	jalr	t9
  417b90:	24060100 	li	a2,256
  417b94:	8fbc0028 	lw	gp,40(sp)
  417b98:	3c040042 	lui	a0,0x42
  417b9c:	2484fe60 	addiu	a0,a0,-416
  417ba0:	3c050042 	lui	a1,0x42
  417ba4:	24a5fde0 	addiu	a1,a1,-544
  417ba8:	8f998054 	lw	t9,-32684(gp)
  417bac:	0320f809 	jalr	t9
  417bb0:	02603021 	move	a2,s3
  417bb4:	8fbc0028 	lw	gp,40(sp)
  417bb8:	02202021 	move	a0,s1
  417bbc:	3c050042 	lui	a1,0x42
  417bc0:	24a5016c 	addiu	a1,a1,364
  417bc4:	3c060042 	lui	a2,0x42
  417bc8:	24c6fdd8 	addiu	a2,a2,-552
[31m  417bcc:	8f9980e8 	lw	t9,fprintf[0m
  417bd0:	0320f809 	jalr	t9
  417bd4:	02603821 	move	a3,s3
--
  417bf4:	0320f809 	jalr	t9
  417bf8:	24a5eaa0 	addiu	a1,a1,-5472
  417bfc:	8fbc0028 	lw	gp,40(sp)
  417c00:	14400027 	bnez	v0,417ca0 <_ftext@@Base+0x16c40>
  417c04:	02002021 	move	a0,s0
  417c08:	3c020043 	lui	v0,0x43
  417c0c:	8c421d10 	lw	v0,7440(v0)
  417c10:	18400020 	blez	v0,417c94 <_ftext@@Base+0x16c34>
  417c14:	3c040042 	lui	a0,0x42
  417c18:	afa00130 	sw	zero,304(sp)
  417c1c:	2484fe60 	addiu	a0,a0,-416
  417c20:	3c050042 	lui	a1,0x42
  417c24:	24a5eaa0 	addiu	a1,a1,-5472
  417c28:	8f998054 	lw	t9,-32684(gp)
  417c2c:	0320f809 	jalr	t9
  417c30:	27a60130 	addiu	a2,sp,304
  417c34:	8fbc0028 	lw	gp,40(sp)
  417c38:	8fa20130 	lw	v0,304(sp)
  417c3c:	1040000c 	beqz	v0,417c70 <_ftext@@Base+0x16c10>
  417c40:	02202021 	move	a0,s1
  417c44:	3c050042 	lui	a1,0x42
  417c48:	24a5016c 	addiu	a1,a1,364
  417c4c:	3c060042 	lui	a2,0x42
  417c50:	24c6eaa0 	addiu	a2,a2,-5472
  417c54:	3c070042 	lui	a3,0x42
[31m  417c58:	8f9980e8 	lw	t9,fprintf[0m
  417c5c:	0320f809 	jalr	t9
  417c60:	24e7ec9c 	addiu	a3,a3,-4964
  417c64:	8fbc0028 	lw	gp,40(sp)
  417c68:	1000000a 	b	417c94 <_ftext@@Base+0x16c34>
  417c6c:	00000000 	nop
  417c70:	3c050042 	lui	a1,0x42
  417c74:	24a5016c 	addiu	a1,a1,364
  417c78:	3c060042 	lui	a2,0x42
  417c7c:	24c6eaa0 	addiu	a2,a2,-5472
  417c80:	3c070042 	lui	a3,0x42
[31m  417c84:	8f9980e8 	lw	t9,fprintf[0m
  417c88:	0320f809 	jalr	t9
  417c8c:	24e7ec90 	addiu	a3,a3,-4976
--
  417c9c:	02002021 	move	a0,s0
  417ca0:	3c050042 	lui	a1,0x42
  417ca4:	8f99809c 	lw	t9,-32612(gp)
  417ca8:	0320f809 	jalr	t9
  417cac:	24a5fde8 	addiu	a1,a1,-536
  417cb0:	8fbc0028 	lw	gp,40(sp)
  417cb4:	14400022 	bnez	v0,417d40 <_ftext@@Base+0x16ce0>
  417cb8:	3c020043 	lui	v0,0x43
  417cbc:	afa00130 	sw	zero,304(sp)
  417cc0:	3c040042 	lui	a0,0x42
  417cc4:	2484fe60 	addiu	a0,a0,-416
  417cc8:	3c050042 	lui	a1,0x42
  417ccc:	24a5fdf8 	addiu	a1,a1,-520
  417cd0:	8f998054 	lw	t9,-32684(gp)
  417cd4:	0320f809 	jalr	t9
  417cd8:	27a60130 	addiu	a2,sp,304
  417cdc:	8fbc0028 	lw	gp,40(sp)
  417ce0:	8fa20130 	lw	v0,304(sp)
  417ce4:	1040000c 	beqz	v0,417d18 <_ftext@@Base+0x16cb8>
  417ce8:	02202021 	move	a0,s1
  417cec:	3c050042 	lui	a1,0x42
  417cf0:	24a5016c 	addiu	a1,a1,364
  417cf4:	3c060042 	lui	a2,0x42
  417cf8:	24c6fde8 	addiu	a2,a2,-536
  417cfc:	3c070042 	lui	a3,0x42
[31m  417d00:	8f9980e8 	lw	t9,fprintf[0m
  417d04:	0320f809 	jalr	t9
  417d08:	24e7ec9c 	addiu	a3,a3,-4964
  417d0c:	8fbc0028 	lw	gp,40(sp)
  417d10:	1000000b 	b	417d40 <_ftext@@Base+0x16ce0>
  417d14:	3c020043 	lui	v0,0x43
  417d18:	3c050042 	lui	a1,0x42
  417d1c:	24a5016c 	addiu	a1,a1,364
  417d20:	3c060042 	lui	a2,0x42
  417d24:	24c6fde8 	addiu	a2,a2,-536
  417d28:	3c070042 	lui	a3,0x42
[31m  417d2c:	8f9980e8 	lw	t9,fprintf[0m
  417d30:	0320f809 	jalr	t9
  417d34:	24e7ec90 	addiu	a3,a3,-4976
--
  417d60:	02002021 	move	a0,s0
  417d64:	3c050042 	lui	a1,0x42
  417d68:	8f99809c 	lw	t9,-32612(gp)
  417d6c:	0320f809 	jalr	t9
  417d70:	24a5fe08 	addiu	a1,a1,-504
  417d74:	8fbc0028 	lw	gp,40(sp)
  417d78:	14400024 	bnez	v0,417e0c <_ftext@@Base+0x16dac>
  417d7c:	02002021 	move	a0,s0
  417d80:	afa00130 	sw	zero,304(sp)
  417d84:	3c040042 	lui	a0,0x42
  417d88:	2484fe60 	addiu	a0,a0,-416
  417d8c:	3c050042 	lui	a1,0x42
  417d90:	24a5fe18 	addiu	a1,a1,-488
  417d94:	8f998054 	lw	t9,-32684(gp)
  417d98:	0320f809 	jalr	t9
  417d9c:	27a60130 	addiu	a2,sp,304
  417da0:	8fbc0028 	lw	gp,40(sp)
  417da4:	8fa20130 	lw	v0,304(sp)
  417da8:	1040000c 	beqz	v0,417ddc <_ftext@@Base+0x16d7c>
  417dac:	02202021 	move	a0,s1
  417db0:	3c050042 	lui	a1,0x42
  417db4:	24a5016c 	addiu	a1,a1,364
  417db8:	3c060042 	lui	a2,0x42
  417dbc:	24c6fe08 	addiu	a2,a2,-504
  417dc0:	3c070042 	lui	a3,0x42
[31m  417dc4:	8f9980e8 	lw	t9,fprintf[0m
  417dc8:	0320f809 	jalr	t9
  417dcc:	24e7ec9c 	addiu	a3,a3,-4964
  417dd0:	8fbc0028 	lw	gp,40(sp)
  417dd4:	1000000a 	b	417e00 <_ftext@@Base+0x16da0>
  417dd8:	00000000 	nop
  417ddc:	3c050042 	lui	a1,0x42
  417de0:	24a5016c 	addiu	a1,a1,364
  417de4:	3c060042 	lui	a2,0x42
  417de8:	24c6fe08 	addiu	a2,a2,-504
  417dec:	3c070042 	lui	a3,0x42
[31m  417df0:	8f9980e8 	lw	t9,fprintf[0m
  417df4:	0320f809 	jalr	t9
  417df8:	24e7ec90 	addiu	a3,a3,-4976
--
  417e08:	02002021 	move	a0,s0
  417e0c:	3c050042 	lui	a1,0x42
  417e10:	8f99809c 	lw	t9,-32612(gp)
  417e14:	0320f809 	jalr	t9
  417e18:	24a5fe28 	addiu	a1,a1,-472
  417e1c:	8fbc0028 	lw	gp,40(sp)
  417e20:	14400024 	bnez	v0,417eb4 <_ftext@@Base+0x16e54>
  417e24:	02002021 	move	a0,s0
  417e28:	afa00130 	sw	zero,304(sp)
  417e2c:	3c040042 	lui	a0,0x42
  417e30:	2484fe60 	addiu	a0,a0,-416
  417e34:	3c050042 	lui	a1,0x42
  417e38:	24a5fe28 	addiu	a1,a1,-472
  417e3c:	8f998054 	lw	t9,-32684(gp)
  417e40:	0320f809 	jalr	t9
  417e44:	27a60130 	addiu	a2,sp,304
  417e48:	8fbc0028 	lw	gp,40(sp)
  417e4c:	8fa20130 	lw	v0,304(sp)
  417e50:	1040000c 	beqz	v0,417e84 <_ftext@@Base+0x16e24>
  417e54:	02202021 	move	a0,s1
  417e58:	3c050042 	lui	a1,0x42
  417e5c:	24a5016c 	addiu	a1,a1,364
  417e60:	3c060042 	lui	a2,0x42
  417e64:	24c6fe28 	addiu	a2,a2,-472
  417e68:	3c070042 	lui	a3,0x42
[31m  417e6c:	8f9980e8 	lw	t9,fprintf[0m
  417e70:	0320f809 	jalr	t9
  417e74:	24e7ec9c 	addiu	a3,a3,-4964
  417e78:	8fbc0028 	lw	gp,40(sp)
  417e7c:	1000000a 	b	417ea8 <_ftext@@Base+0x16e48>
  417e80:	00000000 	nop
  417e84:	3c050042 	lui	a1,0x42
  417e88:	24a5016c 	addiu	a1,a1,364
  417e8c:	3c060042 	lui	a2,0x42
  417e90:	24c6fe28 	addiu	a2,a2,-472
  417e94:	3c070042 	lui	a3,0x42
[31m  417e98:	8f9980e8 	lw	t9,fprintf[0m
  417e9c:	0320f809 	jalr	t9
  417ea0:	24e7ec90 	addiu	a3,a3,-4976
--
  417eb0:	02002021 	move	a0,s0
  417eb4:	3c050042 	lui	a1,0x42
  417eb8:	8f99809c 	lw	t9,-32612(gp)
  417ebc:	0320f809 	jalr	t9
  417ec0:	24a5fe34 	addiu	a1,a1,-460
  417ec4:	8fbc0028 	lw	gp,40(sp)
  417ec8:	14400024 	bnez	v0,417f5c <_ftext@@Base+0x16efc>
  417ecc:	02002021 	move	a0,s0
  417ed0:	afa00130 	sw	zero,304(sp)
  417ed4:	3c040042 	lui	a0,0x42
  417ed8:	2484fe60 	addiu	a0,a0,-416
  417edc:	3c050042 	lui	a1,0x42
  417ee0:	24a5fe34 	addiu	a1,a1,-460
  417ee4:	8f998054 	lw	t9,-32684(gp)
  417ee8:	0320f809 	jalr	t9
  417eec:	27a60130 	addiu	a2,sp,304
  417ef0:	8fbc0028 	lw	gp,40(sp)
  417ef4:	8fa20130 	lw	v0,304(sp)
  417ef8:	1040000c 	beqz	v0,417f2c <_ftext@@Base+0x16ecc>
  417efc:	02202021 	move	a0,s1
  417f00:	3c050042 	lui	a1,0x42
  417f04:	24a5016c 	addiu	a1,a1,364
  417f08:	3c060042 	lui	a2,0x42
  417f0c:	24c6fe34 	addiu	a2,a2,-460
  417f10:	3c070042 	lui	a3,0x42
[31m  417f14:	8f9980e8 	lw	t9,fprintf[0m
  417f18:	0320f809 	jalr	t9
  417f1c:	24e7ec9c 	addiu	a3,a3,-4964
  417f20:	8fbc0028 	lw	gp,40(sp)
  417f24:	1000000a 	b	417f50 <_ftext@@Base+0x16ef0>
  417f28:	00000000 	nop
  417f2c:	3c050042 	lui	a1,0x42
  417f30:	24a5016c 	addiu	a1,a1,364
  417f34:	3c060042 	lui	a2,0x42
  417f38:	24c6fe34 	addiu	a2,a2,-460
  417f3c:	3c070042 	lui	a3,0x42
[31m  417f40:	8f9980e8 	lw	t9,fprintf[0m
  417f44:	0320f809 	jalr	t9
  417f48:	24e7ec90 	addiu	a3,a3,-4976
--
  417f58:	02002021 	move	a0,s0
  417f5c:	3c050042 	lui	a1,0x42
  417f60:	8f99809c 	lw	t9,-32612(gp)
  417f64:	0320f809 	jalr	t9
  417f68:	24a5fe40 	addiu	a1,a1,-448
  417f6c:	8fbc0028 	lw	gp,40(sp)
  417f70:	14400025 	bnez	v0,418008 <_ftext@@Base+0x16fa8>
  417f74:	02002021 	move	a0,s0
  417f78:	afa00130 	sw	zero,304(sp)
  417f7c:	3c040042 	lui	a0,0x42
  417f80:	2484fe60 	addiu	a0,a0,-416
  417f84:	3c050042 	lui	a1,0x42
  417f88:	24a5fe40 	addiu	a1,a1,-448
  417f8c:	8f998054 	lw	t9,-32684(gp)
  417f90:	0320f809 	jalr	t9
  417f94:	27a60130 	addiu	a2,sp,304
  417f98:	8fbc0028 	lw	gp,40(sp)
  417f9c:	8fa20130 	lw	v0,304(sp)
  417fa0:	1040000c 	beqz	v0,417fd4 <_ftext@@Base+0x16f74>
  417fa4:	02202021 	move	a0,s1
  417fa8:	3c050042 	lui	a1,0x42
  417fac:	24a5016c 	addiu	a1,a1,364
  417fb0:	3c060042 	lui	a2,0x42
  417fb4:	24c6fe40 	addiu	a2,a2,-448
  417fb8:	3c070042 	lui	a3,0x42
[31m  417fbc:	8f9980e8 	lw	t9,fprintf[0m
  417fc0:	0320f809 	jalr	t9
  417fc4:	24e7ec9c 	addiu	a3,a3,-4964
  417fc8:	8fbc0028 	lw	gp,40(sp)
  417fcc:	1000000a 	b	417ff8 <_ftext@@Base+0x16f98>
  417fd0:	00000000 	nop
  417fd4:	3c050042 	lui	a1,0x42
  417fd8:	24a5016c 	addiu	a1,a1,364
  417fdc:	3c060042 	lui	a2,0x42
  417fe0:	24c6fe40 	addiu	a2,a2,-448
  417fe4:	3c070042 	lui	a3,0x42
[31m  417fe8:	8f9980e8 	lw	t9,fprintf[0m
  417fec:	0320f809 	jalr	t9
  417ff0:	24e7ec90 	addiu	a3,a3,-4976
--
  41800c:	8f99809c 	lw	t9,-32612(gp)
  418010:	0320f809 	jalr	t9
  418014:	24a5eb08 	addiu	a1,a1,-5368
  418018:	8fbc0028 	lw	gp,40(sp)
  41801c:	14400d41 	bnez	v0,41b524 <_ftext@@Base+0x1a4c4>
  418020:	3c020043 	lui	v0,0x43
  418024:	90421d24 	lbu	v0,7460(v0)
  418028:	10400d3e 	beqz	v0,41b524 <_ftext@@Base+0x1a4c4>
  41802c:	3c040042 	lui	a0,0x42
  418030:	afa00130 	sw	zero,304(sp)
  418034:	2484fe60 	addiu	a0,a0,-416
  418038:	3c050042 	lui	a1,0x42
  41803c:	24a5eb08 	addiu	a1,a1,-5368
  418040:	8f998054 	lw	t9,-32684(gp)
  418044:	0320f809 	jalr	t9
  418048:	27a60130 	addiu	a2,sp,304
  41804c:	8fbc0028 	lw	gp,40(sp)
  418050:	8fa20130 	lw	v0,304(sp)
  418054:	1040000b 	beqz	v0,418084 <_ftext@@Base+0x17024>
  418058:	02202021 	move	a0,s1
  41805c:	3c050042 	lui	a1,0x42
  418060:	24a5016c 	addiu	a1,a1,364
  418064:	3c060042 	lui	a2,0x42
  418068:	24c6eb08 	addiu	a2,a2,-5368
  41806c:	3c070042 	lui	a3,0x42
[31m  418070:	8f9980e8 	lw	t9,fprintf[0m
  418074:	0320f809 	jalr	t9
  418078:	24e7ec9c 	addiu	a3,a3,-4964
  41807c:	10000d29 	b	41b524 <_ftext@@Base+0x1a4c4>
  418080:	00000000 	nop
  418084:	3c050042 	lui	a1,0x42
  418088:	24a5016c 	addiu	a1,a1,364
  41808c:	3c060042 	lui	a2,0x42
  418090:	24c6eb08 	addiu	a2,a2,-5368
  418094:	3c070042 	lui	a3,0x42
[31m  418098:	8f9980e8 	lw	t9,fprintf[0m
  41809c:	0320f809 	jalr	t9
  4180a0:	24e7ec90 	addiu	a3,a3,-4976
--
  41811c:	02002021 	move	a0,s0
  418120:	3c050042 	lui	a1,0x42
  418124:	8f99809c 	lw	t9,-32612(gp)
  418128:	0320f809 	jalr	t9
  41812c:	24a5fe90 	addiu	a1,a1,-368
  418130:	8fbc0028 	lw	gp,40(sp)
  418134:	14400025 	bnez	v0,4181cc <_ftext@@Base+0x1716c>
  418138:	02002021 	move	a0,s0
  41813c:	afa00130 	sw	zero,304(sp)
  418140:	3c040042 	lui	a0,0x42
  418144:	2484fe9c 	addiu	a0,a0,-356
  418148:	3c050042 	lui	a1,0x42
  41814c:	24a5feb8 	addiu	a1,a1,-328
  418150:	8f998054 	lw	t9,-32684(gp)
  418154:	0320f809 	jalr	t9
  418158:	27a60130 	addiu	a2,sp,304
  41815c:	8fbc0028 	lw	gp,40(sp)
  418160:	8fa20130 	lw	v0,304(sp)
  418164:	1040000c 	beqz	v0,418198 <_ftext@@Base+0x17138>
  418168:	02202021 	move	a0,s1
  41816c:	3c050042 	lui	a1,0x42
  418170:	24a5016c 	addiu	a1,a1,364
  418174:	3c060042 	lui	a2,0x42
  418178:	24c6fe90 	addiu	a2,a2,-368
  41817c:	3c070042 	lui	a3,0x42
[31m  418180:	8f9980e8 	lw	t9,fprintf[0m
  418184:	0320f809 	jalr	t9
  418188:	24e7ec9c 	addiu	a3,a3,-4964
  41818c:	8fbc0028 	lw	gp,40(sp)
  418190:	1000000a 	b	4181bc <_ftext@@Base+0x1715c>
  418194:	00000000 	nop
  418198:	3c050042 	lui	a1,0x42
  41819c:	24a5016c 	addiu	a1,a1,364
  4181a0:	3c060042 	lui	a2,0x42
  4181a4:	24c6fe90 	addiu	a2,a2,-368
  4181a8:	3c070042 	lui	a3,0x42
[31m  4181ac:	8f9980e8 	lw	t9,fprintf[0m
  4181b0:	0320f809 	jalr	t9
  4181b4:	24e7ec90 	addiu	a3,a3,-4976
--
  4181d8:	24a5fec0 	addiu	a1,a1,-320
  4181dc:	8fbc0028 	lw	gp,40(sp)
  4181e0:	14400028 	bnez	v0,418284 <_ftext@@Base+0x17224>
  4181e4:	02002021 	move	a0,s0
  4181e8:	3c020043 	lui	v0,0x43
  4181ec:	8c421d0c 	lw	v0,7436(v0)
  4181f0:	28420002 	slti	v0,v0,2
  4181f4:	14400020 	bnez	v0,418278 <_ftext@@Base+0x17218>
  4181f8:	3c040042 	lui	a0,0x42
  4181fc:	afa00130 	sw	zero,304(sp)
  418200:	2484fe9c 	addiu	a0,a0,-356
  418204:	3c050042 	lui	a1,0x42
  418208:	24a5fecc 	addiu	a1,a1,-308
  41820c:	8f998054 	lw	t9,-32684(gp)
  418210:	0320f809 	jalr	t9
  418214:	27a60130 	addiu	a2,sp,304
  418218:	8fbc0028 	lw	gp,40(sp)
  41821c:	8fa20130 	lw	v0,304(sp)
  418220:	1040000c 	beqz	v0,418254 <_ftext@@Base+0x171f4>
  418224:	02202021 	move	a0,s1
  418228:	3c050042 	lui	a1,0x42
  41822c:	24a5016c 	addiu	a1,a1,364
  418230:	3c060042 	lui	a2,0x42
  418234:	24c6fec0 	addiu	a2,a2,-320
  418238:	3c070042 	lui	a3,0x42
[31m  41823c:	8f9980e8 	lw	t9,fprintf[0m
  418240:	0320f809 	jalr	t9
  418244:	24e7ec9c 	addiu	a3,a3,-4964
  418248:	8fbc0028 	lw	gp,40(sp)
  41824c:	1000000a 	b	418278 <_ftext@@Base+0x17218>
  418250:	00000000 	nop
  418254:	3c050042 	lui	a1,0x42
  418258:	24a5016c 	addiu	a1,a1,364
  41825c:	3c060042 	lui	a2,0x42
  418260:	24c6fec0 	addiu	a2,a2,-320
  418264:	3c070042 	lui	a3,0x42
[31m  418268:	8f9980e8 	lw	t9,fprintf[0m
  41826c:	0320f809 	jalr	t9
  418270:	24e7ec90 	addiu	a3,a3,-4976
--
  418288:	8f99809c 	lw	t9,-32612(gp)
  41828c:	0320f809 	jalr	t9
  418290:	24a5fdbc 	addiu	a1,a1,-580
  418294:	8fbc0028 	lw	gp,40(sp)
  418298:	1440001b 	bnez	v0,418308 <_ftext@@Base+0x172a8>
  41829c:	02002021 	move	a0,s0
  4182a0:	27b40030 	addiu	s4,sp,48
  4182a4:	02802021 	move	a0,s4
  4182a8:	00002821 	move	a1,zero
  4182ac:	8f9980ac 	lw	t9,-32596(gp)
  4182b0:	0320f809 	jalr	t9
  4182b4:	24060100 	li	a2,256
  4182b8:	8fbc0028 	lw	gp,40(sp)
  4182bc:	3c040042 	lui	a0,0x42
  4182c0:	2484fe9c 	addiu	a0,a0,-356
  4182c4:	3c130042 	lui	s3,0x42
  4182c8:	2665fdbc 	addiu	a1,s3,-580
  4182cc:	8f998054 	lw	t9,-32684(gp)
  4182d0:	0320f809 	jalr	t9
  4182d4:	02803021 	move	a2,s4
  4182d8:	8fbc0028 	lw	gp,40(sp)
  4182dc:	02202021 	move	a0,s1
  4182e0:	3c050042 	lui	a1,0x42
  4182e4:	24a5016c 	addiu	a1,a1,364
  4182e8:	2666fdbc 	addiu	a2,s3,-580
[31m  4182ec:	8f9980e8 	lw	t9,fprintf[0m
  4182f0:	0320f809 	jalr	t9
  4182f4:	02803821 	move	a3,s4
  4182f8:	8fbc0028 	lw	gp,40(sp)
  4182fc:	92420000 	lbu	v0,0(s2)
  418300:	10400008 	beqz	v0,418324 <_ftext@@Base+0x172c4>
  418304:	02002021 	move	a0,s0
  418308:	3c050042 	lui	a1,0x42
  41830c:	8f99809c 	lw	t9,-32612(gp)
  418310:	0320f809 	jalr	t9
  418314:	24a5fdcc 	addiu	a1,a1,-564
  418318:	8fbc0028 	lw	gp,40(sp)
  41831c:	14400015 	bnez	v0,418374 <_ftext@@Base+0x17314>
  418320:	02002021 	move	a0,s0
  418324:	afa00130 	sw	zero,304(sp)
  418328:	3c040042 	lui	a0,0x42
  41832c:	2484fe9c 	addiu	a0,a0,-356
  418330:	3c130042 	lui	s3,0x42
  418334:	2665fdcc 	addiu	a1,s3,-564
  418338:	8f998054 	lw	t9,-32684(gp)
  41833c:	0320f809 	jalr	t9
  418340:	27a60130 	addiu	a2,sp,304
  418344:	8fbc0028 	lw	gp,40(sp)
  418348:	02202021 	move	a0,s1
  41834c:	3c050042 	lui	a1,0x42
  418350:	24a501f4 	addiu	a1,a1,500
  418354:	8fa70130 	lw	a3,304(sp)
[31m  418358:	8f9980e8 	lw	t9,fprintf[0m
  41835c:	0320f809 	jalr	t9
  418360:	2666fdcc 	addiu	a2,s3,-564
--
  41837c:	0320f809 	jalr	t9
  418380:	24a5fdd8 	addiu	a1,a1,-552
  418384:	8fbc0028 	lw	gp,40(sp)
  418388:	1440001d 	bnez	v0,418400 <_ftext@@Base+0x173a0>
  41838c:	02002021 	move	a0,s0
  418390:	27b30030 	addiu	s3,sp,48
  418394:	02602021 	move	a0,s3
  418398:	00002821 	move	a1,zero
  41839c:	8f9980ac 	lw	t9,-32596(gp)
  4183a0:	0320f809 	jalr	t9
  4183a4:	24060100 	li	a2,256
  4183a8:	8fbc0028 	lw	gp,40(sp)
  4183ac:	3c040042 	lui	a0,0x42
  4183b0:	2484fe9c 	addiu	a0,a0,-356
  4183b4:	3c050042 	lui	a1,0x42
  4183b8:	24a5fde0 	addiu	a1,a1,-544
  4183bc:	8f998054 	lw	t9,-32684(gp)
  4183c0:	0320f809 	jalr	t9
  4183c4:	02603021 	move	a2,s3
  4183c8:	8fbc0028 	lw	gp,40(sp)
  4183cc:	02202021 	move	a0,s1
  4183d0:	3c050042 	lui	a1,0x42
  4183d4:	24a5016c 	addiu	a1,a1,364
  4183d8:	3c060042 	lui	a2,0x42
  4183dc:	24c6fdd8 	addiu	a2,a2,-552
[31m  4183e0:	8f9980e8 	lw	t9,fprintf[0m
  4183e4:	0320f809 	jalr	t9
  4183e8:	02603821 	move	a3,s3
--
  418408:	0320f809 	jalr	t9
  41840c:	24a5eaa0 	addiu	a1,a1,-5472
  418410:	8fbc0028 	lw	gp,40(sp)
  418414:	14400027 	bnez	v0,4184b4 <_ftext@@Base+0x17454>
  418418:	02002021 	move	a0,s0
  41841c:	3c020043 	lui	v0,0x43
  418420:	8c421d10 	lw	v0,7440(v0)
  418424:	18400020 	blez	v0,4184a8 <_ftext@@Base+0x17448>
  418428:	3c040042 	lui	a0,0x42
  41842c:	afa00130 	sw	zero,304(sp)
  418430:	2484fe9c 	addiu	a0,a0,-356
  418434:	3c050042 	lui	a1,0x42
  418438:	24a5eaa0 	addiu	a1,a1,-5472
  41843c:	8f998054 	lw	t9,-32684(gp)
  418440:	0320f809 	jalr	t9
  418444:	27a60130 	addiu	a2,sp,304
  418448:	8fbc0028 	lw	gp,40(sp)
  41844c:	8fa20130 	lw	v0,304(sp)
  418450:	1040000c 	beqz	v0,418484 <_ftext@@Base+0x17424>
  418454:	02202021 	move	a0,s1
  418458:	3c050042 	lui	a1,0x42
  41845c:	24a5016c 	addiu	a1,a1,364
  418460:	3c060042 	lui	a2,0x42
  418464:	24c6eaa0 	addiu	a2,a2,-5472
  418468:	3c070042 	lui	a3,0x42
[31m  41846c:	8f9980e8 	lw	t9,fprintf[0m
  418470:	0320f809 	jalr	t9
  418474:	24e7ec9c 	addiu	a3,a3,-4964
  418478:	8fbc0028 	lw	gp,40(sp)
  41847c:	1000000a 	b	4184a8 <_ftext@@Base+0x17448>
  418480:	00000000 	nop
  418484:	3c050042 	lui	a1,0x42
  418488:	24a5016c 	addiu	a1,a1,364
  41848c:	3c060042 	lui	a2,0x42
  418490:	24c6eaa0 	addiu	a2,a2,-5472
  418494:	3c070042 	lui	a3,0x42
[31m  418498:	8f9980e8 	lw	t9,fprintf[0m
  41849c:	0320f809 	jalr	t9
  4184a0:	24e7ec90 	addiu	a3,a3,-4976
--
  4184b0:	02002021 	move	a0,s0
  4184b4:	3c050042 	lui	a1,0x42
  4184b8:	8f99809c 	lw	t9,-32612(gp)
  4184bc:	0320f809 	jalr	t9
  4184c0:	24a5fde8 	addiu	a1,a1,-536
  4184c4:	8fbc0028 	lw	gp,40(sp)
  4184c8:	14400022 	bnez	v0,418554 <_ftext@@Base+0x174f4>
  4184cc:	3c020043 	lui	v0,0x43
  4184d0:	afa00130 	sw	zero,304(sp)
  4184d4:	3c040042 	lui	a0,0x42
  4184d8:	2484fe9c 	addiu	a0,a0,-356
  4184dc:	3c050042 	lui	a1,0x42
  4184e0:	24a5fdf8 	addiu	a1,a1,-520
  4184e4:	8f998054 	lw	t9,-32684(gp)
  4184e8:	0320f809 	jalr	t9
  4184ec:	27a60130 	addiu	a2,sp,304
  4184f0:	8fbc0028 	lw	gp,40(sp)
  4184f4:	8fa20130 	lw	v0,304(sp)
  4184f8:	1040000c 	beqz	v0,41852c <_ftext@@Base+0x174cc>
  4184fc:	02202021 	move	a0,s1
  418500:	3c050042 	lui	a1,0x42
  418504:	24a5016c 	addiu	a1,a1,364
  418508:	3c060042 	lui	a2,0x42
  41850c:	24c6fde8 	addiu	a2,a2,-536
  418510:	3c070042 	lui	a3,0x42
[31m  418514:	8f9980e8 	lw	t9,fprintf[0m
  418518:	0320f809 	jalr	t9
  41851c:	24e7ec9c 	addiu	a3,a3,-4964
  418520:	8fbc0028 	lw	gp,40(sp)
  418524:	1000000b 	b	418554 <_ftext@@Base+0x174f4>
  418528:	3c020043 	lui	v0,0x43
  41852c:	3c050042 	lui	a1,0x42
  418530:	24a5016c 	addiu	a1,a1,364
  418534:	3c060042 	lui	a2,0x42
  418538:	24c6fde8 	addiu	a2,a2,-536
  41853c:	3c070042 	lui	a3,0x42
[31m  418540:	8f9980e8 	lw	t9,fprintf[0m
  418544:	0320f809 	jalr	t9
  418548:	24e7ec90 	addiu	a3,a3,-4976
--
  418574:	02002021 	move	a0,s0
  418578:	3c050042 	lui	a1,0x42
  41857c:	8f99809c 	lw	t9,-32612(gp)
  418580:	0320f809 	jalr	t9
  418584:	24a5fe08 	addiu	a1,a1,-504
  418588:	8fbc0028 	lw	gp,40(sp)
  41858c:	14400024 	bnez	v0,418620 <_ftext@@Base+0x175c0>
  418590:	02002021 	move	a0,s0
  418594:	afa00130 	sw	zero,304(sp)
  418598:	3c040042 	lui	a0,0x42
  41859c:	2484fe9c 	addiu	a0,a0,-356
  4185a0:	3c050042 	lui	a1,0x42
  4185a4:	24a5fe18 	addiu	a1,a1,-488
  4185a8:	8f998054 	lw	t9,-32684(gp)
  4185ac:	0320f809 	jalr	t9
  4185b0:	27a60130 	addiu	a2,sp,304
  4185b4:	8fbc0028 	lw	gp,40(sp)
  4185b8:	8fa20130 	lw	v0,304(sp)
  4185bc:	1040000c 	beqz	v0,4185f0 <_ftext@@Base+0x17590>
  4185c0:	02202021 	move	a0,s1
  4185c4:	3c050042 	lui	a1,0x42
  4185c8:	24a5016c 	addiu	a1,a1,364
  4185cc:	3c060042 	lui	a2,0x42
  4185d0:	24c6fe08 	addiu	a2,a2,-504
  4185d4:	3c070042 	lui	a3,0x42
[31m  4185d8:	8f9980e8 	lw	t9,fprintf[0m
  4185dc:	0320f809 	jalr	t9
  4185e0:	24e7ec9c 	addiu	a3,a3,-4964
  4185e4:	8fbc0028 	lw	gp,40(sp)
  4185e8:	1000000a 	b	418614 <_ftext@@Base+0x175b4>
  4185ec:	00000000 	nop
  4185f0:	3c050042 	lui	a1,0x42
  4185f4:	24a5016c 	addiu	a1,a1,364
  4185f8:	3c060042 	lui	a2,0x42
  4185fc:	24c6fe08 	addiu	a2,a2,-504
  418600:	3c070042 	lui	a3,0x42
[31m  418604:	8f9980e8 	lw	t9,fprintf[0m
  418608:	0320f809 	jalr	t9
  41860c:	24e7ec90 	addiu	a3,a3,-4976
--
  41861c:	02002021 	move	a0,s0
  418620:	3c050042 	lui	a1,0x42
  418624:	8f99809c 	lw	t9,-32612(gp)
  418628:	0320f809 	jalr	t9
  41862c:	24a5fe28 	addiu	a1,a1,-472
  418630:	8fbc0028 	lw	gp,40(sp)
  418634:	14400024 	bnez	v0,4186c8 <_ftext@@Base+0x17668>
  418638:	02002021 	move	a0,s0
  41863c:	afa00130 	sw	zero,304(sp)
  418640:	3c040042 	lui	a0,0x42
  418644:	2484fe9c 	addiu	a0,a0,-356
  418648:	3c050042 	lui	a1,0x42
  41864c:	24a5fe28 	addiu	a1,a1,-472
  418650:	8f998054 	lw	t9,-32684(gp)
  418654:	0320f809 	jalr	t9
  418658:	27a60130 	addiu	a2,sp,304
  41865c:	8fbc0028 	lw	gp,40(sp)
  418660:	8fa20130 	lw	v0,304(sp)
  418664:	1040000c 	beqz	v0,418698 <_ftext@@Base+0x17638>
  418668:	02202021 	move	a0,s1
  41866c:	3c050042 	lui	a1,0x42
  418670:	24a5016c 	addiu	a1,a1,364
  418674:	3c060042 	lui	a2,0x42
  418678:	24c6fe28 	addiu	a2,a2,-472
  41867c:	3c070042 	lui	a3,0x42
[31m  418680:	8f9980e8 	lw	t9,fprintf[0m
  418684:	0320f809 	jalr	t9
  418688:	24e7ec9c 	addiu	a3,a3,-4964
  41868c:	8fbc0028 	lw	gp,40(sp)
  418690:	1000000a 	b	4186bc <_ftext@@Base+0x1765c>
  418694:	00000000 	nop
  418698:	3c050042 	lui	a1,0x42
  41869c:	24a5016c 	addiu	a1,a1,364
  4186a0:	3c060042 	lui	a2,0x42
  4186a4:	24c6fe28 	addiu	a2,a2,-472
  4186a8:	3c070042 	lui	a3,0x42
[31m  4186ac:	8f9980e8 	lw	t9,fprintf[0m
  4186b0:	0320f809 	jalr	t9
  4186b4:	24e7ec90 	addiu	a3,a3,-4976
--
  4186c4:	02002021 	move	a0,s0
  4186c8:	3c050042 	lui	a1,0x42
  4186cc:	8f99809c 	lw	t9,-32612(gp)
  4186d0:	0320f809 	jalr	t9
  4186d4:	24a5fe34 	addiu	a1,a1,-460
  4186d8:	8fbc0028 	lw	gp,40(sp)
  4186dc:	14400024 	bnez	v0,418770 <_ftext@@Base+0x17710>
  4186e0:	02002021 	move	a0,s0
  4186e4:	afa00130 	sw	zero,304(sp)
  4186e8:	3c040042 	lui	a0,0x42
  4186ec:	2484fe9c 	addiu	a0,a0,-356
  4186f0:	3c050042 	lui	a1,0x42
  4186f4:	24a5fe34 	addiu	a1,a1,-460
  4186f8:	8f998054 	lw	t9,-32684(gp)
  4186fc:	0320f809 	jalr	t9
  418700:	27a60130 	addiu	a2,sp,304
  418704:	8fbc0028 	lw	gp,40(sp)
  418708:	8fa20130 	lw	v0,304(sp)
  41870c:	1040000c 	beqz	v0,418740 <_ftext@@Base+0x176e0>
  418710:	02202021 	move	a0,s1
  418714:	3c050042 	lui	a1,0x42
  418718:	24a5016c 	addiu	a1,a1,364
  41871c:	3c060042 	lui	a2,0x42
  418720:	24c6fe34 	addiu	a2,a2,-460
  418724:	3c070042 	lui	a3,0x42
[31m  418728:	8f9980e8 	lw	t9,fprintf[0m
  41872c:	0320f809 	jalr	t9
  418730:	24e7ec9c 	addiu	a3,a3,-4964
  418734:	8fbc0028 	lw	gp,40(sp)
  418738:	1000000a 	b	418764 <_ftext@@Base+0x17704>
  41873c:	00000000 	nop
  418740:	3c050042 	lui	a1,0x42
  418744:	24a5016c 	addiu	a1,a1,364
  418748:	3c060042 	lui	a2,0x42
  41874c:	24c6fe34 	addiu	a2,a2,-460
  418750:	3c070042 	lui	a3,0x42
[31m  418754:	8f9980e8 	lw	t9,fprintf[0m
  418758:	0320f809 	jalr	t9
  41875c:	24e7ec90 	addiu	a3,a3,-4976
--
  41876c:	02002021 	move	a0,s0
  418770:	3c050042 	lui	a1,0x42
  418774:	8f99809c 	lw	t9,-32612(gp)
  418778:	0320f809 	jalr	t9
  41877c:	24a5fe40 	addiu	a1,a1,-448
  418780:	8fbc0028 	lw	gp,40(sp)
  418784:	14400025 	bnez	v0,41881c <_ftext@@Base+0x177bc>
  418788:	02002021 	move	a0,s0
  41878c:	afa00130 	sw	zero,304(sp)
  418790:	3c040042 	lui	a0,0x42
  418794:	2484fe9c 	addiu	a0,a0,-356
  418798:	3c050042 	lui	a1,0x42
  41879c:	24a5fe40 	addiu	a1,a1,-448
  4187a0:	8f998054 	lw	t9,-32684(gp)
  4187a4:	0320f809 	jalr	t9
  4187a8:	27a60130 	addiu	a2,sp,304
  4187ac:	8fbc0028 	lw	gp,40(sp)
  4187b0:	8fa20130 	lw	v0,304(sp)
  4187b4:	1040000c 	beqz	v0,4187e8 <_ftext@@Base+0x17788>
  4187b8:	02202021 	move	a0,s1
  4187bc:	3c050042 	lui	a1,0x42
  4187c0:	24a5016c 	addiu	a1,a1,364
  4187c4:	3c060042 	lui	a2,0x42
  4187c8:	24c6fe40 	addiu	a2,a2,-448
  4187cc:	3c070042 	lui	a3,0x42
[31m  4187d0:	8f9980e8 	lw	t9,fprintf[0m
  4187d4:	0320f809 	jalr	t9
  4187d8:	24e7ec9c 	addiu	a3,a3,-4964
  4187dc:	8fbc0028 	lw	gp,40(sp)
  4187e0:	1000000a 	b	41880c <_ftext@@Base+0x177ac>
  4187e4:	00000000 	nop
  4187e8:	3c050042 	lui	a1,0x42
  4187ec:	24a5016c 	addiu	a1,a1,364
  4187f0:	3c060042 	lui	a2,0x42
  4187f4:	24c6fe40 	addiu	a2,a2,-448
  4187f8:	3c070042 	lui	a3,0x42
[31m  4187fc:	8f9980e8 	lw	t9,fprintf[0m
  418800:	0320f809 	jalr	t9
  418804:	24e7ec90 	addiu	a3,a3,-4976
--
  418820:	8f99809c 	lw	t9,-32612(gp)
  418824:	0320f809 	jalr	t9
  418828:	24a5eb08 	addiu	a1,a1,-5368
  41882c:	8fbc0028 	lw	gp,40(sp)
  418830:	14400b3c 	bnez	v0,41b524 <_ftext@@Base+0x1a4c4>
  418834:	3c020043 	lui	v0,0x43
  418838:	90421d24 	lbu	v0,7460(v0)
  41883c:	10400b39 	beqz	v0,41b524 <_ftext@@Base+0x1a4c4>
  418840:	3c040042 	lui	a0,0x42
  418844:	afa00130 	sw	zero,304(sp)
  418848:	2484fe9c 	addiu	a0,a0,-356
  41884c:	3c050042 	lui	a1,0x42
  418850:	24a5eb08 	addiu	a1,a1,-5368
  418854:	8f998054 	lw	t9,-32684(gp)
  418858:	0320f809 	jalr	t9
  41885c:	27a60130 	addiu	a2,sp,304
  418860:	8fbc0028 	lw	gp,40(sp)
  418864:	8fa20130 	lw	v0,304(sp)
  418868:	1040000b 	beqz	v0,418898 <_ftext@@Base+0x17838>
  41886c:	02202021 	move	a0,s1
  418870:	3c050042 	lui	a1,0x42
  418874:	24a5016c 	addiu	a1,a1,364
  418878:	3c060042 	lui	a2,0x42
  41887c:	24c6eb08 	addiu	a2,a2,-5368
  418880:	3c070042 	lui	a3,0x42
[31m  418884:	8f9980e8 	lw	t9,fprintf[0m
  418888:	0320f809 	jalr	t9
  41888c:	24e7ec9c 	addiu	a3,a3,-4964
  418890:	10000b24 	b	41b524 <_ftext@@Base+0x1a4c4>
  418894:	00000000 	nop
  418898:	3c050042 	lui	a1,0x42
  41889c:	24a5016c 	addiu	a1,a1,364
  4188a0:	3c060042 	lui	a2,0x42
  4188a4:	24c6eb08 	addiu	a2,a2,-5368
  4188a8:	3c070042 	lui	a3,0x42
[31m  4188ac:	8f9980e8 	lw	t9,fprintf[0m
  4188b0:	0320f809 	jalr	t9
  4188b4:	24e7ec90 	addiu	a3,a3,-4976
--
  418938:	02002021 	move	a0,s0
  41893c:	3c050042 	lui	a1,0x42
  418940:	8f99809c 	lw	t9,-32612(gp)
  418944:	0320f809 	jalr	t9
  418948:	24a5ec88 	addiu	a1,a1,-4984
  41894c:	8fbc0028 	lw	gp,40(sp)
  418950:	14400024 	bnez	v0,4189e4 <_ftext@@Base+0x17984>
  418954:	02002021 	move	a0,s0
  418958:	afa00130 	sw	zero,304(sp)
  41895c:	3c040042 	lui	a0,0x42
  418960:	2484fee8 	addiu	a0,a0,-280
  418964:	3c050042 	lui	a1,0x42
  418968:	24a5ec94 	addiu	a1,a1,-4972
  41896c:	8f998054 	lw	t9,-32684(gp)
  418970:	0320f809 	jalr	t9
  418974:	27a60130 	addiu	a2,sp,304
  418978:	8fbc0028 	lw	gp,40(sp)
  41897c:	8fa20130 	lw	v0,304(sp)
  418980:	1040000c 	beqz	v0,4189b4 <_ftext@@Base+0x17954>
  418984:	02202021 	move	a0,s1
  418988:	3c050042 	lui	a1,0x42
  41898c:	24a5016c 	addiu	a1,a1,364
  418990:	3c060042 	lui	a2,0x42
  418994:	24c6ec88 	addiu	a2,a2,-4984
  418998:	3c070042 	lui	a3,0x42
[31m  41899c:	8f9980e8 	lw	t9,fprintf[0m
  4189a0:	0320f809 	jalr	t9
  4189a4:	24e7ec9c 	addiu	a3,a3,-4964
  4189a8:	8fbc0028 	lw	gp,40(sp)
  4189ac:	1000000a 	b	4189d8 <_ftext@@Base+0x17978>
  4189b0:	00000000 	nop
  4189b4:	3c050042 	lui	a1,0x42
  4189b8:	24a5016c 	addiu	a1,a1,364
  4189bc:	3c060042 	lui	a2,0x42
  4189c0:	24c6ec88 	addiu	a2,a2,-4984
  4189c4:	3c070042 	lui	a3,0x42
[31m  4189c8:	8f9980e8 	lw	t9,fprintf[0m
  4189cc:	0320f809 	jalr	t9
  4189d0:	24e7ec90 	addiu	a3,a3,-4976
--
  4189e8:	8f99809c 	lw	t9,-32612(gp)
  4189ec:	0320f809 	jalr	t9
  4189f0:	24a5fdbc 	addiu	a1,a1,-580
  4189f4:	8fbc0028 	lw	gp,40(sp)
  4189f8:	1440001b 	bnez	v0,418a68 <_ftext@@Base+0x17a08>
  4189fc:	02002021 	move	a0,s0
  418a00:	27b40030 	addiu	s4,sp,48
  418a04:	02802021 	move	a0,s4
  418a08:	00002821 	move	a1,zero
  418a0c:	8f9980ac 	lw	t9,-32596(gp)
  418a10:	0320f809 	jalr	t9
  418a14:	24060100 	li	a2,256
  418a18:	8fbc0028 	lw	gp,40(sp)
  418a1c:	3c040042 	lui	a0,0x42
  418a20:	2484fee8 	addiu	a0,a0,-280
  418a24:	3c130042 	lui	s3,0x42
  418a28:	2665fdbc 	addiu	a1,s3,-580
  418a2c:	8f998054 	lw	t9,-32684(gp)
  418a30:	0320f809 	jalr	t9
  418a34:	02803021 	move	a2,s4
  418a38:	8fbc0028 	lw	gp,40(sp)
  418a3c:	02202021 	move	a0,s1
  418a40:	3c050042 	lui	a1,0x42
  418a44:	24a5016c 	addiu	a1,a1,364
  418a48:	2666fdbc 	addiu	a2,s3,-580
[31m  418a4c:	8f9980e8 	lw	t9,fprintf[0m
  418a50:	0320f809 	jalr	t9
  418a54:	02803821 	move	a3,s4
  418a58:	8fbc0028 	lw	gp,40(sp)
  418a5c:	92420000 	lbu	v0,0(s2)
  418a60:	10400008 	beqz	v0,418a84 <_ftext@@Base+0x17a24>
  418a64:	02002021 	move	a0,s0
  418a68:	3c050042 	lui	a1,0x42
  418a6c:	8f99809c 	lw	t9,-32612(gp)
  418a70:	0320f809 	jalr	t9
  418a74:	24a5fdcc 	addiu	a1,a1,-564
  418a78:	8fbc0028 	lw	gp,40(sp)
  418a7c:	14400015 	bnez	v0,418ad4 <_ftext@@Base+0x17a74>
  418a80:	02002021 	move	a0,s0
  418a84:	afa00130 	sw	zero,304(sp)
  418a88:	3c040042 	lui	a0,0x42
  418a8c:	2484fee8 	addiu	a0,a0,-280
  418a90:	3c130042 	lui	s3,0x42
  418a94:	2665fdcc 	addiu	a1,s3,-564
  418a98:	8f998054 	lw	t9,-32684(gp)
  418a9c:	0320f809 	jalr	t9
  418aa0:	27a60130 	addiu	a2,sp,304
  418aa4:	8fbc0028 	lw	gp,40(sp)
  418aa8:	02202021 	move	a0,s1
  418aac:	3c050042 	lui	a1,0x42
  418ab0:	24a501f4 	addiu	a1,a1,500
  418ab4:	8fa70130 	lw	a3,304(sp)
[31m  418ab8:	8f9980e8 	lw	t9,fprintf[0m
  418abc:	0320f809 	jalr	t9
  418ac0:	2666fdcc 	addiu	a2,s3,-564
--
  418adc:	0320f809 	jalr	t9
  418ae0:	24a5fdd8 	addiu	a1,a1,-552
  418ae4:	8fbc0028 	lw	gp,40(sp)
  418ae8:	1440001d 	bnez	v0,418b60 <_ftext@@Base+0x17b00>
  418aec:	02002021 	move	a0,s0
  418af0:	27b30030 	addiu	s3,sp,48
  418af4:	02602021 	move	a0,s3
  418af8:	00002821 	move	a1,zero
  418afc:	8f9980ac 	lw	t9,-32596(gp)
  418b00:	0320f809 	jalr	t9
  418b04:	24060100 	li	a2,256
  418b08:	8fbc0028 	lw	gp,40(sp)
  418b0c:	3c040042 	lui	a0,0x42
  418b10:	2484fee8 	addiu	a0,a0,-280
  418b14:	3c050042 	lui	a1,0x42
  418b18:	24a5fde0 	addiu	a1,a1,-544
  418b1c:	8f998054 	lw	t9,-32684(gp)
  418b20:	0320f809 	jalr	t9
  418b24:	02603021 	move	a2,s3
  418b28:	8fbc0028 	lw	gp,40(sp)
  418b2c:	02202021 	move	a0,s1
  418b30:	3c050042 	lui	a1,0x42
  418b34:	24a5016c 	addiu	a1,a1,364
  418b38:	3c060042 	lui	a2,0x42
  418b3c:	24c6fdd8 	addiu	a2,a2,-552
[31m  418b40:	8f9980e8 	lw	t9,fprintf[0m
  418b44:	0320f809 	jalr	t9
  418b48:	02603821 	move	a3,s3
--
  418b68:	0320f809 	jalr	t9
  418b6c:	24a5eaa0 	addiu	a1,a1,-5472
  418b70:	8fbc0028 	lw	gp,40(sp)
  418b74:	14400027 	bnez	v0,418c14 <_ftext@@Base+0x17bb4>
  418b78:	02002021 	move	a0,s0
  418b7c:	3c020043 	lui	v0,0x43
  418b80:	8c421d10 	lw	v0,7440(v0)
  418b84:	18400020 	blez	v0,418c08 <_ftext@@Base+0x17ba8>
  418b88:	3c040042 	lui	a0,0x42
  418b8c:	afa00130 	sw	zero,304(sp)
  418b90:	2484fee8 	addiu	a0,a0,-280
  418b94:	3c050042 	lui	a1,0x42
  418b98:	24a5eaa0 	addiu	a1,a1,-5472
  418b9c:	8f998054 	lw	t9,-32684(gp)
  418ba0:	0320f809 	jalr	t9
  418ba4:	27a60130 	addiu	a2,sp,304
  418ba8:	8fbc0028 	lw	gp,40(sp)
  418bac:	8fa20130 	lw	v0,304(sp)
  418bb0:	1040000c 	beqz	v0,418be4 <_ftext@@Base+0x17b84>
  418bb4:	02202021 	move	a0,s1
  418bb8:	3c050042 	lui	a1,0x42
  418bbc:	24a5016c 	addiu	a1,a1,364
  418bc0:	3c060042 	lui	a2,0x42
  418bc4:	24c6eaa0 	addiu	a2,a2,-5472
  418bc8:	3c070042 	lui	a3,0x42
[31m  418bcc:	8f9980e8 	lw	t9,fprintf[0m
  418bd0:	0320f809 	jalr	t9
  418bd4:	24e7ec9c 	addiu	a3,a3,-4964
  418bd8:	8fbc0028 	lw	gp,40(sp)
  418bdc:	1000000a 	b	418c08 <_ftext@@Base+0x17ba8>
  418be0:	00000000 	nop
  418be4:	3c050042 	lui	a1,0x42
  418be8:	24a5016c 	addiu	a1,a1,364
  418bec:	3c060042 	lui	a2,0x42
  418bf0:	24c6eaa0 	addiu	a2,a2,-5472
  418bf4:	3c070042 	lui	a3,0x42
[31m  418bf8:	8f9980e8 	lw	t9,fprintf[0m
  418bfc:	0320f809 	jalr	t9
  418c00:	24e7ec90 	addiu	a3,a3,-4976
--
  418c10:	02002021 	move	a0,s0
  418c14:	3c050042 	lui	a1,0x42
  418c18:	8f99809c 	lw	t9,-32612(gp)
  418c1c:	0320f809 	jalr	t9
  418c20:	24a5fde8 	addiu	a1,a1,-536
  418c24:	8fbc0028 	lw	gp,40(sp)
  418c28:	14400022 	bnez	v0,418cb4 <_ftext@@Base+0x17c54>
  418c2c:	3c020043 	lui	v0,0x43
  418c30:	afa00130 	sw	zero,304(sp)
  418c34:	3c040042 	lui	a0,0x42
  418c38:	2484fee8 	addiu	a0,a0,-280
  418c3c:	3c050042 	lui	a1,0x42
  418c40:	24a5fdf8 	addiu	a1,a1,-520
  418c44:	8f998054 	lw	t9,-32684(gp)
  418c48:	0320f809 	jalr	t9
  418c4c:	27a60130 	addiu	a2,sp,304
  418c50:	8fbc0028 	lw	gp,40(sp)
  418c54:	8fa20130 	lw	v0,304(sp)
  418c58:	1040000c 	beqz	v0,418c8c <_ftext@@Base+0x17c2c>
  418c5c:	02202021 	move	a0,s1
  418c60:	3c050042 	lui	a1,0x42
  418c64:	24a5016c 	addiu	a1,a1,364
  418c68:	3c060042 	lui	a2,0x42
  418c6c:	24c6fde8 	addiu	a2,a2,-536
  418c70:	3c070042 	lui	a3,0x42
[31m  418c74:	8f9980e8 	lw	t9,fprintf[0m
  418c78:	0320f809 	jalr	t9
  418c7c:	24e7ec9c 	addiu	a3,a3,-4964
  418c80:	8fbc0028 	lw	gp,40(sp)
  418c84:	1000000b 	b	418cb4 <_ftext@@Base+0x17c54>
  418c88:	3c020043 	lui	v0,0x43
  418c8c:	3c050042 	lui	a1,0x42
  418c90:	24a5016c 	addiu	a1,a1,364
  418c94:	3c060042 	lui	a2,0x42
  418c98:	24c6fde8 	addiu	a2,a2,-536
  418c9c:	3c070042 	lui	a3,0x42
[31m  418ca0:	8f9980e8 	lw	t9,fprintf[0m
  418ca4:	0320f809 	jalr	t9
  418ca8:	24e7ec90 	addiu	a3,a3,-4976
--
  418cd4:	02002021 	move	a0,s0
  418cd8:	3c050042 	lui	a1,0x42
  418cdc:	8f99809c 	lw	t9,-32612(gp)
  418ce0:	0320f809 	jalr	t9
  418ce4:	24a5fe08 	addiu	a1,a1,-504
  418ce8:	8fbc0028 	lw	gp,40(sp)
  418cec:	14400024 	bnez	v0,418d80 <_ftext@@Base+0x17d20>
  418cf0:	02002021 	move	a0,s0
  418cf4:	afa00130 	sw	zero,304(sp)
  418cf8:	3c040042 	lui	a0,0x42
  418cfc:	2484fee8 	addiu	a0,a0,-280
  418d00:	3c050042 	lui	a1,0x42
  418d04:	24a5fe18 	addiu	a1,a1,-488
  418d08:	8f998054 	lw	t9,-32684(gp)
  418d0c:	0320f809 	jalr	t9
  418d10:	27a60130 	addiu	a2,sp,304
  418d14:	8fbc0028 	lw	gp,40(sp)
  418d18:	8fa20130 	lw	v0,304(sp)
  418d1c:	1040000c 	beqz	v0,418d50 <_ftext@@Base+0x17cf0>
  418d20:	02202021 	move	a0,s1
  418d24:	3c050042 	lui	a1,0x42
  418d28:	24a5016c 	addiu	a1,a1,364
  418d2c:	3c060042 	lui	a2,0x42
  418d30:	24c6fe08 	addiu	a2,a2,-504
  418d34:	3c070042 	lui	a3,0x42
[31m  418d38:	8f9980e8 	lw	t9,fprintf[0m
  418d3c:	0320f809 	jalr	t9
  418d40:	24e7ec9c 	addiu	a3,a3,-4964
  418d44:	8fbc0028 	lw	gp,40(sp)
  418d48:	1000000a 	b	418d74 <_ftext@@Base+0x17d14>
  418d4c:	00000000 	nop
  418d50:	3c050042 	lui	a1,0x42
  418d54:	24a5016c 	addiu	a1,a1,364
  418d58:	3c060042 	lui	a2,0x42
  418d5c:	24c6fe08 	addiu	a2,a2,-504
  418d60:	3c070042 	lui	a3,0x42
[31m  418d64:	8f9980e8 	lw	t9,fprintf[0m
  418d68:	0320f809 	jalr	t9
  418d6c:	24e7ec90 	addiu	a3,a3,-4976
--
  418d7c:	02002021 	move	a0,s0
  418d80:	3c050042 	lui	a1,0x42
  418d84:	8f99809c 	lw	t9,-32612(gp)
  418d88:	0320f809 	jalr	t9
  418d8c:	24a5fe28 	addiu	a1,a1,-472
  418d90:	8fbc0028 	lw	gp,40(sp)
  418d94:	14400024 	bnez	v0,418e28 <_ftext@@Base+0x17dc8>
  418d98:	02002021 	move	a0,s0
  418d9c:	afa00130 	sw	zero,304(sp)
  418da0:	3c040042 	lui	a0,0x42
  418da4:	2484fee8 	addiu	a0,a0,-280
  418da8:	3c050042 	lui	a1,0x42
  418dac:	24a5fe28 	addiu	a1,a1,-472
  418db0:	8f998054 	lw	t9,-32684(gp)
  418db4:	0320f809 	jalr	t9
  418db8:	27a60130 	addiu	a2,sp,304
  418dbc:	8fbc0028 	lw	gp,40(sp)
  418dc0:	8fa20130 	lw	v0,304(sp)
  418dc4:	1040000c 	beqz	v0,418df8 <_ftext@@Base+0x17d98>
  418dc8:	02202021 	move	a0,s1
  418dcc:	3c050042 	lui	a1,0x42
  418dd0:	24a5016c 	addiu	a1,a1,364
  418dd4:	3c060042 	lui	a2,0x42
  418dd8:	24c6fe28 	addiu	a2,a2,-472
  418ddc:	3c070042 	lui	a3,0x42
[31m  418de0:	8f9980e8 	lw	t9,fprintf[0m
  418de4:	0320f809 	jalr	t9
  418de8:	24e7ec9c 	addiu	a3,a3,-4964
  418dec:	8fbc0028 	lw	gp,40(sp)
  418df0:	1000000a 	b	418e1c <_ftext@@Base+0x17dbc>
  418df4:	00000000 	nop
  418df8:	3c050042 	lui	a1,0x42
  418dfc:	24a5016c 	addiu	a1,a1,364
  418e00:	3c060042 	lui	a2,0x42
  418e04:	24c6fe28 	addiu	a2,a2,-472
  418e08:	3c070042 	lui	a3,0x42
[31m  418e0c:	8f9980e8 	lw	t9,fprintf[0m
  418e10:	0320f809 	jalr	t9
  418e14:	24e7ec90 	addiu	a3,a3,-4976
--
  418e24:	02002021 	move	a0,s0
  418e28:	3c050042 	lui	a1,0x42
  418e2c:	8f99809c 	lw	t9,-32612(gp)
  418e30:	0320f809 	jalr	t9
  418e34:	24a5fe34 	addiu	a1,a1,-460
  418e38:	8fbc0028 	lw	gp,40(sp)
  418e3c:	14400024 	bnez	v0,418ed0 <_ftext@@Base+0x17e70>
  418e40:	02002021 	move	a0,s0
  418e44:	afa00130 	sw	zero,304(sp)
  418e48:	3c040042 	lui	a0,0x42
  418e4c:	2484fee8 	addiu	a0,a0,-280
  418e50:	3c050042 	lui	a1,0x42
  418e54:	24a5fe34 	addiu	a1,a1,-460
  418e58:	8f998054 	lw	t9,-32684(gp)
  418e5c:	0320f809 	jalr	t9
  418e60:	27a60130 	addiu	a2,sp,304
  418e64:	8fbc0028 	lw	gp,40(sp)
  418e68:	8fa20130 	lw	v0,304(sp)
  418e6c:	1040000c 	beqz	v0,418ea0 <_ftext@@Base+0x17e40>
  418e70:	02202021 	move	a0,s1
  418e74:	3c050042 	lui	a1,0x42
  418e78:	24a5016c 	addiu	a1,a1,364
  418e7c:	3c060042 	lui	a2,0x42
  418e80:	24c6fe34 	addiu	a2,a2,-460
  418e84:	3c070042 	lui	a3,0x42
[31m  418e88:	8f9980e8 	lw	t9,fprintf[0m
  418e8c:	0320f809 	jalr	t9
  418e90:	24e7ec9c 	addiu	a3,a3,-4964
  418e94:	8fbc0028 	lw	gp,40(sp)
  418e98:	1000000a 	b	418ec4 <_ftext@@Base+0x17e64>
  418e9c:	00000000 	nop
  418ea0:	3c050042 	lui	a1,0x42
  418ea4:	24a5016c 	addiu	a1,a1,364
  418ea8:	3c060042 	lui	a2,0x42
  418eac:	24c6fe34 	addiu	a2,a2,-460
  418eb0:	3c070042 	lui	a3,0x42
[31m  418eb4:	8f9980e8 	lw	t9,fprintf[0m
  418eb8:	0320f809 	jalr	t9
  418ebc:	24e7ec90 	addiu	a3,a3,-4976
--
  418ecc:	02002021 	move	a0,s0
  418ed0:	3c050042 	lui	a1,0x42
  418ed4:	8f99809c 	lw	t9,-32612(gp)
  418ed8:	0320f809 	jalr	t9
  418edc:	24a5fe40 	addiu	a1,a1,-448
  418ee0:	8fbc0028 	lw	gp,40(sp)
  418ee4:	14400025 	bnez	v0,418f7c <_ftext@@Base+0x17f1c>
  418ee8:	02002021 	move	a0,s0
  418eec:	afa00130 	sw	zero,304(sp)
  418ef0:	3c040042 	lui	a0,0x42
  418ef4:	2484fee8 	addiu	a0,a0,-280
  418ef8:	3c050042 	lui	a1,0x42
  418efc:	24a5fe40 	addiu	a1,a1,-448
  418f00:	8f998054 	lw	t9,-32684(gp)
  418f04:	0320f809 	jalr	t9
  418f08:	27a60130 	addiu	a2,sp,304
  418f0c:	8fbc0028 	lw	gp,40(sp)
  418f10:	8fa20130 	lw	v0,304(sp)
  418f14:	1040000c 	beqz	v0,418f48 <_ftext@@Base+0x17ee8>
  418f18:	02202021 	move	a0,s1
  418f1c:	3c050042 	lui	a1,0x42
  418f20:	24a5016c 	addiu	a1,a1,364
  418f24:	3c060042 	lui	a2,0x42
  418f28:	24c6fe40 	addiu	a2,a2,-448
  418f2c:	3c070042 	lui	a3,0x42
[31m  418f30:	8f9980e8 	lw	t9,fprintf[0m
  418f34:	0320f809 	jalr	t9
  418f38:	24e7ec9c 	addiu	a3,a3,-4964
  418f3c:	8fbc0028 	lw	gp,40(sp)
  418f40:	1000000a 	b	418f6c <_ftext@@Base+0x17f0c>
  418f44:	00000000 	nop
  418f48:	3c050042 	lui	a1,0x42
  418f4c:	24a5016c 	addiu	a1,a1,364
  418f50:	3c060042 	lui	a2,0x42
  418f54:	24c6fe40 	addiu	a2,a2,-448
  418f58:	3c070042 	lui	a3,0x42
[31m  418f5c:	8f9980e8 	lw	t9,fprintf[0m
  418f60:	0320f809 	jalr	t9
  418f64:	24e7ec90 	addiu	a3,a3,-4976
--
  418f80:	8f99809c 	lw	t9,-32612(gp)
  418f84:	0320f809 	jalr	t9
  418f88:	24a5eb08 	addiu	a1,a1,-5368
  418f8c:	8fbc0028 	lw	gp,40(sp)
  418f90:	14400964 	bnez	v0,41b524 <_ftext@@Base+0x1a4c4>
  418f94:	3c020043 	lui	v0,0x43
  418f98:	90421d24 	lbu	v0,7460(v0)
  418f9c:	10400961 	beqz	v0,41b524 <_ftext@@Base+0x1a4c4>
  418fa0:	3c040042 	lui	a0,0x42
  418fa4:	afa00130 	sw	zero,304(sp)
  418fa8:	2484fee8 	addiu	a0,a0,-280
  418fac:	3c050042 	lui	a1,0x42
  418fb0:	24a5eb08 	addiu	a1,a1,-5368
  418fb4:	8f998054 	lw	t9,-32684(gp)
  418fb8:	0320f809 	jalr	t9
  418fbc:	27a60130 	addiu	a2,sp,304
  418fc0:	8fbc0028 	lw	gp,40(sp)
  418fc4:	8fa20130 	lw	v0,304(sp)
  418fc8:	1040000b 	beqz	v0,418ff8 <_ftext@@Base+0x17f98>
  418fcc:	02202021 	move	a0,s1
  418fd0:	3c050042 	lui	a1,0x42
  418fd4:	24a5016c 	addiu	a1,a1,364
  418fd8:	3c060042 	lui	a2,0x42
  418fdc:	24c6eb08 	addiu	a2,a2,-5368
  418fe0:	3c070042 	lui	a3,0x42
[31m  418fe4:	8f9980e8 	lw	t9,fprintf[0m
  418fe8:	0320f809 	jalr	t9
  418fec:	24e7ec9c 	addiu	a3,a3,-4964
  418ff0:	1000094c 	b	41b524 <_ftext@@Base+0x1a4c4>
  418ff4:	00000000 	nop
  418ff8:	3c050042 	lui	a1,0x42
  418ffc:	24a5016c 	addiu	a1,a1,364
  419000:	3c060042 	lui	a2,0x42
  419004:	24c6eb08 	addiu	a2,a2,-5368
  419008:	3c070042 	lui	a3,0x42
[31m  41900c:	8f9980e8 	lw	t9,fprintf[0m
  419010:	0320f809 	jalr	t9
  419014:	24e7ec90 	addiu	a3,a3,-4976
--
  419084:	02002021 	move	a0,s0
  419088:	3c050042 	lui	a1,0x42
  41908c:	8f99809c 	lw	t9,-32612(gp)
  419090:	0320f809 	jalr	t9
  419094:	24a5ec88 	addiu	a1,a1,-4984
  419098:	8fbc0028 	lw	gp,40(sp)
  41909c:	14400024 	bnez	v0,419130 <_ftext@@Base+0x180d0>
  4190a0:	02002021 	move	a0,s0
  4190a4:	afa00130 	sw	zero,304(sp)
  4190a8:	3c040042 	lui	a0,0x42
  4190ac:	2484ff18 	addiu	a0,a0,-232
  4190b0:	3c050042 	lui	a1,0x42
  4190b4:	24a5ec94 	addiu	a1,a1,-4972
  4190b8:	8f998054 	lw	t9,-32684(gp)
  4190bc:	0320f809 	jalr	t9
  4190c0:	27a60130 	addiu	a2,sp,304
  4190c4:	8fbc0028 	lw	gp,40(sp)
  4190c8:	8fa20130 	lw	v0,304(sp)
  4190cc:	1040000c 	beqz	v0,419100 <_ftext@@Base+0x180a0>
  4190d0:	02202021 	move	a0,s1
  4190d4:	3c050042 	lui	a1,0x42
  4190d8:	24a5016c 	addiu	a1,a1,364
  4190dc:	3c060042 	lui	a2,0x42
  4190e0:	24c6ec88 	addiu	a2,a2,-4984
  4190e4:	3c070042 	lui	a3,0x42
[31m  4190e8:	8f9980e8 	lw	t9,fprintf[0m
  4190ec:	0320f809 	jalr	t9
  4190f0:	24e7ec9c 	addiu	a3,a3,-4964
  4190f4:	8fbc0028 	lw	gp,40(sp)
  4190f8:	1000000a 	b	419124 <_ftext@@Base+0x180c4>
  4190fc:	00000000 	nop
  419100:	3c050042 	lui	a1,0x42
  419104:	24a5016c 	addiu	a1,a1,364
  419108:	3c060042 	lui	a2,0x42
  41910c:	24c6ec88 	addiu	a2,a2,-4984
  419110:	3c070042 	lui	a3,0x42
[31m  419114:	8f9980e8 	lw	t9,fprintf[0m
  419118:	0320f809 	jalr	t9
  41911c:	24e7ec90 	addiu	a3,a3,-4976
--
  41912c:	02002021 	move	a0,s0
  419130:	3c050042 	lui	a1,0x42
  419134:	8f99809c 	lw	t9,-32612(gp)
  419138:	0320f809 	jalr	t9
  41913c:	24a5eb94 	addiu	a1,a1,-5228
  419140:	8fbc0028 	lw	gp,40(sp)
  419144:	14400024 	bnez	v0,4191d8 <_ftext@@Base+0x18178>
  419148:	02002021 	move	a0,s0
  41914c:	afa00130 	sw	zero,304(sp)
  419150:	3c040042 	lui	a0,0x42
  419154:	2484ff18 	addiu	a0,a0,-232
  419158:	3c050042 	lui	a1,0x42
  41915c:	24a5eb94 	addiu	a1,a1,-5228
  419160:	8f998054 	lw	t9,-32684(gp)
  419164:	0320f809 	jalr	t9
  419168:	27a60130 	addiu	a2,sp,304
  41916c:	8fbc0028 	lw	gp,40(sp)
  419170:	8fa20130 	lw	v0,304(sp)
  419174:	1040000c 	beqz	v0,4191a8 <_ftext@@Base+0x18148>
  419178:	02202021 	move	a0,s1
  41917c:	3c050042 	lui	a1,0x42
  419180:	24a5016c 	addiu	a1,a1,364
  419184:	3c060042 	lui	a2,0x42
  419188:	24c6eb94 	addiu	a2,a2,-5228
  41918c:	3c070042 	lui	a3,0x42
[31m  419190:	8f9980e8 	lw	t9,fprintf[0m
  419194:	0320f809 	jalr	t9
  419198:	24e7ec9c 	addiu	a3,a3,-4964
  41919c:	8fbc0028 	lw	gp,40(sp)
  4191a0:	1000000a 	b	4191cc <_ftext@@Base+0x1816c>
  4191a4:	00000000 	nop
  4191a8:	3c050042 	lui	a1,0x42
  4191ac:	24a5016c 	addiu	a1,a1,364
  4191b0:	3c060042 	lui	a2,0x42
  4191b4:	24c6eb94 	addiu	a2,a2,-5228
  4191b8:	3c070042 	lui	a3,0x42
[31m  4191bc:	8f9980e8 	lw	t9,fprintf[0m
  4191c0:	0320f809 	jalr	t9
  4191c4:	24e7ec90 	addiu	a3,a3,-4976
--
  4191dc:	8f99809c 	lw	t9,-32612(gp)
  4191e0:	0320f809 	jalr	t9
  4191e4:	24a5fdbc 	addiu	a1,a1,-580
  4191e8:	8fbc0028 	lw	gp,40(sp)
  4191ec:	1440001b 	bnez	v0,41925c <_ftext@@Base+0x181fc>
  4191f0:	02002021 	move	a0,s0
  4191f4:	27b40030 	addiu	s4,sp,48
  4191f8:	02802021 	move	a0,s4
  4191fc:	00002821 	move	a1,zero
  419200:	8f9980ac 	lw	t9,-32596(gp)
  419204:	0320f809 	jalr	t9
  419208:	24060100 	li	a2,256
  41920c:	8fbc0028 	lw	gp,40(sp)
  419210:	3c040042 	lui	a0,0x42
  419214:	2484ff18 	addiu	a0,a0,-232
  419218:	3c130042 	lui	s3,0x42
  41921c:	2665fdbc 	addiu	a1,s3,-580
  419220:	8f998054 	lw	t9,-32684(gp)
  419224:	0320f809 	jalr	t9
  419228:	02803021 	move	a2,s4
  41922c:	8fbc0028 	lw	gp,40(sp)
  419230:	02202021 	move	a0,s1
  419234:	3c050042 	lui	a1,0x42
  419238:	24a5016c 	addiu	a1,a1,364
  41923c:	2666fdbc 	addiu	a2,s3,-580
[31m  419240:	8f9980e8 	lw	t9,fprintf[0m
  419244:	0320f809 	jalr	t9
  419248:	02803821 	move	a3,s4
  41924c:	8fbc0028 	lw	gp,40(sp)
  419250:	92420000 	lbu	v0,0(s2)
  419254:	10400008 	beqz	v0,419278 <_ftext@@Base+0x18218>
  419258:	02002021 	move	a0,s0
  41925c:	3c050042 	lui	a1,0x42
  419260:	8f99809c 	lw	t9,-32612(gp)
  419264:	0320f809 	jalr	t9
  419268:	24a5fdcc 	addiu	a1,a1,-564
  41926c:	8fbc0028 	lw	gp,40(sp)
  419270:	14400015 	bnez	v0,4192c8 <_ftext@@Base+0x18268>
  419274:	02002021 	move	a0,s0
  419278:	afa00130 	sw	zero,304(sp)
  41927c:	3c040042 	lui	a0,0x42
  419280:	2484ff18 	addiu	a0,a0,-232
  419284:	3c130042 	lui	s3,0x42
  419288:	2665fdcc 	addiu	a1,s3,-564
  41928c:	8f998054 	lw	t9,-32684(gp)
  419290:	0320f809 	jalr	t9
  419294:	27a60130 	addiu	a2,sp,304
  419298:	8fbc0028 	lw	gp,40(sp)
  41929c:	02202021 	move	a0,s1
  4192a0:	3c050042 	lui	a1,0x42
  4192a4:	24a501f4 	addiu	a1,a1,500
  4192a8:	8fa70130 	lw	a3,304(sp)
[31m  4192ac:	8f9980e8 	lw	t9,fprintf[0m
  4192b0:	0320f809 	jalr	t9
  4192b4:	2666fdcc 	addiu	a2,s3,-564
--
  4192d0:	0320f809 	jalr	t9
  4192d4:	24a5fdd8 	addiu	a1,a1,-552
  4192d8:	8fbc0028 	lw	gp,40(sp)
  4192dc:	1440001d 	bnez	v0,419354 <_ftext@@Base+0x182f4>
  4192e0:	02002021 	move	a0,s0
  4192e4:	27b30030 	addiu	s3,sp,48
  4192e8:	02602021 	move	a0,s3
  4192ec:	00002821 	move	a1,zero
  4192f0:	8f9980ac 	lw	t9,-32596(gp)
  4192f4:	0320f809 	jalr	t9
  4192f8:	24060100 	li	a2,256
  4192fc:	8fbc0028 	lw	gp,40(sp)
  419300:	3c040042 	lui	a0,0x42
  419304:	2484ff18 	addiu	a0,a0,-232
  419308:	3c050042 	lui	a1,0x42
  41930c:	24a5fde0 	addiu	a1,a1,-544
  419310:	8f998054 	lw	t9,-32684(gp)
  419314:	0320f809 	jalr	t9
  419318:	02603021 	move	a2,s3
  41931c:	8fbc0028 	lw	gp,40(sp)
  419320:	02202021 	move	a0,s1
  419324:	3c050042 	lui	a1,0x42
  419328:	24a5016c 	addiu	a1,a1,364
  41932c:	3c060042 	lui	a2,0x42
  419330:	24c6fdd8 	addiu	a2,a2,-552
[31m  419334:	8f9980e8 	lw	t9,fprintf[0m
  419338:	0320f809 	jalr	t9
  41933c:	02603821 	move	a3,s3
--
  41935c:	0320f809 	jalr	t9
  419360:	24a5eaa0 	addiu	a1,a1,-5472
  419364:	8fbc0028 	lw	gp,40(sp)
  419368:	14400027 	bnez	v0,419408 <_ftext@@Base+0x183a8>
  41936c:	02002021 	move	a0,s0
  419370:	3c020043 	lui	v0,0x43
  419374:	8c421d10 	lw	v0,7440(v0)
  419378:	18400020 	blez	v0,4193fc <_ftext@@Base+0x1839c>
  41937c:	3c040042 	lui	a0,0x42
  419380:	afa00130 	sw	zero,304(sp)
  419384:	2484ff18 	addiu	a0,a0,-232
  419388:	3c050042 	lui	a1,0x42
  41938c:	24a5eaa0 	addiu	a1,a1,-5472
  419390:	8f998054 	lw	t9,-32684(gp)
  419394:	0320f809 	jalr	t9
  419398:	27a60130 	addiu	a2,sp,304
  41939c:	8fbc0028 	lw	gp,40(sp)
  4193a0:	8fa20130 	lw	v0,304(sp)
  4193a4:	1040000c 	beqz	v0,4193d8 <_ftext@@Base+0x18378>
  4193a8:	02202021 	move	a0,s1
  4193ac:	3c050042 	lui	a1,0x42
  4193b0:	24a5016c 	addiu	a1,a1,364
  4193b4:	3c060042 	lui	a2,0x42
  4193b8:	24c6eaa0 	addiu	a2,a2,-5472
  4193bc:	3c070042 	lui	a3,0x42
[31m  4193c0:	8f9980e8 	lw	t9,fprintf[0m
  4193c4:	0320f809 	jalr	t9
  4193c8:	24e7ec9c 	addiu	a3,a3,-4964
  4193cc:	8fbc0028 	lw	gp,40(sp)
  4193d0:	1000000a 	b	4193fc <_ftext@@Base+0x1839c>
  4193d4:	00000000 	nop
  4193d8:	3c050042 	lui	a1,0x42
  4193dc:	24a5016c 	addiu	a1,a1,364
  4193e0:	3c060042 	lui	a2,0x42
  4193e4:	24c6eaa0 	addiu	a2,a2,-5472
  4193e8:	3c070042 	lui	a3,0x42
[31m  4193ec:	8f9980e8 	lw	t9,fprintf[0m
  4193f0:	0320f809 	jalr	t9
  4193f4:	24e7ec90 	addiu	a3,a3,-4976
--
  419404:	02002021 	move	a0,s0
  419408:	3c050042 	lui	a1,0x42
  41940c:	8f99809c 	lw	t9,-32612(gp)
  419410:	0320f809 	jalr	t9
  419414:	24a5fde8 	addiu	a1,a1,-536
  419418:	8fbc0028 	lw	gp,40(sp)
  41941c:	14400022 	bnez	v0,4194a8 <_ftext@@Base+0x18448>
  419420:	3c020043 	lui	v0,0x43
  419424:	afa00130 	sw	zero,304(sp)
  419428:	3c040042 	lui	a0,0x42
  41942c:	2484ff18 	addiu	a0,a0,-232
  419430:	3c050042 	lui	a1,0x42
  419434:	24a5fdf8 	addiu	a1,a1,-520
  419438:	8f998054 	lw	t9,-32684(gp)
  41943c:	0320f809 	jalr	t9
  419440:	27a60130 	addiu	a2,sp,304
  419444:	8fbc0028 	lw	gp,40(sp)
  419448:	8fa20130 	lw	v0,304(sp)
  41944c:	1040000c 	beqz	v0,419480 <_ftext@@Base+0x18420>
  419450:	02202021 	move	a0,s1
  419454:	3c050042 	lui	a1,0x42
  419458:	24a5016c 	addiu	a1,a1,364
  41945c:	3c060042 	lui	a2,0x42
  419460:	24c6fde8 	addiu	a2,a2,-536
  419464:	3c070042 	lui	a3,0x42
[31m  419468:	8f9980e8 	lw	t9,fprintf[0m
  41946c:	0320f809 	jalr	t9
  419470:	24e7ec9c 	addiu	a3,a3,-4964
  419474:	8fbc0028 	lw	gp,40(sp)
  419478:	1000000b 	b	4194a8 <_ftext@@Base+0x18448>
  41947c:	3c020043 	lui	v0,0x43
  419480:	3c050042 	lui	a1,0x42
  419484:	24a5016c 	addiu	a1,a1,364
  419488:	3c060042 	lui	a2,0x42
  41948c:	24c6fde8 	addiu	a2,a2,-536
  419490:	3c070042 	lui	a3,0x42
[31m  419494:	8f9980e8 	lw	t9,fprintf[0m
  419498:	0320f809 	jalr	t9
  41949c:	24e7ec90 	addiu	a3,a3,-4976
--
  4194c8:	02002021 	move	a0,s0
  4194cc:	3c050042 	lui	a1,0x42
  4194d0:	8f99809c 	lw	t9,-32612(gp)
  4194d4:	0320f809 	jalr	t9
  4194d8:	24a5fe08 	addiu	a1,a1,-504
  4194dc:	8fbc0028 	lw	gp,40(sp)
  4194e0:	14400024 	bnez	v0,419574 <_ftext@@Base+0x18514>
  4194e4:	02002021 	move	a0,s0
  4194e8:	afa00130 	sw	zero,304(sp)
  4194ec:	3c040042 	lui	a0,0x42
  4194f0:	2484ff18 	addiu	a0,a0,-232
  4194f4:	3c050042 	lui	a1,0x42
  4194f8:	24a5fe18 	addiu	a1,a1,-488
  4194fc:	8f998054 	lw	t9,-32684(gp)
  419500:	0320f809 	jalr	t9
  419504:	27a60130 	addiu	a2,sp,304
  419508:	8fbc0028 	lw	gp,40(sp)
  41950c:	8fa20130 	lw	v0,304(sp)
  419510:	1040000c 	beqz	v0,419544 <_ftext@@Base+0x184e4>
  419514:	02202021 	move	a0,s1
  419518:	3c050042 	lui	a1,0x42
  41951c:	24a5016c 	addiu	a1,a1,364
  419520:	3c060042 	lui	a2,0x42
  419524:	24c6fe08 	addiu	a2,a2,-504
  419528:	3c070042 	lui	a3,0x42
[31m  41952c:	8f9980e8 	lw	t9,fprintf[0m
  419530:	0320f809 	jalr	t9
  419534:	24e7ec9c 	addiu	a3,a3,-4964
  419538:	8fbc0028 	lw	gp,40(sp)
  41953c:	1000000a 	b	419568 <_ftext@@Base+0x18508>
  419540:	00000000 	nop
  419544:	3c050042 	lui	a1,0x42
  419548:	24a5016c 	addiu	a1,a1,364
  41954c:	3c060042 	lui	a2,0x42
  419550:	24c6fe08 	addiu	a2,a2,-504
  419554:	3c070042 	lui	a3,0x42
[31m  419558:	8f9980e8 	lw	t9,fprintf[0m
  41955c:	0320f809 	jalr	t9
  419560:	24e7ec90 	addiu	a3,a3,-4976
--
  419570:	02002021 	move	a0,s0
  419574:	3c050042 	lui	a1,0x42
  419578:	8f99809c 	lw	t9,-32612(gp)
  41957c:	0320f809 	jalr	t9
  419580:	24a5fe28 	addiu	a1,a1,-472
  419584:	8fbc0028 	lw	gp,40(sp)
  419588:	14400024 	bnez	v0,41961c <_ftext@@Base+0x185bc>
  41958c:	02002021 	move	a0,s0
  419590:	afa00130 	sw	zero,304(sp)
  419594:	3c040042 	lui	a0,0x42
  419598:	2484ff18 	addiu	a0,a0,-232
  41959c:	3c050042 	lui	a1,0x42
  4195a0:	24a5fe28 	addiu	a1,a1,-472
  4195a4:	8f998054 	lw	t9,-32684(gp)
  4195a8:	0320f809 	jalr	t9
  4195ac:	27a60130 	addiu	a2,sp,304
  4195b0:	8fbc0028 	lw	gp,40(sp)
  4195b4:	8fa20130 	lw	v0,304(sp)
  4195b8:	1040000c 	beqz	v0,4195ec <_ftext@@Base+0x1858c>
  4195bc:	02202021 	move	a0,s1
  4195c0:	3c050042 	lui	a1,0x42
  4195c4:	24a5016c 	addiu	a1,a1,364
  4195c8:	3c060042 	lui	a2,0x42
  4195cc:	24c6fe28 	addiu	a2,a2,-472
  4195d0:	3c070042 	lui	a3,0x42
[31m  4195d4:	8f9980e8 	lw	t9,fprintf[0m
  4195d8:	0320f809 	jalr	t9
  4195dc:	24e7ec9c 	addiu	a3,a3,-4964
  4195e0:	8fbc0028 	lw	gp,40(sp)
  4195e4:	1000000a 	b	419610 <_ftext@@Base+0x185b0>
  4195e8:	00000000 	nop
  4195ec:	3c050042 	lui	a1,0x42
  4195f0:	24a5016c 	addiu	a1,a1,364
  4195f4:	3c060042 	lui	a2,0x42
  4195f8:	24c6fe28 	addiu	a2,a2,-472
  4195fc:	3c070042 	lui	a3,0x42
[31m  419600:	8f9980e8 	lw	t9,fprintf[0m
  419604:	0320f809 	jalr	t9
  419608:	24e7ec90 	addiu	a3,a3,-4976
--
  419618:	02002021 	move	a0,s0
  41961c:	3c050042 	lui	a1,0x42
  419620:	8f99809c 	lw	t9,-32612(gp)
  419624:	0320f809 	jalr	t9
  419628:	24a5fe34 	addiu	a1,a1,-460
  41962c:	8fbc0028 	lw	gp,40(sp)
  419630:	14400024 	bnez	v0,4196c4 <_ftext@@Base+0x18664>
  419634:	02002021 	move	a0,s0
  419638:	afa00130 	sw	zero,304(sp)
  41963c:	3c040042 	lui	a0,0x42
  419640:	2484ff18 	addiu	a0,a0,-232
  419644:	3c050042 	lui	a1,0x42
  419648:	24a5fe34 	addiu	a1,a1,-460
  41964c:	8f998054 	lw	t9,-32684(gp)
  419650:	0320f809 	jalr	t9
  419654:	27a60130 	addiu	a2,sp,304
  419658:	8fbc0028 	lw	gp,40(sp)
  41965c:	8fa20130 	lw	v0,304(sp)
  419660:	1040000c 	beqz	v0,419694 <_ftext@@Base+0x18634>
  419664:	02202021 	move	a0,s1
  419668:	3c050042 	lui	a1,0x42
  41966c:	24a5016c 	addiu	a1,a1,364
  419670:	3c060042 	lui	a2,0x42
  419674:	24c6fe34 	addiu	a2,a2,-460
  419678:	3c070042 	lui	a3,0x42
[31m  41967c:	8f9980e8 	lw	t9,fprintf[0m
  419680:	0320f809 	jalr	t9
  419684:	24e7ec9c 	addiu	a3,a3,-4964
  419688:	8fbc0028 	lw	gp,40(sp)
  41968c:	1000000a 	b	4196b8 <_ftext@@Base+0x18658>
  419690:	00000000 	nop
  419694:	3c050042 	lui	a1,0x42
  419698:	24a5016c 	addiu	a1,a1,364
  41969c:	3c060042 	lui	a2,0x42
  4196a0:	24c6fe34 	addiu	a2,a2,-460
  4196a4:	3c070042 	lui	a3,0x42
[31m  4196a8:	8f9980e8 	lw	t9,fprintf[0m
  4196ac:	0320f809 	jalr	t9
  4196b0:	24e7ec90 	addiu	a3,a3,-4976
--
  4196c0:	02002021 	move	a0,s0
  4196c4:	3c050042 	lui	a1,0x42
  4196c8:	8f99809c 	lw	t9,-32612(gp)
  4196cc:	0320f809 	jalr	t9
  4196d0:	24a5fe40 	addiu	a1,a1,-448
  4196d4:	8fbc0028 	lw	gp,40(sp)
  4196d8:	14400025 	bnez	v0,419770 <_ftext@@Base+0x18710>
  4196dc:	02002021 	move	a0,s0
  4196e0:	afa00130 	sw	zero,304(sp)
  4196e4:	3c040042 	lui	a0,0x42
  4196e8:	2484ff18 	addiu	a0,a0,-232
  4196ec:	3c050042 	lui	a1,0x42
  4196f0:	24a5fe40 	addiu	a1,a1,-448
  4196f4:	8f998054 	lw	t9,-32684(gp)
  4196f8:	0320f809 	jalr	t9
  4196fc:	27a60130 	addiu	a2,sp,304
  419700:	8fbc0028 	lw	gp,40(sp)
  419704:	8fa20130 	lw	v0,304(sp)
  419708:	1040000c 	beqz	v0,41973c <_ftext@@Base+0x186dc>
  41970c:	02202021 	move	a0,s1
  419710:	3c050042 	lui	a1,0x42
  419714:	24a5016c 	addiu	a1,a1,364
  419718:	3c060042 	lui	a2,0x42
  41971c:	24c6fe40 	addiu	a2,a2,-448
  419720:	3c070042 	lui	a3,0x42
[31m  419724:	8f9980e8 	lw	t9,fprintf[0m
  419728:	0320f809 	jalr	t9
  41972c:	24e7ec9c 	addiu	a3,a3,-4964
  419730:	8fbc0028 	lw	gp,40(sp)
  419734:	1000000a 	b	419760 <_ftext@@Base+0x18700>
  419738:	00000000 	nop
  41973c:	3c050042 	lui	a1,0x42
  419740:	24a5016c 	addiu	a1,a1,364
  419744:	3c060042 	lui	a2,0x42
  419748:	24c6fe40 	addiu	a2,a2,-448
  41974c:	3c070042 	lui	a3,0x42
[31m  419750:	8f9980e8 	lw	t9,fprintf[0m
  419754:	0320f809 	jalr	t9
  419758:	24e7ec90 	addiu	a3,a3,-4976
--
  419774:	8f99809c 	lw	t9,-32612(gp)
  419778:	0320f809 	jalr	t9
  41977c:	24a5eb08 	addiu	a1,a1,-5368
  419780:	8fbc0028 	lw	gp,40(sp)
  419784:	14400767 	bnez	v0,41b524 <_ftext@@Base+0x1a4c4>
  419788:	3c020043 	lui	v0,0x43
  41978c:	90421d24 	lbu	v0,7460(v0)
  419790:	10400764 	beqz	v0,41b524 <_ftext@@Base+0x1a4c4>
  419794:	3c040042 	lui	a0,0x42
  419798:	afa00130 	sw	zero,304(sp)
  41979c:	2484ff18 	addiu	a0,a0,-232
  4197a0:	3c050042 	lui	a1,0x42
  4197a4:	24a5eb08 	addiu	a1,a1,-5368
  4197a8:	8f998054 	lw	t9,-32684(gp)
  4197ac:	0320f809 	jalr	t9
  4197b0:	27a60130 	addiu	a2,sp,304
  4197b4:	8fbc0028 	lw	gp,40(sp)
  4197b8:	8fa20130 	lw	v0,304(sp)
  4197bc:	1040000b 	beqz	v0,4197ec <_ftext@@Base+0x1878c>
  4197c0:	02202021 	move	a0,s1
  4197c4:	3c050042 	lui	a1,0x42
  4197c8:	24a5016c 	addiu	a1,a1,364
  4197cc:	3c060042 	lui	a2,0x42
  4197d0:	24c6eb08 	addiu	a2,a2,-5368
  4197d4:	3c070042 	lui	a3,0x42
[31m  4197d8:	8f9980e8 	lw	t9,fprintf[0m
  4197dc:	0320f809 	jalr	t9
  4197e0:	24e7ec9c 	addiu	a3,a3,-4964
  4197e4:	1000074f 	b	41b524 <_ftext@@Base+0x1a4c4>
  4197e8:	00000000 	nop
  4197ec:	3c050042 	lui	a1,0x42
  4197f0:	24a5016c 	addiu	a1,a1,364
  4197f4:	3c060042 	lui	a2,0x42
  4197f8:	24c6eb08 	addiu	a2,a2,-5368
  4197fc:	3c070042 	lui	a3,0x42
[31m  419800:	8f9980e8 	lw	t9,fprintf[0m
  419804:	0320f809 	jalr	t9
  419808:	24e7ec90 	addiu	a3,a3,-4976
--
  419880:	02002021 	move	a0,s0
  419884:	3c050042 	lui	a1,0x42
  419888:	8f99809c 	lw	t9,-32612(gp)
  41988c:	0320f809 	jalr	t9
  419890:	24a5ec88 	addiu	a1,a1,-4984
  419894:	8fbc0028 	lw	gp,40(sp)
  419898:	14400024 	bnez	v0,41992c <_ftext@@Base+0x188cc>
  41989c:	02002021 	move	a0,s0
  4198a0:	afa00130 	sw	zero,304(sp)
  4198a4:	3c040042 	lui	a0,0x42
  4198a8:	2484ff4c 	addiu	a0,a0,-180
  4198ac:	3c050042 	lui	a1,0x42
  4198b0:	24a5ec94 	addiu	a1,a1,-4972
  4198b4:	8f998054 	lw	t9,-32684(gp)
  4198b8:	0320f809 	jalr	t9
  4198bc:	27a60130 	addiu	a2,sp,304
  4198c0:	8fbc0028 	lw	gp,40(sp)
  4198c4:	8fa20130 	lw	v0,304(sp)
  4198c8:	1040000c 	beqz	v0,4198fc <_ftext@@Base+0x1889c>
  4198cc:	02202021 	move	a0,s1
  4198d0:	3c050042 	lui	a1,0x42
  4198d4:	24a5016c 	addiu	a1,a1,364
  4198d8:	3c060042 	lui	a2,0x42
  4198dc:	24c6ec88 	addiu	a2,a2,-4984
  4198e0:	3c070042 	lui	a3,0x42
[31m  4198e4:	8f9980e8 	lw	t9,fprintf[0m
  4198e8:	0320f809 	jalr	t9
  4198ec:	24e7ec9c 	addiu	a3,a3,-4964
  4198f0:	8fbc0028 	lw	gp,40(sp)
  4198f4:	1000000a 	b	419920 <_ftext@@Base+0x188c0>
  4198f8:	00000000 	nop
  4198fc:	3c050042 	lui	a1,0x42
  419900:	24a5016c 	addiu	a1,a1,364
  419904:	3c060042 	lui	a2,0x42
  419908:	24c6ec88 	addiu	a2,a2,-4984
  41990c:	3c070042 	lui	a3,0x42
[31m  419910:	8f9980e8 	lw	t9,fprintf[0m
  419914:	0320f809 	jalr	t9
  419918:	24e7ec90 	addiu	a3,a3,-4976
--
  419928:	02002021 	move	a0,s0
  41992c:	3c050042 	lui	a1,0x42
  419930:	8f99809c 	lw	t9,-32612(gp)
  419934:	0320f809 	jalr	t9
  419938:	24a5ff5c 	addiu	a1,a1,-164
  41993c:	8fbc0028 	lw	gp,40(sp)
  419940:	14400024 	bnez	v0,4199d4 <_ftext@@Base+0x18974>
  419944:	02002021 	move	a0,s0
  419948:	afa00130 	sw	zero,304(sp)
  41994c:	3c040042 	lui	a0,0x42
  419950:	2484ff4c 	addiu	a0,a0,-180
  419954:	3c050042 	lui	a1,0x42
  419958:	24a5ff5c 	addiu	a1,a1,-164
  41995c:	8f998054 	lw	t9,-32684(gp)
  419960:	0320f809 	jalr	t9
  419964:	27a60130 	addiu	a2,sp,304
  419968:	8fbc0028 	lw	gp,40(sp)
  41996c:	8fa20130 	lw	v0,304(sp)
  419970:	1040000c 	beqz	v0,4199a4 <_ftext@@Base+0x18944>
  419974:	02202021 	move	a0,s1
  419978:	3c050042 	lui	a1,0x42
  41997c:	24a5016c 	addiu	a1,a1,364
  419980:	3c060042 	lui	a2,0x42
  419984:	24c6ff5c 	addiu	a2,a2,-164
  419988:	3c070042 	lui	a3,0x42
[31m  41998c:	8f9980e8 	lw	t9,fprintf[0m
  419990:	0320f809 	jalr	t9
  419994:	24e7ec9c 	addiu	a3,a3,-4964
  419998:	8fbc0028 	lw	gp,40(sp)
  41999c:	1000000a 	b	4199c8 <_ftext@@Base+0x18968>
  4199a0:	00000000 	nop
  4199a4:	3c050042 	lui	a1,0x42
  4199a8:	24a5016c 	addiu	a1,a1,364
  4199ac:	3c060042 	lui	a2,0x42
  4199b0:	24c6ff5c 	addiu	a2,a2,-164
  4199b4:	3c070042 	lui	a3,0x42
[31m  4199b8:	8f9980e8 	lw	t9,fprintf[0m
  4199bc:	0320f809 	jalr	t9
  4199c0:	24e7ec90 	addiu	a3,a3,-4976
--
  4199d0:	02002021 	move	a0,s0
  4199d4:	3c050042 	lui	a1,0x42
  4199d8:	8f99809c 	lw	t9,-32612(gp)
  4199dc:	0320f809 	jalr	t9
  4199e0:	24a5ff6c 	addiu	a1,a1,-148
  4199e4:	8fbc0028 	lw	gp,40(sp)
  4199e8:	14400024 	bnez	v0,419a7c <_ftext@@Base+0x18a1c>
  4199ec:	02002021 	move	a0,s0
  4199f0:	afa00130 	sw	zero,304(sp)
  4199f4:	3c040042 	lui	a0,0x42
  4199f8:	2484ff4c 	addiu	a0,a0,-180
  4199fc:	3c050042 	lui	a1,0x42
  419a00:	24a5ff6c 	addiu	a1,a1,-148
  419a04:	8f998054 	lw	t9,-32684(gp)
  419a08:	0320f809 	jalr	t9
  419a0c:	27a60130 	addiu	a2,sp,304
  419a10:	8fbc0028 	lw	gp,40(sp)
  419a14:	8fa20130 	lw	v0,304(sp)
  419a18:	1040000c 	beqz	v0,419a4c <_ftext@@Base+0x189ec>
  419a1c:	02202021 	move	a0,s1
  419a20:	3c050042 	lui	a1,0x42
  419a24:	24a5016c 	addiu	a1,a1,364
  419a28:	3c060042 	lui	a2,0x42
  419a2c:	24c6ff6c 	addiu	a2,a2,-148
  419a30:	3c070042 	lui	a3,0x42
[31m  419a34:	8f9980e8 	lw	t9,fprintf[0m
  419a38:	0320f809 	jalr	t9
  419a3c:	24e7ec9c 	addiu	a3,a3,-4964
  419a40:	8fbc0028 	lw	gp,40(sp)
  419a44:	1000000a 	b	419a70 <_ftext@@Base+0x18a10>
  419a48:	00000000 	nop
  419a4c:	3c050042 	lui	a1,0x42
  419a50:	24a5016c 	addiu	a1,a1,364
  419a54:	3c060042 	lui	a2,0x42
  419a58:	24c6ff6c 	addiu	a2,a2,-148
  419a5c:	3c070042 	lui	a3,0x42
[31m  419a60:	8f9980e8 	lw	t9,fprintf[0m
  419a64:	0320f809 	jalr	t9
  419a68:	24e7ec90 	addiu	a3,a3,-4976
--
  419a80:	8f99809c 	lw	t9,-32612(gp)
  419a84:	0320f809 	jalr	t9
  419a88:	24a5fdbc 	addiu	a1,a1,-580
  419a8c:	8fbc0028 	lw	gp,40(sp)
  419a90:	1440001b 	bnez	v0,419b00 <_ftext@@Base+0x18aa0>
  419a94:	02002021 	move	a0,s0
  419a98:	27b40030 	addiu	s4,sp,48
  419a9c:	02802021 	move	a0,s4
  419aa0:	00002821 	move	a1,zero
  419aa4:	8f9980ac 	lw	t9,-32596(gp)
  419aa8:	0320f809 	jalr	t9
  419aac:	24060100 	li	a2,256
  419ab0:	8fbc0028 	lw	gp,40(sp)
  419ab4:	3c040042 	lui	a0,0x42
  419ab8:	2484ff4c 	addiu	a0,a0,-180
  419abc:	3c130042 	lui	s3,0x42
  419ac0:	2665fdbc 	addiu	a1,s3,-580
  419ac4:	8f998054 	lw	t9,-32684(gp)
  419ac8:	0320f809 	jalr	t9
  419acc:	02803021 	move	a2,s4
  419ad0:	8fbc0028 	lw	gp,40(sp)
  419ad4:	02202021 	move	a0,s1
  419ad8:	3c050042 	lui	a1,0x42
  419adc:	24a5016c 	addiu	a1,a1,364
  419ae0:	2666fdbc 	addiu	a2,s3,-580
[31m  419ae4:	8f9980e8 	lw	t9,fprintf[0m
  419ae8:	0320f809 	jalr	t9
  419aec:	02803821 	move	a3,s4
--
  419afc:	02002021 	move	a0,s0
  419b00:	3c050042 	lui	a1,0x42
  419b04:	8f99809c 	lw	t9,-32612(gp)
  419b08:	0320f809 	jalr	t9
  419b0c:	24a5ff8c 	addiu	a1,a1,-116
  419b10:	8fbc0028 	lw	gp,40(sp)
  419b14:	14400024 	bnez	v0,419ba8 <_ftext@@Base+0x18b48>
  419b18:	02002021 	move	a0,s0
  419b1c:	afa00130 	sw	zero,304(sp)
  419b20:	3c040042 	lui	a0,0x42
  419b24:	2484ff4c 	addiu	a0,a0,-180
  419b28:	3c050042 	lui	a1,0x42
  419b2c:	24a5ff8c 	addiu	a1,a1,-116
  419b30:	8f998054 	lw	t9,-32684(gp)
  419b34:	0320f809 	jalr	t9
  419b38:	27a60130 	addiu	a2,sp,304
  419b3c:	8fbc0028 	lw	gp,40(sp)
  419b40:	8fa20130 	lw	v0,304(sp)
  419b44:	1040000c 	beqz	v0,419b78 <_ftext@@Base+0x18b18>
  419b48:	02202021 	move	a0,s1
  419b4c:	3c050042 	lui	a1,0x42
  419b50:	24a5016c 	addiu	a1,a1,364
  419b54:	3c060042 	lui	a2,0x42
  419b58:	24c6ff8c 	addiu	a2,a2,-116
  419b5c:	3c070042 	lui	a3,0x42
[31m  419b60:	8f9980e8 	lw	t9,fprintf[0m
  419b64:	0320f809 	jalr	t9
  419b68:	24e7ffa4 	addiu	a3,a3,-92
  419b6c:	8fbc0028 	lw	gp,40(sp)
  419b70:	1000000a 	b	419b9c <_ftext@@Base+0x18b3c>
  419b74:	00000000 	nop
  419b78:	3c050042 	lui	a1,0x42
  419b7c:	24a5016c 	addiu	a1,a1,364
  419b80:	3c060042 	lui	a2,0x42
  419b84:	24c6ff8c 	addiu	a2,a2,-116
  419b88:	3c070042 	lui	a3,0x42
[31m  419b8c:	8f9980e8 	lw	t9,fprintf[0m
  419b90:	0320f809 	jalr	t9
  419b94:	24e7ff9c 	addiu	a3,a3,-100
--
  419bb0:	0320f809 	jalr	t9
  419bb4:	24a5fdd8 	addiu	a1,a1,-552
  419bb8:	8fbc0028 	lw	gp,40(sp)
  419bbc:	1440001c 	bnez	v0,419c30 <_ftext@@Base+0x18bd0>
  419bc0:	02002021 	move	a0,s0
  419bc4:	27b30030 	addiu	s3,sp,48
  419bc8:	02602021 	move	a0,s3
  419bcc:	00002821 	move	a1,zero
  419bd0:	8f9980ac 	lw	t9,-32596(gp)
  419bd4:	0320f809 	jalr	t9
  419bd8:	24060100 	li	a2,256
  419bdc:	8fbc0028 	lw	gp,40(sp)
  419be0:	3c040042 	lui	a0,0x42
  419be4:	2484ff4c 	addiu	a0,a0,-180
  419be8:	3c050042 	lui	a1,0x42
  419bec:	24a5fde0 	addiu	a1,a1,-544
  419bf0:	8f998054 	lw	t9,-32684(gp)
  419bf4:	0320f809 	jalr	t9
  419bf8:	02603021 	move	a2,s3
  419bfc:	8fbc0028 	lw	gp,40(sp)
  419c00:	02202021 	move	a0,s1
  419c04:	3c050042 	lui	a1,0x42
  419c08:	24a5016c 	addiu	a1,a1,364
  419c0c:	3c060042 	lui	a2,0x42
  419c10:	24c6fdd8 	addiu	a2,a2,-552
[31m  419c14:	8f9980e8 	lw	t9,fprintf[0m
  419c18:	0320f809 	jalr	t9
  419c1c:	02603821 	move	a3,s3
--
  419c30:	3c050042 	lui	a1,0x42
  419c34:	8f99809c 	lw	t9,-32612(gp)
  419c38:	0320f809 	jalr	t9
  419c3c:	24a5fd3c 	addiu	a1,a1,-708
  419c40:	8fbc0028 	lw	gp,40(sp)
  419c44:	14400025 	bnez	v0,419cdc <_ftext@@Base+0x18c7c>
  419c48:	02002021 	move	a0,s0
  419c4c:	afa00130 	sw	zero,304(sp)
  419c50:	3c040042 	lui	a0,0x42
  419c54:	2484ff4c 	addiu	a0,a0,-180
  419c58:	3c050042 	lui	a1,0x42
  419c5c:	24a5fd3c 	addiu	a1,a1,-708
  419c60:	8f998054 	lw	t9,-32684(gp)
  419c64:	0320f809 	jalr	t9
  419c68:	27a60130 	addiu	a2,sp,304
  419c6c:	8fbc0028 	lw	gp,40(sp)
  419c70:	24020002 	li	v0,2
  419c74:	8fa30130 	lw	v1,304(sp)
  419c78:	1462000c 	bne	v1,v0,419cac <_ftext@@Base+0x18c4c>
  419c7c:	02202021 	move	a0,s1
  419c80:	3c050042 	lui	a1,0x42
  419c84:	24a5016c 	addiu	a1,a1,364
  419c88:	3c060042 	lui	a2,0x42
  419c8c:	24c6fd3c 	addiu	a2,a2,-708
  419c90:	3c070042 	lui	a3,0x42
[31m  419c94:	8f9980e8 	lw	t9,fprintf[0m
  419c98:	0320f809 	jalr	t9
  419c9c:	24e7fd4c 	addiu	a3,a3,-692
  419ca0:	8fbc0028 	lw	gp,40(sp)
  419ca4:	1000000a 	b	419cd0 <_ftext@@Base+0x18c70>
  419ca8:	00000000 	nop
  419cac:	3c050042 	lui	a1,0x42
  419cb0:	24a5016c 	addiu	a1,a1,364
  419cb4:	3c060042 	lui	a2,0x42
  419cb8:	24c6fd3c 	addiu	a2,a2,-708
  419cbc:	3c070042 	lui	a3,0x42
[31m  419cc0:	8f9980e8 	lw	t9,fprintf[0m
  419cc4:	0320f809 	jalr	t9
  419cc8:	24e7fd54 	addiu	a3,a3,-684
--
  419cd8:	02002021 	move	a0,s0
  419cdc:	3c050042 	lui	a1,0x42
  419ce0:	8f99809c 	lw	t9,-32612(gp)
  419ce4:	0320f809 	jalr	t9
  419ce8:	24a5ff7c 	addiu	a1,a1,-132
  419cec:	8fbc0028 	lw	gp,40(sp)
  419cf0:	14400024 	bnez	v0,419d84 <_ftext@@Base+0x18d24>
  419cf4:	02002021 	move	a0,s0
  419cf8:	afa00130 	sw	zero,304(sp)
  419cfc:	3c040042 	lui	a0,0x42
  419d00:	2484ff4c 	addiu	a0,a0,-180
  419d04:	3c050042 	lui	a1,0x42
  419d08:	24a5ff7c 	addiu	a1,a1,-132
  419d0c:	8f998054 	lw	t9,-32684(gp)
  419d10:	0320f809 	jalr	t9
  419d14:	27a60130 	addiu	a2,sp,304
  419d18:	8fbc0028 	lw	gp,40(sp)
  419d1c:	8fa20130 	lw	v0,304(sp)
  419d20:	1440000c 	bnez	v0,419d54 <_ftext@@Base+0x18cf4>
  419d24:	02202021 	move	a0,s1
  419d28:	3c050042 	lui	a1,0x42
  419d2c:	24a5016c 	addiu	a1,a1,364
  419d30:	3c060042 	lui	a2,0x42
  419d34:	24c6ff7c 	addiu	a2,a2,-132
  419d38:	3c070042 	lui	a3,0x42
[31m  419d3c:	8f9980e8 	lw	t9,fprintf[0m
  419d40:	0320f809 	jalr	t9
  419d44:	24e7fdc4 	addiu	a3,a3,-572
  419d48:	8fbc0028 	lw	gp,40(sp)
  419d4c:	1000000a 	b	419d78 <_ftext@@Base+0x18d18>
  419d50:	00000000 	nop
  419d54:	3c050042 	lui	a1,0x42
  419d58:	24a5016c 	addiu	a1,a1,364
  419d5c:	3c060042 	lui	a2,0x42
  419d60:	24c6ff7c 	addiu	a2,a2,-132
  419d64:	3c070042 	lui	a3,0x42
[31m  419d68:	8f9980e8 	lw	t9,fprintf[0m
  419d6c:	0320f809 	jalr	t9
  419d70:	24e7ffac 	addiu	a3,a3,-84
--
  419d80:	02002021 	move	a0,s0
  419d84:	3c050042 	lui	a1,0x42
  419d88:	8f99809c 	lw	t9,-32612(gp)
  419d8c:	0320f809 	jalr	t9
  419d90:	24a5ffb4 	addiu	a1,a1,-76
  419d94:	8fbc0028 	lw	gp,40(sp)
  419d98:	14400025 	bnez	v0,419e30 <_ftext@@Base+0x18dd0>
  419d9c:	02002021 	move	a0,s0
  419da0:	afa00130 	sw	zero,304(sp)
  419da4:	3c040042 	lui	a0,0x42
  419da8:	2484ff4c 	addiu	a0,a0,-180
  419dac:	3c050042 	lui	a1,0x42
  419db0:	24a5ffc0 	addiu	a1,a1,-64
  419db4:	8f998054 	lw	t9,-32684(gp)
  419db8:	0320f809 	jalr	t9
  419dbc:	27a60130 	addiu	a2,sp,304
  419dc0:	8fbc0028 	lw	gp,40(sp)
  419dc4:	8fa20130 	lw	v0,304(sp)
  419dc8:	1040000c 	beqz	v0,419dfc <_ftext@@Base+0x18d9c>
  419dcc:	02202021 	move	a0,s1
  419dd0:	3c050042 	lui	a1,0x42
  419dd4:	24a5016c 	addiu	a1,a1,364
  419dd8:	3c060042 	lui	a2,0x42
  419ddc:	24c6ffb4 	addiu	a2,a2,-76
  419de0:	3c070042 	lui	a3,0x42
[31m  419de4:	8f9980e8 	lw	t9,fprintf[0m
  419de8:	0320f809 	jalr	t9
  419dec:	24e7ec9c 	addiu	a3,a3,-4964
  419df0:	8fbc0028 	lw	gp,40(sp)
  419df4:	1000000a 	b	419e20 <_ftext@@Base+0x18dc0>
  419df8:	00000000 	nop
  419dfc:	3c050042 	lui	a1,0x42
  419e00:	24a5016c 	addiu	a1,a1,364
  419e04:	3c060042 	lui	a2,0x42
  419e08:	24c6ffb4 	addiu	a2,a2,-76
  419e0c:	3c070042 	lui	a3,0x42
[31m  419e10:	8f9980e8 	lw	t9,fprintf[0m
  419e14:	0320f809 	jalr	t9
  419e18:	24e7ec90 	addiu	a3,a3,-4976
--
  419e3c:	24a5ffd4 	addiu	a1,a1,-44
  419e40:	8fbc0028 	lw	gp,40(sp)
  419e44:	14400029 	bnez	v0,419eec <_ftext@@Base+0x18e8c>
  419e48:	02002021 	move	a0,s0
  419e4c:	3c020043 	lui	v0,0x43
  419e50:	90431d1c 	lbu	v1,7452(v0)
  419e54:	24020001 	li	v0,1
  419e58:	14620020 	bne	v1,v0,419edc <_ftext@@Base+0x18e7c>
  419e5c:	3c040042 	lui	a0,0x42
  419e60:	afa00130 	sw	zero,304(sp)
  419e64:	2484ff4c 	addiu	a0,a0,-180
  419e68:	3c050042 	lui	a1,0x42
  419e6c:	24a5ffe0 	addiu	a1,a1,-32
  419e70:	8f998054 	lw	t9,-32684(gp)
  419e74:	0320f809 	jalr	t9
  419e78:	27a60130 	addiu	a2,sp,304
  419e7c:	8fbc0028 	lw	gp,40(sp)
  419e80:	8fa20130 	lw	v0,304(sp)
  419e84:	1040000c 	beqz	v0,419eb8 <_ftext@@Base+0x18e58>
  419e88:	02202021 	move	a0,s1
  419e8c:	3c050042 	lui	a1,0x42
  419e90:	24a5016c 	addiu	a1,a1,364
  419e94:	3c060042 	lui	a2,0x42
  419e98:	24c6ffd4 	addiu	a2,a2,-44
  419e9c:	3c070042 	lui	a3,0x42
[31m  419ea0:	8f9980e8 	lw	t9,fprintf[0m
  419ea4:	0320f809 	jalr	t9
  419ea8:	24e7ec9c 	addiu	a3,a3,-4964
  419eac:	8fbc0028 	lw	gp,40(sp)
  419eb0:	1000000a 	b	419edc <_ftext@@Base+0x18e7c>
  419eb4:	00000000 	nop
  419eb8:	3c050042 	lui	a1,0x42
  419ebc:	24a5016c 	addiu	a1,a1,364
  419ec0:	3c060042 	lui	a2,0x42
  419ec4:	24c6ffd4 	addiu	a2,a2,-44
  419ec8:	3c070042 	lui	a3,0x42
[31m  419ecc:	8f9980e8 	lw	t9,fprintf[0m
  419ed0:	0320f809 	jalr	t9
  419ed4:	24e7ec90 	addiu	a3,a3,-4976
--
  419ef4:	0320f809 	jalr	t9
  419ef8:	24a5fff4 	addiu	a1,a1,-12
  419efc:	8fbc0028 	lw	gp,40(sp)
  419f00:	14400028 	bnez	v0,419fa4 <_ftext@@Base+0x18f44>
  419f04:	02002021 	move	a0,s0
  419f08:	3c020043 	lui	v0,0x43
  419f0c:	8c421d0c 	lw	v0,7436(v0)
  419f10:	18400020 	blez	v0,419f94 <_ftext@@Base+0x18f34>
  419f14:	3c040042 	lui	a0,0x42
  419f18:	afa00130 	sw	zero,304(sp)
  419f1c:	2484ff4c 	addiu	a0,a0,-180
  419f20:	3c050042 	lui	a1,0x42
  419f24:	24a50000 	addiu	a1,a1,0
  419f28:	8f998054 	lw	t9,-32684(gp)
  419f2c:	0320f809 	jalr	t9
  419f30:	27a60130 	addiu	a2,sp,304
  419f34:	8fbc0028 	lw	gp,40(sp)
  419f38:	8fa20130 	lw	v0,304(sp)
  419f3c:	1040000c 	beqz	v0,419f70 <_ftext@@Base+0x18f10>
  419f40:	02202021 	move	a0,s1
  419f44:	3c050042 	lui	a1,0x42
  419f48:	24a5016c 	addiu	a1,a1,364
  419f4c:	3c060042 	lui	a2,0x42
  419f50:	24c6fff4 	addiu	a2,a2,-12
  419f54:	3c070042 	lui	a3,0x42
[31m  419f58:	8f9980e8 	lw	t9,fprintf[0m
  419f5c:	0320f809 	jalr	t9
  419f60:	24e7ec9c 	addiu	a3,a3,-4964
  419f64:	8fbc0028 	lw	gp,40(sp)
  419f68:	1000000a 	b	419f94 <_ftext@@Base+0x18f34>
  419f6c:	00000000 	nop
  419f70:	3c050042 	lui	a1,0x42
  419f74:	24a5016c 	addiu	a1,a1,364
  419f78:	3c060042 	lui	a2,0x42
  419f7c:	24c6fff4 	addiu	a2,a2,-12
  419f80:	3c070042 	lui	a3,0x42
[31m  419f84:	8f9980e8 	lw	t9,fprintf[0m
  419f88:	0320f809 	jalr	t9
  419f8c:	24e7ec90 	addiu	a3,a3,-4976
--
  419fb0:	24a50014 	addiu	a1,a1,20
  419fb4:	8fbc0028 	lw	gp,40(sp)
  419fb8:	14400029 	bnez	v0,41a060 <_ftext@@Base+0x19000>
  419fbc:	02002021 	move	a0,s0
  419fc0:	3c020043 	lui	v0,0x43
  419fc4:	8c421d0c 	lw	v0,7436(v0)
  419fc8:	28420002 	slti	v0,v0,2
  419fcc:	14400020 	bnez	v0,41a050 <_ftext@@Base+0x18ff0>
  419fd0:	3c040042 	lui	a0,0x42
  419fd4:	afa00130 	sw	zero,304(sp)
  419fd8:	2484ff4c 	addiu	a0,a0,-180
  419fdc:	3c050042 	lui	a1,0x42
  419fe0:	24a50020 	addiu	a1,a1,32
  419fe4:	8f998054 	lw	t9,-32684(gp)
  419fe8:	0320f809 	jalr	t9
  419fec:	27a60130 	addiu	a2,sp,304
  419ff0:	8fbc0028 	lw	gp,40(sp)
  419ff4:	8fa20130 	lw	v0,304(sp)
  419ff8:	1040000c 	beqz	v0,41a02c <_ftext@@Base+0x18fcc>
  419ffc:	02202021 	move	a0,s1
  41a000:	3c050042 	lui	a1,0x42
  41a004:	24a5016c 	addiu	a1,a1,364
  41a008:	3c060042 	lui	a2,0x42
  41a00c:	24c60014 	addiu	a2,a2,20
  41a010:	3c070042 	lui	a3,0x42
[31m  41a014:	8f9980e8 	lw	t9,fprintf[0m
  41a018:	0320f809 	jalr	t9
  41a01c:	24e7ec9c 	addiu	a3,a3,-4964
  41a020:	8fbc0028 	lw	gp,40(sp)
  41a024:	1000000a 	b	41a050 <_ftext@@Base+0x18ff0>
  41a028:	00000000 	nop
  41a02c:	3c050042 	lui	a1,0x42
  41a030:	24a5016c 	addiu	a1,a1,364
  41a034:	3c060042 	lui	a2,0x42
  41a038:	24c60014 	addiu	a2,a2,20
  41a03c:	3c070042 	lui	a3,0x42
[31m  41a040:	8f9980e8 	lw	t9,fprintf[0m
  41a044:	0320f809 	jalr	t9
  41a048:	24e7ec90 	addiu	a3,a3,-4976
--
  41a068:	0320f809 	jalr	t9
  41a06c:	24a50a18 	addiu	a1,a1,2584
  41a070:	8fbc0028 	lw	gp,40(sp)
  41a074:	14400027 	bnez	v0,41a114 <_ftext@@Base+0x190b4>
  41a078:	02002021 	move	a0,s0
  41a07c:	3c020043 	lui	v0,0x43
  41a080:	90421d18 	lbu	v0,7448(v0)
  41a084:	10400020 	beqz	v0,41a108 <_ftext@@Base+0x190a8>
  41a088:	3c040042 	lui	a0,0x42
  41a08c:	afa00130 	sw	zero,304(sp)
  41a090:	2484ff4c 	addiu	a0,a0,-180
  41a094:	3c050042 	lui	a1,0x42
  41a098:	24a50034 	addiu	a1,a1,52
  41a09c:	8f998054 	lw	t9,-32684(gp)
  41a0a0:	0320f809 	jalr	t9
  41a0a4:	27a60130 	addiu	a2,sp,304
  41a0a8:	8fbc0028 	lw	gp,40(sp)
  41a0ac:	8fa20130 	lw	v0,304(sp)
  41a0b0:	1040000c 	beqz	v0,41a0e4 <_ftext@@Base+0x19084>
  41a0b4:	02202021 	move	a0,s1
  41a0b8:	3c050042 	lui	a1,0x42
  41a0bc:	24a5016c 	addiu	a1,a1,364
  41a0c0:	3c060042 	lui	a2,0x42
  41a0c4:	24c60a20 	addiu	a2,a2,2592
  41a0c8:	3c070042 	lui	a3,0x42
[31m  41a0cc:	8f9980e8 	lw	t9,fprintf[0m
  41a0d0:	0320f809 	jalr	t9
  41a0d4:	24e7ec9c 	addiu	a3,a3,-4964
  41a0d8:	8fbc0028 	lw	gp,40(sp)
  41a0dc:	1000000a 	b	41a108 <_ftext@@Base+0x190a8>
  41a0e0:	00000000 	nop
  41a0e4:	3c050042 	lui	a1,0x42
  41a0e8:	24a5016c 	addiu	a1,a1,364
  41a0ec:	3c060042 	lui	a2,0x42
  41a0f0:	24c60a20 	addiu	a2,a2,2592
  41a0f4:	3c070042 	lui	a3,0x42
[31m  41a0f8:	8f9980e8 	lw	t9,fprintf[0m
  41a0fc:	0320f809 	jalr	t9
  41a100:	24e7ec90 	addiu	a3,a3,-4976
--
  41a110:	02002021 	move	a0,s0
  41a114:	3c050042 	lui	a1,0x42
  41a118:	8f99809c 	lw	t9,-32612(gp)
  41a11c:	0320f809 	jalr	t9
  41a120:	24a50044 	addiu	a1,a1,68
  41a124:	8fbc0028 	lw	gp,40(sp)
  41a128:	14400024 	bnez	v0,41a1bc <_ftext@@Base+0x1915c>
  41a12c:	02002021 	move	a0,s0
  41a130:	afa00130 	sw	zero,304(sp)
  41a134:	3c040042 	lui	a0,0x42
  41a138:	2484ff4c 	addiu	a0,a0,-180
  41a13c:	3c050042 	lui	a1,0x42
  41a140:	24a50050 	addiu	a1,a1,80
  41a144:	8f998054 	lw	t9,-32684(gp)
  41a148:	0320f809 	jalr	t9
  41a14c:	27a60130 	addiu	a2,sp,304
  41a150:	8fbc0028 	lw	gp,40(sp)
  41a154:	8fa20130 	lw	v0,304(sp)
  41a158:	1040000c 	beqz	v0,41a18c <_ftext@@Base+0x1912c>
  41a15c:	02202021 	move	a0,s1
  41a160:	3c050042 	lui	a1,0x42
  41a164:	24a5016c 	addiu	a1,a1,364
  41a168:	3c060042 	lui	a2,0x42
  41a16c:	24c60044 	addiu	a2,a2,68
  41a170:	3c070042 	lui	a3,0x42
[31m  41a174:	8f9980e8 	lw	t9,fprintf[0m
  41a178:	0320f809 	jalr	t9
  41a17c:	24e7ec9c 	addiu	a3,a3,-4964
  41a180:	8fbc0028 	lw	gp,40(sp)
  41a184:	1000000a 	b	41a1b0 <_ftext@@Base+0x19150>
  41a188:	00000000 	nop
  41a18c:	3c050042 	lui	a1,0x42
  41a190:	24a5016c 	addiu	a1,a1,364
  41a194:	3c060042 	lui	a2,0x42
  41a198:	24c60044 	addiu	a2,a2,68
  41a19c:	3c070042 	lui	a3,0x42
[31m  41a1a0:	8f9980e8 	lw	t9,fprintf[0m
  41a1a4:	0320f809 	jalr	t9
  41a1a8:	24e7ec90 	addiu	a3,a3,-4976
  41a1ac:	8fbc0028 	lw	gp,40(sp)
  41a1b0:	92420000 	lbu	v0,0(s2)
  41a1b4:	10400008 	beqz	v0,41a1d8 <_ftext@@Base+0x19178>
  41a1b8:	02002021 	move	a0,s0
  41a1bc:	3c050042 	lui	a1,0x42
  41a1c0:	8f99809c 	lw	t9,-32612(gp)
  41a1c4:	0320f809 	jalr	t9
  41a1c8:	24a50060 	addiu	a1,a1,96
  41a1cc:	8fbc0028 	lw	gp,40(sp)
  41a1d0:	14400015 	bnez	v0,41a228 <_ftext@@Base+0x191c8>
  41a1d4:	02002021 	move	a0,s0
  41a1d8:	afa00130 	sw	zero,304(sp)
  41a1dc:	3c040042 	lui	a0,0x42
  41a1e0:	2484ff4c 	addiu	a0,a0,-180
  41a1e4:	3c130042 	lui	s3,0x42
  41a1e8:	26650060 	addiu	a1,s3,96
  41a1ec:	8f998054 	lw	t9,-32684(gp)
  41a1f0:	0320f809 	jalr	t9
  41a1f4:	27a60130 	addiu	a2,sp,304
  41a1f8:	8fbc0028 	lw	gp,40(sp)
  41a1fc:	02202021 	move	a0,s1
  41a200:	3c050042 	lui	a1,0x42
  41a204:	24a501f4 	addiu	a1,a1,500
  41a208:	8fa70130 	lw	a3,304(sp)
[31m  41a20c:	8f9980e8 	lw	t9,fprintf[0m
  41a210:	0320f809 	jalr	t9
  41a214:	26660060 	addiu	a2,s3,96
--
  41a228:	3c050042 	lui	a1,0x42
  41a22c:	8f99809c 	lw	t9,-32612(gp)
  41a230:	0320f809 	jalr	t9
  41a234:	24a50070 	addiu	a1,a1,112
  41a238:	8fbc0028 	lw	gp,40(sp)
  41a23c:	14400027 	bnez	v0,41a2dc <_ftext@@Base+0x1927c>
  41a240:	02002021 	move	a0,s0
  41a244:	afa00130 	sw	zero,304(sp)
  41a248:	3c040042 	lui	a0,0x42
  41a24c:	2484ff4c 	addiu	a0,a0,-180
  41a250:	3c050042 	lui	a1,0x42
  41a254:	24a50070 	addiu	a1,a1,112
  41a258:	8f998054 	lw	t9,-32684(gp)
  41a25c:	0320f809 	jalr	t9
  41a260:	27a60130 	addiu	a2,sp,304
  41a264:	8fbc0028 	lw	gp,40(sp)
  41a268:	8fa20130 	lw	v0,304(sp)
  41a26c:	1440000d 	bnez	v0,41a2a4 <_ftext@@Base+0x19244>
  41a270:	24030001 	li	v1,1
  41a274:	02202021 	move	a0,s1
  41a278:	3c050042 	lui	a1,0x42
  41a27c:	24a5016c 	addiu	a1,a1,364
  41a280:	3c060042 	lui	a2,0x42
  41a284:	24c60070 	addiu	a2,a2,112
  41a288:	3c070042 	lui	a3,0x42
[31m  41a28c:	8f9980e8 	lw	t9,fprintf[0m
  41a290:	0320f809 	jalr	t9
  41a294:	24e70084 	addiu	a3,a3,132
  41a298:	8fbc0028 	lw	gp,40(sp)
  41a29c:	1000000c 	b	41a2d0 <_ftext@@Base+0x19270>
  41a2a0:	00000000 	nop
  41a2a4:	1443000a 	bne	v0,v1,41a2d0 <_ftext@@Base+0x19270>
  41a2a8:	02202021 	move	a0,s1
  41a2ac:	3c050042 	lui	a1,0x42
  41a2b0:	24a5016c 	addiu	a1,a1,364
  41a2b4:	3c060042 	lui	a2,0x42
  41a2b8:	24c60070 	addiu	a2,a2,112
  41a2bc:	3c070042 	lui	a3,0x42
[31m  41a2c0:	8f9980e8 	lw	t9,fprintf[0m
  41a2c4:	0320f809 	jalr	t9
  41a2c8:	24e7007c 	addiu	a3,a3,124
  41a2cc:	8fbc0028 	lw	gp,40(sp)
  41a2d0:	92420000 	lbu	v0,0(s2)
  41a2d4:	10400008 	beqz	v0,41a2f8 <_ftext@@Base+0x19298>
  41a2d8:	02002021 	move	a0,s0
  41a2dc:	3c050042 	lui	a1,0x42
  41a2e0:	8f99809c 	lw	t9,-32612(gp)
  41a2e4:	0320f809 	jalr	t9
  41a2e8:	24a5008c 	addiu	a1,a1,140
  41a2ec:	8fbc0028 	lw	gp,40(sp)
  41a2f0:	14400015 	bnez	v0,41a348 <_ftext@@Base+0x192e8>
  41a2f4:	02002021 	move	a0,s0
  41a2f8:	afa00130 	sw	zero,304(sp)
  41a2fc:	3c040042 	lui	a0,0x42
  41a300:	2484ff4c 	addiu	a0,a0,-180
  41a304:	3c130042 	lui	s3,0x42
  41a308:	2665008c 	addiu	a1,s3,140
  41a30c:	8f998054 	lw	t9,-32684(gp)
  41a310:	0320f809 	jalr	t9
  41a314:	27a60130 	addiu	a2,sp,304
  41a318:	8fbc0028 	lw	gp,40(sp)
  41a31c:	02202021 	move	a0,s1
  41a320:	3c050042 	lui	a1,0x42
  41a324:	24a501f4 	addiu	a1,a1,500
  41a328:	8fa70130 	lw	a3,304(sp)
[31m  41a32c:	8f9980e8 	lw	t9,fprintf[0m
  41a330:	0320f809 	jalr	t9
  41a334:	2666008c 	addiu	a2,s3,140
  41a338:	8fbc0028 	lw	gp,40(sp)
  41a33c:	92420000 	lbu	v0,0(s2)
  41a340:	10400008 	beqz	v0,41a364 <_ftext@@Base+0x19304>
  41a344:	02002021 	move	a0,s0
  41a348:	3c050042 	lui	a1,0x42
  41a34c:	8f99809c 	lw	t9,-32612(gp)
  41a350:	0320f809 	jalr	t9
  41a354:	24a50098 	addiu	a1,a1,152
  41a358:	8fbc0028 	lw	gp,40(sp)
  41a35c:	14400471 	bnez	v0,41b524 <_ftext@@Base+0x1a4c4>
  41a360:	00000000 	nop
  41a364:	afa00130 	sw	zero,304(sp)
  41a368:	3c040042 	lui	a0,0x42
  41a36c:	2484ff4c 	addiu	a0,a0,-180
  41a370:	3c100042 	lui	s0,0x42
  41a374:	26050098 	addiu	a1,s0,152
  41a378:	8f998054 	lw	t9,-32684(gp)
  41a37c:	0320f809 	jalr	t9
  41a380:	27a60130 	addiu	a2,sp,304
  41a384:	8fbc0028 	lw	gp,40(sp)
  41a388:	02202021 	move	a0,s1
  41a38c:	3c050042 	lui	a1,0x42
  41a390:	24a501f4 	addiu	a1,a1,500
  41a394:	8fa70130 	lw	a3,304(sp)
[31m  41a398:	8f9980e8 	lw	t9,fprintf[0m
  41a39c:	0320f809 	jalr	t9
  41a3a0:	26060098 	addiu	a2,s0,152
--
  41a410:	02002021 	move	a0,s0
  41a414:	3c050042 	lui	a1,0x42
  41a418:	8f99809c 	lw	t9,-32612(gp)
  41a41c:	0320f809 	jalr	t9
  41a420:	24a500b8 	addiu	a1,a1,184
  41a424:	8fbc0028 	lw	gp,40(sp)
  41a428:	14400024 	bnez	v0,41a4bc <_ftext@@Base+0x1945c>
  41a42c:	02002021 	move	a0,s0
  41a430:	afa00130 	sw	zero,304(sp)
  41a434:	3c040042 	lui	a0,0x42
  41a438:	248400c8 	addiu	a0,a0,200
  41a43c:	3c050042 	lui	a1,0x42
  41a440:	24a500b8 	addiu	a1,a1,184
  41a444:	8f998054 	lw	t9,-32684(gp)
  41a448:	0320f809 	jalr	t9
  41a44c:	27a60130 	addiu	a2,sp,304
  41a450:	8fbc0028 	lw	gp,40(sp)
  41a454:	8fa20130 	lw	v0,304(sp)
  41a458:	1040000c 	beqz	v0,41a48c <_ftext@@Base+0x1942c>
  41a45c:	02202021 	move	a0,s1
  41a460:	3c050042 	lui	a1,0x42
  41a464:	24a5016c 	addiu	a1,a1,364
  41a468:	3c060042 	lui	a2,0x42
  41a46c:	24c600b8 	addiu	a2,a2,184
  41a470:	3c070042 	lui	a3,0x42
[31m  41a474:	8f9980e8 	lw	t9,fprintf[0m
  41a478:	0320f809 	jalr	t9
  41a47c:	24e7ec9c 	addiu	a3,a3,-4964
  41a480:	8fbc0028 	lw	gp,40(sp)
  41a484:	1000000a 	b	41a4b0 <_ftext@@Base+0x19450>
  41a488:	00000000 	nop
  41a48c:	3c050042 	lui	a1,0x42
  41a490:	24a5016c 	addiu	a1,a1,364
  41a494:	3c060042 	lui	a2,0x42
  41a498:	24c600b8 	addiu	a2,a2,184
  41a49c:	3c070042 	lui	a3,0x42
[31m  41a4a0:	8f9980e8 	lw	t9,fprintf[0m
  41a4a4:	0320f809 	jalr	t9
  41a4a8:	24e7ec90 	addiu	a3,a3,-4976
--
  41a4b8:	02002021 	move	a0,s0
  41a4bc:	3c050042 	lui	a1,0x42
  41a4c0:	8f99809c 	lw	t9,-32612(gp)
  41a4c4:	0320f809 	jalr	t9
  41a4c8:	24a500d8 	addiu	a1,a1,216
  41a4cc:	8fbc0028 	lw	gp,40(sp)
  41a4d0:	14400024 	bnez	v0,41a564 <_ftext@@Base+0x19504>
  41a4d4:	02002021 	move	a0,s0
  41a4d8:	afa00130 	sw	zero,304(sp)
  41a4dc:	3c040042 	lui	a0,0x42
  41a4e0:	248400c8 	addiu	a0,a0,200
  41a4e4:	3c050042 	lui	a1,0x42
  41a4e8:	24a500d8 	addiu	a1,a1,216
  41a4ec:	8f998054 	lw	t9,-32684(gp)
  41a4f0:	0320f809 	jalr	t9
  41a4f4:	27a60130 	addiu	a2,sp,304
  41a4f8:	8fbc0028 	lw	gp,40(sp)
  41a4fc:	8fa20130 	lw	v0,304(sp)
  41a500:	1040000c 	beqz	v0,41a534 <_ftext@@Base+0x194d4>
  41a504:	02202021 	move	a0,s1
  41a508:	3c050042 	lui	a1,0x42
  41a50c:	24a5016c 	addiu	a1,a1,364
  41a510:	3c060042 	lui	a2,0x42
  41a514:	24c600d8 	addiu	a2,a2,216
  41a518:	3c070042 	lui	a3,0x42
[31m  41a51c:	8f9980e8 	lw	t9,fprintf[0m
  41a520:	0320f809 	jalr	t9
  41a524:	24e7ec9c 	addiu	a3,a3,-4964
  41a528:	8fbc0028 	lw	gp,40(sp)
  41a52c:	1000000a 	b	41a558 <_ftext@@Base+0x194f8>
  41a530:	00000000 	nop
  41a534:	3c050042 	lui	a1,0x42
  41a538:	24a5016c 	addiu	a1,a1,364
  41a53c:	3c060042 	lui	a2,0x42
  41a540:	24c600d8 	addiu	a2,a2,216
  41a544:	3c070042 	lui	a3,0x42
[31m  41a548:	8f9980e8 	lw	t9,fprintf[0m
  41a54c:	0320f809 	jalr	t9
  41a550:	24e7ec90 	addiu	a3,a3,-4976
--
  41a560:	02002021 	move	a0,s0
  41a564:	3c050042 	lui	a1,0x42
  41a568:	8f99809c 	lw	t9,-32612(gp)
  41a56c:	0320f809 	jalr	t9
  41a570:	24a500e8 	addiu	a1,a1,232
  41a574:	8fbc0028 	lw	gp,40(sp)
  41a578:	14400022 	bnez	v0,41a604 <_ftext@@Base+0x195a4>
  41a57c:	3c020043 	lui	v0,0x43
  41a580:	afa00130 	sw	zero,304(sp)
  41a584:	3c040042 	lui	a0,0x42
  41a588:	248400c8 	addiu	a0,a0,200
  41a58c:	3c050042 	lui	a1,0x42
  41a590:	24a500e8 	addiu	a1,a1,232
  41a594:	8f998054 	lw	t9,-32684(gp)
  41a598:	0320f809 	jalr	t9
  41a59c:	27a60130 	addiu	a2,sp,304
  41a5a0:	8fbc0028 	lw	gp,40(sp)
  41a5a4:	8fa20130 	lw	v0,304(sp)
  41a5a8:	1040000c 	beqz	v0,41a5dc <_ftext@@Base+0x1957c>
  41a5ac:	02202021 	move	a0,s1
  41a5b0:	3c050042 	lui	a1,0x42
  41a5b4:	24a5016c 	addiu	a1,a1,364
  41a5b8:	3c060042 	lui	a2,0x42
  41a5bc:	24c600e8 	addiu	a2,a2,232
  41a5c0:	3c070042 	lui	a3,0x42
[31m  41a5c4:	8f9980e8 	lw	t9,fprintf[0m
  41a5c8:	0320f809 	jalr	t9
  41a5cc:	24e7ec9c 	addiu	a3,a3,-4964
  41a5d0:	8fbc0028 	lw	gp,40(sp)
  41a5d4:	1000000b 	b	41a604 <_ftext@@Base+0x195a4>
  41a5d8:	3c020043 	lui	v0,0x43
  41a5dc:	3c050042 	lui	a1,0x42
  41a5e0:	24a5016c 	addiu	a1,a1,364
  41a5e4:	3c060042 	lui	a2,0x42
  41a5e8:	24c600e8 	addiu	a2,a2,232
  41a5ec:	3c070042 	lui	a3,0x42
[31m  41a5f0:	8f9980e8 	lw	t9,fprintf[0m
  41a5f4:	0320f809 	jalr	t9
  41a5f8:	24e7ec90 	addiu	a3,a3,-4976
--
  41a624:	02002021 	move	a0,s0
  41a628:	3c050042 	lui	a1,0x42
  41a62c:	8f99809c 	lw	t9,-32612(gp)
  41a630:	0320f809 	jalr	t9
  41a634:	24a500f4 	addiu	a1,a1,244
  41a638:	8fbc0028 	lw	gp,40(sp)
  41a63c:	14400024 	bnez	v0,41a6d0 <_ftext@@Base+0x19670>
  41a640:	02002021 	move	a0,s0
  41a644:	afa00130 	sw	zero,304(sp)
  41a648:	3c040042 	lui	a0,0x42
  41a64c:	248400c8 	addiu	a0,a0,200
  41a650:	3c050042 	lui	a1,0x42
  41a654:	24a500f4 	addiu	a1,a1,244
  41a658:	8f998054 	lw	t9,-32684(gp)
  41a65c:	0320f809 	jalr	t9
  41a660:	27a60130 	addiu	a2,sp,304
  41a664:	8fbc0028 	lw	gp,40(sp)
  41a668:	8fa20130 	lw	v0,304(sp)
  41a66c:	1040000c 	beqz	v0,41a6a0 <_ftext@@Base+0x19640>
  41a670:	02202021 	move	a0,s1
  41a674:	3c050042 	lui	a1,0x42
  41a678:	24a5016c 	addiu	a1,a1,364
  41a67c:	3c060042 	lui	a2,0x42
  41a680:	24c600f4 	addiu	a2,a2,244
  41a684:	3c070042 	lui	a3,0x42
[31m  41a688:	8f9980e8 	lw	t9,fprintf[0m
  41a68c:	0320f809 	jalr	t9
  41a690:	24e7ec9c 	addiu	a3,a3,-4964
  41a694:	8fbc0028 	lw	gp,40(sp)
  41a698:	1000000a 	b	41a6c4 <_ftext@@Base+0x19664>
  41a69c:	00000000 	nop
  41a6a0:	3c050042 	lui	a1,0x42
  41a6a4:	24a5016c 	addiu	a1,a1,364
  41a6a8:	3c060042 	lui	a2,0x42
  41a6ac:	24c600f4 	addiu	a2,a2,244
  41a6b0:	3c070042 	lui	a3,0x42
[31m  41a6b4:	8f9980e8 	lw	t9,fprintf[0m
  41a6b8:	0320f809 	jalr	t9
  41a6bc:	24e7ec90 	addiu	a3,a3,-4976
--
  41a6cc:	02002021 	move	a0,s0
  41a6d0:	3c050042 	lui	a1,0x42
  41a6d4:	8f99809c 	lw	t9,-32612(gp)
  41a6d8:	0320f809 	jalr	t9
  41a6dc:	24a50108 	addiu	a1,a1,264
  41a6e0:	8fbc0028 	lw	gp,40(sp)
  41a6e4:	14400022 	bnez	v0,41a770 <_ftext@@Base+0x19710>
  41a6e8:	3c020043 	lui	v0,0x43
  41a6ec:	afa00130 	sw	zero,304(sp)
  41a6f0:	3c040042 	lui	a0,0x42
  41a6f4:	248400c8 	addiu	a0,a0,200
  41a6f8:	3c050042 	lui	a1,0x42
  41a6fc:	24a50108 	addiu	a1,a1,264
  41a700:	8f998054 	lw	t9,-32684(gp)
  41a704:	0320f809 	jalr	t9
  41a708:	27a60130 	addiu	a2,sp,304
  41a70c:	8fbc0028 	lw	gp,40(sp)
  41a710:	8fa20130 	lw	v0,304(sp)
  41a714:	1040000c 	beqz	v0,41a748 <_ftext@@Base+0x196e8>
  41a718:	02202021 	move	a0,s1
  41a71c:	3c050042 	lui	a1,0x42
  41a720:	24a5016c 	addiu	a1,a1,364
  41a724:	3c060042 	lui	a2,0x42
  41a728:	24c60108 	addiu	a2,a2,264
  41a72c:	3c070042 	lui	a3,0x42
[31m  41a730:	8f9980e8 	lw	t9,fprintf[0m
  41a734:	0320f809 	jalr	t9
  41a738:	24e7ec9c 	addiu	a3,a3,-4964
  41a73c:	8fbc0028 	lw	gp,40(sp)
  41a740:	1000000b 	b	41a770 <_ftext@@Base+0x19710>
  41a744:	3c020043 	lui	v0,0x43
  41a748:	3c050042 	lui	a1,0x42
  41a74c:	24a5016c 	addiu	a1,a1,364
  41a750:	3c060042 	lui	a2,0x42
  41a754:	24c60108 	addiu	a2,a2,264
  41a758:	3c070042 	lui	a3,0x42
[31m  41a75c:	8f9980e8 	lw	t9,fprintf[0m
  41a760:	0320f809 	jalr	t9
  41a764:	24e7ec90 	addiu	a3,a3,-4976
--
  41a790:	02002021 	move	a0,s0
  41a794:	3c050042 	lui	a1,0x42
  41a798:	8f99809c 	lw	t9,-32612(gp)
  41a79c:	0320f809 	jalr	t9
  41a7a0:	24a5011c 	addiu	a1,a1,284
  41a7a4:	8fbc0028 	lw	gp,40(sp)
  41a7a8:	14400024 	bnez	v0,41a83c <_ftext@@Base+0x197dc>
  41a7ac:	02002021 	move	a0,s0
  41a7b0:	afa00130 	sw	zero,304(sp)
  41a7b4:	3c040042 	lui	a0,0x42
  41a7b8:	248400c8 	addiu	a0,a0,200
  41a7bc:	3c050042 	lui	a1,0x42
  41a7c0:	24a5011c 	addiu	a1,a1,284
  41a7c4:	8f998054 	lw	t9,-32684(gp)
  41a7c8:	0320f809 	jalr	t9
  41a7cc:	27a60130 	addiu	a2,sp,304
  41a7d0:	8fbc0028 	lw	gp,40(sp)
  41a7d4:	8fa20130 	lw	v0,304(sp)
  41a7d8:	1040000c 	beqz	v0,41a80c <_ftext@@Base+0x197ac>
  41a7dc:	02202021 	move	a0,s1
  41a7e0:	3c050042 	lui	a1,0x42
  41a7e4:	24a5016c 	addiu	a1,a1,364
  41a7e8:	3c060042 	lui	a2,0x42
  41a7ec:	24c6011c 	addiu	a2,a2,284
  41a7f0:	3c070042 	lui	a3,0x42
[31m  41a7f4:	8f9980e8 	lw	t9,fprintf[0m
  41a7f8:	0320f809 	jalr	t9
  41a7fc:	24e7ec9c 	addiu	a3,a3,-4964
  41a800:	8fbc0028 	lw	gp,40(sp)
  41a804:	1000000a 	b	41a830 <_ftext@@Base+0x197d0>
  41a808:	00000000 	nop
  41a80c:	3c050042 	lui	a1,0x42
  41a810:	24a5016c 	addiu	a1,a1,364
  41a814:	3c060042 	lui	a2,0x42
  41a818:	24c6011c 	addiu	a2,a2,284
  41a81c:	3c070042 	lui	a3,0x42
[31m  41a820:	8f9980e8 	lw	t9,fprintf[0m
  41a824:	0320f809 	jalr	t9
  41a828:	24e7ec90 	addiu	a3,a3,-4976
--
  41a838:	02002021 	move	a0,s0
  41a83c:	3c050042 	lui	a1,0x42
  41a840:	8f99809c 	lw	t9,-32612(gp)
  41a844:	0320f809 	jalr	t9
  41a848:	24a50130 	addiu	a1,a1,304
  41a84c:	8fbc0028 	lw	gp,40(sp)
  41a850:	14400024 	bnez	v0,41a8e4 <_ftext@@Base+0x19884>
  41a854:	02002021 	move	a0,s0
  41a858:	afa00130 	sw	zero,304(sp)
  41a85c:	3c040042 	lui	a0,0x42
  41a860:	248400c8 	addiu	a0,a0,200
  41a864:	3c050042 	lui	a1,0x42
  41a868:	24a50130 	addiu	a1,a1,304
  41a86c:	8f998054 	lw	t9,-32684(gp)
  41a870:	0320f809 	jalr	t9
  41a874:	27a60130 	addiu	a2,sp,304
  41a878:	8fbc0028 	lw	gp,40(sp)
  41a87c:	8fa20130 	lw	v0,304(sp)
  41a880:	1040000c 	beqz	v0,41a8b4 <_ftext@@Base+0x19854>
  41a884:	02202021 	move	a0,s1
  41a888:	3c050042 	lui	a1,0x42
  41a88c:	24a5016c 	addiu	a1,a1,364
  41a890:	3c060042 	lui	a2,0x42
  41a894:	24c60130 	addiu	a2,a2,304
  41a898:	3c070042 	lui	a3,0x42
[31m  41a89c:	8f9980e8 	lw	t9,fprintf[0m
  41a8a0:	0320f809 	jalr	t9
  41a8a4:	24e7ec9c 	addiu	a3,a3,-4964
  41a8a8:	8fbc0028 	lw	gp,40(sp)
  41a8ac:	1000000a 	b	41a8d8 <_ftext@@Base+0x19878>
  41a8b0:	00000000 	nop
  41a8b4:	3c050042 	lui	a1,0x42
  41a8b8:	24a5016c 	addiu	a1,a1,364
  41a8bc:	3c060042 	lui	a2,0x42
  41a8c0:	24c60130 	addiu	a2,a2,304
  41a8c4:	3c070042 	lui	a3,0x42
[31m  41a8c8:	8f9980e8 	lw	t9,fprintf[0m
  41a8cc:	0320f809 	jalr	t9
  41a8d0:	24e7ec90 	addiu	a3,a3,-4976
--
  41a8e0:	02002021 	move	a0,s0
  41a8e4:	3c050042 	lui	a1,0x42
  41a8e8:	8f99809c 	lw	t9,-32612(gp)
  41a8ec:	0320f809 	jalr	t9
  41a8f0:	24a5fe40 	addiu	a1,a1,-448
  41a8f4:	8fbc0028 	lw	gp,40(sp)
  41a8f8:	14400024 	bnez	v0,41a98c <_ftext@@Base+0x1992c>
  41a8fc:	02002021 	move	a0,s0
  41a900:	afa00130 	sw	zero,304(sp)
  41a904:	3c040042 	lui	a0,0x42
  41a908:	248400c8 	addiu	a0,a0,200
  41a90c:	3c050042 	lui	a1,0x42
  41a910:	24a5fe40 	addiu	a1,a1,-448
  41a914:	8f998054 	lw	t9,-32684(gp)
  41a918:	0320f809 	jalr	t9
  41a91c:	27a60130 	addiu	a2,sp,304
  41a920:	8fbc0028 	lw	gp,40(sp)
  41a924:	8fa20130 	lw	v0,304(sp)
  41a928:	1040000c 	beqz	v0,41a95c <_ftext@@Base+0x198fc>
  41a92c:	02202021 	move	a0,s1
  41a930:	3c050042 	lui	a1,0x42
  41a934:	24a5016c 	addiu	a1,a1,364
  41a938:	3c060042 	lui	a2,0x42
  41a93c:	24c6fe40 	addiu	a2,a2,-448
  41a940:	3c070042 	lui	a3,0x42
[31m  41a944:	8f9980e8 	lw	t9,fprintf[0m
  41a948:	0320f809 	jalr	t9
  41a94c:	24e7ec9c 	addiu	a3,a3,-4964
  41a950:	8fbc0028 	lw	gp,40(sp)
  41a954:	1000000a 	b	41a980 <_ftext@@Base+0x19920>
  41a958:	00000000 	nop
  41a95c:	3c050042 	lui	a1,0x42
  41a960:	24a5016c 	addiu	a1,a1,364
  41a964:	3c060042 	lui	a2,0x42
  41a968:	24c6fe40 	addiu	a2,a2,-448
  41a96c:	3c070042 	lui	a3,0x42
[31m  41a970:	8f9980e8 	lw	t9,fprintf[0m
  41a974:	0320f809 	jalr	t9
  41a978:	24e7ec90 	addiu	a3,a3,-4976
--
  41a988:	02002021 	move	a0,s0
  41a98c:	3c050042 	lui	a1,0x42
  41a990:	8f99809c 	lw	t9,-32612(gp)
  41a994:	0320f809 	jalr	t9
  41a998:	24a5fe28 	addiu	a1,a1,-472
  41a99c:	8fbc0028 	lw	gp,40(sp)
  41a9a0:	144002e0 	bnez	v0,41b524 <_ftext@@Base+0x1a4c4>
  41a9a4:	00000000 	nop
  41a9a8:	afa00130 	sw	zero,304(sp)
  41a9ac:	3c040042 	lui	a0,0x42
  41a9b0:	248400c8 	addiu	a0,a0,200
  41a9b4:	3c050042 	lui	a1,0x42
  41a9b8:	24a5fe28 	addiu	a1,a1,-472
  41a9bc:	8f998054 	lw	t9,-32684(gp)
  41a9c0:	0320f809 	jalr	t9
  41a9c4:	27a60130 	addiu	a2,sp,304
  41a9c8:	8fbc0028 	lw	gp,40(sp)
  41a9cc:	8fa20130 	lw	v0,304(sp)
  41a9d0:	1040000b 	beqz	v0,41aa00 <_ftext@@Base+0x199a0>
  41a9d4:	02202021 	move	a0,s1
  41a9d8:	3c050042 	lui	a1,0x42
  41a9dc:	24a5016c 	addiu	a1,a1,364
  41a9e0:	3c060042 	lui	a2,0x42
  41a9e4:	24c6fe28 	addiu	a2,a2,-472
  41a9e8:	3c070042 	lui	a3,0x42
[31m  41a9ec:	8f9980e8 	lw	t9,fprintf[0m
  41a9f0:	0320f809 	jalr	t9
  41a9f4:	24e7ec9c 	addiu	a3,a3,-4964
  41a9f8:	100002ca 	b	41b524 <_ftext@@Base+0x1a4c4>
  41a9fc:	00000000 	nop
  41aa00:	3c050042 	lui	a1,0x42
  41aa04:	24a5016c 	addiu	a1,a1,364
  41aa08:	3c060042 	lui	a2,0x42
  41aa0c:	24c6fe28 	addiu	a2,a2,-472
  41aa10:	3c070042 	lui	a3,0x42
[31m  41aa14:	8f9980e8 	lw	t9,fprintf[0m
  41aa18:	0320f809 	jalr	t9
  41aa1c:	24e7ec90 	addiu	a3,a3,-4976
--
  41aa9c:	02002021 	move	a0,s0
  41aaa0:	3c050042 	lui	a1,0x42
  41aaa4:	8f99809c 	lw	t9,-32612(gp)
  41aaa8:	0320f809 	jalr	t9
  41aaac:	24a5ec88 	addiu	a1,a1,-4984
  41aab0:	8fbc0028 	lw	gp,40(sp)
  41aab4:	14400024 	bnez	v0,41ab48 <_ftext@@Base+0x19ae8>
  41aab8:	02002021 	move	a0,s0
  41aabc:	afa00130 	sw	zero,304(sp)
  41aac0:	3c040042 	lui	a0,0x42
  41aac4:	2484eb78 	addiu	a0,a0,-5256
  41aac8:	3c050042 	lui	a1,0x42
  41aacc:	24a5ec94 	addiu	a1,a1,-4972
  41aad0:	8f998054 	lw	t9,-32684(gp)
  41aad4:	0320f809 	jalr	t9
  41aad8:	27a60130 	addiu	a2,sp,304
  41aadc:	8fbc0028 	lw	gp,40(sp)
  41aae0:	8fa20130 	lw	v0,304(sp)
  41aae4:	1040000c 	beqz	v0,41ab18 <_ftext@@Base+0x19ab8>
  41aae8:	02202021 	move	a0,s1
  41aaec:	3c050042 	lui	a1,0x42
  41aaf0:	24a5016c 	addiu	a1,a1,364
  41aaf4:	3c060042 	lui	a2,0x42
  41aaf8:	24c6ec88 	addiu	a2,a2,-4984
  41aafc:	3c070042 	lui	a3,0x42
[31m  41ab00:	8f9980e8 	lw	t9,fprintf[0m
  41ab04:	0320f809 	jalr	t9
  41ab08:	24e7ec9c 	addiu	a3,a3,-4964
  41ab0c:	8fbc0028 	lw	gp,40(sp)
  41ab10:	1000000a 	b	41ab3c <_ftext@@Base+0x19adc>
  41ab14:	00000000 	nop
  41ab18:	3c050042 	lui	a1,0x42
  41ab1c:	24a5016c 	addiu	a1,a1,364
  41ab20:	3c060042 	lui	a2,0x42
  41ab24:	24c6ec88 	addiu	a2,a2,-4984
  41ab28:	3c070042 	lui	a3,0x42
[31m  41ab2c:	8f9980e8 	lw	t9,fprintf[0m
  41ab30:	0320f809 	jalr	t9
  41ab34:	24e7ec90 	addiu	a3,a3,-4976
--
  41ab50:	0320f809 	jalr	t9
  41ab54:	24a5ec80 	addiu	a1,a1,-4992
  41ab58:	8fbc0028 	lw	gp,40(sp)
  41ab5c:	1440001c 	bnez	v0,41abd0 <_ftext@@Base+0x19b70>
  41ab60:	02002021 	move	a0,s0
  41ab64:	27b30030 	addiu	s3,sp,48
  41ab68:	02602021 	move	a0,s3
  41ab6c:	00002821 	move	a1,zero
  41ab70:	8f9980ac 	lw	t9,-32596(gp)
  41ab74:	0320f809 	jalr	t9
  41ab78:	24060100 	li	a2,256
  41ab7c:	8fbc0028 	lw	gp,40(sp)
  41ab80:	3c040042 	lui	a0,0x42
  41ab84:	2484eb78 	addiu	a0,a0,-5256
  41ab88:	3c050042 	lui	a1,0x42
  41ab8c:	24a5eb84 	addiu	a1,a1,-5244
  41ab90:	8f998054 	lw	t9,-32684(gp)
  41ab94:	0320f809 	jalr	t9
  41ab98:	02603021 	move	a2,s3
  41ab9c:	8fbc0028 	lw	gp,40(sp)
  41aba0:	02202021 	move	a0,s1
  41aba4:	3c050042 	lui	a1,0x42
  41aba8:	24a5016c 	addiu	a1,a1,364
  41abac:	3c060042 	lui	a2,0x42
  41abb0:	24c6ec80 	addiu	a2,a2,-4992
[31m  41abb4:	8f9980e8 	lw	t9,fprintf[0m
  41abb8:	0320f809 	jalr	t9
  41abbc:	02603821 	move	a3,s3
--
  41abcc:	02002021 	move	a0,s0
  41abd0:	3c050042 	lui	a1,0x42
  41abd4:	8f99809c 	lw	t9,-32612(gp)
  41abd8:	0320f809 	jalr	t9
  41abdc:	24a5f5d0 	addiu	a1,a1,-2608
  41abe0:	8fbc0028 	lw	gp,40(sp)
  41abe4:	14400024 	bnez	v0,41ac78 <_ftext@@Base+0x19c18>
  41abe8:	02002021 	move	a0,s0
  41abec:	afa00130 	sw	zero,304(sp)
  41abf0:	3c040042 	lui	a0,0x42
  41abf4:	2484eb78 	addiu	a0,a0,-5256
  41abf8:	3c050042 	lui	a1,0x42
  41abfc:	24a5f5d0 	addiu	a1,a1,-2608
  41ac00:	8f998054 	lw	t9,-32684(gp)
  41ac04:	0320f809 	jalr	t9
  41ac08:	27a60130 	addiu	a2,sp,304
  41ac0c:	8fbc0028 	lw	gp,40(sp)
  41ac10:	8fa20130 	lw	v0,304(sp)
  41ac14:	1440000c 	bnez	v0,41ac48 <_ftext@@Base+0x19be8>
  41ac18:	02202021 	move	a0,s1
  41ac1c:	3c050042 	lui	a1,0x42
  41ac20:	24a5016c 	addiu	a1,a1,364
  41ac24:	3c060042 	lui	a2,0x42
  41ac28:	24c6f5d0 	addiu	a2,a2,-2608
  41ac2c:	3c070042 	lui	a3,0x42
[31m  41ac30:	8f9980e8 	lw	t9,fprintf[0m
  41ac34:	0320f809 	jalr	t9
  41ac38:	24e7eca0 	addiu	a3,a3,-4960
  41ac3c:	8fbc0028 	lw	gp,40(sp)
  41ac40:	1000000a 	b	41ac6c <_ftext@@Base+0x19c0c>
  41ac44:	00000000 	nop
  41ac48:	3c050042 	lui	a1,0x42
  41ac4c:	24a5016c 	addiu	a1,a1,364
  41ac50:	3c060042 	lui	a2,0x42
  41ac54:	24c6f5d0 	addiu	a2,a2,-2608
  41ac58:	3c070042 	lui	a3,0x42
[31m  41ac5c:	8f9980e8 	lw	t9,fprintf[0m
  41ac60:	0320f809 	jalr	t9
  41ac64:	24e7eca8 	addiu	a3,a3,-4952
  41ac68:	8fbc0028 	lw	gp,40(sp)
  41ac6c:	92420000 	lbu	v0,0(s2)
  41ac70:	10400008 	beqz	v0,41ac94 <_ftext@@Base+0x19c34>
  41ac74:	02002021 	move	a0,s0
  41ac78:	3c050042 	lui	a1,0x42
  41ac7c:	8f99809c 	lw	t9,-32612(gp)
  41ac80:	0320f809 	jalr	t9
  41ac84:	24a5eb8c 	addiu	a1,a1,-5236
  41ac88:	8fbc0028 	lw	gp,40(sp)
  41ac8c:	14400015 	bnez	v0,41ace4 <_ftext@@Base+0x19c84>
  41ac90:	02002021 	move	a0,s0
  41ac94:	afa00130 	sw	zero,304(sp)
  41ac98:	3c040042 	lui	a0,0x42
  41ac9c:	2484eb78 	addiu	a0,a0,-5256
  41aca0:	3c130042 	lui	s3,0x42
  41aca4:	2665eb8c 	addiu	a1,s3,-5236
  41aca8:	8f998054 	lw	t9,-32684(gp)
  41acac:	0320f809 	jalr	t9
  41acb0:	27a60130 	addiu	a2,sp,304
  41acb4:	8fbc0028 	lw	gp,40(sp)
  41acb8:	02202021 	move	a0,s1
  41acbc:	3c050042 	lui	a1,0x42
  41acc0:	24a501f4 	addiu	a1,a1,500
  41acc4:	8fa70130 	lw	a3,304(sp)
[31m  41acc8:	8f9980e8 	lw	t9,fprintf[0m
  41accc:	0320f809 	jalr	t9
  41acd0:	2666eb8c 	addiu	a2,s3,-5236
--
  41b0f4:	0320f809 	jalr	t9
  41b0f8:	24a5ecf0 	addiu	a1,a1,-4880
  41b0fc:	8fbc0028 	lw	gp,40(sp)
  41b100:	1440001c 	bnez	v0,41b174 <_ftext@@Base+0x1a114>
  41b104:	02002021 	move	a0,s0
  41b108:	27b30030 	addiu	s3,sp,48
  41b10c:	02602021 	move	a0,s3
  41b110:	00002821 	move	a1,zero
  41b114:	8f9980ac 	lw	t9,-32596(gp)
  41b118:	0320f809 	jalr	t9
  41b11c:	24060100 	li	a2,256
  41b120:	8fbc0028 	lw	gp,40(sp)
  41b124:	3c040042 	lui	a0,0x42
  41b128:	2484eb78 	addiu	a0,a0,-5256
  41b12c:	3c050042 	lui	a1,0x42
  41b130:	24a5ec00 	addiu	a1,a1,-5120
  41b134:	8f998054 	lw	t9,-32684(gp)
  41b138:	0320f809 	jalr	t9
  41b13c:	02603021 	move	a2,s3
  41b140:	8fbc0028 	lw	gp,40(sp)
  41b144:	02202021 	move	a0,s1
  41b148:	3c050042 	lui	a1,0x42
  41b14c:	24a5016c 	addiu	a1,a1,364
  41b150:	3c060042 	lui	a2,0x42
  41b154:	24c6ecf0 	addiu	a2,a2,-4880
[31m  41b158:	8f9980e8 	lw	t9,fprintf[0m
  41b15c:	0320f809 	jalr	t9
  41b160:	02603821 	move	a3,s3
--
  41b17c:	0320f809 	jalr	t9
  41b180:	24a5ecfc 	addiu	a1,a1,-4868
  41b184:	8fbc0028 	lw	gp,40(sp)
  41b188:	1440001c 	bnez	v0,41b1fc <_ftext@@Base+0x1a19c>
  41b18c:	02002021 	move	a0,s0
  41b190:	27b30030 	addiu	s3,sp,48
  41b194:	02602021 	move	a0,s3
  41b198:	00002821 	move	a1,zero
  41b19c:	8f9980ac 	lw	t9,-32596(gp)
  41b1a0:	0320f809 	jalr	t9
  41b1a4:	24060100 	li	a2,256
  41b1a8:	8fbc0028 	lw	gp,40(sp)
  41b1ac:	3c040042 	lui	a0,0x42
  41b1b0:	2484eb78 	addiu	a0,a0,-5256
  41b1b4:	3c050042 	lui	a1,0x42
  41b1b8:	24a5ec00 	addiu	a1,a1,-5120
  41b1bc:	8f998054 	lw	t9,-32684(gp)
  41b1c0:	0320f809 	jalr	t9
  41b1c4:	02603021 	move	a2,s3
  41b1c8:	8fbc0028 	lw	gp,40(sp)
  41b1cc:	02202021 	move	a0,s1
  41b1d0:	3c050042 	lui	a1,0x42
  41b1d4:	24a5016c 	addiu	a1,a1,364
  41b1d8:	3c060042 	lui	a2,0x42
  41b1dc:	24c6ecfc 	addiu	a2,a2,-4868
[31m  41b1e0:	8f9980e8 	lw	t9,fprintf[0m
  41b1e4:	0320f809 	jalr	t9
  41b1e8:	02603821 	move	a3,s3
--
  41b2a8:	0320f809 	jalr	t9
  41b2ac:	24a5ed5c 	addiu	a1,a1,-4772
  41b2b0:	8fbc0028 	lw	gp,40(sp)
  41b2b4:	1440001c 	bnez	v0,41b328 <_ftext@@Base+0x1a2c8>
  41b2b8:	02002021 	move	a0,s0
  41b2bc:	27b30030 	addiu	s3,sp,48
  41b2c0:	02602021 	move	a0,s3
  41b2c4:	00002821 	move	a1,zero
  41b2c8:	8f9980ac 	lw	t9,-32596(gp)
  41b2cc:	0320f809 	jalr	t9
  41b2d0:	24060100 	li	a2,256
  41b2d4:	8fbc0028 	lw	gp,40(sp)
  41b2d8:	3c040042 	lui	a0,0x42
  41b2dc:	2484eb78 	addiu	a0,a0,-5256
  41b2e0:	3c050042 	lui	a1,0x42
  41b2e4:	24a5ed64 	addiu	a1,a1,-4764
  41b2e8:	8f998054 	lw	t9,-32684(gp)
  41b2ec:	0320f809 	jalr	t9
  41b2f0:	02603021 	move	a2,s3
  41b2f4:	8fbc0028 	lw	gp,40(sp)
  41b2f8:	02202021 	move	a0,s1
  41b2fc:	3c050042 	lui	a1,0x42
  41b300:	24a5016c 	addiu	a1,a1,364
  41b304:	3c060042 	lui	a2,0x42
  41b308:	24c6ed5c 	addiu	a2,a2,-4772
[31m  41b30c:	8f9980e8 	lw	t9,fprintf[0m
  41b310:	0320f809 	jalr	t9
  41b314:	02603821 	move	a3,s3
--
  41b330:	0320f809 	jalr	t9
  41b334:	24a5ed6c 	addiu	a1,a1,-4756
  41b338:	8fbc0028 	lw	gp,40(sp)
  41b33c:	1440001c 	bnez	v0,41b3b0 <_ftext@@Base+0x1a350>
  41b340:	02002021 	move	a0,s0
  41b344:	27b30030 	addiu	s3,sp,48
  41b348:	02602021 	move	a0,s3
  41b34c:	00002821 	move	a1,zero
  41b350:	8f9980ac 	lw	t9,-32596(gp)
  41b354:	0320f809 	jalr	t9
  41b358:	24060100 	li	a2,256
  41b35c:	8fbc0028 	lw	gp,40(sp)
  41b360:	3c040042 	lui	a0,0x42
  41b364:	2484eb78 	addiu	a0,a0,-5256
  41b368:	3c050042 	lui	a1,0x42
  41b36c:	24a5ed74 	addiu	a1,a1,-4748
  41b370:	8f998054 	lw	t9,-32684(gp)
  41b374:	0320f809 	jalr	t9
  41b378:	02603021 	move	a2,s3
  41b37c:	8fbc0028 	lw	gp,40(sp)
  41b380:	02202021 	move	a0,s1
  41b384:	3c050042 	lui	a1,0x42
  41b388:	24a5016c 	addiu	a1,a1,364
  41b38c:	3c060042 	lui	a2,0x42
  41b390:	24c6ed6c 	addiu	a2,a2,-4756
[31m  41b394:	8f9980e8 	lw	t9,fprintf[0m
  41b398:	0320f809 	jalr	t9
  41b39c:	02603821 	move	a3,s3
--
  41b3b8:	0320f809 	jalr	t9
  41b3bc:	24a5ed7c 	addiu	a1,a1,-4740
  41b3c0:	8fbc0028 	lw	gp,40(sp)
  41b3c4:	1440001c 	bnez	v0,41b438 <_ftext@@Base+0x1a3d8>
  41b3c8:	02002021 	move	a0,s0
  41b3cc:	27b30030 	addiu	s3,sp,48
  41b3d0:	02602021 	move	a0,s3
  41b3d4:	00002821 	move	a1,zero
  41b3d8:	8f9980ac 	lw	t9,-32596(gp)
  41b3dc:	0320f809 	jalr	t9
  41b3e0:	24060100 	li	a2,256
  41b3e4:	8fbc0028 	lw	gp,40(sp)
  41b3e8:	3c040042 	lui	a0,0x42
  41b3ec:	2484eb78 	addiu	a0,a0,-5256
  41b3f0:	3c050042 	lui	a1,0x42
  41b3f4:	24a5ed84 	addiu	a1,a1,-4732
  41b3f8:	8f998054 	lw	t9,-32684(gp)
  41b3fc:	0320f809 	jalr	t9
  41b400:	02603021 	move	a2,s3
  41b404:	8fbc0028 	lw	gp,40(sp)
  41b408:	02202021 	move	a0,s1
  41b40c:	3c050042 	lui	a1,0x42
  41b410:	24a5016c 	addiu	a1,a1,364
  41b414:	3c060042 	lui	a2,0x42
  41b418:	24c6ed7c 	addiu	a2,a2,-4740
[31m  41b41c:	8f9980e8 	lw	t9,fprintf[0m
  41b420:	0320f809 	jalr	t9
  41b424:	02603821 	move	a3,s3
--
  41b440:	0320f809 	jalr	t9
  41b444:	24a5ed8c 	addiu	a1,a1,-4724
  41b448:	8fbc0028 	lw	gp,40(sp)
  41b44c:	1440001c 	bnez	v0,41b4c0 <_ftext@@Base+0x1a460>
  41b450:	02002021 	move	a0,s0
  41b454:	27b30030 	addiu	s3,sp,48
  41b458:	02602021 	move	a0,s3
  41b45c:	00002821 	move	a1,zero
  41b460:	8f9980ac 	lw	t9,-32596(gp)
  41b464:	0320f809 	jalr	t9
  41b468:	24060100 	li	a2,256
  41b46c:	8fbc0028 	lw	gp,40(sp)
  41b470:	3c040042 	lui	a0,0x42
  41b474:	2484eb78 	addiu	a0,a0,-5256
  41b478:	3c050042 	lui	a1,0x42
  41b47c:	24a5ed94 	addiu	a1,a1,-4716
  41b480:	8f998054 	lw	t9,-32684(gp)
  41b484:	0320f809 	jalr	t9
  41b488:	02603021 	move	a2,s3
  41b48c:	8fbc0028 	lw	gp,40(sp)
  41b490:	02202021 	move	a0,s1
  41b494:	3c050042 	lui	a1,0x42
  41b498:	24a5016c 	addiu	a1,a1,364
  41b49c:	3c060042 	lui	a2,0x42
  41b4a0:	24c6ed8c 	addiu	a2,a2,-4724
[31m  41b4a4:	8f9980e8 	lw	t9,fprintf[0m
  41b4a8:	0320f809 	jalr	t9
  41b4ac:	02603821 	move	a3,s3
--
  41b4b4:	92420000 	lbu	v0,0(s2)
  41b4b8:	10400008 	beqz	v0,41b4dc <_ftext@@Base+0x1a47c>
  41b4bc:	02002021 	move	a0,s0
  41b4c0:	3c050042 	lui	a1,0x42
  41b4c4:	8f99809c 	lw	t9,-32612(gp)
  41b4c8:	0320f809 	jalr	t9
  41b4cc:	24a5ed9c 	addiu	a1,a1,-4708
  41b4d0:	8fbc0028 	lw	gp,40(sp)
  41b4d4:	14400013 	bnez	v0,41b524 <_ftext@@Base+0x1a4c4>
  41b4d8:	00000000 	nop
  41b4dc:	afa00130 	sw	zero,304(sp)
  41b4e0:	3c040042 	lui	a0,0x42
  41b4e4:	2484eb78 	addiu	a0,a0,-5256
  41b4e8:	3c050042 	lui	a1,0x42
  41b4ec:	24a5eda8 	addiu	a1,a1,-4696
  41b4f0:	8f998054 	lw	t9,-32684(gp)
  41b4f4:	0320f809 	jalr	t9
  41b4f8:	27a60130 	addiu	a2,sp,304
  41b4fc:	8fbc0028 	lw	gp,40(sp)
  41b500:	02202021 	move	a0,s1
  41b504:	3c050042 	lui	a1,0x42
  41b508:	24a501f4 	addiu	a1,a1,500
  41b50c:	3c060042 	lui	a2,0x42
  41b510:	24c6ed9c 	addiu	a2,a2,-4708
  41b514:	8fa70130 	lw	a3,304(sp)
[31m  41b518:	8f9980e8 	lw	t9,fprintf[0m
  41b51c:	0320f809 	jalr	t9
  41b520:	24e70001 	addiu	a3,a3,1

[0m
[[0;33m*[0m] Function [0;33mfprintf[0m used [0;33m427[0m times [0;33mparam.cgi[0m

