[[0;33m*[0m] Binary protection state of [0;33mubiformat[0m

  	RELRO          CANARY            NX           PIE          RPATH        RUNPATH      SYMBOLS      
  	[31mNo RELRO[0m       [31mNo Canary found[0m   [31mNX disabled[0m  [31mNo PIE[0m       [32mNo RPATH[0m     [32mNo RUNPATH[0m   [31mSymbols[0m

[0m
[[0;33m*[0m] Function [0;33msprintf[0m tear down of [0;33mubiformat[0m

  405e9c:	0810178b 	j	405e2c <read_positive_int+0x58>
  405ea0:	2403ffff 	li	v1,-1

00405ea4 <dev_read_int>:
  405ea4:	3c1c0043 	lui	gp,0x43
  405ea8:	279c9240 	addiu	gp,gp,-28096
  405eac:	8f998104 	lw	t9,strlen
  405eb0:	27bdffd0 	addiu	sp,sp,-48
  405eb4:	afbf002c 	sw	ra,44(sp)
  405eb8:	afbe0028 	sw	s8,40(sp)
  405ebc:	afb30024 	sw	s3,36(sp)
  405ec0:	03a0f021 	move	s8,sp
  405ec4:	afb20020 	sw	s2,32(sp)
  405ec8:	afb1001c 	sw	s1,28(sp)
  405ecc:	afb00018 	sw	s0,24(sp)
  405ed0:	afbc0010 	sw	gp,16(sp)
  405ed4:	00809821 	move	s3,a0
  405ed8:	00a09021 	move	s2,a1
  405edc:	0320f809 	jalr	t9
  405ee0:	00c08821 	move	s1,a2
  405ee4:	24420040 	addiu	v0,v0,64
  405ee8:	8fdc0010 	lw	gp,16(s8)
  405eec:	000210c2 	srl	v0,v0,0x3
  405ef0:	000210c0 	sll	v0,v0,0x3
  405ef4:	03a2e823 	subu	sp,sp,v0
[31m  405ef8:	8f99811c 	lw	t9,sprintf[0m
  405efc:	27b00010 	addiu	s0,sp,16
  405f00:	02403021 	move	a2,s2
--
004072dc <dev_get_major>:
  4072dc:	27bdff88 	addiu	sp,sp,-120
  4072e0:	3c1c0043 	lui	gp,0x43
  4072e4:	279c9240 	addiu	gp,gp,-28096
  4072e8:	afb10060 	sw	s1,96(sp)
  4072ec:	8c910008 	lw	s1,8(a0)
  4072f0:	8f998104 	lw	t9,strlen
  4072f4:	afbf0074 	sw	ra,116(sp)
  4072f8:	afbe0070 	sw	s8,112(sp)
  4072fc:	afb4006c 	sw	s4,108(sp)
  407300:	03a0f021 	move	s8,sp
  407304:	afb30068 	sw	s3,104(sp)
  407308:	afb20064 	sw	s2,100(sp)
  40730c:	afb0005c 	sw	s0,92(sp)
  407310:	afbc0018 	sw	gp,24(sp)
  407314:	02202021 	move	a0,s1
  407318:	00a0a021 	move	s4,a1
  40731c:	00e09821 	move	s3,a3
  407320:	0320f809 	jalr	t9
  407324:	00c09021 	move	s2,a2
  407328:	24420040 	addiu	v0,v0,64
  40732c:	8fdc0018 	lw	gp,24(s8)
  407330:	000210c2 	srl	v0,v0,0x3
  407334:	000210c0 	sll	v0,v0,0x3
  407338:	03a2e823 	subu	sp,sp,v0
[31m  40733c:	8f99811c 	lw	t9,sprintf[0m
  407340:	27b00018 	addiu	s0,sp,24
  407344:	02002021 	move	a0,s0
--
  407478:	2402ffff 	li	v0,-1

0040747c <dev_read_data>:
  40747c:	3c1c0043 	lui	gp,0x43
  407480:	279c9240 	addiu	gp,gp,-28096
  407484:	27bdffc8 	addiu	sp,sp,-56
  407488:	8f998104 	lw	t9,strlen
  40748c:	afbe0030 	sw	s8,48(sp)
  407490:	03a0f021 	move	s8,sp
  407494:	afbf0034 	sw	ra,52(sp)
  407498:	afc70018 	sw	a3,24(s8)
  40749c:	afb3002c 	sw	s3,44(sp)
  4074a0:	afb20028 	sw	s2,40(sp)
  4074a4:	afb10024 	sw	s1,36(sp)
  4074a8:	afb00020 	sw	s0,32(sp)
  4074ac:	afbc0010 	sw	gp,16(sp)
  4074b0:	00809821 	move	s3,a0
  4074b4:	00a09021 	move	s2,a1
  4074b8:	0320f809 	jalr	t9
  4074bc:	00c08821 	move	s1,a2
  4074c0:	24420072 	addiu	v0,v0,114
  4074c4:	8fdc0010 	lw	gp,16(s8)
  4074c8:	000210c2 	srl	v0,v0,0x3
  4074cc:	000210c0 	sll	v0,v0,0x3
  4074d0:	03a2e823 	subu	sp,sp,v0
[31m  4074d4:	8f99811c 	lw	t9,sprintf[0m
  4074d8:	27b00010 	addiu	s0,sp,16
  4074dc:	02002021 	move	a0,s0
--
  4077d0:	08101d94 	j	407650 <read_pos_ll+0x12c>
  4077d4:	00000000 	nop

004077d8 <dev_read_pos_ll>:
  4077d8:	3c1c0043 	lui	gp,0x43
  4077dc:	279c9240 	addiu	gp,gp,-28096
  4077e0:	8f998104 	lw	t9,strlen
  4077e4:	27bdffd0 	addiu	sp,sp,-48
  4077e8:	afbf002c 	sw	ra,44(sp)
  4077ec:	afbe0028 	sw	s8,40(sp)
  4077f0:	afb30024 	sw	s3,36(sp)
  4077f4:	03a0f021 	move	s8,sp
  4077f8:	afb20020 	sw	s2,32(sp)
  4077fc:	afb1001c 	sw	s1,28(sp)
  407800:	afb00018 	sw	s0,24(sp)
  407804:	afbc0010 	sw	gp,16(sp)
  407808:	00809821 	move	s3,a0
  40780c:	00a09021 	move	s2,a1
  407810:	0320f809 	jalr	t9
  407814:	00c08821 	move	s1,a2
  407818:	24420040 	addiu	v0,v0,64
  40781c:	8fdc0010 	lw	gp,16(s8)
  407820:	000210c2 	srl	v0,v0,0x3
  407824:	000210c0 	sll	v0,v0,0x3
  407828:	03a2e823 	subu	sp,sp,v0
[31m  40782c:	8f99811c 	lw	t9,sprintf[0m
  407830:	27b00010 	addiu	s0,sp,16
  407834:	02403021 	move	a2,s2
--
  40786c:	03e00008 	jr	ra
  407870:	27bd0030 	addiu	sp,sp,48

00407874 <dev_read_pos_int>:
  407874:	3c1c0043 	lui	gp,0x43
  407878:	279c9240 	addiu	gp,gp,-28096
  40787c:	8f998104 	lw	t9,strlen
  407880:	27bdffb8 	addiu	sp,sp,-72
  407884:	afbf0044 	sw	ra,68(sp)
  407888:	afbe0040 	sw	s8,64(sp)
  40788c:	afb3003c 	sw	s3,60(sp)
  407890:	03a0f021 	move	s8,sp
  407894:	afb20038 	sw	s2,56(sp)
  407898:	afb10034 	sw	s1,52(sp)
  40789c:	afb00030 	sw	s0,48(sp)
  4078a0:	afbc0020 	sw	gp,32(sp)
  4078a4:	00809021 	move	s2,a0
  4078a8:	00a08821 	move	s1,a1
  4078ac:	0320f809 	jalr	t9
  4078b0:	00c09821 	move	s3,a2
  4078b4:	24420040 	addiu	v0,v0,64
  4078b8:	8fdc0020 	lw	gp,32(s8)
  4078bc:	000210c2 	srl	v0,v0,0x3
  4078c0:	000210c0 	sll	v0,v0,0x3
  4078c4:	03a2e823 	subu	sp,sp,v0
[31m  4078c8:	8f99811c 	lw	t9,sprintf[0m
  4078cc:	27b00020 	addiu	s0,sp,32
  4078d0:	02002021 	move	a0,s0
--
  407998:	08101e46 	j	407918 <dev_read_pos_int+0xa4>
  40799c:	2403ffff 	li	v1,-1

004079a0 <dev_read_hex_int>:
  4079a0:	3c1c0043 	lui	gp,0x43
  4079a4:	279c9240 	addiu	gp,gp,-28096
  4079a8:	8f998104 	lw	t9,strlen
  4079ac:	27bdff80 	addiu	sp,sp,-128
  4079b0:	afbf007c 	sw	ra,124(sp)
  4079b4:	afbe0078 	sw	s8,120(sp)
  4079b8:	afb30074 	sw	s3,116(sp)
  4079bc:	03a0f021 	move	s8,sp
  4079c0:	afb20070 	sw	s2,112(sp)
  4079c4:	afb1006c 	sw	s1,108(sp)
  4079c8:	afb00068 	sw	s0,104(sp)
  4079cc:	afbc0020 	sw	gp,32(sp)
  4079d0:	00808821 	move	s1,a0
  4079d4:	00a08021 	move	s0,a1
  4079d8:	0320f809 	jalr	t9
  4079dc:	00c09021 	move	s2,a2
  4079e0:	24420040 	addiu	v0,v0,64
  4079e4:	8fdc0020 	lw	gp,32(s8)
  4079e8:	000210c2 	srl	v0,v0,0x3
  4079ec:	000210c0 	sll	v0,v0,0x3
  4079f0:	03a2e823 	subu	sp,sp,v0
[31m  4079f4:	8f99811c 	lw	t9,sprintf[0m
  4079f8:	27b30020 	addiu	s3,sp,32
  4079fc:	02202821 	move	a1,s1
--
  407dc8:	00000000 	nop
  407dcc:	8fdc0018 	lw	gp,24(s8)
  407dd0:	2c4200ff 	sltiu	v0,v0,255
  407dd4:	02002021 	move	a0,s0
  407dd8:	02402821 	move	a1,s2
  407ddc:	27c60020 	addiu	a2,s8,32
  407de0:	8f998144 	lw	t9,-32444(gp)
  407de4:	10400040 	beqz	v0,407ee8 <sysfs_is_supported+0x1c8>
  407de8:	27c70024 	addiu	a3,s8,36
  407dec:	0320f809 	jalr	t9
  407df0:	00000000 	nop
  407df4:	8fdc0018 	lw	gp,24(s8)
  407df8:	1453ffe9 	bne	v0,s3,407da0 <sysfs_is_supported+0x80>
  407dfc:	00000000 	nop
  407e00:	8fd20020 	lw	s2,32(s8)
  407e04:	8f9980fc 	lw	t9,-32516(gp)
  407e08:	00000000 	nop
  407e0c:	0320f809 	jalr	t9
  407e10:	02202021 	move	a0,s1
  407e14:	8fdc0018 	lw	gp,24(s8)
  407e18:	1440006e 	bnez	v0,407fd4 <sysfs_is_supported+0x2b4>
  407e1c:	00000000 	nop
  407e20:	2411ffff 	li	s1,-1
  407e24:	12510016 	beq	s2,s1,407e80 <sysfs_is_supported+0x160>
  407e28:	00008021 	move	s0,zero
[31m  407e2c:	8f99811c 	lw	t9,sprintf[0m
  407e30:	8e85000c 	lw	a1,12(s4)
  407e34:	02a02021 	move	a0,s5
--
  4089c8:	27bdff30 	addiu	sp,sp,-208
  4089cc:	279c9240 	addiu	gp,gp,-28096
  4089d0:	afbe00c8 	sw	s8,200(sp)
  4089d4:	afbf00cc 	sw	ra,204(sp)
  4089d8:	afb100c4 	sw	s1,196(sp)
  4089dc:	afb000c0 	sw	s0,192(sp)
  4089e0:	afbc0010 	sw	gp,16(sp)
  4089e4:	8c820030 	lw	v0,48(a0)
  4089e8:	03a0f021 	move	s8,sp
  4089ec:	30420001 	andi	v0,v0,0x1
  4089f0:	10400022 	beqz	v0,408a7c <mtd_dev_present+0xb8>
  4089f4:	00a03021 	move	a2,a1
  4089f8:	8c850004 	lw	a1,4(a0)
  4089fc:	8f998104 	lw	t9,strlen
  408a00:	afc600b8 	sw	a2,184(s8)
  408a04:	00a02021 	move	a0,a1
  408a08:	0320f809 	jalr	t9
  408a0c:	afc500bc 	sw	a1,188(s8)
  408a10:	24420018 	addiu	v0,v0,24
  408a14:	8fdc0010 	lw	gp,16(s8)
  408a18:	000210c2 	srl	v0,v0,0x3
  408a1c:	000210c0 	sll	v0,v0,0x3
  408a20:	8fc600b8 	lw	a2,184(s8)
  408a24:	03a08821 	move	s1,sp
  408a28:	03a2e823 	subu	sp,sp,v0
[31m  408a2c:	8f99811c 	lw	t9,sprintf[0m
  408a30:	8fc500bc 	lw	a1,188(s8)
  408a34:	27b00010 	addiu	s0,sp,16
--
  40b410:	8fbc0020 	lw	gp,32(sp)
  40b414:	afb20010 	sw	s2,16(sp)
  40b418:	afa20014 	sw	v0,20(sp)
  40b41c:	8f998170 	lw	t9,-32400(gp)
  40b420:	08102ccd 	j	40b334 <legacy_get_dev_info+0x680>
  40b424:	02002021 	move	a0,s0
  40b428:	8f838118 	lw	v1,-32488(gp)
  40b42c:	8e070000 	lw	a3,0(s0)
  40b430:	8f998170 	lw	t9,-32400(gp)
  40b434:	8c640000 	lw	a0,0(v1)
  40b438:	3c050041 	lui	a1,0x41
  40b43c:	3c060041 	lui	a2,0x41
  40b440:	afb30010 	sw	s3,16(sp)
  40b444:	afa20014 	sw	v0,20(sp)
  40b448:	24a50a3c 	addiu	a1,a1,2620
  40b44c:	0320f809 	jalr	t9
  40b450:	24c60090 	addiu	a2,a2,144
  40b454:	8fbc0020 	lw	gp,32(sp)
  40b458:	08102b9d 	j	40ae74 <legacy_get_dev_info+0x1c0>
  40b45c:	00000000 	nop

0040b460 <legacy_get_dev_info1>:
  40b460:	3c1c0043 	lui	gp,0x43
  40b464:	279c9240 	addiu	gp,gp,-28096
  40b468:	27bdffc0 	addiu	sp,sp,-64
[31m  40b46c:	8f99811c 	lw	t9,sprintf[0m
  40b470:	afb00038 	sw	s0,56(sp)
  40b474:	00a08021 	move	s0,a1

[0m
[[0;33m*[0m] Function [0;33msprintf[0m used [0;33m9[0m times [0;33mubiformat[0m

