[0m
[[0;33m*[0m] Function [0;33msystem[0m tear down of [0;33mupdate.cgi[0m

  400e74:	afb1003c 	sw	s1,60(sp)
  400e78:	afb00038 	sw	s0,56(sp)
  400e7c:	3c1c0042 	lui	gp,0x42
  400e80:	279c9da0 	addiu	gp,gp,-25184
  400e84:	afbc0010 	sw	gp,16(sp)
  400e88:	afa00018 	sw	zero,24(sp)
  400e8c:	2404000f 	li	a0,15
  400e90:	3c050040 	lui	a1,0x40
  400e94:	8f99807c 	lw	t9,-32644(gp)
  400e98:	0320f809 	jalr	t9
  400e9c:	24a50dfc 	addiu	a1,a1,3580
  400ea0:	8fbc0010 	lw	gp,16(sp)
  400ea4:	8f9980c0 	lw	t9,-32576(gp)
  400ea8:	0320f809 	jalr	t9
  400eac:	27a40018 	addiu	a0,sp,24
  400eb0:	8fbc0010 	lw	gp,16(sp)
  400eb4:	8f828058 	lw	v0,-32680(gp)
  400eb8:	8c440000 	lw	a0,0(v0)
  400ebc:	3c050040 	lui	a1,0x40
  400ec0:	8fa60018 	lw	a2,24(sp)
  400ec4:	8f998084 	lw	t9,-32636(gp)
  400ec8:	0320f809 	jalr	t9
  400ecc:	24a51898 	addiu	a1,a1,6296
  400ed0:	8fbc0010 	lw	gp,16(sp)
  400ed4:	3c040040 	lui	a0,0x40
[31m  400ed8:	8f9980a0 	lw	t9,system[0m
  400edc:	0320f809 	jalr	t9
  400ee0:	248418ac 	addiu	a0,a0,6316
--
  401330:	0c10035a 	jal	400d68 <_ftext@@Base+0x208>
  401334:	24a51a6c 	addiu	a1,a1,6764
  401338:	8fbc0010 	lw	gp,16(sp)
  40133c:	8ea40060 	lw	a0,96(s5)
  401340:	24050001 	li	a1,1
  401344:	8f998080 	lw	t9,-32640(gp)
  401348:	0320f809 	jalr	t9
  40134c:	00003021 	move	a2,zero
  401350:	8fbc0010 	lw	gp,16(sp)
  401354:	8f998038 	lw	t9,-32712(gp)
  401358:	0320f809 	jalr	t9
  40135c:	24040001 	li	a0,1
  401360:	8fbc0010 	lw	gp,16(sp)
  401364:	24030001 	li	v1,1
  401368:	3c020041 	lui	v0,0x41
  40136c:	ac431e94 	sw	v1,7828(v0)
  401370:	3c040040 	lui	a0,0x40
  401374:	24841a70 	addiu	a0,a0,6768
  401378:	24050001 	li	a1,1
  40137c:	8e470000 	lw	a3,0(s2)
  401380:	8f998048 	lw	t9,-32696(gp)
  401384:	0320f809 	jalr	t9
  401388:	24060034 	li	a2,52
  40138c:	8fbc0010 	lw	gp,16(sp)
  401390:	3c040040 	lui	a0,0x40
[31m  401394:	8f9980a0 	lw	t9,system[0m
  401398:	0320f809 	jalr	t9
  40139c:	24841aa8 	addiu	a0,a0,6824
  4013a0:	8fbc0010 	lw	gp,16(sp)
  4013a4:	8f99809c 	lw	t9,-32612(gp)
  4013a8:	0320f809 	jalr	t9
  4013ac:	24040001 	li	a0,1
  4013b0:	8fbc0010 	lw	gp,16(sp)
  4013b4:	3c040040 	lui	a0,0x40
[31m  4013b8:	8f9980a0 	lw	t9,system[0m
  4013bc:	0320f809 	jalr	t9
  4013c0:	24841af0 	addiu	a0,a0,6896
  4013c4:	8fbc0010 	lw	gp,16(sp)
  4013c8:	3c040040 	lui	a0,0x40
[31m  4013cc:	8f9980a0 	lw	t9,system[0m
  4013d0:	0320f809 	jalr	t9
  4013d4:	24841b20 	addiu	a0,a0,6944
--
  401500:	0c10035a 	jal	400d68 <_ftext@@Base+0x208>
  401504:	24a519b0 	addiu	a1,a1,6576
  401508:	8fbc0010 	lw	gp,16(sp)
  40150c:	8f998054 	lw	t9,-32684(gp)
  401510:	0320f809 	jalr	t9
  401514:	24040003 	li	a0,3
  401518:	8fbc0010 	lw	gp,16(sp)
  40151c:	3c020041 	lui	v0,0x41
  401520:	8c421e94 	lw	v0,7828(v0)
  401524:	14400006 	bnez	v0,401540 <main@@Base+0x6f0>
  401528:	3c020041 	lui	v0,0x41
  40152c:	8f998090 	lw	t9,-32624(gp)
  401530:	0320f809 	jalr	t9
  401534:	02a02021 	move	a0,s5
  401538:	8fbc0010 	lw	gp,16(sp)
  40153c:	3c020041 	lui	v0,0x41
  401540:	8c421e90 	lw	v0,7824(v0)
  401544:	10400006 	beqz	v0,401560 <main@@Base+0x710>
  401548:	00000000 	nop
  40154c:	8f998098 	lw	t9,-32616(gp)
  401550:	0320f809 	jalr	t9
  401554:	24040005 	li	a0,5
  401558:	10000006 	b	401574 <main@@Base+0x724>
  40155c:	00001021 	move	v0,zero
  401560:	3c040040 	lui	a0,0x40
[31m  401564:	8f9980a0 	lw	t9,system[0m
  401568:	0320f809 	jalr	t9
  40156c:	24841b9c 	addiu	a0,a0,7068
  401570:	00001021 	move	v0,zero
  401574:	8fbf005c 	lw	ra,92(sp)
  401578:	8fbe0058 	lw	s8,88(sp)
  40157c:	8fb70054 	lw	s7,84(sp)
  401580:	8fb60050 	lw	s6,80(sp)
  401584:	8fb5004c 	lw	s5,76(sp)
  401588:	8fb40048 	lw	s4,72(sp)
  40158c:	8fb30044 	lw	s3,68(sp)
  401590:	8fb20040 	lw	s2,64(sp)
  401594:	8fb1003c 	lw	s1,60(sp)
  401598:	8fb00038 	lw	s0,56(sp)
  40159c:	03e00008 	jr	ra
  4015a0:	27bd0060 	addiu	sp,sp,96
  4015a4:	3c020041 	lui	v0,0x41
  4015a8:	ac431e90 	sw	v1,7824(v0)
  4015ac:	3c040040 	lui	a0,0x40
[31m  4015b0:	8f9980a0 	lw	t9,system[0m
  4015b4:	0320f809 	jalr	t9
  4015b8:	24841bd0 	addiu	a0,a0,7120

[0m
[[0;33m*[0m] Function [0;33msystem[0m used [0;33m6[0m times [0;33mupdate.cgi[0m

