[[0;33m*[0m] Binary protection state of [0;33mlibreadline.so.5.2[0m

  	RELRO          CANARY            NX           PIE          RPATH        RUNPATH      SYMBOLS      
  	[31mNo RELRO[0m       [31mNo Canary found[0m   [31mNX disabled[0m  [33mDSO[0m          [31mRPATH[0m        [32mNo RUNPATH[0m   [31mSymbols[0m

[0m
[[0;33m*[0m] Function [0;33msprintf[0m tear down of [0;33mlibreadline.so.5.2[0m

   1897c:	00000000 	nop
   18980:	0320f809 	jalr	t9
   18984:	24a50750 	addiu	a1,a1,1872
   18988:	8fbc0010 	lw	gp,16(sp)
   1898c:	14400009 	bnez	v0,189b4 <_rl_get_string_variable_value+0xac>
   18990:	02002021 	move	a0,s0
   18994:	8f82810c 	lw	v0,-32500(gp)
   18998:	00000000 	nop
   1899c:	8c500000 	lw	s0,0(v0)
   189a0:	00000000 	nop
   189a4:	1600006c 	bnez	s0,18b58 <_rl_get_string_variable_value+0x250>
   189a8:	00000000 	nop
   189ac:	10000067 	b	18b4c <_rl_get_string_variable_value+0x244>
   189b0:	00000000 	nop
   189b4:	8f858024 	lw	a1,-32732(gp)
   189b8:	8f9983fc 	lw	t9,-31748(gp)
   189bc:	00000000 	nop
   189c0:	0320f809 	jalr	t9
   189c4:	24a50760 	addiu	a1,a1,1888
   189c8:	8fbc0010 	lw	gp,16(sp)
   189cc:	1440000b 	bnez	v0,189fc <_rl_get_string_variable_value+0xf4>
   189d0:	02002021 	move	a0,s0
   189d4:	8f8283dc 	lw	v0,-31780(gp)
   189d8:	8f908018 	lw	s0,-32744(gp)
   189dc:	8f858024 	lw	a1,-32732(gp)
[31m   189e0:	8f998288 	lw	t9,sprintf[0m
   189e4:	8c460000 	lw	a2,0(v0)
   189e8:	26044e90 	addiu	a0,s0,20112
--
   19048:	00511021 	addu	v0,v0,s1
   1904c:	90420000 	lbu	v0,0(v0)
   19050:	00000000 	nop
   19054:	00021040 	sll	v0,v0,0x1
   19058:	10000012 	b	190a4 <rl_invoking_keyseqs_in_map+0x394>
   1905c:	00821021 	addu	v0,a0,v0
   19060:	16b70011 	bne	s5,s7,190a8 <rl_invoking_keyseqs_in_map+0x398>
   19064:	02e03021 	move	a2,s7
   19068:	8f828784 	lw	v0,-30844(gp)
   1906c:	00000000 	nop
   19070:	8c420000 	lw	v0,0(v0)
   19074:	00000000 	nop
   19078:	00511021 	addu	v0,v0,s1
   1907c:	94420000 	lhu	v0,0(v0)
   19080:	00000000 	nop
   19084:	30420002 	andi	v0,v0,0x2
   19088:	10400007 	beqz	v0,190a8 <rl_invoking_keyseqs_in_map+0x398>
   1908c:	02a03021 	move	a2,s5
   19090:	8f828604 	lw	v0,-31228(gp)
   19094:	00000000 	nop
   19098:	8c420000 	lw	v0,0(v0)
   1909c:	00000000 	nop
   190a0:	00511021 	addu	v0,v0,s1
   190a4:	84460000 	lh	a2,0(v0)
   190a8:	8f858024 	lw	a1,-32732(gp)
[31m   190ac:	8f998288 	lw	t9,sprintf[0m
   190b0:	02402021 	move	a0,s2
   190b4:	0320f809 	jalr	t9
--
   1e3c4:	8fa70040 	lw	a3,64(sp)
   1e3c8:	8fa30048 	lw	v1,72(sp)
   1e3cc:	0040b021 	move	s6,v0
   1e3d0:	afc24efc 	sw	v0,20220(s8)
   1e3d4:	8f828104 	lw	v0,-32508(gp)
   1e3d8:	00000000 	nop
   1e3dc:	8c420000 	lw	v0,0(v0)
   1e3e0:	00000000 	nop
   1e3e4:	16620004 	bne	s3,v0,1e3f8 <rl_redisplay+0x82c>
   1e3e8:	00000000 	nop
   1e3ec:	8f828018 	lw	v0,-32744(gp)
   1e3f0:	afb10034 	sw	s1,52(sp)
   1e3f4:	ac504f04 	sw	s0,20228(v0)
   1e3f8:	329400ff 	andi	s4,s4,0xff
   1e3fc:	2682ff80 	addiu	v0,s4,-128
   1e400:	2c420080 	sltiu	v0,v0,128
   1e404:	1040002e 	beqz	v0,1e4c0 <rl_redisplay+0x8f4>
   1e408:	24020009 	li	v0,9
   1e40c:	8f82880c 	lw	v0,-30708(gp)
   1e410:	00000000 	nop
   1e414:	8c420000 	lw	v0,0(v0)
   1e418:	00000000 	nop
   1e41c:	14400089 	bnez	v0,1e644 <rl_redisplay+0xa78>
   1e420:	2a820020 	slti	v0,s4,32
   1e424:	8f858024 	lw	a1,-32732(gp)
[31m   1e428:	8f998288 	lw	t9,sprintf[0m
   1e42c:	02d02021 	addu	a0,s6,s0
   1e430:	02803021 	move	a2,s4
--
   2e510:	8fbf001c 	lw	ra,28(sp)
   2e514:	8fb00018 	lw	s0,24(sp)
   2e518:	03e00008 	jr	ra
   2e51c:	27bd0020 	addiu	sp,sp,32

0002e520 <sh_set_lines_and_columns>:
   2e520:	3c1c0002 	lui	gp,0x2
   2e524:	279cdbc0 	addiu	gp,gp,-9280
   2e528:	0399e021 	addu	gp,gp,t9
   2e52c:	8f99888c 	lw	t9,-30580(gp)
   2e530:	27bdffd0 	addiu	sp,sp,-48
   2e534:	00803021 	move	a2,a0
   2e538:	afbf002c 	sw	ra,44(sp)
   2e53c:	afbc0010 	sw	gp,16(sp)
   2e540:	afb20028 	sw	s2,40(sp)
   2e544:	afb10024 	sw	s1,36(sp)
   2e548:	afb00020 	sw	s0,32(sp)
   2e54c:	afa60018 	sw	a2,24(sp)
   2e550:	2404000c 	li	a0,12
   2e554:	0320f809 	jalr	t9
   2e558:	00a09021 	move	s2,a1
   2e55c:	8fbc0010 	lw	gp,16(sp)
   2e560:	8fa60018 	lw	a2,24(sp)
   2e564:	00402021 	move	a0,v0
   2e568:	8f918024 	lw	s1,-32732(gp)
[31m   2e56c:	8f998288 	lw	t9,sprintf[0m
   2e570:	00408021 	move	s0,v0
   2e574:	0320f809 	jalr	t9
   2e578:	26250778 	addiu	a1,s1,1912
   2e57c:	8fbc0010 	lw	gp,16(sp)
   2e580:	02002821 	move	a1,s0
   2e584:	24060001 	li	a2,1
   2e588:	8f848024 	lw	a0,-32732(gp)
   2e58c:	8f998404 	lw	t9,-31740(gp)
   2e590:	00000000 	nop
   2e594:	0320f809 	jalr	t9
   2e598:	24840bb0 	addiu	a0,a0,2992
   2e59c:	8fbc0010 	lw	gp,16(sp)
   2e5a0:	00000000 	nop
   2e5a4:	8f998048 	lw	t9,-32696(gp)
   2e5a8:	00000000 	nop
   2e5ac:	0320f809 	jalr	t9
   2e5b0:	02002021 	move	a0,s0
   2e5b4:	8fbc0010 	lw	gp,16(sp)
   2e5b8:	00000000 	nop
   2e5bc:	8f99888c 	lw	t9,-30580(gp)
   2e5c0:	00000000 	nop
   2e5c4:	0320f809 	jalr	t9
   2e5c8:	2404000c 	li	a0,12
   2e5cc:	8fbc0010 	lw	gp,16(sp)
   2e5d0:	26250778 	addiu	a1,s1,1912
   2e5d4:	02403021 	move	a2,s2
[31m   2e5d8:	8f998288 	lw	t9,sprintf[0m
   2e5dc:	00402021 	move	a0,v0
   2e5e0:	0320f809 	jalr	t9

[0m
[[0;33m*[0m] Function [0;33msprintf[0m used [0;33m5[0m times [0;33mlibreadline.so.5.2[0m

