[0m
[[0;33m*[0m] Function [0;33msprintf[0m tear down of [0;33mparam.cgi[0m

  4033b0:	3c050042 	lui	a1,0x42
  4033b4:	24a5eda8 	addiu	a1,a1,-4696
  4033b8:	27a6001c 	addiu	a2,sp,28
  4033bc:	8f998130 	lw	t9,-32464(gp)
  4033c0:	0320f809 	jalr	t9
  4033c4:	24070001 	li	a3,1
  4033c8:	8fbc0010 	lw	gp,16(sp)
  4033cc:	3c020043 	lui	v0,0x43
  4033d0:	8c431d30 	lw	v1,7472(v0)
  4033d4:	24020002 	li	v0,2
  4033d8:	1462001d 	bne	v1,v0,403450 <_ftext@@Base+0x23f0>
  4033dc:	24030001 	li	v1,1
  4033e0:	3c020042 	lui	v0,0x42
  4033e4:	90421700 	lbu	v0,5888(v0)
  4033e8:	a3a20020 	sb	v0,32(sp)
  4033ec:	27a40021 	addiu	a0,sp,33
  4033f0:	00002821 	move	a1,zero
  4033f4:	8f9980ac 	lw	t9,-32596(gp)
  4033f8:	0320f809 	jalr	t9
  4033fc:	2406000f 	li	a2,15
  403400:	8fbc0010 	lw	gp,16(sp)
  403404:	27b00020 	addiu	s0,sp,32
  403408:	02002021 	move	a0,s0
  40340c:	3c050042 	lui	a1,0x42
  403410:	8fa6001c 	lw	a2,28(sp)
[31m  403414:	8f99808c 	lw	t9,sprintf[0m
  403418:	0320f809 	jalr	t9
  40341c:	24a5edfc 	addiu	a1,a1,-4612
--
  4089ec:	3c050042 	lui	a1,0x42
  4089f0:	3c040042 	lui	a0,0x42
  4089f4:	2484f840 	addiu	a0,a0,-1984
  4089f8:	24a5f8d8 	addiu	a1,a1,-1832
  4089fc:	27a60030 	addiu	a2,sp,48
  408a00:	8f998130 	lw	t9,-32464(gp)
  408a04:	0320f809 	jalr	t9
  408a08:	24070001 	li	a3,1
  408a0c:	10001817 	b	40ea6c <_ftext@@Base+0xda0c>
  408a10:	00000000 	nop
  408a14:	02602021 	move	a0,s3
  408a18:	0c10065e 	jal	401978 <_ftext@@Base+0x918>
  408a1c:	02202821 	move	a1,s1
  408a20:	10001812 	b	40ea6c <_ftext@@Base+0xda0c>
  408a24:	00000000 	nop
  408a28:	3c050042 	lui	a1,0x42
  408a2c:	8f99809c 	lw	t9,-32612(gp)
  408a30:	0320f809 	jalr	t9
  408a34:	24a5f8e4 	addiu	a1,a1,-1820
  408a38:	8fbc0018 	lw	gp,24(sp)
  408a3c:	1440000a 	bnez	v0,408a68 <_ftext@@Base+0x7a08>
  408a40:	3c050042 	lui	a1,0x42
  408a44:	27a40074 	addiu	a0,sp,116
  408a48:	3c050042 	lui	a1,0x42
  408a4c:	24a5f8f0 	addiu	a1,a1,-1808
[31m  408a50:	8f99808c 	lw	t9,sprintf[0m
  408a54:	0320f809 	jalr	t9
  408a58:	02403021 	move	a2,s2
  408a5c:	8fbc0018 	lw	gp,24(sp)
  408a60:	100017fd 	b	40ea58 <_ftext@@Base+0xd9f8>
  408a64:	00000000 	nop
  408a68:	02202021 	move	a0,s1
  408a6c:	8f99809c 	lw	t9,-32612(gp)
  408a70:	0320f809 	jalr	t9
  408a74:	24a5f928 	addiu	a1,a1,-1752
  408a78:	8fbc0018 	lw	gp,24(sp)
  408a7c:	1440000a 	bnez	v0,408aa8 <_ftext@@Base+0x7a48>
  408a80:	3c050042 	lui	a1,0x42
  408a84:	27a40074 	addiu	a0,sp,116
  408a88:	3c050042 	lui	a1,0x42
  408a8c:	24a5f934 	addiu	a1,a1,-1740
[31m  408a90:	8f99808c 	lw	t9,sprintf[0m
  408a94:	0320f809 	jalr	t9
  408a98:	02403021 	move	a2,s2
  408a9c:	8fbc0018 	lw	gp,24(sp)
  408aa0:	100017ed 	b	40ea58 <_ftext@@Base+0xd9f8>
  408aa4:	00000000 	nop
  408aa8:	02202021 	move	a0,s1
  408aac:	8f99809c 	lw	t9,-32612(gp)
  408ab0:	0320f809 	jalr	t9
  408ab4:	24a5f96c 	addiu	a1,a1,-1684
  408ab8:	8fbc0018 	lw	gp,24(sp)
  408abc:	1440000a 	bnez	v0,408ae8 <_ftext@@Base+0x7a88>
  408ac0:	3c050042 	lui	a1,0x42
  408ac4:	27a40074 	addiu	a0,sp,116
  408ac8:	3c050042 	lui	a1,0x42
  408acc:	24a5f978 	addiu	a1,a1,-1672
[31m  408ad0:	8f99808c 	lw	t9,sprintf[0m
  408ad4:	0320f809 	jalr	t9
  408ad8:	02403021 	move	a2,s2
  408adc:	8fbc0018 	lw	gp,24(sp)
  408ae0:	100017dd 	b	40ea58 <_ftext@@Base+0xd9f8>
  408ae4:	00000000 	nop
  408ae8:	02202021 	move	a0,s1
  408aec:	8f99809c 	lw	t9,-32612(gp)
  408af0:	0320f809 	jalr	t9
  408af4:	24a5f9b0 	addiu	a1,a1,-1616
  408af8:	8fbc0018 	lw	gp,24(sp)
  408afc:	1440000a 	bnez	v0,408b28 <_ftext@@Base+0x7ac8>
  408b00:	3c050042 	lui	a1,0x42
  408b04:	27a40074 	addiu	a0,sp,116
  408b08:	3c050042 	lui	a1,0x42
  408b0c:	24a5f9bc 	addiu	a1,a1,-1604
[31m  408b10:	8f99808c 	lw	t9,sprintf[0m
  408b14:	0320f809 	jalr	t9
  408b18:	02403021 	move	a2,s2
  408b1c:	8fbc0018 	lw	gp,24(sp)
  408b20:	100017cd 	b	40ea58 <_ftext@@Base+0xd9f8>
  408b24:	00000000 	nop
  408b28:	02202021 	move	a0,s1
  408b2c:	8f99809c 	lw	t9,-32612(gp)
  408b30:	0320f809 	jalr	t9
  408b34:	24a5f9f4 	addiu	a1,a1,-1548
  408b38:	8fbc0018 	lw	gp,24(sp)
  408b3c:	1440000a 	bnez	v0,408b68 <_ftext@@Base+0x7b08>
  408b40:	3c050042 	lui	a1,0x42
  408b44:	27a40074 	addiu	a0,sp,116
  408b48:	3c050042 	lui	a1,0x42
  408b4c:	24a5fa00 	addiu	a1,a1,-1536
[31m  408b50:	8f99808c 	lw	t9,sprintf[0m
  408b54:	0320f809 	jalr	t9
  408b58:	02403021 	move	a2,s2
  408b5c:	8fbc0018 	lw	gp,24(sp)
  408b60:	100017bd 	b	40ea58 <_ftext@@Base+0xd9f8>
  408b64:	00000000 	nop
  408b68:	02202021 	move	a0,s1
  408b6c:	8f99809c 	lw	t9,-32612(gp)
  408b70:	0320f809 	jalr	t9
  408b74:	24a5fa38 	addiu	a1,a1,-1480
  408b78:	8fbc0018 	lw	gp,24(sp)
  408b7c:	1440000a 	bnez	v0,408ba8 <_ftext@@Base+0x7b48>
  408b80:	3c050042 	lui	a1,0x42
  408b84:	27a40074 	addiu	a0,sp,116
  408b88:	3c050042 	lui	a1,0x42
  408b8c:	24a5fa44 	addiu	a1,a1,-1468
[31m  408b90:	8f99808c 	lw	t9,sprintf[0m
  408b94:	0320f809 	jalr	t9
  408b98:	02403021 	move	a2,s2
  408b9c:	8fbc0018 	lw	gp,24(sp)
  408ba0:	100017ad 	b	40ea58 <_ftext@@Base+0xd9f8>
  408ba4:	00000000 	nop
  408ba8:	02202021 	move	a0,s1
  408bac:	8f99809c 	lw	t9,-32612(gp)
  408bb0:	0320f809 	jalr	t9
  408bb4:	24a5fa7c 	addiu	a1,a1,-1412
  408bb8:	8fbc0018 	lw	gp,24(sp)
  408bbc:	1440000a 	bnez	v0,408be8 <_ftext@@Base+0x7b88>
  408bc0:	3c050042 	lui	a1,0x42
  408bc4:	27a40074 	addiu	a0,sp,116
  408bc8:	3c050042 	lui	a1,0x42
  408bcc:	24a5fa88 	addiu	a1,a1,-1400
[31m  408bd0:	8f99808c 	lw	t9,sprintf[0m
  408bd4:	0320f809 	jalr	t9
  408bd8:	02403021 	move	a2,s2
  408bdc:	8fbc0018 	lw	gp,24(sp)
  408be0:	1000179d 	b	40ea58 <_ftext@@Base+0xd9f8>
  408be4:	00000000 	nop
  408be8:	02202021 	move	a0,s1
  408bec:	8f99809c 	lw	t9,-32612(gp)
  408bf0:	0320f809 	jalr	t9
  408bf4:	24a5fac0 	addiu	a1,a1,-1344
  408bf8:	8fbc0018 	lw	gp,24(sp)
  408bfc:	1440179b 	bnez	v0,40ea6c <_ftext@@Base+0xda0c>
  408c00:	3c050042 	lui	a1,0x42
  408c04:	27a40074 	addiu	a0,sp,116
  408c08:	24a5facc 	addiu	a1,a1,-1332
[31m  408c0c:	8f99808c 	lw	t9,sprintf[0m
  408c10:	0320f809 	jalr	t9
  408c14:	02403021 	move	a2,s2
--
  41c9cc:	3c110042 	lui	s1,0x42
  41c9d0:	2624f1b8 	addiu	a0,s1,-3656
  41c9d4:	3c050042 	lui	a1,0x42
  41c9d8:	24a50dc4 	addiu	a1,a1,3524
  41c9dc:	8f998054 	lw	t9,-32684(gp)
  41c9e0:	0320f809 	jalr	t9
  41c9e4:	27a60224 	addiu	a2,sp,548
  41c9e8:	8fbc0018 	lw	gp,24(sp)
  41c9ec:	2624f1b8 	addiu	a0,s1,-3656
  41c9f0:	3c050042 	lui	a1,0x42
  41c9f4:	24a50dd0 	addiu	a1,a1,3536
  41c9f8:	8f998054 	lw	t9,-32684(gp)
  41c9fc:	0320f809 	jalr	t9
  41ca00:	27a60228 	addiu	a2,sp,552
  41ca04:	8fbc0018 	lw	gp,24(sp)
  41ca08:	3c040042 	lui	a0,0x42
  41ca0c:	8f998110 	lw	t9,-32496(gp)
  41ca10:	0320f809 	jalr	t9
  41ca14:	24840ccc 	addiu	a0,a0,3276
  41ca18:	8fbc0018 	lw	gp,24(sp)
  41ca1c:	27b1029c 	addiu	s1,sp,668
  41ca20:	02202021 	move	a0,s1
  41ca24:	3c050042 	lui	a1,0x42
  41ca28:	8fa60224 	lw	a2,548(sp)
  41ca2c:	8fa70228 	lw	a3,552(sp)
[31m  41ca30:	8f99808c 	lw	t9,sprintf[0m
  41ca34:	0320f809 	jalr	t9
  41ca38:	24a50ddc 	addiu	a1,a1,3548

[0m
[[0;33m*[0m] Function [0;33msprintf[0m used [0;33m10[0m times [0;33mparam.cgi[0m

