[0m
[[0;33m*[0m] Function [0;33msprintf[0m tear down of [0;33mlibFVwireless.so[0m

    2ae8:	27bdf8a0 	addiu	sp,sp,-1888
    2aec:	afbf075c 	sw	ra,1884(sp)
    2af0:	afbe0758 	sw	s8,1880(sp)
    2af4:	afb70754 	sw	s7,1876(sp)
    2af8:	afb60750 	sw	s6,1872(sp)
    2afc:	afb5074c 	sw	s5,1868(sp)
    2b00:	afb40748 	sw	s4,1864(sp)
    2b04:	afb30744 	sw	s3,1860(sp)
    2b08:	afb20740 	sw	s2,1856(sp)
    2b0c:	afb1073c 	sw	s1,1852(sp)
    2b10:	afb00738 	sw	s0,1848(sp)
    2b14:	afbc0010 	sw	gp,16(sp)
    2b18:	8f99812c 	lw	t9,-32468(gp)
    2b1c:	00808021 	move	s0,a0
    2b20:	0320f809 	jalr	t9
    2b24:	27a400dc 	addiu	a0,sp,220
    2b28:	8fbc0010 	lw	gp,16(sp)
    2b2c:	04400588 	bltz	v0,4150 <rtl8881_WDescript@@Base+0x1840>
    2b30:	2403ffff 	li	v1,-1
    2b34:	8f918024 	lw	s1,-32732(gp)
    2b38:	02003021 	move	a2,s0
    2b3c:	27b20119 	addiu	s2,sp,281
    2b40:	8f938018 	lw	s3,-32744(gp)
    2b44:	8f878024 	lw	a3,-32732(gp)
    2b48:	26318780 	addiu	s1,s1,-30848
[31m    2b4c:	8f99807c 	lw	t9,sprintf[0m
    2b50:	2664a480 	addiu	a0,s3,-23424
    2b54:	02202821 	move	a1,s1
    2b58:	24e78788 	addiu	a3,a3,-30840
    2b5c:	0320f809 	jalr	t9
    2b60:	2673a480 	addiu	s3,s3,-23424
    2b64:	8fbc0010 	lw	gp,16(sp)
    2b68:	8f99804c 	lw	t9,strlen
    2b6c:	0320f809 	jalr	t9
    2b70:	02002021 	move	a0,s0
    2b74:	8fbc0010 	lw	gp,16(sp)
    2b78:	24420001 	addiu	v0,v0,1
    2b7c:	0262a821 	addu	s5,s3,v0
    2b80:	8f968024 	lw	s6,-32732(gp)
    2b84:	26b3000e 	addiu	s3,s5,14
    2b88:	26b7002a 	addiu	s7,s5,42
    2b8c:	0260a021 	move	s4,s3
    2b90:	10000007 	b	2bb0 <rtl8881_WDescript@@Base+0x2a0>
    2b94:	26d68798 	addiu	s6,s6,-30824
    2b98:	92460000 	lbu	a2,0(s2)
    2b9c:	02c02821 	move	a1,s6
    2ba0:	26940002 	addiu	s4,s4,2
    2ba4:	0320f809 	jalr	t9
    2ba8:	26520001 	addiu	s2,s2,1
    2bac:	8fbc0010 	lw	gp,16(sp)
[31m    2bb0:	8f99807c 	lw	t9,sprintf[0m
    2bb4:	1697fff8 	bne	s4,s7,2b98 <rtl8881_WDescript@@Base+0x288>
    2bb8:	02802021 	move	a0,s4
    2bbc:	8f998050 	lw	t9,-32688(gp)
    2bc0:	02a03021 	move	a2,s5
    2bc4:	340589f1 	li	a1,0x89f1
    2bc8:	02002021 	move	a0,s0
    2bcc:	8f928018 	lw	s2,-32744(gp)
    2bd0:	0320f809 	jalr	t9
    2bd4:	27b40127 	addiu	s4,sp,295
    2bd8:	02603821 	move	a3,s3
    2bdc:	8fbc0010 	lw	gp,16(sp)
    2be0:	2646a480 	addiu	a2,s2,-23424
    2be4:	a260ffff 	sb	zero,-1(s3)
    2be8:	8f848024 	lw	a0,-32732(gp)
    2bec:	8f858024 	lw	a1,-32732(gp)
    2bf0:	8f998060 	lw	t9,-32672(gp)
    2bf4:	248487a0 	addiu	a0,a0,-30816
    2bf8:	0320f809 	jalr	t9
    2bfc:	24a58f64 	addiu	a1,a1,-28828
    2c00:	2644a480 	addiu	a0,s2,-23424
    2c04:	02202821 	move	a1,s1
    2c08:	8fbc0010 	lw	gp,16(sp)
    2c0c:	02003021 	move	a2,s0
    2c10:	2652a480 	addiu	s2,s2,-23424
    2c14:	8f878024 	lw	a3,-32732(gp)
[31m    2c18:	8f99807c 	lw	t9,sprintf[0m
    2c1c:	0320f809 	jalr	t9
    2c20:	24e787bc 	addiu	a3,a3,-30788
    2c24:	8fbc0010 	lw	gp,16(sp)
    2c28:	8f99804c 	lw	t9,strlen
    2c2c:	0320f809 	jalr	t9
    2c30:	02002021 	move	a0,s0
    2c34:	8fbc0010 	lw	gp,16(sp)
    2c38:	24420001 	addiu	v0,v0,1
    2c3c:	02429021 	addu	s2,s2,v0
    2c40:	8f968024 	lw	s6,-32732(gp)
    2c44:	2653000e 	addiu	s3,s2,14
    2c48:	2657002a 	addiu	s7,s2,42
    2c4c:	0260a821 	move	s5,s3
    2c50:	10000007 	b	2c70 <rtl8881_WDescript@@Base+0x360>
    2c54:	26d68798 	addiu	s6,s6,-30824
    2c58:	92860000 	lbu	a2,0(s4)
    2c5c:	02c02821 	move	a1,s6
    2c60:	26b50002 	addiu	s5,s5,2
    2c64:	0320f809 	jalr	t9
    2c68:	26940001 	addiu	s4,s4,1
    2c6c:	8fbc0010 	lw	gp,16(sp)
[31m    2c70:	8f99807c 	lw	t9,sprintf[0m
    2c74:	16b7fff8 	bne	s5,s7,2c58 <rtl8881_WDescript@@Base+0x348>
    2c78:	02a02021 	move	a0,s5
    2c7c:	8f998050 	lw	t9,-32688(gp)
    2c80:	02403021 	move	a2,s2
    2c84:	340589f1 	li	a1,0x89f1
    2c88:	02002021 	move	a0,s0
    2c8c:	8f928018 	lw	s2,-32744(gp)
    2c90:	0320f809 	jalr	t9
    2c94:	27b40135 	addiu	s4,sp,309
    2c98:	02603821 	move	a3,s3
    2c9c:	8fbc0010 	lw	gp,16(sp)
    2ca0:	2646a480 	addiu	a2,s2,-23424
    2ca4:	a260ffff 	sb	zero,-1(s3)
    2ca8:	8f848024 	lw	a0,-32732(gp)
    2cac:	8f858024 	lw	a1,-32732(gp)
    2cb0:	8f998060 	lw	t9,-32672(gp)
    2cb4:	248487a0 	addiu	a0,a0,-30816
    2cb8:	0320f809 	jalr	t9
    2cbc:	24a58f64 	addiu	a1,a1,-28828
    2cc0:	2644a480 	addiu	a0,s2,-23424
    2cc4:	02202821 	move	a1,s1
    2cc8:	8fbc0010 	lw	gp,16(sp)
    2ccc:	02003021 	move	a2,s0
    2cd0:	2652a480 	addiu	s2,s2,-23424
    2cd4:	8f878024 	lw	a3,-32732(gp)
[31m    2cd8:	8f99807c 	lw	t9,sprintf[0m
    2cdc:	0320f809 	jalr	t9
    2ce0:	24e787cc 	addiu	a3,a3,-30772
    2ce4:	8fbc0010 	lw	gp,16(sp)
    2ce8:	8f99804c 	lw	t9,strlen
    2cec:	0320f809 	jalr	t9
    2cf0:	02002021 	move	a0,s0
    2cf4:	8fbc0010 	lw	gp,16(sp)
    2cf8:	24420001 	addiu	v0,v0,1
    2cfc:	02429021 	addu	s2,s2,v0
    2d00:	8f968024 	lw	s6,-32732(gp)
    2d04:	26530012 	addiu	s3,s2,18
    2d08:	2657002e 	addiu	s7,s2,46
    2d0c:	0260a821 	move	s5,s3
    2d10:	10000007 	b	2d30 <rtl8881_WDescript@@Base+0x420>
    2d14:	26d68798 	addiu	s6,s6,-30824
    2d18:	92860000 	lbu	a2,0(s4)
    2d1c:	02c02821 	move	a1,s6
    2d20:	26b50002 	addiu	s5,s5,2
    2d24:	0320f809 	jalr	t9
    2d28:	26940001 	addiu	s4,s4,1
    2d2c:	8fbc0010 	lw	gp,16(sp)
[31m    2d30:	8f99807c 	lw	t9,sprintf[0m
    2d34:	16b7fff8 	bne	s5,s7,2d18 <rtl8881_WDescript@@Base+0x408>
    2d38:	02a02021 	move	a0,s5
    2d3c:	8f998050 	lw	t9,-32688(gp)
    2d40:	02403021 	move	a2,s2
    2d44:	340589f1 	li	a1,0x89f1
    2d48:	02002021 	move	a0,s0
    2d4c:	8f928018 	lw	s2,-32744(gp)
    2d50:	0320f809 	jalr	t9
    2d54:	27b40143 	addiu	s4,sp,323
    2d58:	02603821 	move	a3,s3
    2d5c:	8fbc0010 	lw	gp,16(sp)
    2d60:	2646a480 	addiu	a2,s2,-23424
    2d64:	a260ffff 	sb	zero,-1(s3)
    2d68:	8f848024 	lw	a0,-32732(gp)
    2d6c:	8f858024 	lw	a1,-32732(gp)
    2d70:	8f998060 	lw	t9,-32672(gp)
    2d74:	248487a0 	addiu	a0,a0,-30816
    2d78:	0320f809 	jalr	t9
    2d7c:	24a58f64 	addiu	a1,a1,-28828
    2d80:	2644a480 	addiu	a0,s2,-23424
    2d84:	02202821 	move	a1,s1
    2d88:	8fbc0010 	lw	gp,16(sp)
    2d8c:	02003021 	move	a2,s0
    2d90:	2652a480 	addiu	s2,s2,-23424
    2d94:	8f878024 	lw	a3,-32732(gp)
[31m    2d98:	8f99807c 	lw	t9,sprintf[0m
    2d9c:	0320f809 	jalr	t9
    2da0:	24e787e0 	addiu	a3,a3,-30752
    2da4:	8fbc0010 	lw	gp,16(sp)
    2da8:	8f99804c 	lw	t9,strlen
    2dac:	0320f809 	jalr	t9
    2db0:	02002021 	move	a0,s0
    2db4:	8fbc0010 	lw	gp,16(sp)
    2db8:	24420001 	addiu	v0,v0,1
    2dbc:	02429021 	addu	s2,s2,v0
    2dc0:	8f968024 	lw	s6,-32732(gp)
    2dc4:	26530012 	addiu	s3,s2,18
    2dc8:	2657002e 	addiu	s7,s2,46
    2dcc:	0260a821 	move	s5,s3
    2dd0:	10000007 	b	2df0 <rtl8881_WDescript@@Base+0x4e0>
    2dd4:	26d68798 	addiu	s6,s6,-30824
    2dd8:	92860000 	lbu	a2,0(s4)
    2ddc:	02c02821 	move	a1,s6
    2de0:	26b50002 	addiu	s5,s5,2
    2de4:	0320f809 	jalr	t9
    2de8:	26940001 	addiu	s4,s4,1
    2dec:	8fbc0010 	lw	gp,16(sp)
[31m    2df0:	8f99807c 	lw	t9,sprintf[0m
    2df4:	16b7fff8 	bne	s5,s7,2dd8 <rtl8881_WDescript@@Base+0x4c8>
    2df8:	02a02021 	move	a0,s5
    2dfc:	8f998050 	lw	t9,-32688(gp)
    2e00:	02403021 	move	a2,s2
    2e04:	340589f1 	li	a1,0x89f1
    2e08:	02002021 	move	a0,s0
    2e0c:	8f928018 	lw	s2,-32744(gp)
    2e10:	0320f809 	jalr	t9
    2e14:	27b40151 	addiu	s4,sp,337
    2e18:	02603821 	move	a3,s3
    2e1c:	8fbc0010 	lw	gp,16(sp)
    2e20:	2646a480 	addiu	a2,s2,-23424
    2e24:	a260ffff 	sb	zero,-1(s3)
    2e28:	8f848024 	lw	a0,-32732(gp)
    2e2c:	8f858024 	lw	a1,-32732(gp)
    2e30:	8f998060 	lw	t9,-32672(gp)
    2e34:	248487a0 	addiu	a0,a0,-30816
    2e38:	0320f809 	jalr	t9
    2e3c:	24a58f64 	addiu	a1,a1,-28828
    2e40:	2644a480 	addiu	a0,s2,-23424
    2e44:	02202821 	move	a1,s1
    2e48:	8fbc0010 	lw	gp,16(sp)
    2e4c:	02003021 	move	a2,s0
    2e50:	2652a480 	addiu	s2,s2,-23424
    2e54:	8f878024 	lw	a3,-32732(gp)
[31m    2e58:	8f99807c 	lw	t9,sprintf[0m
    2e5c:	0320f809 	jalr	t9
    2e60:	24e787f4 	addiu	a3,a3,-30732
    2e64:	8fbc0010 	lw	gp,16(sp)
    2e68:	8f99804c 	lw	t9,strlen
    2e6c:	0320f809 	jalr	t9
    2e70:	02002021 	move	a0,s0
    2e74:	8fbc0010 	lw	gp,16(sp)
    2e78:	24420001 	addiu	v0,v0,1
    2e7c:	02429021 	addu	s2,s2,v0
    2e80:	8f968024 	lw	s6,-32732(gp)
    2e84:	2653000f 	addiu	s3,s2,15
    2e88:	2657002b 	addiu	s7,s2,43
    2e8c:	0260a821 	move	s5,s3
    2e90:	10000007 	b	2eb0 <rtl8881_WDescript@@Base+0x5a0>
    2e94:	26d68798 	addiu	s6,s6,-30824
    2e98:	92860000 	lbu	a2,0(s4)
    2e9c:	02c02821 	move	a1,s6
    2ea0:	26b50002 	addiu	s5,s5,2
    2ea4:	0320f809 	jalr	t9
    2ea8:	26940001 	addiu	s4,s4,1
    2eac:	8fbc0010 	lw	gp,16(sp)
[31m    2eb0:	8f99807c 	lw	t9,sprintf[0m
    2eb4:	16b7fff8 	bne	s5,s7,2e98 <rtl8881_WDescript@@Base+0x588>
    2eb8:	02a02021 	move	a0,s5
    2ebc:	8f998050 	lw	t9,-32688(gp)
    2ec0:	02403021 	move	a2,s2
    2ec4:	340589f1 	li	a1,0x89f1
    2ec8:	02002021 	move	a0,s0
    2ecc:	8f928018 	lw	s2,-32744(gp)
    2ed0:	0320f809 	jalr	t9
    2ed4:	27b4015f 	addiu	s4,sp,351
    2ed8:	02603821 	move	a3,s3
    2edc:	8fbc0010 	lw	gp,16(sp)
    2ee0:	2646a480 	addiu	a2,s2,-23424
    2ee4:	a260ffff 	sb	zero,-1(s3)
    2ee8:	8f848024 	lw	a0,-32732(gp)
    2eec:	8f858024 	lw	a1,-32732(gp)
    2ef0:	8f998060 	lw	t9,-32672(gp)
    2ef4:	248487a0 	addiu	a0,a0,-30816
    2ef8:	0320f809 	jalr	t9
    2efc:	24a58f64 	addiu	a1,a1,-28828
    2f00:	2644a480 	addiu	a0,s2,-23424
    2f04:	02202821 	move	a1,s1
    2f08:	8fbc0010 	lw	gp,16(sp)
    2f0c:	02003021 	move	a2,s0
    2f10:	2652a480 	addiu	s2,s2,-23424
    2f14:	8f878024 	lw	a3,-32732(gp)
[31m    2f18:	8f99807c 	lw	t9,sprintf[0m
    2f1c:	0320f809 	jalr	t9
    2f20:	24e78804 	addiu	a3,a3,-30716
    2f24:	8fbc0010 	lw	gp,16(sp)
    2f28:	8f99804c 	lw	t9,strlen
    2f2c:	0320f809 	jalr	t9
    2f30:	02002021 	move	a0,s0
    2f34:	8fbc0010 	lw	gp,16(sp)
    2f38:	24420001 	addiu	v0,v0,1
    2f3c:	02429021 	addu	s2,s2,v0
    2f40:	8f968024 	lw	s6,-32732(gp)
    2f44:	2653000c 	addiu	s3,s2,12
    2f48:	26570028 	addiu	s7,s2,40
    2f4c:	0260a821 	move	s5,s3
    2f50:	10000007 	b	2f70 <rtl8881_WDescript@@Base+0x660>
    2f54:	26d68798 	addiu	s6,s6,-30824
    2f58:	92860000 	lbu	a2,0(s4)
    2f5c:	02c02821 	move	a1,s6
    2f60:	26b50002 	addiu	s5,s5,2
    2f64:	0320f809 	jalr	t9
    2f68:	26940001 	addiu	s4,s4,1
    2f6c:	8fbc0010 	lw	gp,16(sp)
[31m    2f70:	8f99807c 	lw	t9,sprintf[0m
    2f74:	16b7fff8 	bne	s5,s7,2f58 <rtl8881_WDescript@@Base+0x648>
    2f78:	02a02021 	move	a0,s5
    2f7c:	8f998050 	lw	t9,-32688(gp)
    2f80:	02403021 	move	a2,s2
    2f84:	340589f1 	li	a1,0x89f1
    2f88:	02002021 	move	a0,s0
    2f8c:	8f928018 	lw	s2,-32744(gp)
    2f90:	0320f809 	jalr	t9
    2f94:	27b4016d 	addiu	s4,sp,365
    2f98:	02603821 	move	a3,s3
    2f9c:	8fbc0010 	lw	gp,16(sp)
    2fa0:	2646a480 	addiu	a2,s2,-23424
    2fa4:	a260ffff 	sb	zero,-1(s3)
    2fa8:	8f848024 	lw	a0,-32732(gp)
    2fac:	8f858024 	lw	a1,-32732(gp)
    2fb0:	8f998060 	lw	t9,-32672(gp)
    2fb4:	248487a0 	addiu	a0,a0,-30816
    2fb8:	0320f809 	jalr	t9
    2fbc:	24a58f64 	addiu	a1,a1,-28828
    2fc0:	2644a480 	addiu	a0,s2,-23424
    2fc4:	02202821 	move	a1,s1
    2fc8:	8fbc0010 	lw	gp,16(sp)
    2fcc:	02003021 	move	a2,s0
    2fd0:	2652a480 	addiu	s2,s2,-23424
    2fd4:	8f878024 	lw	a3,-32732(gp)
[31m    2fd8:	8f99807c 	lw	t9,sprintf[0m
    2fdc:	0320f809 	jalr	t9
    2fe0:	24e78810 	addiu	a3,a3,-30704
    2fe4:	8fbc0010 	lw	gp,16(sp)
    2fe8:	8f99804c 	lw	t9,strlen
    2fec:	0320f809 	jalr	t9
    2ff0:	02002021 	move	a0,s0
    2ff4:	8fbc0010 	lw	gp,16(sp)
    2ff8:	24420001 	addiu	v0,v0,1
    2ffc:	02429021 	addu	s2,s2,v0
    3000:	8f968024 	lw	s6,-32732(gp)
    3004:	2653000c 	addiu	s3,s2,12
    3008:	26570028 	addiu	s7,s2,40
    300c:	0260a821 	move	s5,s3
    3010:	10000007 	b	3030 <rtl8881_WDescript@@Base+0x720>
    3014:	26d68798 	addiu	s6,s6,-30824
    3018:	92860000 	lbu	a2,0(s4)
    301c:	02c02821 	move	a1,s6
    3020:	26b50002 	addiu	s5,s5,2
    3024:	0320f809 	jalr	t9
    3028:	26940001 	addiu	s4,s4,1
    302c:	8fbc0010 	lw	gp,16(sp)
[31m    3030:	8f99807c 	lw	t9,sprintf[0m
    3034:	16b7fff8 	bne	s5,s7,3018 <rtl8881_WDescript@@Base+0x708>
    3038:	02a02021 	move	a0,s5
    303c:	8f998050 	lw	t9,-32688(gp)
    3040:	02403021 	move	a2,s2
    3044:	340589f1 	li	a1,0x89f1
    3048:	02002021 	move	a0,s0
    304c:	8f928018 	lw	s2,-32744(gp)
    3050:	0320f809 	jalr	t9
    3054:	27b4018c 	addiu	s4,sp,396
    3058:	02603821 	move	a3,s3
    305c:	8fbc0010 	lw	gp,16(sp)
    3060:	2646a480 	addiu	a2,s2,-23424
    3064:	a260ffff 	sb	zero,-1(s3)
    3068:	8f848024 	lw	a0,-32732(gp)
    306c:	8f858024 	lw	a1,-32732(gp)
    3070:	8f998060 	lw	t9,-32672(gp)
    3074:	248487a0 	addiu	a0,a0,-30816
    3078:	0320f809 	jalr	t9
    307c:	24a58f64 	addiu	a1,a1,-28828
    3080:	2644a480 	addiu	a0,s2,-23424
    3084:	02202821 	move	a1,s1
    3088:	8fbc0010 	lw	gp,16(sp)
    308c:	02003021 	move	a2,s0
    3090:	2652a480 	addiu	s2,s2,-23424
    3094:	8f878024 	lw	a3,-32732(gp)
[31m    3098:	8f99807c 	lw	t9,sprintf[0m
    309c:	0320f809 	jalr	t9
    30a0:	24e7881c 	addiu	a3,a3,-30692
    30a4:	8fbc0010 	lw	gp,16(sp)
    30a8:	8f99804c 	lw	t9,strlen
    30ac:	0320f809 	jalr	t9
    30b0:	02002021 	move	a0,s0
    30b4:	8fbc0010 	lw	gp,16(sp)
    30b8:	24420001 	addiu	v0,v0,1
    30bc:	02429021 	addu	s2,s2,v0
    30c0:	8f968024 	lw	s6,-32732(gp)
    30c4:	26530014 	addiu	s3,s2,20
    30c8:	2657019c 	addiu	s7,s2,412
    30cc:	0260a821 	move	s5,s3
    30d0:	10000007 	b	30f0 <rtl8881_WDescript@@Base+0x7e0>
    30d4:	26d68798 	addiu	s6,s6,-30824
    30d8:	92860000 	lbu	a2,0(s4)
    30dc:	02c02821 	move	a1,s6
    30e0:	26b50002 	addiu	s5,s5,2
    30e4:	0320f809 	jalr	t9
    30e8:	26940001 	addiu	s4,s4,1
    30ec:	8fbc0010 	lw	gp,16(sp)
[31m    30f0:	8f99807c 	lw	t9,sprintf[0m
    30f4:	16b7fff8 	bne	s5,s7,30d8 <rtl8881_WDescript@@Base+0x7c8>
    30f8:	02a02021 	move	a0,s5
    30fc:	8f998050 	lw	t9,-32688(gp)
    3100:	02403021 	move	a2,s2
    3104:	340589f1 	li	a1,0x89f1
    3108:	02002021 	move	a0,s0
    310c:	8f928018 	lw	s2,-32744(gp)
    3110:	0320f809 	jalr	t9
    3114:	27b40250 	addiu	s4,sp,592
    3118:	02603821 	move	a3,s3
    311c:	8fbc0010 	lw	gp,16(sp)
    3120:	2646a480 	addiu	a2,s2,-23424
    3124:	a260ffff 	sb	zero,-1(s3)
    3128:	8f848024 	lw	a0,-32732(gp)
    312c:	8f858024 	lw	a1,-32732(gp)
    3130:	8f998060 	lw	t9,-32672(gp)
    3134:	248487a0 	addiu	a0,a0,-30816
    3138:	0320f809 	jalr	t9
    313c:	24a58f64 	addiu	a1,a1,-28828
    3140:	2644a480 	addiu	a0,s2,-23424
    3144:	02202821 	move	a1,s1
    3148:	8fbc0010 	lw	gp,16(sp)
    314c:	02003021 	move	a2,s0
    3150:	2652a480 	addiu	s2,s2,-23424
    3154:	8f878024 	lw	a3,-32732(gp)
[31m    3158:	8f99807c 	lw	t9,sprintf[0m
    315c:	0320f809 	jalr	t9
    3160:	24e78830 	addiu	a3,a3,-30672
    3164:	8fbc0010 	lw	gp,16(sp)
    3168:	8f99804c 	lw	t9,strlen
    316c:	0320f809 	jalr	t9
    3170:	02002021 	move	a0,s0
    3174:	8fbc0010 	lw	gp,16(sp)
    3178:	24420001 	addiu	v0,v0,1
    317c:	02429021 	addu	s2,s2,v0
    3180:	8f968024 	lw	s6,-32732(gp)
    3184:	26550014 	addiu	s5,s2,20
    3188:	2657019c 	addiu	s7,s2,412
    318c:	02a09821 	move	s3,s5
    3190:	10000007 	b	31b0 <rtl8881_WDescript@@Base+0x8a0>
    3194:	26d68798 	addiu	s6,s6,-30824
    3198:	92860000 	lbu	a2,0(s4)
    319c:	02c02821 	move	a1,s6
    31a0:	26730002 	addiu	s3,s3,2
    31a4:	0320f809 	jalr	t9
    31a8:	26940001 	addiu	s4,s4,1
    31ac:	8fbc0010 	lw	gp,16(sp)
[31m    31b0:	8f99807c 	lw	t9,sprintf[0m
    31b4:	1677fff8 	bne	s3,s7,3198 <rtl8881_WDescript@@Base+0x888>
    31b8:	02602021 	move	a0,s3
    31bc:	8f998050 	lw	t9,-32688(gp)
    31c0:	02403021 	move	a2,s2
    31c4:	340589f1 	li	a1,0x89f1
    31c8:	02002021 	move	a0,s0
    31cc:	8f938018 	lw	s3,-32744(gp)
    31d0:	0320f809 	jalr	t9
    31d4:	27b20018 	addiu	s2,sp,24
    31d8:	02a03821 	move	a3,s5
    31dc:	8fbc0010 	lw	gp,16(sp)
    31e0:	2666a480 	addiu	a2,s3,-23424
    31e4:	0240a021 	move	s4,s2
    31e8:	a2a0ffff 	sb	zero,-1(s5)
    31ec:	0240b021 	move	s6,s2
    31f0:	8f848024 	lw	a0,-32732(gp)
    31f4:	8f858024 	lw	a1,-32732(gp)
    31f8:	8f998060 	lw	t9,-32672(gp)
    31fc:	248487a0 	addiu	a0,a0,-30816
    3200:	0320f809 	jalr	t9
    3204:	24a58f64 	addiu	a1,a1,-28828
    3208:	02202821 	move	a1,s1
    320c:	2664a480 	addiu	a0,s3,-23424
    3210:	8fbc0010 	lw	gp,16(sp)
    3214:	02003021 	move	a2,s0
    3218:	2673a480 	addiu	s3,s3,-23424
    321c:	8f878024 	lw	a3,-32732(gp)
[31m    3220:	8f99807c 	lw	t9,sprintf[0m
    3224:	0320f809 	jalr	t9
    3228:	24e78844 	addiu	a3,a3,-30652
--
    3234:	0320f809 	jalr	t9
    3238:	02002021 	move	a0,s0
    323c:	02402021 	move	a0,s2
    3240:	27a505cb 	addiu	a1,sp,1483
    3244:	8fbc0010 	lw	gp,16(sp)
    3248:	24420001 	addiu	v0,v0,1
    324c:	02629821 	addu	s3,s3,v0
    3250:	8f998028 	lw	t9,-32728(gp)
    3254:	2675001b 	addiu	s5,s3,27
    3258:	27392928 	addiu	t9,t9,10536
    325c:	0320f809 	jalr	t9
    3260:	02a0b821 	move	s7,s5
    3264:	266301a3 	addiu	v1,s3,419
    3268:	8fbc0010 	lw	gp,16(sp)
    326c:	8f9e8024 	lw	s8,-32732(gp)
    3270:	10000009 	b	3298 <rtl8881_WDescript@@Base+0x988>
    3274:	27de8798 	addiu	s8,s8,-30824
    3278:	92c60000 	lbu	a2,0(s6)
    327c:	03c02821 	move	a1,s8
    3280:	26f70002 	addiu	s7,s7,2
    3284:	afa30730 	sw	v1,1840(sp)
    3288:	0320f809 	jalr	t9
    328c:	26d60001 	addiu	s6,s6,1
    3290:	8fbc0010 	lw	gp,16(sp)
    3294:	8fa30730 	lw	v1,1840(sp)
[31m    3298:	8f99807c 	lw	t9,sprintf[0m
    329c:	16e3fff6 	bne	s7,v1,3278 <rtl8881_WDescript@@Base+0x968>
    32a0:	02e02021 	move	a0,s7
    32a4:	8f998050 	lw	t9,-32688(gp)
    32a8:	02603021 	move	a2,s3
    32ac:	340589f1 	li	a1,0x89f1
    32b0:	8f938018 	lw	s3,-32744(gp)
    32b4:	0320f809 	jalr	t9
    32b8:	02002021 	move	a0,s0
    32bc:	02a03821 	move	a3,s5
    32c0:	8fbc0010 	lw	gp,16(sp)
    32c4:	2666a480 	addiu	a2,s3,-23424
    32c8:	0240b021 	move	s6,s2
    32cc:	a2a0ffff 	sb	zero,-1(s5)
    32d0:	8f848024 	lw	a0,-32732(gp)
    32d4:	8f858024 	lw	a1,-32732(gp)
    32d8:	8f998060 	lw	t9,-32672(gp)
    32dc:	248487a0 	addiu	a0,a0,-30816
    32e0:	0320f809 	jalr	t9
    32e4:	24a58f64 	addiu	a1,a1,-28828
    32e8:	02202821 	move	a1,s1
    32ec:	2664a480 	addiu	a0,s3,-23424
    32f0:	8fbc0010 	lw	gp,16(sp)
    32f4:	02003021 	move	a2,s0
    32f8:	2673a480 	addiu	s3,s3,-23424
    32fc:	8f878024 	lw	a3,-32732(gp)
[31m    3300:	8f99807c 	lw	t9,sprintf[0m
    3304:	0320f809 	jalr	t9
    3308:	24e78860 	addiu	a3,a3,-30624
--
    3314:	0320f809 	jalr	t9
    3318:	02002021 	move	a0,s0
    331c:	27a40018 	addiu	a0,sp,24
    3320:	8fbc0010 	lw	gp,16(sp)
    3324:	24420001 	addiu	v0,v0,1
    3328:	27a506ab 	addiu	a1,sp,1707
    332c:	02629821 	addu	s3,s3,v0
    3330:	8f998028 	lw	t9,-32728(gp)
    3334:	2675001b 	addiu	s5,s3,27
    3338:	27392928 	addiu	t9,t9,10536
    333c:	0320f809 	jalr	t9
    3340:	02a0b821 	move	s7,s5
    3344:	266301a3 	addiu	v1,s3,419
    3348:	8fbc0010 	lw	gp,16(sp)
    334c:	8f9e8024 	lw	s8,-32732(gp)
    3350:	10000009 	b	3378 <rtl8881_WDescript@@Base+0xa68>
    3354:	27de8798 	addiu	s8,s8,-30824
    3358:	92c60000 	lbu	a2,0(s6)
    335c:	03c02821 	move	a1,s8
    3360:	26f70002 	addiu	s7,s7,2
    3364:	afa30730 	sw	v1,1840(sp)
    3368:	0320f809 	jalr	t9
    336c:	26d60001 	addiu	s6,s6,1
    3370:	8fbc0010 	lw	gp,16(sp)
    3374:	8fa30730 	lw	v1,1840(sp)
[31m    3378:	8f99807c 	lw	t9,sprintf[0m
    337c:	16e3fff6 	bne	s7,v1,3358 <rtl8881_WDescript@@Base+0xa48>
    3380:	02e02021 	move	a0,s7
    3384:	8f998050 	lw	t9,-32688(gp)
    3388:	02603021 	move	a2,s3
    338c:	340589f1 	li	a1,0x89f1
    3390:	8f938018 	lw	s3,-32744(gp)
    3394:	0320f809 	jalr	t9
    3398:	02002021 	move	a0,s0
    339c:	02a03821 	move	a3,s5
    33a0:	8fbc0010 	lw	gp,16(sp)
    33a4:	2666a480 	addiu	a2,s3,-23424
    33a8:	0240b021 	move	s6,s2
    33ac:	a2a0ffff 	sb	zero,-1(s5)
    33b0:	8f848024 	lw	a0,-32732(gp)
    33b4:	8f858024 	lw	a1,-32732(gp)
    33b8:	8f998060 	lw	t9,-32672(gp)
    33bc:	248487a0 	addiu	a0,a0,-30816
    33c0:	0320f809 	jalr	t9
    33c4:	24a58f64 	addiu	a1,a1,-28828
    33c8:	02202821 	move	a1,s1
    33cc:	2664a480 	addiu	a0,s3,-23424
    33d0:	8fbc0010 	lw	gp,16(sp)
    33d4:	02003021 	move	a2,s0
    33d8:	2673a480 	addiu	s3,s3,-23424
    33dc:	8f878024 	lw	a3,-32732(gp)
[31m    33e0:	8f99807c 	lw	t9,sprintf[0m
    33e4:	0320f809 	jalr	t9
    33e8:	24e7887c 	addiu	a3,a3,-30596
--
    33f4:	0320f809 	jalr	t9
    33f8:	02002021 	move	a0,s0
    33fc:	27a40018 	addiu	a0,sp,24
    3400:	8fbc0010 	lw	gp,16(sp)
    3404:	24420001 	addiu	v0,v0,1
    3408:	27a505d9 	addiu	a1,sp,1497
    340c:	02629821 	addu	s3,s3,v0
    3410:	8f998028 	lw	t9,-32728(gp)
    3414:	2675001b 	addiu	s5,s3,27
    3418:	27392928 	addiu	t9,t9,10536
    341c:	0320f809 	jalr	t9
    3420:	02a0b821 	move	s7,s5
    3424:	266301a3 	addiu	v1,s3,419
    3428:	8fbc0010 	lw	gp,16(sp)
    342c:	8f9e8024 	lw	s8,-32732(gp)
    3430:	10000009 	b	3458 <rtl8881_WDescript@@Base+0xb48>
    3434:	27de8798 	addiu	s8,s8,-30824
    3438:	92c60000 	lbu	a2,0(s6)
    343c:	03c02821 	move	a1,s8
    3440:	26f70002 	addiu	s7,s7,2
    3444:	afa30730 	sw	v1,1840(sp)
    3448:	0320f809 	jalr	t9
    344c:	26d60001 	addiu	s6,s6,1
    3450:	8fbc0010 	lw	gp,16(sp)
    3454:	8fa30730 	lw	v1,1840(sp)
[31m    3458:	8f99807c 	lw	t9,sprintf[0m
    345c:	16e3fff6 	bne	s7,v1,3438 <rtl8881_WDescript@@Base+0xb28>
    3460:	02e02021 	move	a0,s7
    3464:	8f998050 	lw	t9,-32688(gp)
    3468:	02603021 	move	a2,s3
    346c:	340589f1 	li	a1,0x89f1
    3470:	8f938018 	lw	s3,-32744(gp)
    3474:	0320f809 	jalr	t9
    3478:	02002021 	move	a0,s0
    347c:	02a03821 	move	a3,s5
    3480:	8fbc0010 	lw	gp,16(sp)
    3484:	2666a480 	addiu	a2,s3,-23424
    3488:	0240b021 	move	s6,s2
    348c:	a2a0ffff 	sb	zero,-1(s5)
    3490:	8f848024 	lw	a0,-32732(gp)
    3494:	8f858024 	lw	a1,-32732(gp)
    3498:	8f998060 	lw	t9,-32672(gp)
    349c:	248487a0 	addiu	a0,a0,-30816
    34a0:	0320f809 	jalr	t9
    34a4:	24a58f64 	addiu	a1,a1,-28828
    34a8:	02202821 	move	a1,s1
    34ac:	2664a480 	addiu	a0,s3,-23424
    34b0:	8fbc0010 	lw	gp,16(sp)
    34b4:	02003021 	move	a2,s0
    34b8:	2673a480 	addiu	s3,s3,-23424
    34bc:	8f878024 	lw	a3,-32732(gp)
[31m    34c0:	8f99807c 	lw	t9,sprintf[0m
    34c4:	0320f809 	jalr	t9
    34c8:	24e78898 	addiu	a3,a3,-30568
--
    34d4:	0320f809 	jalr	t9
    34d8:	02002021 	move	a0,s0
    34dc:	27a40018 	addiu	a0,sp,24
    34e0:	8fbc0010 	lw	gp,16(sp)
    34e4:	24420001 	addiu	v0,v0,1
    34e8:	27a506b9 	addiu	a1,sp,1721
    34ec:	02629821 	addu	s3,s3,v0
    34f0:	8f998028 	lw	t9,-32728(gp)
    34f4:	2675001b 	addiu	s5,s3,27
    34f8:	27392928 	addiu	t9,t9,10536
    34fc:	0320f809 	jalr	t9
    3500:	02a0b821 	move	s7,s5
    3504:	266301a3 	addiu	v1,s3,419
    3508:	8fbc0010 	lw	gp,16(sp)
    350c:	8f9e8024 	lw	s8,-32732(gp)
    3510:	10000009 	b	3538 <rtl8881_WDescript@@Base+0xc28>
    3514:	27de8798 	addiu	s8,s8,-30824
    3518:	92c60000 	lbu	a2,0(s6)
    351c:	03c02821 	move	a1,s8
    3520:	26f70002 	addiu	s7,s7,2
    3524:	afa30730 	sw	v1,1840(sp)
    3528:	0320f809 	jalr	t9
    352c:	26d60001 	addiu	s6,s6,1
    3530:	8fbc0010 	lw	gp,16(sp)
    3534:	8fa30730 	lw	v1,1840(sp)
[31m    3538:	8f99807c 	lw	t9,sprintf[0m
    353c:	16e3fff6 	bne	s7,v1,3518 <rtl8881_WDescript@@Base+0xc08>
    3540:	02e02021 	move	a0,s7
    3544:	8f998050 	lw	t9,-32688(gp)
    3548:	02603021 	move	a2,s3
    354c:	340589f1 	li	a1,0x89f1
    3550:	8f938018 	lw	s3,-32744(gp)
    3554:	0320f809 	jalr	t9
    3558:	02002021 	move	a0,s0
    355c:	02a03821 	move	a3,s5
    3560:	8fbc0010 	lw	gp,16(sp)
    3564:	2666a480 	addiu	a2,s3,-23424
    3568:	0240b021 	move	s6,s2
    356c:	a2a0ffff 	sb	zero,-1(s5)
    3570:	8f848024 	lw	a0,-32732(gp)
    3574:	8f858024 	lw	a1,-32732(gp)
    3578:	8f998060 	lw	t9,-32672(gp)
    357c:	248487a0 	addiu	a0,a0,-30816
    3580:	0320f809 	jalr	t9
    3584:	24a58f64 	addiu	a1,a1,-28828
    3588:	02202821 	move	a1,s1
    358c:	2664a480 	addiu	a0,s3,-23424
    3590:	8fbc0010 	lw	gp,16(sp)
    3594:	02003021 	move	a2,s0
    3598:	2673a480 	addiu	s3,s3,-23424
    359c:	8f878024 	lw	a3,-32732(gp)
[31m    35a0:	8f99807c 	lw	t9,sprintf[0m
    35a4:	0320f809 	jalr	t9
    35a8:	24e788b4 	addiu	a3,a3,-30540
--
    35b4:	0320f809 	jalr	t9
    35b8:	02002021 	move	a0,s0
    35bc:	27a40018 	addiu	a0,sp,24
    35c0:	8fbc0010 	lw	gp,16(sp)
    35c4:	24420001 	addiu	v0,v0,1
    35c8:	27a50611 	addiu	a1,sp,1553
    35cc:	02629821 	addu	s3,s3,v0
    35d0:	8f998028 	lw	t9,-32728(gp)
    35d4:	2675001c 	addiu	s5,s3,28
    35d8:	27392928 	addiu	t9,t9,10536
    35dc:	0320f809 	jalr	t9
    35e0:	02a0b821 	move	s7,s5
    35e4:	266301a4 	addiu	v1,s3,420
    35e8:	8fbc0010 	lw	gp,16(sp)
    35ec:	8f9e8024 	lw	s8,-32732(gp)
    35f0:	10000009 	b	3618 <rtl8881_WDescript@@Base+0xd08>
    35f4:	27de8798 	addiu	s8,s8,-30824
    35f8:	92c60000 	lbu	a2,0(s6)
    35fc:	03c02821 	move	a1,s8
    3600:	26f70002 	addiu	s7,s7,2
    3604:	afa30730 	sw	v1,1840(sp)
    3608:	0320f809 	jalr	t9
    360c:	26d60001 	addiu	s6,s6,1
    3610:	8fbc0010 	lw	gp,16(sp)
    3614:	8fa30730 	lw	v1,1840(sp)
[31m    3618:	8f99807c 	lw	t9,sprintf[0m
    361c:	16e3fff6 	bne	s7,v1,35f8 <rtl8881_WDescript@@Base+0xce8>
    3620:	02e02021 	move	a0,s7
    3624:	8f998050 	lw	t9,-32688(gp)
    3628:	02603021 	move	a2,s3
    362c:	340589f1 	li	a1,0x89f1
    3630:	8f938018 	lw	s3,-32744(gp)
    3634:	0320f809 	jalr	t9
    3638:	02002021 	move	a0,s0
    363c:	02a03821 	move	a3,s5
    3640:	8fbc0010 	lw	gp,16(sp)
    3644:	2666a480 	addiu	a2,s3,-23424
    3648:	0240b021 	move	s6,s2
    364c:	a2a0ffff 	sb	zero,-1(s5)
    3650:	8f848024 	lw	a0,-32732(gp)
    3654:	8f858024 	lw	a1,-32732(gp)
    3658:	8f998060 	lw	t9,-32672(gp)
    365c:	248487a0 	addiu	a0,a0,-30816
    3660:	0320f809 	jalr	t9
    3664:	24a58f64 	addiu	a1,a1,-28828
    3668:	02202821 	move	a1,s1
    366c:	2664a480 	addiu	a0,s3,-23424
    3670:	8fbc0010 	lw	gp,16(sp)
    3674:	02003021 	move	a2,s0
    3678:	2673a480 	addiu	s3,s3,-23424
    367c:	8f878024 	lw	a3,-32732(gp)
[31m    3680:	8f99807c 	lw	t9,sprintf[0m
    3684:	0320f809 	jalr	t9
    3688:	24e788d0 	addiu	a3,a3,-30512
--
    3694:	0320f809 	jalr	t9
    3698:	02002021 	move	a0,s0
    369c:	27a40018 	addiu	a0,sp,24
    36a0:	8fbc0010 	lw	gp,16(sp)
    36a4:	24420001 	addiu	v0,v0,1
    36a8:	27a506f1 	addiu	a1,sp,1777
    36ac:	02629821 	addu	s3,s3,v0
    36b0:	8f998028 	lw	t9,-32728(gp)
    36b4:	2675001c 	addiu	s5,s3,28
    36b8:	27392928 	addiu	t9,t9,10536
    36bc:	0320f809 	jalr	t9
    36c0:	02a0b821 	move	s7,s5
    36c4:	266301a4 	addiu	v1,s3,420
    36c8:	8fbc0010 	lw	gp,16(sp)
    36cc:	8f9e8024 	lw	s8,-32732(gp)
    36d0:	10000009 	b	36f8 <rtl8881_WDescript@@Base+0xde8>
    36d4:	27de8798 	addiu	s8,s8,-30824
    36d8:	92c60000 	lbu	a2,0(s6)
    36dc:	03c02821 	move	a1,s8
    36e0:	26f70002 	addiu	s7,s7,2
    36e4:	afa30730 	sw	v1,1840(sp)
    36e8:	0320f809 	jalr	t9
    36ec:	26d60001 	addiu	s6,s6,1
    36f0:	8fbc0010 	lw	gp,16(sp)
    36f4:	8fa30730 	lw	v1,1840(sp)
[31m    36f8:	8f99807c 	lw	t9,sprintf[0m
    36fc:	16e3fff6 	bne	s7,v1,36d8 <rtl8881_WDescript@@Base+0xdc8>
    3700:	02e02021 	move	a0,s7
    3704:	8f998050 	lw	t9,-32688(gp)
    3708:	02603021 	move	a2,s3
    370c:	340589f1 	li	a1,0x89f1
    3710:	8f938018 	lw	s3,-32744(gp)
    3714:	0320f809 	jalr	t9
    3718:	02002021 	move	a0,s0
    371c:	02a03821 	move	a3,s5
    3720:	8fbc0010 	lw	gp,16(sp)
    3724:	2666a480 	addiu	a2,s3,-23424
    3728:	a2a0ffff 	sb	zero,-1(s5)
    372c:	8f848024 	lw	a0,-32732(gp)
    3730:	8f858024 	lw	a1,-32732(gp)
    3734:	8f998060 	lw	t9,-32672(gp)
    3738:	248487a0 	addiu	a0,a0,-30816
    373c:	0320f809 	jalr	t9
    3740:	24a58f64 	addiu	a1,a1,-28828
    3744:	02202821 	move	a1,s1
    3748:	2664a480 	addiu	a0,s3,-23424
    374c:	8fbc0010 	lw	gp,16(sp)
    3750:	02003021 	move	a2,s0
    3754:	2673a480 	addiu	s3,s3,-23424
    3758:	8f878024 	lw	a3,-32732(gp)
[31m    375c:	8f99807c 	lw	t9,sprintf[0m
    3760:	0320f809 	jalr	t9
    3764:	24e788ec 	addiu	a3,a3,-30484
    3768:	8fbc0010 	lw	gp,16(sp)
    376c:	8f99804c 	lw	t9,strlen
    3770:	0320f809 	jalr	t9
    3774:	02002021 	move	a0,s0
    3778:	27a40018 	addiu	a0,sp,24
    377c:	8fbc0010 	lw	gp,16(sp)
    3780:	24420001 	addiu	v0,v0,1
    3784:	27a5061f 	addiu	a1,sp,1567
    3788:	0262b021 	addu	s6,s3,v0
    378c:	8f998028 	lw	t9,-32728(gp)
    3790:	26d3001c 	addiu	s3,s6,28
    3794:	26de01a4 	addiu	s8,s6,420
    3798:	27392928 	addiu	t9,t9,10536
    379c:	0320f809 	jalr	t9
    37a0:	0260a821 	move	s5,s3
    37a4:	8fbc0010 	lw	gp,16(sp)
    37a8:	8f978024 	lw	s7,-32732(gp)
    37ac:	10000007 	b	37cc <rtl8881_WDescript@@Base+0xebc>
    37b0:	26f78798 	addiu	s7,s7,-30824
    37b4:	92460000 	lbu	a2,0(s2)
    37b8:	02e02821 	move	a1,s7
    37bc:	26b50002 	addiu	s5,s5,2
    37c0:	0320f809 	jalr	t9
    37c4:	26520001 	addiu	s2,s2,1
    37c8:	8fbc0010 	lw	gp,16(sp)
[31m    37cc:	8f99807c 	lw	t9,sprintf[0m
    37d0:	16befff8 	bne	s5,s8,37b4 <rtl8881_WDescript@@Base+0xea4>
    37d4:	02a02021 	move	a0,s5
    37d8:	8f998050 	lw	t9,-32688(gp)
    37dc:	02c03021 	move	a2,s6
    37e0:	340589f1 	li	a1,0x89f1
    37e4:	8f928018 	lw	s2,-32744(gp)
    37e8:	0320f809 	jalr	t9
    37ec:	02002021 	move	a0,s0
    37f0:	02603821 	move	a3,s3
    37f4:	8fbc0010 	lw	gp,16(sp)
    37f8:	2646a480 	addiu	a2,s2,-23424
    37fc:	a260ffff 	sb	zero,-1(s3)
    3800:	8f848024 	lw	a0,-32732(gp)
    3804:	8f858024 	lw	a1,-32732(gp)
    3808:	8f998060 	lw	t9,-32672(gp)
    380c:	248487a0 	addiu	a0,a0,-30816
    3810:	0320f809 	jalr	t9
    3814:	24a58f64 	addiu	a1,a1,-28828
    3818:	02202821 	move	a1,s1
    381c:	2644a480 	addiu	a0,s2,-23424
    3820:	8fbc0010 	lw	gp,16(sp)
    3824:	02003021 	move	a2,s0
    3828:	2652a480 	addiu	s2,s2,-23424
    382c:	8f878024 	lw	a3,-32732(gp)
[31m    3830:	8f99807c 	lw	t9,sprintf[0m
    3834:	0320f809 	jalr	t9
    3838:	24e78908 	addiu	a3,a3,-30456
    383c:	8fbc0010 	lw	gp,16(sp)
    3840:	8f99804c 	lw	t9,strlen
    3844:	0320f809 	jalr	t9
    3848:	02002021 	move	a0,s0
    384c:	27a40018 	addiu	a0,sp,24
    3850:	8fbc0010 	lw	gp,16(sp)
    3854:	24420001 	addiu	v0,v0,1
    3858:	27a506ff 	addiu	a1,sp,1791
    385c:	02429021 	addu	s2,s2,v0
    3860:	8f998028 	lw	t9,-32728(gp)
    3864:	2653001c 	addiu	s3,s2,28
    3868:	265701a4 	addiu	s7,s2,420
    386c:	27392928 	addiu	t9,t9,10536
    3870:	0320f809 	jalr	t9
    3874:	0260a821 	move	s5,s3
    3878:	8fbc0010 	lw	gp,16(sp)
    387c:	8f968024 	lw	s6,-32732(gp)
    3880:	10000007 	b	38a0 <rtl8881_WDescript@@Base+0xf90>
    3884:	26d68798 	addiu	s6,s6,-30824
    3888:	92860000 	lbu	a2,0(s4)
    388c:	02c02821 	move	a1,s6
    3890:	26b50002 	addiu	s5,s5,2
    3894:	0320f809 	jalr	t9
    3898:	26940001 	addiu	s4,s4,1
    389c:	8fbc0010 	lw	gp,16(sp)
[31m    38a0:	8f99807c 	lw	t9,sprintf[0m
    38a4:	16b7fff8 	bne	s5,s7,3888 <rtl8881_WDescript@@Base+0xf78>
    38a8:	02a02021 	move	a0,s5
    38ac:	8f998050 	lw	t9,-32688(gp)
    38b0:	02403021 	move	a2,s2
    38b4:	340589f1 	li	a1,0x89f1
    38b8:	02002021 	move	a0,s0
    38bc:	8f928018 	lw	s2,-32744(gp)
    38c0:	0320f809 	jalr	t9
    38c4:	27b40569 	addiu	s4,sp,1385
    38c8:	02603821 	move	a3,s3
    38cc:	8fbc0010 	lw	gp,16(sp)
    38d0:	2646a480 	addiu	a2,s2,-23424
    38d4:	a260ffff 	sb	zero,-1(s3)
    38d8:	8f848024 	lw	a0,-32732(gp)
    38dc:	8f858024 	lw	a1,-32732(gp)
    38e0:	8f998060 	lw	t9,-32672(gp)
    38e4:	248487a0 	addiu	a0,a0,-30816
    38e8:	0320f809 	jalr	t9
    38ec:	24a58f64 	addiu	a1,a1,-28828
    38f0:	2644a480 	addiu	a0,s2,-23424
    38f4:	02202821 	move	a1,s1
    38f8:	8fbc0010 	lw	gp,16(sp)
    38fc:	02003021 	move	a2,s0
    3900:	2652a480 	addiu	s2,s2,-23424
    3904:	8f878024 	lw	a3,-32732(gp)
[31m    3908:	8f99807c 	lw	t9,sprintf[0m
    390c:	0320f809 	jalr	t9
    3910:	24e78924 	addiu	a3,a3,-30428
    3914:	8fbc0010 	lw	gp,16(sp)
    3918:	8f99804c 	lw	t9,strlen
    391c:	0320f809 	jalr	t9
    3920:	02002021 	move	a0,s0
    3924:	8fbc0010 	lw	gp,16(sp)
    3928:	24420001 	addiu	v0,v0,1
    392c:	02429021 	addu	s2,s2,v0
    3930:	8f968024 	lw	s6,-32732(gp)
    3934:	26530018 	addiu	s3,s2,24
    3938:	26570034 	addiu	s7,s2,52
    393c:	0260a821 	move	s5,s3
    3940:	10000007 	b	3960 <rtl8881_WDescript@@Base+0x1050>
    3944:	26d68798 	addiu	s6,s6,-30824
    3948:	92860000 	lbu	a2,0(s4)
    394c:	02c02821 	move	a1,s6
    3950:	26b50002 	addiu	s5,s5,2
    3954:	0320f809 	jalr	t9
    3958:	26940001 	addiu	s4,s4,1
    395c:	8fbc0010 	lw	gp,16(sp)
[31m    3960:	8f99807c 	lw	t9,sprintf[0m
    3964:	16b7fff8 	bne	s5,s7,3948 <rtl8881_WDescript@@Base+0x1038>
    3968:	02a02021 	move	a0,s5
    396c:	8f998050 	lw	t9,-32688(gp)
    3970:	02403021 	move	a2,s2
    3974:	340589f1 	li	a1,0x89f1
    3978:	02002021 	move	a0,s0
    397c:	8f928018 	lw	s2,-32744(gp)
    3980:	0320f809 	jalr	t9
    3984:	27b40649 	addiu	s4,sp,1609
    3988:	02603821 	move	a3,s3
    398c:	8fbc0010 	lw	gp,16(sp)
    3990:	2646a480 	addiu	a2,s2,-23424
    3994:	a260ffff 	sb	zero,-1(s3)
    3998:	8f848024 	lw	a0,-32732(gp)
    399c:	8f858024 	lw	a1,-32732(gp)
    39a0:	8f998060 	lw	t9,-32672(gp)
    39a4:	248487a0 	addiu	a0,a0,-30816
    39a8:	0320f809 	jalr	t9
    39ac:	24a58f64 	addiu	a1,a1,-28828
    39b0:	2644a480 	addiu	a0,s2,-23424
    39b4:	02202821 	move	a1,s1
    39b8:	8fbc0010 	lw	gp,16(sp)
    39bc:	02003021 	move	a2,s0
    39c0:	2652a480 	addiu	s2,s2,-23424
    39c4:	8f878024 	lw	a3,-32732(gp)
[31m    39c8:	8f99807c 	lw	t9,sprintf[0m
    39cc:	0320f809 	jalr	t9
    39d0:	24e7893c 	addiu	a3,a3,-30404
    39d4:	8fbc0010 	lw	gp,16(sp)
    39d8:	8f99804c 	lw	t9,strlen
    39dc:	0320f809 	jalr	t9
    39e0:	02002021 	move	a0,s0
    39e4:	8fbc0010 	lw	gp,16(sp)
    39e8:	24420001 	addiu	v0,v0,1
    39ec:	02429021 	addu	s2,s2,v0
    39f0:	8f968024 	lw	s6,-32732(gp)
    39f4:	26530018 	addiu	s3,s2,24
    39f8:	26570034 	addiu	s7,s2,52
    39fc:	0260a821 	move	s5,s3
    3a00:	10000007 	b	3a20 <rtl8881_WDescript@@Base+0x1110>
    3a04:	26d68798 	addiu	s6,s6,-30824
    3a08:	92860000 	lbu	a2,0(s4)
    3a0c:	02c02821 	move	a1,s6
    3a10:	26b50002 	addiu	s5,s5,2
    3a14:	0320f809 	jalr	t9
    3a18:	26940001 	addiu	s4,s4,1
    3a1c:	8fbc0010 	lw	gp,16(sp)
[31m    3a20:	8f99807c 	lw	t9,sprintf[0m
    3a24:	16b7fff8 	bne	s5,s7,3a08 <rtl8881_WDescript@@Base+0x10f8>
    3a28:	02a02021 	move	a0,s5
    3a2c:	8f998050 	lw	t9,-32688(gp)
    3a30:	02403021 	move	a2,s2
    3a34:	340589f1 	li	a1,0x89f1
    3a38:	02002021 	move	a0,s0
    3a3c:	8f928018 	lw	s2,-32744(gp)
    3a40:	0320f809 	jalr	t9
    3a44:	27b40577 	addiu	s4,sp,1399
    3a48:	02603821 	move	a3,s3
    3a4c:	8fbc0010 	lw	gp,16(sp)
    3a50:	2646a480 	addiu	a2,s2,-23424
    3a54:	a260ffff 	sb	zero,-1(s3)
    3a58:	8f848024 	lw	a0,-32732(gp)
    3a5c:	8f858024 	lw	a1,-32732(gp)
    3a60:	8f998060 	lw	t9,-32672(gp)
    3a64:	248487a0 	addiu	a0,a0,-30816
    3a68:	0320f809 	jalr	t9
    3a6c:	24a58f64 	addiu	a1,a1,-28828
    3a70:	2644a480 	addiu	a0,s2,-23424
    3a74:	02202821 	move	a1,s1
    3a78:	8fbc0010 	lw	gp,16(sp)
    3a7c:	02003021 	move	a2,s0
    3a80:	2652a480 	addiu	s2,s2,-23424
    3a84:	8f878024 	lw	a3,-32732(gp)
[31m    3a88:	8f99807c 	lw	t9,sprintf[0m
    3a8c:	0320f809 	jalr	t9
    3a90:	24e78954 	addiu	a3,a3,-30380
    3a94:	8fbc0010 	lw	gp,16(sp)
    3a98:	8f99804c 	lw	t9,strlen
    3a9c:	0320f809 	jalr	t9
    3aa0:	02002021 	move	a0,s0
    3aa4:	8fbc0010 	lw	gp,16(sp)
    3aa8:	24420001 	addiu	v0,v0,1
    3aac:	02429021 	addu	s2,s2,v0
    3ab0:	8f968024 	lw	s6,-32732(gp)
    3ab4:	26530018 	addiu	s3,s2,24
    3ab8:	26570034 	addiu	s7,s2,52
    3abc:	0260a821 	move	s5,s3
    3ac0:	10000007 	b	3ae0 <rtl8881_WDescript@@Base+0x11d0>
    3ac4:	26d68798 	addiu	s6,s6,-30824
    3ac8:	92860000 	lbu	a2,0(s4)
    3acc:	02c02821 	move	a1,s6
    3ad0:	26b50002 	addiu	s5,s5,2
    3ad4:	0320f809 	jalr	t9
    3ad8:	26940001 	addiu	s4,s4,1
    3adc:	8fbc0010 	lw	gp,16(sp)
[31m    3ae0:	8f99807c 	lw	t9,sprintf[0m
    3ae4:	16b7fff8 	bne	s5,s7,3ac8 <rtl8881_WDescript@@Base+0x11b8>
    3ae8:	02a02021 	move	a0,s5
    3aec:	8f998050 	lw	t9,-32688(gp)
    3af0:	02403021 	move	a2,s2
    3af4:	340589f1 	li	a1,0x89f1
    3af8:	02002021 	move	a0,s0
    3afc:	8f928018 	lw	s2,-32744(gp)
    3b00:	0320f809 	jalr	t9
    3b04:	27b40657 	addiu	s4,sp,1623
    3b08:	02603821 	move	a3,s3
    3b0c:	8fbc0010 	lw	gp,16(sp)
    3b10:	2646a480 	addiu	a2,s2,-23424
    3b14:	a260ffff 	sb	zero,-1(s3)
    3b18:	8f848024 	lw	a0,-32732(gp)
    3b1c:	8f858024 	lw	a1,-32732(gp)
    3b20:	8f998060 	lw	t9,-32672(gp)
    3b24:	248487a0 	addiu	a0,a0,-30816
    3b28:	0320f809 	jalr	t9
    3b2c:	24a58f64 	addiu	a1,a1,-28828
    3b30:	2644a480 	addiu	a0,s2,-23424
    3b34:	02202821 	move	a1,s1
    3b38:	8fbc0010 	lw	gp,16(sp)
    3b3c:	02003021 	move	a2,s0
    3b40:	2652a480 	addiu	s2,s2,-23424
    3b44:	8f878024 	lw	a3,-32732(gp)
[31m    3b48:	8f99807c 	lw	t9,sprintf[0m
    3b4c:	0320f809 	jalr	t9
    3b50:	24e7896c 	addiu	a3,a3,-30356
    3b54:	8fbc0010 	lw	gp,16(sp)
    3b58:	8f99804c 	lw	t9,strlen
    3b5c:	0320f809 	jalr	t9
    3b60:	02002021 	move	a0,s0
    3b64:	8fbc0010 	lw	gp,16(sp)
    3b68:	24420001 	addiu	v0,v0,1
    3b6c:	02429021 	addu	s2,s2,v0
    3b70:	8f968024 	lw	s6,-32732(gp)
    3b74:	26530018 	addiu	s3,s2,24
    3b78:	26570034 	addiu	s7,s2,52
    3b7c:	0260a821 	move	s5,s3
    3b80:	10000007 	b	3ba0 <rtl8881_WDescript@@Base+0x1290>
    3b84:	26d68798 	addiu	s6,s6,-30824
    3b88:	92860000 	lbu	a2,0(s4)
    3b8c:	02c02821 	move	a1,s6
    3b90:	26b50002 	addiu	s5,s5,2
    3b94:	0320f809 	jalr	t9
    3b98:	26940001 	addiu	s4,s4,1
    3b9c:	8fbc0010 	lw	gp,16(sp)
[31m    3ba0:	8f99807c 	lw	t9,sprintf[0m
    3ba4:	16b7fff8 	bne	s5,s7,3b88 <rtl8881_WDescript@@Base+0x1278>
    3ba8:	02a02021 	move	a0,s5
    3bac:	8f998050 	lw	t9,-32688(gp)
    3bb0:	02403021 	move	a2,s2
    3bb4:	340589f1 	li	a1,0x89f1
    3bb8:	8f958024 	lw	s5,-32732(gp)
    3bbc:	8f968024 	lw	s6,-32732(gp)
    3bc0:	8f928018 	lw	s2,-32744(gp)
    3bc4:	0320f809 	jalr	t9
    3bc8:	02002021 	move	a0,s0
    3bcc:	02603821 	move	a3,s3
    3bd0:	26a58f64 	addiu	a1,s5,-28828
    3bd4:	8fbc0010 	lw	gp,16(sp)
    3bd8:	2646a480 	addiu	a2,s2,-23424
    3bdc:	26c487a0 	addiu	a0,s6,-30816
    3be0:	8f998060 	lw	t9,-32672(gp)
    3be4:	0320f809 	jalr	t9
    3be8:	a260ffff 	sb	zero,-1(s3)
    3bec:	02202821 	move	a1,s1
    3bf0:	2644a480 	addiu	a0,s2,-23424
    3bf4:	8fbc0010 	lw	gp,16(sp)
    3bf8:	02003021 	move	a2,s0
    3bfc:	00809021 	move	s2,a0
    3c00:	8f878024 	lw	a3,-32732(gp)
[31m    3c04:	8f99807c 	lw	t9,sprintf[0m
    3c08:	0320f809 	jalr	t9
    3c0c:	24e78984 	addiu	a3,a3,-30332
    3c10:	8fbc0010 	lw	gp,16(sp)
    3c14:	8f99804c 	lw	t9,strlen
    3c18:	0320f809 	jalr	t9
    3c1c:	02002021 	move	a0,s0
    3c20:	8fbc0010 	lw	gp,16(sp)
    3c24:	24420001 	addiu	v0,v0,1
    3c28:	0242b821 	addu	s7,s2,v0
    3c2c:	8f938024 	lw	s3,-32732(gp)
    3c30:	26f40006 	addiu	s4,s7,6
[31m    3c34:	8f99807c 	lw	t9,sprintf[0m
    3c38:	02802021 	move	a0,s4
    3c3c:	26738c48 	addiu	s3,s3,-29624
    3c40:	93a6017f 	lbu	a2,383(sp)
    3c44:	0320f809 	jalr	t9
    3c48:	02602821 	move	a1,s3
    3c4c:	02e03021 	move	a2,s7
    3c50:	340589f1 	li	a1,0x89f1
    3c54:	8fbc0010 	lw	gp,16(sp)
    3c58:	8f998050 	lw	t9,-32688(gp)
    3c5c:	0320f809 	jalr	t9
    3c60:	02002021 	move	a0,s0
    3c64:	02803821 	move	a3,s4
    3c68:	26a58f64 	addiu	a1,s5,-28828
    3c6c:	8fbc0010 	lw	gp,16(sp)
    3c70:	02403021 	move	a2,s2
    3c74:	26c487a0 	addiu	a0,s6,-30816
    3c78:	8f998060 	lw	t9,-32672(gp)
    3c7c:	0320f809 	jalr	t9
    3c80:	a280ffff 	sb	zero,-1(s4)
    3c84:	02202821 	move	a1,s1
    3c88:	8fbc0010 	lw	gp,16(sp)
    3c8c:	02003021 	move	a2,s0
    3c90:	02402021 	move	a0,s2
    3c94:	8f878024 	lw	a3,-32732(gp)
[31m    3c98:	8f99807c 	lw	t9,sprintf[0m
    3c9c:	0320f809 	jalr	t9
    3ca0:	24e7898c 	addiu	a3,a3,-30324
    3ca4:	8fbc0010 	lw	gp,16(sp)
    3ca8:	8f99804c 	lw	t9,strlen
    3cac:	0320f809 	jalr	t9
    3cb0:	02002021 	move	a0,s0
    3cb4:	02602821 	move	a1,s3
    3cb8:	8fbc0010 	lw	gp,16(sp)
    3cbc:	24420001 	addiu	v0,v0,1
    3cc0:	0242b821 	addu	s7,s2,v0
[31m    3cc4:	8f99807c 	lw	t9,sprintf[0m
    3cc8:	26f40006 	addiu	s4,s7,6
    3ccc:	93a60180 	lbu	a2,384(sp)
    3cd0:	0320f809 	jalr	t9
    3cd4:	02802021 	move	a0,s4
    3cd8:	02e03021 	move	a2,s7
    3cdc:	340589f1 	li	a1,0x89f1
    3ce0:	8fbc0010 	lw	gp,16(sp)
    3ce4:	8f998050 	lw	t9,-32688(gp)
    3ce8:	0320f809 	jalr	t9
    3cec:	02002021 	move	a0,s0
    3cf0:	26a58f64 	addiu	a1,s5,-28828
    3cf4:	02403021 	move	a2,s2
    3cf8:	8fbc0010 	lw	gp,16(sp)
    3cfc:	26c487a0 	addiu	a0,s6,-30816
    3d00:	02803821 	move	a3,s4
    3d04:	8f998060 	lw	t9,-32672(gp)
    3d08:	0320f809 	jalr	t9
    3d0c:	a280ffff 	sb	zero,-1(s4)
    3d10:	02202821 	move	a1,s1
    3d14:	8fbc0010 	lw	gp,16(sp)
    3d18:	02003021 	move	a2,s0
    3d1c:	02402021 	move	a0,s2
    3d20:	8f878024 	lw	a3,-32732(gp)
[31m    3d24:	8f99807c 	lw	t9,sprintf[0m
    3d28:	0320f809 	jalr	t9
    3d2c:	24e78994 	addiu	a3,a3,-30316
    3d30:	8fbc0010 	lw	gp,16(sp)
    3d34:	8f99804c 	lw	t9,strlen
    3d38:	0320f809 	jalr	t9
    3d3c:	02002021 	move	a0,s0
    3d40:	02002021 	move	a0,s0
    3d44:	8fbc0010 	lw	gp,16(sp)
    3d48:	24420001 	addiu	v0,v0,1
    3d4c:	02429021 	addu	s2,s2,v0
    3d50:	8f9980a4 	lw	t9,-32604(gp)
    3d54:	0320f809 	jalr	t9
    3d58:	26550005 	addiu	s5,s2,5
    3d5c:	8fbc0010 	lw	gp,16(sp)
    3d60:	10400004 	beqz	v0,3d74 <rtl8881_WDescript@@Base+0x1464>
    3d64:	00000000 	nop
    3d68:	93a60187 	lbu	a2,391(sp)
    3d6c:	10000002 	b	3d78 <rtl8881_WDescript@@Base+0x1468>
    3d70:	00000000 	nop
    3d74:	93a60181 	lbu	a2,385(sp)
[31m    3d78:	8f99807c 	lw	t9,sprintf[0m
    3d7c:	02a02021 	move	a0,s5
    3d80:	8f948018 	lw	s4,-32744(gp)
    3d84:	0320f809 	jalr	t9
    3d88:	02602821 	move	a1,s3
    3d8c:	02403021 	move	a2,s2
    3d90:	340589f1 	li	a1,0x89f1
    3d94:	8fbc0010 	lw	gp,16(sp)
    3d98:	8f998050 	lw	t9,-32688(gp)
    3d9c:	0320f809 	jalr	t9
    3da0:	02002021 	move	a0,s0
    3da4:	2686a480 	addiu	a2,s4,-23424
    3da8:	02a03821 	move	a3,s5
    3dac:	8fbc0010 	lw	gp,16(sp)
    3db0:	a2a0ffff 	sb	zero,-1(s5)
    3db4:	8f848024 	lw	a0,-32732(gp)
    3db8:	8f858024 	lw	a1,-32732(gp)
    3dbc:	8f998060 	lw	t9,-32672(gp)
    3dc0:	248487a0 	addiu	a0,a0,-30816
    3dc4:	0320f809 	jalr	t9
    3dc8:	24a58f64 	addiu	a1,a1,-28828
    3dcc:	02202821 	move	a1,s1
    3dd0:	2684a480 	addiu	a0,s4,-23424
    3dd4:	8fbc0010 	lw	gp,16(sp)
    3dd8:	02003021 	move	a2,s0
    3ddc:	2694a480 	addiu	s4,s4,-23424
    3de0:	8f878024 	lw	a3,-32732(gp)
[31m    3de4:	8f99807c 	lw	t9,sprintf[0m
    3de8:	0320f809 	jalr	t9
    3dec:	24e7899c 	addiu	a3,a3,-30308
    3df0:	8fbc0010 	lw	gp,16(sp)
    3df4:	8f99804c 	lw	t9,strlen
    3df8:	0320f809 	jalr	t9
    3dfc:	02002021 	move	a0,s0
    3e00:	02002021 	move	a0,s0
    3e04:	8fbc0010 	lw	gp,16(sp)
    3e08:	24420001 	addiu	v0,v0,1
    3e0c:	02829021 	addu	s2,s4,v0
    3e10:	8f9980a4 	lw	t9,-32604(gp)
    3e14:	0320f809 	jalr	t9
    3e18:	26560005 	addiu	s6,s2,5
    3e1c:	8fbc0010 	lw	gp,16(sp)
    3e20:	10400004 	beqz	v0,3e34 <rtl8881_WDescript@@Base+0x1524>
    3e24:	00000000 	nop
    3e28:	93a60188 	lbu	a2,392(sp)
    3e2c:	10000002 	b	3e38 <rtl8881_WDescript@@Base+0x1528>
    3e30:	00000000 	nop
    3e34:	93a6017e 	lbu	a2,382(sp)
[31m    3e38:	8f99807c 	lw	t9,sprintf[0m
    3e3c:	02c02021 	move	a0,s6
    3e40:	8f958024 	lw	s5,-32732(gp)
    3e44:	8f948024 	lw	s4,-32732(gp)
    3e48:	0320f809 	jalr	t9
    3e4c:	02602821 	move	a1,s3
    3e50:	02403021 	move	a2,s2
    3e54:	340589f1 	li	a1,0x89f1
    3e58:	8fbc0010 	lw	gp,16(sp)
    3e5c:	8f998050 	lw	t9,-32688(gp)
    3e60:	8f928018 	lw	s2,-32744(gp)
    3e64:	0320f809 	jalr	t9
    3e68:	02002021 	move	a0,s0
    3e6c:	02c03821 	move	a3,s6
    3e70:	26a487a0 	addiu	a0,s5,-30816
    3e74:	8fbc0010 	lw	gp,16(sp)
    3e78:	2646a480 	addiu	a2,s2,-23424
    3e7c:	26858f64 	addiu	a1,s4,-28828
    3e80:	8f998060 	lw	t9,-32672(gp)
    3e84:	0320f809 	jalr	t9
    3e88:	a2c0ffff 	sb	zero,-1(s6)
    3e8c:	02202821 	move	a1,s1
    3e90:	2644a480 	addiu	a0,s2,-23424
    3e94:	8fbc0010 	lw	gp,16(sp)
    3e98:	02003021 	move	a2,s0
    3e9c:	00809021 	move	s2,a0
    3ea0:	8f878024 	lw	a3,-32732(gp)
[31m    3ea4:	8f99807c 	lw	t9,sprintf[0m
    3ea8:	0320f809 	jalr	t9
    3eac:	24e789a4 	addiu	a3,a3,-30300
    3eb0:	8fbc0010 	lw	gp,16(sp)
    3eb4:	8f99804c 	lw	t9,strlen
    3eb8:	0320f809 	jalr	t9
    3ebc:	02002021 	move	a0,s0
    3ec0:	02602821 	move	a1,s3
    3ec4:	8fbc0010 	lw	gp,16(sp)
    3ec8:	24420001 	addiu	v0,v0,1
    3ecc:	0242b821 	addu	s7,s2,v0
    3ed0:	26f60009 	addiu	s6,s7,9
[31m    3ed4:	8f99807c 	lw	t9,sprintf[0m
    3ed8:	93a60182 	lbu	a2,386(sp)
    3edc:	0320f809 	jalr	t9
    3ee0:	02c02021 	move	a0,s6
    3ee4:	02e03021 	move	a2,s7
    3ee8:	340589f1 	li	a1,0x89f1
    3eec:	8fbc0010 	lw	gp,16(sp)
    3ef0:	8f998050 	lw	t9,-32688(gp)
    3ef4:	0320f809 	jalr	t9
    3ef8:	02002021 	move	a0,s0
    3efc:	02c03821 	move	a3,s6
    3f00:	26a487a0 	addiu	a0,s5,-30816
    3f04:	8fbc0010 	lw	gp,16(sp)
    3f08:	26858f64 	addiu	a1,s4,-28828
    3f0c:	02403021 	move	a2,s2
    3f10:	8f998060 	lw	t9,-32672(gp)
    3f14:	0320f809 	jalr	t9
    3f18:	a2c0ffff 	sb	zero,-1(s6)
    3f1c:	02202821 	move	a1,s1
    3f20:	8fbc0010 	lw	gp,16(sp)
    3f24:	02003021 	move	a2,s0
    3f28:	02402021 	move	a0,s2
    3f2c:	8f878024 	lw	a3,-32732(gp)
[31m    3f30:	8f99807c 	lw	t9,sprintf[0m
    3f34:	0320f809 	jalr	t9
    3f38:	24e789b0 	addiu	a3,a3,-30288
    3f3c:	8fbc0010 	lw	gp,16(sp)
    3f40:	8f99804c 	lw	t9,strlen
    3f44:	0320f809 	jalr	t9
    3f48:	02002021 	move	a0,s0
    3f4c:	02602821 	move	a1,s3
    3f50:	8fbc0010 	lw	gp,16(sp)
    3f54:	24420001 	addiu	v0,v0,1
    3f58:	0242b821 	addu	s7,s2,v0
    3f5c:	26f6000d 	addiu	s6,s7,13
[31m    3f60:	8f99807c 	lw	t9,sprintf[0m
    3f64:	93a60183 	lbu	a2,387(sp)
    3f68:	0320f809 	jalr	t9
    3f6c:	02c02021 	move	a0,s6
    3f70:	02e03021 	move	a2,s7
    3f74:	340589f1 	li	a1,0x89f1
    3f78:	8fbc0010 	lw	gp,16(sp)
    3f7c:	8f998050 	lw	t9,-32688(gp)
    3f80:	0320f809 	jalr	t9
    3f84:	02002021 	move	a0,s0
    3f88:	02c03821 	move	a3,s6
    3f8c:	26a487a0 	addiu	a0,s5,-30816
    3f90:	8fbc0010 	lw	gp,16(sp)
    3f94:	26858f64 	addiu	a1,s4,-28828
    3f98:	02403021 	move	a2,s2
    3f9c:	8f998060 	lw	t9,-32672(gp)
    3fa0:	0320f809 	jalr	t9
    3fa4:	a2c0ffff 	sb	zero,-1(s6)
    3fa8:	02202821 	move	a1,s1
    3fac:	8fbc0010 	lw	gp,16(sp)
    3fb0:	02003021 	move	a2,s0
    3fb4:	02402021 	move	a0,s2
    3fb8:	8f878024 	lw	a3,-32732(gp)
[31m    3fbc:	8f99807c 	lw	t9,sprintf[0m
    3fc0:	0320f809 	jalr	t9
    3fc4:	24e789c0 	addiu	a3,a3,-30272
    3fc8:	8fbc0010 	lw	gp,16(sp)
    3fcc:	8f99804c 	lw	t9,strlen
    3fd0:	0320f809 	jalr	t9
    3fd4:	02002021 	move	a0,s0
    3fd8:	02602821 	move	a1,s3
    3fdc:	8fbc0010 	lw	gp,16(sp)
    3fe0:	24420001 	addiu	v0,v0,1
    3fe4:	0242b821 	addu	s7,s2,v0
    3fe8:	26f6000d 	addiu	s6,s7,13
[31m    3fec:	8f99807c 	lw	t9,sprintf[0m
    3ff0:	93a60184 	lbu	a2,388(sp)
    3ff4:	0320f809 	jalr	t9
    3ff8:	02c02021 	move	a0,s6
    3ffc:	02e03021 	move	a2,s7
    4000:	340589f1 	li	a1,0x89f1
    4004:	8fbc0010 	lw	gp,16(sp)
    4008:	8f998050 	lw	t9,-32688(gp)
    400c:	0320f809 	jalr	t9
    4010:	02002021 	move	a0,s0
    4014:	02c03821 	move	a3,s6
    4018:	26a487a0 	addiu	a0,s5,-30816
    401c:	8fbc0010 	lw	gp,16(sp)
    4020:	26858f64 	addiu	a1,s4,-28828
    4024:	02403021 	move	a2,s2
    4028:	8f998060 	lw	t9,-32672(gp)
    402c:	0320f809 	jalr	t9
    4030:	a2c0ffff 	sb	zero,-1(s6)
    4034:	02202821 	move	a1,s1
    4038:	8fbc0010 	lw	gp,16(sp)
    403c:	02003021 	move	a2,s0
    4040:	02402021 	move	a0,s2
    4044:	8f878024 	lw	a3,-32732(gp)
[31m    4048:	8f99807c 	lw	t9,sprintf[0m
    404c:	0320f809 	jalr	t9
    4050:	24e789d0 	addiu	a3,a3,-30256
    4054:	8fbc0010 	lw	gp,16(sp)
    4058:	8f99804c 	lw	t9,strlen
    405c:	0320f809 	jalr	t9
    4060:	02002021 	move	a0,s0
    4064:	02602821 	move	a1,s3
    4068:	8fbc0010 	lw	gp,16(sp)
    406c:	24420001 	addiu	v0,v0,1
    4070:	0242b821 	addu	s7,s2,v0
[31m    4074:	8f99807c 	lw	t9,sprintf[0m
    4078:	26f6000b 	addiu	s6,s7,11
    407c:	93a60185 	lbu	a2,389(sp)
    4080:	0320f809 	jalr	t9
    4084:	02c02021 	move	a0,s6
    4088:	02e03021 	move	a2,s7
    408c:	340589f1 	li	a1,0x89f1
    4090:	8fbc0010 	lw	gp,16(sp)
    4094:	8f998050 	lw	t9,-32688(gp)
    4098:	0320f809 	jalr	t9
    409c:	02002021 	move	a0,s0
    40a0:	02c03821 	move	a3,s6
    40a4:	26a487a0 	addiu	a0,s5,-30816
    40a8:	8fbc0010 	lw	gp,16(sp)
    40ac:	26858f64 	addiu	a1,s4,-28828
    40b0:	02403021 	move	a2,s2
    40b4:	8f998060 	lw	t9,-32672(gp)
    40b8:	0320f809 	jalr	t9
    40bc:	a2c0ffff 	sb	zero,-1(s6)
    40c0:	02202821 	move	a1,s1
    40c4:	8fbc0010 	lw	gp,16(sp)
    40c8:	02003021 	move	a2,s0
    40cc:	02402021 	move	a0,s2
    40d0:	8f878024 	lw	a3,-32732(gp)
[31m    40d4:	8f99807c 	lw	t9,sprintf[0m
    40d8:	0320f809 	jalr	t9
    40dc:	24e789dc 	addiu	a3,a3,-30244
    40e0:	8fbc0010 	lw	gp,16(sp)
    40e4:	8f99804c 	lw	t9,strlen
    40e8:	0320f809 	jalr	t9
    40ec:	02002021 	move	a0,s0
    40f0:	02602821 	move	a1,s3
    40f4:	8fbc0010 	lw	gp,16(sp)
    40f8:	24420001 	addiu	v0,v0,1
    40fc:	02429821 	addu	s3,s2,v0
[31m    4100:	8f99807c 	lw	t9,sprintf[0m
    4104:	26710008 	addiu	s1,s3,8
    4108:	93a60186 	lbu	a2,390(sp)
--
    4c6c:	28420041 	slti	v0,v0,65
    4c70:	8fbc0010 	lw	gp,16(sp)
    4c74:	10400029 	beqz	v0,4d1c <realtek_SetWpaPsk@@Base+0xec>
    4c78:	27b20018 	addiu	s2,sp,24
    4c7c:	8f908018 	lw	s0,-32744(gp)
    4c80:	8f858024 	lw	a1,-32732(gp)
    4c84:	8f998148 	lw	t9,-32440(gp)
    4c88:	2604a680 	addiu	a0,s0,-22912
    4c8c:	0320f809 	jalr	t9
    4c90:	24a58b7c 	addiu	a1,a1,-29828
    4c94:	2604a680 	addiu	a0,s0,-22912
    4c98:	8fbc0010 	lw	gp,16(sp)
    4c9c:	8f9980d0 	lw	t9,-32560(gp)
    4ca0:	0320f809 	jalr	t9
    4ca4:	02202821 	move	a1,s1
    4ca8:	02602021 	move	a0,s3
    4cac:	340589f1 	li	a1,0x89f1
    4cb0:	8fbc0010 	lw	gp,16(sp)
    4cb4:	8f998050 	lw	t9,-32688(gp)
    4cb8:	0320f809 	jalr	t9
    4cbc:	2606a680 	addiu	a2,s0,-22912
    4cc0:	02203021 	move	a2,s1
    4cc4:	2604a680 	addiu	a0,s0,-22912
    4cc8:	8fbc0010 	lw	gp,16(sp)
    4ccc:	8f858024 	lw	a1,-32732(gp)
[31m    4cd0:	8f99807c 	lw	t9,sprintf[0m
    4cd4:	0320f809 	jalr	t9
    4cd8:	24a58b88 	addiu	a1,a1,-29816
    4cdc:	02603021 	move	a2,s3
    4ce0:	8fbc0010 	lw	gp,16(sp)
    4ce4:	02402021 	move	a0,s2
    4ce8:	8f858024 	lw	a1,-32732(gp)
[31m    4cec:	8f99807c 	lw	t9,sprintf[0m
    4cf0:	0320f809 	jalr	t9
    4cf4:	24a58b90 	addiu	a1,a1,-29808
--
    4df4:	24030005 	li	v1,5
    4df8:	8e82a700 	lw	v0,-22784(s4)
    4dfc:	12030003 	beq	s0,v1,4e0c <realtek_SetWepKey@@Base+0xd4>
    4e00:	2403000a 	li	v1,10
    4e04:	16030021 	bne	s0,v1,4e8c <realtek_SetWepKey@@Base+0x154>
    4e08:	2403000d 	li	v1,13
    4e0c:	24030001 	li	v1,1
    4e10:	1043001e 	beq	v0,v1,4e8c <realtek_SetWepKey@@Base+0x154>
    4e14:	2403000d 	li	v1,13
    4e18:	8f948018 	lw	s4,-32744(gp)
    4e1c:	8f858024 	lw	a1,-32732(gp)
    4e20:	8f998148 	lw	t9,-32440(gp)
    4e24:	2684a700 	addiu	a0,s4,-22784
    4e28:	0320f809 	jalr	t9
    4e2c:	24a58ba8 	addiu	a1,a1,-29784
    4e30:	02202021 	move	a0,s1
    4e34:	340589f1 	li	a1,0x89f1
    4e38:	8fbc0010 	lw	gp,16(sp)
    4e3c:	8f998050 	lw	t9,-32688(gp)
    4e40:	0320f809 	jalr	t9
    4e44:	2686a700 	addiu	a2,s4,-22784
    4e48:	2684a700 	addiu	a0,s4,-22784
    4e4c:	02203021 	move	a2,s1
    4e50:	8fbc0010 	lw	gp,16(sp)
    4e54:	8f858024 	lw	a1,-32732(gp)
[31m    4e58:	8f99807c 	lw	t9,sprintf[0m
    4e5c:	0320f809 	jalr	t9
    4e60:	24a58bb4 	addiu	a1,a1,-29772
--
    4e84:	10000024 	b	4f18 <realtek_SetWepKey@@Base+0x1e0>
    4e88:	24e78bb0 	addiu	a3,a3,-29776
    4e8c:	12030003 	beq	s0,v1,4e9c <realtek_SetWepKey@@Base+0x164>
    4e90:	2403001a 	li	v1,26
    4e94:	16030023 	bne	s0,v1,4f24 <realtek_SetWepKey@@Base+0x1ec>
    4e98:	00000000 	nop
    4e9c:	24030005 	li	v1,5
    4ea0:	10430021 	beq	v0,v1,4f28 <realtek_SetWepKey@@Base+0x1f0>
    4ea4:	24020005 	li	v0,5
    4ea8:	8f948018 	lw	s4,-32744(gp)
    4eac:	8f858024 	lw	a1,-32732(gp)
    4eb0:	8f998148 	lw	t9,-32440(gp)
    4eb4:	2684a700 	addiu	a0,s4,-22784
    4eb8:	0320f809 	jalr	t9
    4ebc:	24a58bc0 	addiu	a1,a1,-29760
    4ec0:	02202021 	move	a0,s1
    4ec4:	340589f1 	li	a1,0x89f1
    4ec8:	8fbc0010 	lw	gp,16(sp)
    4ecc:	8f998050 	lw	t9,-32688(gp)
    4ed0:	0320f809 	jalr	t9
    4ed4:	2686a700 	addiu	a2,s4,-22784
    4ed8:	2684a700 	addiu	a0,s4,-22784
    4edc:	02203021 	move	a2,s1
    4ee0:	8fbc0010 	lw	gp,16(sp)
    4ee4:	8f858024 	lw	a1,-32732(gp)
[31m    4ee8:	8f99807c 	lw	t9,sprintf[0m
    4eec:	0320f809 	jalr	t9
    4ef0:	24a58bb4 	addiu	a1,a1,-29772
--
    4efc:	8f848024 	lw	a0,-32732(gp)
    4f00:	8f858024 	lw	a1,-32732(gp)
    4f04:	8f878024 	lw	a3,-32732(gp)
    4f08:	248487a0 	addiu	a0,a0,-30816
    4f0c:	8f998060 	lw	t9,-32672(gp)
    4f10:	24a58f64 	addiu	a1,a1,-28828
    4f14:	24e79220 	addiu	a3,a3,-28128
    4f18:	0320f809 	jalr	t9
    4f1c:	00000000 	nop
    4f20:	8fbc0010 	lw	gp,16(sp)
    4f24:	24020005 	li	v0,5
    4f28:	12020013 	beq	s0,v0,4f78 <realtek_SetWepKey@@Base+0x240>
    4f2c:	a3a00018 	sb	zero,24(sp)
    4f30:	2402000d 	li	v0,13
    4f34:	1602001a 	bne	s0,v0,4fa0 <realtek_SetWepKey@@Base+0x268>
    4f38:	02402821 	move	a1,s2
    4f3c:	1000000e 	b	4f78 <realtek_SetWepKey@@Base+0x240>
    4f40:	00000000 	nop
    4f44:	0320f809 	jalr	t9
    4f48:	00000000 	nop
    4f4c:	02541821 	addu	v1,s2,s4
    4f50:	02c02821 	move	a1,s6
    4f54:	8fbc0010 	lw	gp,16(sp)
    4f58:	02a22021 	addu	a0,s5,v0
    4f5c:	90660000 	lbu	a2,0(v1)
[31m    4f60:	8f99807c 	lw	t9,sprintf[0m
    4f64:	0320f809 	jalr	t9
    4f68:	26940001 	addiu	s4,s4,1
    4f6c:	8fbc0010 	lw	gp,16(sp)
    4f70:	10000006 	b	4f8c <realtek_SetWepKey@@Base+0x254>
    4f74:	0290102a 	slt	v0,s4,s0
    4f78:	8f968024 	lw	s6,-32732(gp)
    4f7c:	0000a021 	move	s4,zero
    4f80:	27b50018 	addiu	s5,sp,24
    4f84:	26d68798 	addiu	s6,s6,-30824
    4f88:	0290102a 	slt	v0,s4,s0
    4f8c:	8f99804c 	lw	t9,strlen
    4f90:	1440ffec 	bnez	v0,4f44 <realtek_SetWepKey@@Base+0x20c>
    4f94:	02a02021 	move	a0,s5
    4f98:	10000005 	b	4fb0 <realtek_SetWepKey@@Base+0x278>
    4f9c:	00000000 	nop
    4fa0:	8f9980d0 	lw	t9,-32560(gp)
    4fa4:	0320f809 	jalr	t9
    4fa8:	27a40018 	addiu	a0,sp,24
    4fac:	8fbc0010 	lw	gp,16(sp)
    4fb0:	8f908018 	lw	s0,-32744(gp)
    4fb4:	26730001 	addiu	s3,s3,1
    4fb8:	8f858024 	lw	a1,-32732(gp)
    4fbc:	27b20018 	addiu	s2,sp,24
    4fc0:	02603021 	move	a2,s3
[31m    4fc4:	8f99807c 	lw	t9,sprintf[0m
    4fc8:	02403821 	move	a3,s2
    4fcc:	2604a700 	addiu	a0,s0,-22784
    4fd0:	0320f809 	jalr	t9
    4fd4:	24a58bcc 	addiu	a1,a1,-29748
    4fd8:	02202021 	move	a0,s1
    4fdc:	340589f1 	li	a1,0x89f1
    4fe0:	8fbc0010 	lw	gp,16(sp)
    4fe4:	8f998050 	lw	t9,-32688(gp)
    4fe8:	0320f809 	jalr	t9
    4fec:	2606a700 	addiu	a2,s0,-22784
    4ff0:	02203021 	move	a2,s1
    4ff4:	2604a700 	addiu	a0,s0,-22784
    4ff8:	8fbc0010 	lw	gp,16(sp)
    4ffc:	02603821 	move	a3,s3
    5000:	8f858024 	lw	a1,-32732(gp)
[31m    5004:	8f99807c 	lw	t9,sprintf[0m
    5008:	0320f809 	jalr	t9
    500c:	24a58bd8 	addiu	a1,a1,-29736
--
    504c:	8fb1003c 	lw	s1,60(sp)
    5050:	8fb00038 	lw	s0,56(sp)
    5054:	03e00008 	jr	ra
    5058:	27bd0058 	addiu	sp,sp,88

0000505c <realtek_SetDefaultKeyID@@Base>:
    505c:	3c1c0002 	lui	gp,0x2
    5060:	279cd234 	addiu	gp,gp,-11724
    5064:	0399e021 	addu	gp,gp,t9
    5068:	27bdff90 	addiu	sp,sp,-112
    506c:	afbf006c 	sw	ra,108(sp)
    5070:	afb30068 	sw	s3,104(sp)
    5074:	afb20064 	sw	s2,100(sp)
    5078:	afb10060 	sw	s1,96(sp)
    507c:	afb0005c 	sw	s0,92(sp)
    5080:	afbc0010 	sw	gp,16(sp)
    5084:	24110003 	li	s1,3
    5088:	28a20004 	slti	v0,a1,4
    508c:	8f908018 	lw	s0,-32744(gp)
    5090:	27b20018 	addiu	s2,sp,24
    5094:	00a2880b 	0xa2880b
    5098:	00809821 	move	s3,a0
    509c:	8f858024 	lw	a1,-32732(gp)
    50a0:	2604a780 	addiu	a0,s0,-22656
    50a4:	02203021 	move	a2,s1
[31m    50a8:	8f99807c 	lw	t9,sprintf[0m
    50ac:	0320f809 	jalr	t9
    50b0:	24a58be4 	addiu	a1,a1,-29724
    50b4:	02602021 	move	a0,s3
    50b8:	2606a780 	addiu	a2,s0,-22656
    50bc:	8fbc0010 	lw	gp,16(sp)
    50c0:	8f998050 	lw	t9,-32688(gp)
    50c4:	0320f809 	jalr	t9
    50c8:	340589f1 	li	a1,0x89f1
    50cc:	02203021 	move	a2,s1
    50d0:	2604a780 	addiu	a0,s0,-22656
    50d4:	8fbc0010 	lw	gp,16(sp)
    50d8:	8f858024 	lw	a1,-32732(gp)
[31m    50dc:	8f99807c 	lw	t9,sprintf[0m
    50e0:	0320f809 	jalr	t9
    50e4:	24a58c48 	addiu	a1,a1,-29624
    50e8:	02603021 	move	a2,s3
    50ec:	8fbc0010 	lw	gp,16(sp)
    50f0:	02402021 	move	a0,s2
    50f4:	8f858024 	lw	a1,-32732(gp)
[31m    50f8:	8f99807c 	lw	t9,sprintf[0m
    50fc:	0320f809 	jalr	t9
    5100:	24a58bf4 	addiu	a1,a1,-29708
--
    5124:	24a58f64 	addiu	a1,a1,-28828
    5128:	8fbf006c 	lw	ra,108(sp)
    512c:	8fb30068 	lw	s3,104(sp)
    5130:	8fb20064 	lw	s2,100(sp)
    5134:	8fb10060 	lw	s1,96(sp)
    5138:	8fb0005c 	lw	s0,92(sp)
    513c:	03e00008 	jr	ra
    5140:	27bd0070 	addiu	sp,sp,112

00005144 <realtek_SetStaNum@@Base>:
    5144:	3c1c0002 	lui	gp,0x2
    5148:	279cd14c 	addiu	gp,gp,-11956
    514c:	0399e021 	addu	gp,gp,t9
    5150:	27bdff90 	addiu	sp,sp,-112
    5154:	afbf006c 	sw	ra,108(sp)
    5158:	afb30068 	sw	s3,104(sp)
    515c:	afb20064 	sw	s2,100(sp)
    5160:	afb10060 	sw	s1,96(sp)
    5164:	afb0005c 	sw	s0,92(sp)
    5168:	afbc0010 	sw	gp,16(sp)
    516c:	8f908018 	lw	s0,-32744(gp)
    5170:	00a09821 	move	s3,a1
    5174:	27b10018 	addiu	s1,sp,24
    5178:	00a03021 	move	a2,a1
    517c:	8f858024 	lw	a1,-32732(gp)
[31m    5180:	8f99807c 	lw	t9,sprintf[0m
    5184:	00809021 	move	s2,a0
    5188:	2604a7c0 	addiu	a0,s0,-22592
    518c:	0320f809 	jalr	t9
    5190:	24a58c04 	addiu	a1,a1,-29692
    5194:	02402021 	move	a0,s2
    5198:	2606a7c0 	addiu	a2,s0,-22592
    519c:	8fbc0010 	lw	gp,16(sp)
    51a0:	8f998050 	lw	t9,-32688(gp)
    51a4:	0320f809 	jalr	t9
    51a8:	340589f1 	li	a1,0x89f1
    51ac:	02603021 	move	a2,s3
    51b0:	2604a7c0 	addiu	a0,s0,-22592
    51b4:	8fbc0010 	lw	gp,16(sp)
    51b8:	8f858024 	lw	a1,-32732(gp)
[31m    51bc:	8f99807c 	lw	t9,sprintf[0m
    51c0:	0320f809 	jalr	t9
    51c4:	24a58c48 	addiu	a1,a1,-29624
    51c8:	02403021 	move	a2,s2
    51cc:	8fbc0010 	lw	gp,16(sp)
    51d0:	02202021 	move	a0,s1
    51d4:	8f858024 	lw	a1,-32732(gp)
[31m    51d8:	8f99807c 	lw	t9,sprintf[0m
    51dc:	0320f809 	jalr	t9
    51e0:	24a58c10 	addiu	a1,a1,-29680
--
    5414:	10000007 	b	5434 <realtek_SetEncryption@@Base+0x94>
    5418:	0000b821 	move	s7,zero
    541c:	10000004 	b	5430 <realtek_SetEncryption@@Base+0x90>
    5420:	24130002 	li	s3,2
    5424:	10000002 	b	5430 <realtek_SetEncryption@@Base+0x90>
    5428:	24130008 	li	s3,8
    542c:	2413000a 	li	s3,10
    5430:	24170002 	li	s7,2
    5434:	8f908018 	lw	s0,-32744(gp)
    5438:	8f858024 	lw	a1,-32732(gp)
    543c:	8f998148 	lw	t9,-32440(gp)
    5440:	2604a840 	addiu	a0,s0,-22464
    5444:	0320f809 	jalr	t9
    5448:	24a58c1c 	addiu	a1,a1,-29668
    544c:	02202021 	move	a0,s1
    5450:	340589f2 	li	a1,0x89f2
    5454:	8fbc0010 	lw	gp,16(sp)
    5458:	8f998050 	lw	t9,-32688(gp)
    545c:	0320f809 	jalr	t9
    5460:	2606a840 	addiu	a2,s0,-22464
    5464:	8fbc0010 	lw	gp,16(sp)
    5468:	04400075 	bltz	v0,5640 <realtek_SetEncryption@@Base+0x2a0>
    546c:	2604a840 	addiu	a0,s0,-22464
    5470:	8f858024 	lw	a1,-32732(gp)
    5474:	02e03021 	move	a2,s7
[31m    5478:	8f99807c 	lw	t9,sprintf[0m
    547c:	8e12a840 	lw	s2,-22464(s0)
    5480:	0320f809 	jalr	t9
    5484:	24a58c40 	addiu	a1,a1,-29632
    5488:	2606a840 	addiu	a2,s0,-22464
    548c:	02202021 	move	a0,s1
    5490:	8fbc0010 	lw	gp,16(sp)
    5494:	8f998050 	lw	t9,-32688(gp)
    5498:	0320f809 	jalr	t9
    549c:	340589f1 	li	a1,0x89f1
    54a0:	24020001 	li	v0,1
    54a4:	8fbc0010 	lw	gp,16(sp)
    54a8:	16420004 	bne	s2,v0,54bc <realtek_SetEncryption@@Base+0x11c>
    54ac:	24020002 	li	v0,2
    54b0:	0260a021 	move	s4,s3
    54b4:	10000007 	b	54d4 <realtek_SetEncryption@@Base+0x134>
    54b8:	00009821 	move	s3,zero
    54bc:	12420004 	beq	s2,v0,54d0 <realtek_SetEncryption@@Base+0x130>
    54c0:	24020003 	li	v0,3
    54c4:	12420003 	beq	s2,v0,54d4 <realtek_SetEncryption@@Base+0x134>
    54c8:	0260a021 	move	s4,s3
    54cc:	00009821 	move	s3,zero
    54d0:	0000a021 	move	s4,zero
    54d4:	8f908018 	lw	s0,-32744(gp)
    54d8:	02803021 	move	a2,s4
    54dc:	27b20018 	addiu	s2,sp,24
    54e0:	8f858024 	lw	a1,-32732(gp)
[31m    54e4:	8f99807c 	lw	t9,sprintf[0m
    54e8:	2604a840 	addiu	a0,s0,-22464
    54ec:	0320f809 	jalr	t9
    54f0:	24a58c4c 	addiu	a1,a1,-29620
    54f4:	02202021 	move	a0,s1
    54f8:	340589f1 	li	a1,0x89f1
    54fc:	8fbc0010 	lw	gp,16(sp)
    5500:	8f998050 	lw	t9,-32688(gp)
    5504:	8f968024 	lw	s6,-32732(gp)
    5508:	0320f809 	jalr	t9
    550c:	2606a840 	addiu	a2,s0,-22464
    5510:	2604a840 	addiu	a0,s0,-22464
    5514:	02603021 	move	a2,s3
    5518:	8fbc0010 	lw	gp,16(sp)
    551c:	8f858024 	lw	a1,-32732(gp)
[31m    5520:	8f99807c 	lw	t9,sprintf[0m
    5524:	0320f809 	jalr	t9
    5528:	24a58c5c 	addiu	a1,a1,-29604
    552c:	02202021 	move	a0,s1
    5530:	340589f1 	li	a1,0x89f1
    5534:	8fbc0010 	lw	gp,16(sp)
    5538:	8f998050 	lw	t9,-32688(gp)
    553c:	8f958024 	lw	s5,-32732(gp)
    5540:	0320f809 	jalr	t9
    5544:	2606a840 	addiu	a2,s0,-22464
    5548:	02e03021 	move	a2,s7
    554c:	2604a840 	addiu	a0,s0,-22464
    5550:	8fbc0010 	lw	gp,16(sp)
    5554:	8f978024 	lw	s7,-32732(gp)
[31m    5558:	8f99807c 	lw	t9,sprintf[0m
    555c:	26f78c48 	addiu	s7,s7,-29624
    5560:	0320f809 	jalr	t9
    5564:	02e02821 	move	a1,s7
    5568:	02402021 	move	a0,s2
    556c:	8fbc0010 	lw	gp,16(sp)
    5570:	02203021 	move	a2,s1
    5574:	8f858024 	lw	a1,-32732(gp)
[31m    5578:	8f99807c 	lw	t9,sprintf[0m
    557c:	0320f809 	jalr	t9
    5580:	24a58bb4 	addiu	a1,a1,-29772
    5584:	2607a840 	addiu	a3,s0,-22464
    5588:	02403021 	move	a2,s2
    558c:	8fbc0010 	lw	gp,16(sp)
    5590:	26c487a0 	addiu	a0,s6,-30816
    5594:	8f998060 	lw	t9,-32672(gp)
    5598:	0320f809 	jalr	t9
    559c:	26a58f64 	addiu	a1,s5,-28828
    55a0:	02803021 	move	a2,s4
    55a4:	2604a840 	addiu	a0,s0,-22464
    55a8:	8fbc0010 	lw	gp,16(sp)
[31m    55ac:	8f99807c 	lw	t9,sprintf[0m
    55b0:	0320f809 	jalr	t9
    55b4:	02e02821 	move	a1,s7
    55b8:	02402021 	move	a0,s2
    55bc:	8fbc0010 	lw	gp,16(sp)
    55c0:	02203021 	move	a2,s1
    55c4:	8f858024 	lw	a1,-32732(gp)
[31m    55c8:	8f99807c 	lw	t9,sprintf[0m
    55cc:	0320f809 	jalr	t9
    55d0:	24a58c6c 	addiu	a1,a1,-29588
    55d4:	2607a840 	addiu	a3,s0,-22464
    55d8:	02403021 	move	a2,s2
    55dc:	8fbc0010 	lw	gp,16(sp)
    55e0:	26c487a0 	addiu	a0,s6,-30816
    55e4:	8f998060 	lw	t9,-32672(gp)
    55e8:	0320f809 	jalr	t9
    55ec:	26a58f64 	addiu	a1,s5,-28828
    55f0:	02e02821 	move	a1,s7
    55f4:	2604a840 	addiu	a0,s0,-22464
    55f8:	8fbc0010 	lw	gp,16(sp)
[31m    55fc:	8f99807c 	lw	t9,sprintf[0m
    5600:	0320f809 	jalr	t9
    5604:	02603021 	move	a2,s3
    5608:	02203021 	move	a2,s1
    560c:	8fbc0010 	lw	gp,16(sp)
    5610:	02402021 	move	a0,s2
    5614:	8f858024 	lw	a1,-32732(gp)
[31m    5618:	8f99807c 	lw	t9,sprintf[0m
    561c:	0320f809 	jalr	t9
    5620:	24a58c7c 	addiu	a1,a1,-29572
--
    585c:	24170001 	li	s7,1
    5860:	00009021 	move	s2,zero
    5864:	10000011 	b	58ac <realtek_SetAuth@@Base+0xbc>
    5868:	0000b821 	move	s7,zero
    586c:	24120002 	li	s2,2
    5870:	24170002 	li	s7,2
    5874:	1000000e 	b	58b0 <realtek_SetAuth@@Base+0xc0>
    5878:	24110001 	li	s1,1
    587c:	24120002 	li	s2,2
    5880:	24170002 	li	s7,2
    5884:	1000000a 	b	58b0 <realtek_SetAuth@@Base+0xc0>
    5888:	24110002 	li	s1,2
    588c:	10000006 	b	58a8 <realtek_SetAuth@@Base+0xb8>
    5890:	00009021 	move	s2,zero
    5894:	24120002 	li	s2,2
    5898:	24170002 	li	s7,2
    589c:	10000004 	b	58b0 <realtek_SetAuth@@Base+0xc0>
    58a0:	24110003 	li	s1,3
    58a4:	24120002 	li	s2,2
    58a8:	24170002 	li	s7,2
    58ac:	00008821 	move	s1,zero
    58b0:	8f908018 	lw	s0,-32744(gp)
    58b4:	02e03021 	move	a2,s7
    58b8:	27b30018 	addiu	s3,sp,24
    58bc:	8f858024 	lw	a1,-32732(gp)
[31m    58c0:	8f99807c 	lw	t9,sprintf[0m
    58c4:	2604a8c0 	addiu	a0,s0,-22336
    58c8:	0320f809 	jalr	t9
    58cc:	24a58c98 	addiu	a1,a1,-29544
    58d0:	02802021 	move	a0,s4
    58d4:	340589f1 	li	a1,0x89f1
    58d8:	8fbc0010 	lw	gp,16(sp)
    58dc:	8f998050 	lw	t9,-32688(gp)
    58e0:	8f968024 	lw	s6,-32732(gp)
    58e4:	0320f809 	jalr	t9
    58e8:	2606a8c0 	addiu	a2,s0,-22336
    58ec:	2604a8c0 	addiu	a0,s0,-22336
    58f0:	02403021 	move	a2,s2
    58f4:	8fbc0010 	lw	gp,16(sp)
    58f8:	8f858024 	lw	a1,-32732(gp)
[31m    58fc:	8f99807c 	lw	t9,sprintf[0m
    5900:	0320f809 	jalr	t9
    5904:	24a58c40 	addiu	a1,a1,-29632
    5908:	02802021 	move	a0,s4
    590c:	340589f1 	li	a1,0x89f1
    5910:	8fbc0010 	lw	gp,16(sp)
    5914:	8f998050 	lw	t9,-32688(gp)
    5918:	8f958024 	lw	s5,-32732(gp)
    591c:	0320f809 	jalr	t9
    5920:	2606a8c0 	addiu	a2,s0,-22336
    5924:	2604a8c0 	addiu	a0,s0,-22336
    5928:	02203021 	move	a2,s1
    592c:	8fbc0010 	lw	gp,16(sp)
    5930:	8f858024 	lw	a1,-32732(gp)
[31m    5934:	8f99807c 	lw	t9,sprintf[0m
    5938:	0320f809 	jalr	t9
    593c:	24a58ca4 	addiu	a1,a1,-29532
    5940:	02802021 	move	a0,s4
    5944:	340589f1 	li	a1,0x89f1
    5948:	8fbc0010 	lw	gp,16(sp)
    594c:	8f998050 	lw	t9,-32688(gp)
    5950:	0320f809 	jalr	t9
    5954:	2606a8c0 	addiu	a2,s0,-22336
    5958:	02e03021 	move	a2,s7
    595c:	2604a8c0 	addiu	a0,s0,-22336
    5960:	8fbc0010 	lw	gp,16(sp)
    5964:	8f978024 	lw	s7,-32732(gp)
[31m    5968:	8f99807c 	lw	t9,sprintf[0m
    596c:	26f78c48 	addiu	s7,s7,-29624
    5970:	0320f809 	jalr	t9
    5974:	02e02821 	move	a1,s7
    5978:	02602021 	move	a0,s3
    597c:	8fbc0010 	lw	gp,16(sp)
    5980:	02803021 	move	a2,s4
    5984:	8f858024 	lw	a1,-32732(gp)
[31m    5988:	8f99807c 	lw	t9,sprintf[0m
    598c:	0320f809 	jalr	t9
    5990:	24a58cb4 	addiu	a1,a1,-29516
    5994:	2607a8c0 	addiu	a3,s0,-22336
    5998:	02603021 	move	a2,s3
    599c:	8fbc0010 	lw	gp,16(sp)
    59a0:	26c487a0 	addiu	a0,s6,-30816
    59a4:	8f998060 	lw	t9,-32672(gp)
    59a8:	0320f809 	jalr	t9
    59ac:	26a58f64 	addiu	a1,s5,-28828
    59b0:	02403021 	move	a2,s2
    59b4:	2604a8c0 	addiu	a0,s0,-22336
    59b8:	8fbc0010 	lw	gp,16(sp)
[31m    59bc:	8f99807c 	lw	t9,sprintf[0m
    59c0:	0320f809 	jalr	t9
    59c4:	02e02821 	move	a1,s7
    59c8:	02602021 	move	a0,s3
    59cc:	8fbc0010 	lw	gp,16(sp)
    59d0:	02803021 	move	a2,s4
    59d4:	8f858024 	lw	a1,-32732(gp)
[31m    59d8:	8f99807c 	lw	t9,sprintf[0m
    59dc:	0320f809 	jalr	t9
    59e0:	24a58bb4 	addiu	a1,a1,-29772
    59e4:	2607a8c0 	addiu	a3,s0,-22336
    59e8:	02603021 	move	a2,s3
    59ec:	8fbc0010 	lw	gp,16(sp)
    59f0:	26c487a0 	addiu	a0,s6,-30816
    59f4:	8f998060 	lw	t9,-32672(gp)
    59f8:	0320f809 	jalr	t9
    59fc:	26a58f64 	addiu	a1,s5,-28828
    5a00:	02e02821 	move	a1,s7
    5a04:	2604a8c0 	addiu	a0,s0,-22336
    5a08:	8fbc0010 	lw	gp,16(sp)
[31m    5a0c:	8f99807c 	lw	t9,sprintf[0m
    5a10:	0320f809 	jalr	t9
    5a14:	02203021 	move	a2,s1
    5a18:	02803021 	move	a2,s4
    5a1c:	8fbc0010 	lw	gp,16(sp)
    5a20:	02602021 	move	a0,s3
    5a24:	8f858024 	lw	a1,-32732(gp)
[31m    5a28:	8f99807c 	lw	t9,sprintf[0m
    5a2c:	0320f809 	jalr	t9
    5a30:	24a58cc0 	addiu	a1,a1,-29504
--
    5a50:	8fbf007c 	lw	ra,124(sp)
    5a54:	8fb70078 	lw	s7,120(sp)
    5a58:	8fb60074 	lw	s6,116(sp)
    5a5c:	8fb50070 	lw	s5,112(sp)
    5a60:	8fb4006c 	lw	s4,108(sp)
    5a64:	8fb30068 	lw	s3,104(sp)
    5a68:	8fb20064 	lw	s2,100(sp)
    5a6c:	8fb10060 	lw	s1,96(sp)
    5a70:	8fb0005c 	lw	s0,92(sp)
    5a74:	03e00008 	jr	ra
    5a78:	27bd0080 	addiu	sp,sp,128

00005a7c <realtek_SetAdaptivity@@Base>:
    5a7c:	3c1c0002 	lui	gp,0x2
    5a80:	279cc814 	addiu	gp,gp,-14316
    5a84:	0399e021 	addu	gp,gp,t9
    5a88:	27bdffd8 	addiu	sp,sp,-40
    5a8c:	afbf0024 	sw	ra,36(sp)
    5a90:	afb10020 	sw	s1,32(sp)
    5a94:	afb0001c 	sw	s0,28(sp)
    5a98:	afbc0010 	sw	gp,16(sp)
    5a9c:	8f908018 	lw	s0,-32744(gp)
    5aa0:	00a03021 	move	a2,a1
    5aa4:	8f858024 	lw	a1,-32732(gp)
    5aa8:	00808821 	move	s1,a0
[31m    5aac:	8f99807c 	lw	t9,sprintf[0m
    5ab0:	2604a900 	addiu	a0,s0,-22272
    5ab4:	0320f809 	jalr	t9
--
00005c54 <realtek_SetWirelessMode@@Base>:
    5c54:	3c1c0002 	lui	gp,0x2
    5c58:	279cc63c 	addiu	gp,gp,-14788
    5c5c:	0399e021 	addu	gp,gp,t9
    5c60:	27bdff80 	addiu	sp,sp,-128
    5c64:	afbf007c 	sw	ra,124(sp)
    5c68:	afb70078 	sw	s7,120(sp)
    5c6c:	afb60074 	sw	s6,116(sp)
    5c70:	afb50070 	sw	s5,112(sp)
    5c74:	afb4006c 	sw	s4,108(sp)
    5c78:	afb30068 	sw	s3,104(sp)
    5c7c:	afb20064 	sw	s2,100(sp)
    5c80:	afb10060 	sw	s1,96(sp)
    5c84:	afb0005c 	sw	s0,92(sp)
    5c88:	afbc0010 	sw	gp,16(sp)
    5c8c:	8f8280bc 	lw	v0,-32580(gp)
    5c90:	30a5000f 	andi	a1,a1,0xf
    5c94:	27b10018 	addiu	s1,sp,24
    5c98:	0005b080 	sll	s6,a1,0x2
    5c9c:	8f908018 	lw	s0,-32744(gp)
    5ca0:	00561021 	addu	v0,v0,s6
    5ca4:	00809021 	move	s2,a0
    5ca8:	8c530000 	lw	s3,0(v0)
    5cac:	2604a980 	addiu	a0,s0,-22144
    5cb0:	8f858024 	lw	a1,-32732(gp)
[31m    5cb4:	8f99807c 	lw	t9,sprintf[0m
    5cb8:	02603021 	move	a2,s3
    5cbc:	0320f809 	jalr	t9
    5cc0:	24a58d0c 	addiu	a1,a1,-29428
    5cc4:	02402021 	move	a0,s2
    5cc8:	2606a980 	addiu	a2,s0,-22144
    5ccc:	8fbc0010 	lw	gp,16(sp)
    5cd0:	8f998050 	lw	t9,-32688(gp)
    5cd4:	8f948024 	lw	s4,-32732(gp)
    5cd8:	0320f809 	jalr	t9
    5cdc:	340589f1 	li	a1,0x89f1
    5ce0:	02603021 	move	a2,s3
    5ce4:	2604a980 	addiu	a0,s0,-22144
    5ce8:	8fbc0010 	lw	gp,16(sp)
    5cec:	8f958024 	lw	s5,-32732(gp)
[31m    5cf0:	8f99807c 	lw	t9,sprintf[0m
    5cf4:	26b58c48 	addiu	s5,s5,-29624
    5cf8:	8f938024 	lw	s3,-32732(gp)
    5cfc:	0320f809 	jalr	t9
    5d00:	02a02821 	move	a1,s5
    5d04:	02202021 	move	a0,s1
    5d08:	8fbc0010 	lw	gp,16(sp)
    5d0c:	02403021 	move	a2,s2
    5d10:	8f858024 	lw	a1,-32732(gp)
[31m    5d14:	8f99807c 	lw	t9,sprintf[0m
    5d18:	0320f809 	jalr	t9
    5d1c:	24a58d20 	addiu	a1,a1,-29408
    5d20:	2607a980 	addiu	a3,s0,-22144
    5d24:	02203021 	move	a2,s1
    5d28:	8fbc0010 	lw	gp,16(sp)
    5d2c:	268487a0 	addiu	a0,s4,-30816
    5d30:	8f998060 	lw	t9,-32672(gp)
    5d34:	0320f809 	jalr	t9
    5d38:	26658f64 	addiu	a1,s3,-28828
    5d3c:	2604a980 	addiu	a0,s0,-22144
    5d40:	8fbc0010 	lw	gp,16(sp)
    5d44:	8f8280e0 	lw	v0,-32544(gp)
    5d48:	8f858024 	lw	a1,-32732(gp)
    5d4c:	00561021 	addu	v0,v0,s6
    5d50:	8c570000 	lw	s7,0(v0)
    5d54:	24a58d34 	addiu	a1,a1,-29388
[31m    5d58:	8f99807c 	lw	t9,sprintf[0m
    5d5c:	0320f809 	jalr	t9
    5d60:	02e03021 	move	a2,s7
    5d64:	02402021 	move	a0,s2
    5d68:	2606a980 	addiu	a2,s0,-22144
    5d6c:	8fbc0010 	lw	gp,16(sp)
    5d70:	8f998050 	lw	t9,-32688(gp)
    5d74:	0320f809 	jalr	t9
    5d78:	340589f1 	li	a1,0x89f1
    5d7c:	02e03021 	move	a2,s7
    5d80:	2604a980 	addiu	a0,s0,-22144
    5d84:	8fbc0010 	lw	gp,16(sp)
[31m    5d88:	8f99807c 	lw	t9,sprintf[0m
    5d8c:	0320f809 	jalr	t9
    5d90:	02a02821 	move	a1,s5
    5d94:	02202021 	move	a0,s1
    5d98:	8fbc0010 	lw	gp,16(sp)
    5d9c:	02403021 	move	a2,s2
    5da0:	8f858024 	lw	a1,-32732(gp)
[31m    5da4:	8f99807c 	lw	t9,sprintf[0m
    5da8:	0320f809 	jalr	t9
    5dac:	24a58d3c 	addiu	a1,a1,-29380
    5db0:	2607a980 	addiu	a3,s0,-22144
    5db4:	02203021 	move	a2,s1
    5db8:	8fbc0010 	lw	gp,16(sp)
    5dbc:	268487a0 	addiu	a0,s4,-30816
    5dc0:	8f998060 	lw	t9,-32672(gp)
    5dc4:	0320f809 	jalr	t9
    5dc8:	26658f64 	addiu	a1,s3,-28828
    5dcc:	2604a980 	addiu	a0,s0,-22144
    5dd0:	8fbc0010 	lw	gp,16(sp)
    5dd4:	8f82809c 	lw	v0,-32612(gp)
    5dd8:	8f858024 	lw	a1,-32732(gp)
    5ddc:	0056b021 	addu	s6,v0,s6
    5de0:	8ed60000 	lw	s6,0(s6)
    5de4:	24a58d44 	addiu	a1,a1,-29372
[31m    5de8:	8f99807c 	lw	t9,sprintf[0m
    5dec:	0320f809 	jalr	t9
    5df0:	02c03021 	move	a2,s6
    5df4:	02402021 	move	a0,s2
    5df8:	2606a980 	addiu	a2,s0,-22144
    5dfc:	8fbc0010 	lw	gp,16(sp)
    5e00:	8f998050 	lw	t9,-32688(gp)
    5e04:	0320f809 	jalr	t9
    5e08:	340589f1 	li	a1,0x89f1
    5e0c:	02a02821 	move	a1,s5
    5e10:	2604a980 	addiu	a0,s0,-22144
    5e14:	8fbc0010 	lw	gp,16(sp)
[31m    5e18:	8f99807c 	lw	t9,sprintf[0m
    5e1c:	0320f809 	jalr	t9
    5e20:	02c03021 	move	a2,s6
    5e24:	02403021 	move	a2,s2
    5e28:	8fbc0010 	lw	gp,16(sp)
    5e2c:	02202021 	move	a0,s1
    5e30:	8f858024 	lw	a1,-32732(gp)
[31m    5e34:	8f99807c 	lw	t9,sprintf[0m
    5e38:	0320f809 	jalr	t9
    5e3c:	24a58d54 	addiu	a1,a1,-29356
--
    5ee4:	28420000 	slti	v0,v0,0
    5ee8:	8fbf0024 	lw	ra,36(sp)
    5eec:	0082180a 	0x82180a
    5ef0:	8fb10020 	lw	s1,32(sp)
    5ef4:	00601021 	move	v0,v1
    5ef8:	8fb0001c 	lw	s0,28(sp)
    5efc:	03e00008 	jr	ra
    5f00:	27bd0028 	addiu	sp,sp,40

00005f04 <realtek_SetCountryRegion@@Base>:
    5f04:	3c1c0002 	lui	gp,0x2
    5f08:	279cc38c 	addiu	gp,gp,-15476
    5f0c:	0399e021 	addu	gp,gp,t9
    5f10:	27bdff90 	addiu	sp,sp,-112
    5f14:	afbf006c 	sw	ra,108(sp)
    5f18:	afb30068 	sw	s3,104(sp)
    5f1c:	afb20064 	sw	s2,100(sp)
    5f20:	afb10060 	sw	s1,96(sp)
    5f24:	afb0005c 	sw	s0,92(sp)
    5f28:	afbc0010 	sw	gp,16(sp)
    5f2c:	8f908018 	lw	s0,-32744(gp)
    5f30:	00a09821 	move	s3,a1
    5f34:	27b10018 	addiu	s1,sp,24
    5f38:	00a03021 	move	a2,a1
    5f3c:	8f858024 	lw	a1,-32732(gp)
[31m    5f40:	8f99807c 	lw	t9,sprintf[0m
    5f44:	00809021 	move	s2,a0
    5f48:	2604aa00 	addiu	a0,s0,-22016
    5f4c:	0320f809 	jalr	t9
    5f50:	24a58d70 	addiu	a1,a1,-29328
    5f54:	02402021 	move	a0,s2
    5f58:	2606aa00 	addiu	a2,s0,-22016
    5f5c:	8fbc0010 	lw	gp,16(sp)
    5f60:	8f998050 	lw	t9,-32688(gp)
    5f64:	0320f809 	jalr	t9
    5f68:	340589f1 	li	a1,0x89f1
    5f6c:	02603021 	move	a2,s3
    5f70:	2604aa00 	addiu	a0,s0,-22016
    5f74:	8fbc0010 	lw	gp,16(sp)
    5f78:	8f858024 	lw	a1,-32732(gp)
[31m    5f7c:	8f99807c 	lw	t9,sprintf[0m
    5f80:	0320f809 	jalr	t9
    5f84:	24a58c48 	addiu	a1,a1,-29624
    5f88:	02403021 	move	a2,s2
    5f8c:	8fbc0010 	lw	gp,16(sp)
    5f90:	02202021 	move	a0,s1
    5f94:	8f858024 	lw	a1,-32732(gp)
[31m    5f98:	8f99807c 	lw	t9,sprintf[0m
    5f9c:	0320f809 	jalr	t9
    5fa0:	24a58d80 	addiu	a1,a1,-29312
--

00006080 <realtek_SetInfraMode@@Base>:
    6080:	3c1c0002 	lui	gp,0x2
    6084:	279cc210 	addiu	gp,gp,-15856
    6088:	0399e021 	addu	gp,gp,t9
    608c:	27bdff90 	addiu	sp,sp,-112
    6090:	afbf006c 	sw	ra,108(sp)
    6094:	afb30068 	sw	s3,104(sp)
    6098:	afb20064 	sw	s2,100(sp)
    609c:	afb10060 	sw	s1,96(sp)
    60a0:	afb0005c 	sw	s0,92(sp)
    60a4:	afbc0010 	sw	gp,16(sp)
    60a8:	24020001 	li	v0,1
    60ac:	24110020 	li	s1,32
    60b0:	10a20006 	beq	a1,v0,60cc <realtek_SetInfraMode@@Base+0x4c>
    60b4:	00809821 	move	s3,a0
    60b8:	24020002 	li	v0,2
    60bc:	10a20003 	beq	a1,v0,60cc <realtek_SetInfraMode@@Base+0x4c>
    60c0:	24110010 	li	s1,16
    60c4:	14a00026 	bnez	a1,6160 <realtek_SetInfraMode@@Base+0xe0>
    60c8:	24110008 	li	s1,8
    60cc:	8f908018 	lw	s0,-32744(gp)
    60d0:	02203021 	move	a2,s1
    60d4:	27b20018 	addiu	s2,sp,24
    60d8:	8f858024 	lw	a1,-32732(gp)
[31m    60dc:	8f99807c 	lw	t9,sprintf[0m
    60e0:	2604aa80 	addiu	a0,s0,-21888
    60e4:	0320f809 	jalr	t9
    60e8:	24a58d98 	addiu	a1,a1,-29288
    60ec:	02602021 	move	a0,s3
    60f0:	340589f1 	li	a1,0x89f1
    60f4:	8fbc0010 	lw	gp,16(sp)
    60f8:	8f998050 	lw	t9,-32688(gp)
    60fc:	0320f809 	jalr	t9
    6100:	2606aa80 	addiu	a2,s0,-21888
    6104:	02203021 	move	a2,s1
    6108:	2604aa80 	addiu	a0,s0,-21888
    610c:	8fbc0010 	lw	gp,16(sp)
    6110:	8f858024 	lw	a1,-32732(gp)
[31m    6114:	8f99807c 	lw	t9,sprintf[0m
    6118:	0320f809 	jalr	t9
    611c:	24a58c48 	addiu	a1,a1,-29624
    6120:	02603021 	move	a2,s3
    6124:	8fbc0010 	lw	gp,16(sp)
    6128:	02402021 	move	a0,s2
    612c:	8f858024 	lw	a1,-32732(gp)
[31m    6130:	8f99807c 	lw	t9,sprintf[0m
    6134:	0320f809 	jalr	t9
    6138:	24a58da4 	addiu	a1,a1,-29276
--
    61d8:	28420000 	slti	v0,v0,0
    61dc:	8fbf0024 	lw	ra,36(sp)
    61e0:	0082180a 	0x82180a
    61e4:	8fb10020 	lw	s1,32(sp)
    61e8:	00601021 	move	v0,v1
    61ec:	8fb0001c 	lw	s0,28(sp)
    61f0:	03e00008 	jr	ra
    61f4:	27bd0028 	addiu	sp,sp,40

000061f8 <realtek_SetChannel@@Base>:
    61f8:	3c1c0002 	lui	gp,0x2
    61fc:	279cc098 	addiu	gp,gp,-16232
    6200:	0399e021 	addu	gp,gp,t9
    6204:	27bdff90 	addiu	sp,sp,-112
    6208:	afbf006c 	sw	ra,108(sp)
    620c:	afb30068 	sw	s3,104(sp)
    6210:	afb20064 	sw	s2,100(sp)
    6214:	afb10060 	sw	s1,96(sp)
    6218:	afb0005c 	sw	s0,92(sp)
    621c:	afbc0010 	sw	gp,16(sp)
    6220:	8f908018 	lw	s0,-32744(gp)
    6224:	00a09821 	move	s3,a1
    6228:	27b10018 	addiu	s1,sp,24
    622c:	00a03021 	move	a2,a1
    6230:	8f858024 	lw	a1,-32732(gp)
[31m    6234:	8f99807c 	lw	t9,sprintf[0m
    6238:	00809021 	move	s2,a0
    623c:	2604ab00 	addiu	a0,s0,-21760
    6240:	0320f809 	jalr	t9
    6244:	24a58db8 	addiu	a1,a1,-29256
    6248:	02402021 	move	a0,s2
    624c:	2606ab00 	addiu	a2,s0,-21760
    6250:	8fbc0010 	lw	gp,16(sp)
    6254:	8f998050 	lw	t9,-32688(gp)
    6258:	0320f809 	jalr	t9
    625c:	340589f1 	li	a1,0x89f1
    6260:	02603021 	move	a2,s3
    6264:	2604ab00 	addiu	a0,s0,-21760
    6268:	8fbc0010 	lw	gp,16(sp)
    626c:	8f858024 	lw	a1,-32732(gp)
[31m    6270:	8f99807c 	lw	t9,sprintf[0m
    6274:	0320f809 	jalr	t9
    6278:	24a58c48 	addiu	a1,a1,-29624
    627c:	02403021 	move	a2,s2
    6280:	8fbc0010 	lw	gp,16(sp)
    6284:	02202021 	move	a0,s1
    6288:	8f858024 	lw	a1,-32732(gp)
[31m    628c:	8f99807c 	lw	t9,sprintf[0m
    6290:	0320f809 	jalr	t9
    6294:	24a58dc4 	addiu	a1,a1,-29244
--
    62e8:	afbf002c 	sw	ra,44(sp)
    62ec:	afb30028 	sw	s3,40(sp)
    62f0:	afb20024 	sw	s2,36(sp)
    62f4:	afb10020 	sw	s1,32(sp)
    62f8:	afb0001c 	sw	s0,28(sp)
    62fc:	afbc0010 	sw	gp,16(sp)
    6300:	8f908018 	lw	s0,-32744(gp)
    6304:	00808821 	move	s1,a0
    6308:	8f858024 	lw	a1,-32732(gp)
    630c:	8f998148 	lw	t9,-32440(gp)
    6310:	2604ab40 	addiu	a0,s0,-21696
    6314:	0320f809 	jalr	t9
    6318:	24a58dd0 	addiu	a1,a1,-29232
    631c:	02202021 	move	a0,s1
    6320:	340589f2 	li	a1,0x89f2
    6324:	8fbc0010 	lw	gp,16(sp)
    6328:	2606ab40 	addiu	a2,s0,-21696
    632c:	8f998050 	lw	t9,-32688(gp)
    6330:	0320f809 	jalr	t9
    6334:	00008821 	move	s1,zero
    6338:	8fbc0010 	lw	gp,16(sp)
    633c:	0440001d 	bltz	v0,63b4 <realtek_GetMAC@@Base+0xdc>
    6340:	02201021 	move	v0,s1
    6344:	8f918018 	lw	s1,-32744(gp)
    6348:	8f858024 	lw	a1,-32732(gp)
[31m    634c:	8f99807c 	lw	t9,sprintf[0m
    6350:	2624ab60 	addiu	a0,s1,-21664
    6354:	9206ab40 	lbu	a2,-21696(s0)
    6358:	24a58798 	addiu	a1,a1,-30824
    635c:	0320f809 	jalr	t9
    6360:	00808821 	move	s1,a0
    6364:	8fbc0010 	lw	gp,16(sp)
    6368:	8f908018 	lw	s0,-32744(gp)
    636c:	8f938018 	lw	s3,-32744(gp)
    6370:	8f928024 	lw	s2,-32732(gp)
    6374:	2610ab41 	addiu	s0,s0,-21695
    6378:	2673ab46 	addiu	s3,s3,-21690
    637c:	26528dd8 	addiu	s2,s2,-29224
    6380:	8f99804c 	lw	t9,strlen
    6384:	0320f809 	jalr	t9
    6388:	02202021 	move	a0,s1
    638c:	02402821 	move	a1,s2
    6390:	8fbc0010 	lw	gp,16(sp)
    6394:	02222021 	addu	a0,s1,v0
    6398:	92060000 	lbu	a2,0(s0)
[31m    639c:	8f99807c 	lw	t9,sprintf[0m
    63a0:	0320f809 	jalr	t9
    63a4:	26100001 	addiu	s0,s0,1
--
    6460:	00408821 	move	s1,v0
    6464:	00002821 	move	a1,zero
    6468:	24060010 	li	a2,16
    646c:	00118a00 	sll	s1,s1,0x8
    6470:	8f9980ec 	lw	t9,-32532(gp)
    6474:	0320f809 	jalr	t9
    6478:	02518825 	or	s1,s2,s1
    647c:	3c080098 	lui	t0,0x98
    6480:	02002021 	move	a0,s0
    6484:	35089680 	ori	t0,t0,0x9680
    6488:	3c06000f 	lui	a2,0xf
    648c:	2403000a 	li	v1,10
    6490:	02228825 	or	s1,s1,v0
    6494:	3c0c0001 	lui	t4,0x1
    6498:	240703e8 	li	a3,1000
    649c:	0228001b 	divu	zero,s1,t0
    64a0:	15000002 	bnez	t0,64ac <realtek_WSCGenPin@@Base+0xdc>
    64a4:	00000000 	nop
    64a8:	0007000d 	break	0x7
    64ac:	34c64240 	ori	a2,a2,0x4240
    64b0:	240a2710 	li	t2,10000
    64b4:	358c86a0 	ori	t4,t4,0x86a0
    64b8:	240d0064 	li	t5,100
    64bc:	8fbc0018 	lw	gp,24(sp)
    64c0:	8f858024 	lw	a1,-32732(gp)
[31m    64c4:	8f99807c 	lw	t9,sprintf[0m
    64c8:	24a58de8 	addiu	a1,a1,-29208
    64cc:	00004810 	mfhi	t1
--
    6738:	8fbf0024 	lw	ra,36(sp)
    673c:	0002800b 	0x2800b
    6740:	02001021 	move	v0,s0
    6744:	8fb10020 	lw	s1,32(sp)
    6748:	8fb0001c 	lw	s0,28(sp)
    674c:	03e00008 	jr	ra
    6750:	27bd0028 	addiu	sp,sp,40

00006754 <realtek_SetESSID@@Base>:
    6754:	3c1c0002 	lui	gp,0x2
    6758:	279cbb3c 	addiu	gp,gp,-17604
    675c:	0399e021 	addu	gp,gp,t9
    6760:	27bdff90 	addiu	sp,sp,-112
    6764:	afbf006c 	sw	ra,108(sp)
    6768:	afb40068 	sw	s4,104(sp)
    676c:	afb30064 	sw	s3,100(sp)
    6770:	afb20060 	sw	s2,96(sp)
    6774:	afb1005c 	sw	s1,92(sp)
    6778:	afb00058 	sw	s0,88(sp)
    677c:	afbc0010 	sw	gp,16(sp)
    6780:	8f908018 	lw	s0,-32744(gp)
    6784:	00a09821 	move	s3,a1
    6788:	27b10018 	addiu	s1,sp,24
    678c:	00a03021 	move	a2,a1
    6790:	8f858024 	lw	a1,-32732(gp)
[31m    6794:	8f99807c 	lw	t9,sprintf[0m
    6798:	00809021 	move	s2,a0
    679c:	2604abc0 	addiu	a0,s0,-21568
    67a0:	0320f809 	jalr	t9
    67a4:	24a58df8 	addiu	a1,a1,-29192
    67a8:	02402021 	move	a0,s2
    67ac:	2606abc0 	addiu	a2,s0,-21568
    67b0:	8fbc0010 	lw	gp,16(sp)
    67b4:	8f998050 	lw	t9,-32688(gp)
    67b8:	8f948024 	lw	s4,-32732(gp)
    67bc:	0320f809 	jalr	t9
    67c0:	340589f1 	li	a1,0x89f1
    67c4:	02603021 	move	a2,s3
    67c8:	2604abc0 	addiu	a0,s0,-21568
    67cc:	8fbc0010 	lw	gp,16(sp)
    67d0:	8f858024 	lw	a1,-32732(gp)
[31m    67d4:	8f99807c 	lw	t9,sprintf[0m
    67d8:	0320f809 	jalr	t9
    67dc:	24a58b88 	addiu	a1,a1,-29816
    67e0:	02202021 	move	a0,s1
    67e4:	8fbc0010 	lw	gp,16(sp)
    67e8:	02403021 	move	a2,s2
    67ec:	8f858024 	lw	a1,-32732(gp)
[31m    67f0:	8f99807c 	lw	t9,sprintf[0m
    67f4:	8f938024 	lw	s3,-32732(gp)
    67f8:	0320f809 	jalr	t9
    67fc:	24a58e00 	addiu	a1,a1,-29184
    6800:	2607abc0 	addiu	a3,s0,-21568
    6804:	02203021 	move	a2,s1
    6808:	8fbc0010 	lw	gp,16(sp)
    680c:	268487a0 	addiu	a0,s4,-30816
    6810:	8f998060 	lw	t9,-32672(gp)
    6814:	0320f809 	jalr	t9
    6818:	26658f64 	addiu	a1,s3,-28828
    681c:	02403021 	move	a2,s2
    6820:	8fbc0010 	lw	gp,16(sp)
    6824:	02202021 	move	a0,s1
    6828:	8f858024 	lw	a1,-32732(gp)
[31m    682c:	8f99807c 	lw	t9,sprintf[0m
    6830:	0320f809 	jalr	t9
    6834:	24a58e08 	addiu	a1,a1,-29176
--
    6960:	afb600a0 	sw	s6,160(sp)
    6964:	afb5009c 	sw	s5,156(sp)
    6968:	afb40098 	sw	s4,152(sp)
    696c:	afb30094 	sw	s3,148(sp)
    6970:	afb20090 	sw	s2,144(sp)
    6974:	afb1008c 	sw	s1,140(sp)
    6978:	afb00088 	sw	s0,136(sp)
    697c:	afbc0010 	sw	gp,16(sp)
    6980:	24060018 	li	a2,24
    6984:	00a0f021 	move	s8,a1
    6988:	8f858024 	lw	a1,-32732(gp)
    698c:	27b70018 	addiu	s7,sp,24
    6990:	8f99810c 	lw	t9,-32500(gp)
    6994:	02e02021 	move	a0,s7
    6998:	0320f809 	jalr	t9
    699c:	24a5937c 	addiu	a1,a1,-27780
    69a0:	2fc20002 	sltiu	v0,s8,2
    69a4:	8fbc0010 	lw	gp,16(sp)
    69a8:	104000e7 	beqz	v0,6d48 <realtek_SetBand@@Base+0x404>
    69ac:	240b000c 	li	t3,12
    69b0:	27b10030 	addiu	s1,sp,48
    69b4:	03cb0018 	mult	s8,t3
    69b8:	8f888024 	lw	t0,-32732(gp)
    69bc:	8f908018 	lw	s0,-32744(gp)
    69c0:	25088d0c 	addiu	t0,t0,-29428
[31m    69c4:	8f99807c 	lw	t9,sprintf[0m
    69c8:	01002821 	move	a1,t0
    69cc:	2604ac40 	addiu	a0,s0,-21440
    69d0:	00005812 	mflo	t3
    69d4:	8f968024 	lw	s6,-32732(gp)
    69d8:	02eb5821 	addu	t3,s7,t3
    69dc:	8d620000 	lw	v0,0(t3)
    69e0:	afa80074 	sw	t0,116(sp)
    69e4:	afab0084 	sw	t3,132(sp)
    69e8:	00403021 	move	a2,v0
    69ec:	8f938024 	lw	s3,-32732(gp)
    69f0:	8f928024 	lw	s2,-32732(gp)
    69f4:	0320f809 	jalr	t9
    69f8:	afa20070 	sw	v0,112(sp)
    69fc:	26c48de0 	addiu	a0,s6,-29216
    6a00:	8fbc0010 	lw	gp,16(sp)
    6a04:	340589f1 	li	a1,0x89f1
    6a08:	8f998050 	lw	t9,-32688(gp)
    6a0c:	0320f809 	jalr	t9
    6a10:	2606ac40 	addiu	a2,s0,-21440
    6a14:	2604ac40 	addiu	a0,s0,-21440
    6a18:	8fbc0010 	lw	gp,16(sp)
    6a1c:	8fa60070 	lw	a2,112(sp)
    6a20:	8f958024 	lw	s5,-32732(gp)
[31m    6a24:	8f99807c 	lw	t9,sprintf[0m
    6a28:	26b58c48 	addiu	s5,s5,-29624
    6a2c:	8f948024 	lw	s4,-32732(gp)
    6a30:	0320f809 	jalr	t9
    6a34:	02a02821 	move	a1,s5
    6a38:	26c68de0 	addiu	a2,s6,-29216
    6a3c:	02202021 	move	a0,s1
    6a40:	8fbc0010 	lw	gp,16(sp)
    6a44:	8f838024 	lw	v1,-32732(gp)
[31m    6a48:	8f99807c 	lw	t9,sprintf[0m
    6a4c:	24638d20 	addiu	v1,v1,-29408
    6a50:	00602821 	move	a1,v1
    6a54:	0320f809 	jalr	t9
    6a58:	afa30078 	sw	v1,120(sp)
    6a5c:	2607ac40 	addiu	a3,s0,-21440
    6a60:	02203021 	move	a2,s1
    6a64:	8fbc0010 	lw	gp,16(sp)
    6a68:	266487a0 	addiu	a0,s3,-30816
    6a6c:	8f998060 	lw	t9,-32672(gp)
    6a70:	0320f809 	jalr	t9
    6a74:	26458f64 	addiu	a1,s2,-28828
    6a78:	24020003 	li	v0,3
    6a7c:	03c20018 	mult	s8,v0
    6a80:	8fbc0010 	lw	gp,16(sp)
    6a84:	2604ac40 	addiu	a0,s0,-21440
    6a88:	8f898024 	lw	t1,-32732(gp)
[31m    6a8c:	8f99807c 	lw	t9,sprintf[0m
    6a90:	0000f012 	mflo	s8
    6a94:	25298d34 	addiu	t1,t1,-29388
    6a98:	27de0001 	addiu	s8,s8,1
    6a9c:	01202821 	move	a1,t1
    6aa0:	001ef080 	sll	s8,s8,0x2
    6aa4:	02feb821 	addu	s7,s7,s8
    6aa8:	8efe0000 	lw	s8,0(s7)
    6aac:	afa9007c 	sw	t1,124(sp)
    6ab0:	0320f809 	jalr	t9
    6ab4:	03c03021 	move	a2,s8
    6ab8:	26c48de0 	addiu	a0,s6,-29216
    6abc:	8fbc0010 	lw	gp,16(sp)
    6ac0:	340589f1 	li	a1,0x89f1
    6ac4:	8f998050 	lw	t9,-32688(gp)
    6ac8:	0320f809 	jalr	t9
    6acc:	2606ac40 	addiu	a2,s0,-21440
    6ad0:	2604ac40 	addiu	a0,s0,-21440
    6ad4:	02a02821 	move	a1,s5
    6ad8:	8fbc0010 	lw	gp,16(sp)
[31m    6adc:	8f99807c 	lw	t9,sprintf[0m
    6ae0:	0320f809 	jalr	t9
    6ae4:	03c03021 	move	a2,s8
    6ae8:	26c68de0 	addiu	a2,s6,-29216
    6aec:	02202021 	move	a0,s1
    6af0:	8fbc0010 	lw	gp,16(sp)
    6af4:	8f8a8024 	lw	t2,-32732(gp)
[31m    6af8:	8f99807c 	lw	t9,sprintf[0m
    6afc:	254a8d3c 	addiu	t2,t2,-29380
    6b00:	01402821 	move	a1,t2
    6b04:	0320f809 	jalr	t9
    6b08:	afaa0080 	sw	t2,128(sp)
    6b0c:	2607ac40 	addiu	a3,s0,-21440
    6b10:	02203021 	move	a2,s1
    6b14:	8fbc0010 	lw	gp,16(sp)
    6b18:	266487a0 	addiu	a0,s3,-30816
    6b1c:	8f998060 	lw	t9,-32672(gp)
    6b20:	0320f809 	jalr	t9
    6b24:	26458f64 	addiu	a1,s2,-28828
    6b28:	2604ac40 	addiu	a0,s0,-21440
    6b2c:	8fbc0010 	lw	gp,16(sp)
    6b30:	8fab0084 	lw	t3,132(sp)
[31m    6b34:	8f99807c 	lw	t9,sprintf[0m
    6b38:	8d770008 	lw	s7,8(t3)
    6b3c:	8f8b8024 	lw	t3,-32732(gp)
    6b40:	02e03021 	move	a2,s7
    6b44:	256b8d44 	addiu	t3,t3,-29372
    6b48:	01602821 	move	a1,t3
    6b4c:	0320f809 	jalr	t9
    6b50:	afab0084 	sw	t3,132(sp)
    6b54:	26c48de0 	addiu	a0,s6,-29216
    6b58:	8fbc0010 	lw	gp,16(sp)
    6b5c:	340589f1 	li	a1,0x89f1
    6b60:	8f998050 	lw	t9,-32688(gp)
    6b64:	0320f809 	jalr	t9
    6b68:	2606ac40 	addiu	a2,s0,-21440
    6b6c:	2604ac40 	addiu	a0,s0,-21440
    6b70:	02a02821 	move	a1,s5
    6b74:	8fbc0010 	lw	gp,16(sp)
[31m    6b78:	8f99807c 	lw	t9,sprintf[0m
    6b7c:	0320f809 	jalr	t9
    6b80:	02e03021 	move	a2,s7
    6b84:	26c68de0 	addiu	a2,s6,-29216
    6b88:	02202021 	move	a0,s1
    6b8c:	8fbc0010 	lw	gp,16(sp)
    6b90:	8f968024 	lw	s6,-32732(gp)
[31m    6b94:	8f99807c 	lw	t9,sprintf[0m
    6b98:	26d68d54 	addiu	s6,s6,-29356
    6b9c:	0320f809 	jalr	t9
    6ba0:	02c02821 	move	a1,s6
    6ba4:	2607ac40 	addiu	a3,s0,-21440
    6ba8:	02203021 	move	a2,s1
    6bac:	8fbc0010 	lw	gp,16(sp)
    6bb0:	266487a0 	addiu	a0,s3,-30816
    6bb4:	8f998060 	lw	t9,-32672(gp)
    6bb8:	0320f809 	jalr	t9
    6bbc:	26458f64 	addiu	a1,s2,-28828
    6bc0:	2604ac40 	addiu	a0,s0,-21440
    6bc4:	8fbc0010 	lw	gp,16(sp)
    6bc8:	8fa80074 	lw	t0,116(sp)
[31m    6bcc:	8f99807c 	lw	t9,sprintf[0m
    6bd0:	8fa60070 	lw	a2,112(sp)
    6bd4:	0320f809 	jalr	t9
    6bd8:	01002821 	move	a1,t0
    6bdc:	26848b70 	addiu	a0,s4,-29840
    6be0:	8fbc0010 	lw	gp,16(sp)
    6be4:	340589f1 	li	a1,0x89f1
    6be8:	8f998050 	lw	t9,-32688(gp)
    6bec:	0320f809 	jalr	t9
    6bf0:	2606ac40 	addiu	a2,s0,-21440
    6bf4:	2604ac40 	addiu	a0,s0,-21440
    6bf8:	8fbc0010 	lw	gp,16(sp)
    6bfc:	8fa60070 	lw	a2,112(sp)
[31m    6c00:	8f99807c 	lw	t9,sprintf[0m
    6c04:	0320f809 	jalr	t9
    6c08:	02a02821 	move	a1,s5
    6c0c:	26868b70 	addiu	a2,s4,-29840
    6c10:	02202021 	move	a0,s1
    6c14:	8fbc0010 	lw	gp,16(sp)
    6c18:	8fa30078 	lw	v1,120(sp)
[31m    6c1c:	8f99807c 	lw	t9,sprintf[0m
    6c20:	0320f809 	jalr	t9
    6c24:	00602821 	move	a1,v1
    6c28:	2607ac40 	addiu	a3,s0,-21440
    6c2c:	02203021 	move	a2,s1
    6c30:	8fbc0010 	lw	gp,16(sp)
    6c34:	266487a0 	addiu	a0,s3,-30816
    6c38:	8f998060 	lw	t9,-32672(gp)
    6c3c:	0320f809 	jalr	t9
    6c40:	26458f64 	addiu	a1,s2,-28828
    6c44:	2604ac40 	addiu	a0,s0,-21440
    6c48:	03c03021 	move	a2,s8
    6c4c:	8fbc0010 	lw	gp,16(sp)
    6c50:	8fa9007c 	lw	t1,124(sp)
[31m    6c54:	8f99807c 	lw	t9,sprintf[0m
    6c58:	0320f809 	jalr	t9
    6c5c:	01202821 	move	a1,t1
    6c60:	26848b70 	addiu	a0,s4,-29840
    6c64:	8fbc0010 	lw	gp,16(sp)
    6c68:	340589f1 	li	a1,0x89f1
    6c6c:	8f998050 	lw	t9,-32688(gp)
    6c70:	0320f809 	jalr	t9
    6c74:	2606ac40 	addiu	a2,s0,-21440
    6c78:	03c03021 	move	a2,s8
    6c7c:	2604ac40 	addiu	a0,s0,-21440
    6c80:	8fbc0010 	lw	gp,16(sp)
[31m    6c84:	8f99807c 	lw	t9,sprintf[0m
    6c88:	0320f809 	jalr	t9
    6c8c:	02a02821 	move	a1,s5
    6c90:	26868b70 	addiu	a2,s4,-29840
    6c94:	02202021 	move	a0,s1
    6c98:	8fbc0010 	lw	gp,16(sp)
    6c9c:	8faa0080 	lw	t2,128(sp)
[31m    6ca0:	8f99807c 	lw	t9,sprintf[0m
    6ca4:	0320f809 	jalr	t9
    6ca8:	01402821 	move	a1,t2
    6cac:	2607ac40 	addiu	a3,s0,-21440
    6cb0:	02203021 	move	a2,s1
    6cb4:	8fbc0010 	lw	gp,16(sp)
    6cb8:	266487a0 	addiu	a0,s3,-30816
    6cbc:	8f998060 	lw	t9,-32672(gp)
    6cc0:	0320f809 	jalr	t9
    6cc4:	26458f64 	addiu	a1,s2,-28828
    6cc8:	2604ac40 	addiu	a0,s0,-21440
    6ccc:	02e03021 	move	a2,s7
    6cd0:	8fbc0010 	lw	gp,16(sp)
    6cd4:	8fab0084 	lw	t3,132(sp)
[31m    6cd8:	8f99807c 	lw	t9,sprintf[0m
    6cdc:	0320f809 	jalr	t9
    6ce0:	01602821 	move	a1,t3
    6ce4:	26848b70 	addiu	a0,s4,-29840
    6ce8:	8fbc0010 	lw	gp,16(sp)
    6cec:	340589f1 	li	a1,0x89f1
    6cf0:	8f998050 	lw	t9,-32688(gp)
    6cf4:	0320f809 	jalr	t9
    6cf8:	2606ac40 	addiu	a2,s0,-21440
    6cfc:	02a02821 	move	a1,s5
    6d00:	2604ac40 	addiu	a0,s0,-21440
    6d04:	8fbc0010 	lw	gp,16(sp)
[31m    6d08:	8f99807c 	lw	t9,sprintf[0m
    6d0c:	0320f809 	jalr	t9
    6d10:	02e03021 	move	a2,s7
    6d14:	02c02821 	move	a1,s6
    6d18:	26868b70 	addiu	a2,s4,-29840
    6d1c:	8fbc0010 	lw	gp,16(sp)
[31m    6d20:	8f99807c 	lw	t9,sprintf[0m
    6d24:	0320f809 	jalr	t9
    6d28:	02202021 	move	a0,s1
--
    6dd8:	82030003 	lb	v1,3(s0)
    6ddc:	2c630001 	sltiu	v1,v1,1
    6de0:	8fbf0024 	lw	ra,36(sp)
    6de4:	00601021 	move	v0,v1
    6de8:	8fb10020 	lw	s1,32(sp)
    6dec:	8fb0001c 	lw	s0,28(sp)
    6df0:	03e00008 	jr	ra
    6df4:	27bd0028 	addiu	sp,sp,40

00006df8 <realtek_SetRadio@@Base>:
    6df8:	3c1c0002 	lui	gp,0x2
    6dfc:	279cb498 	addiu	gp,gp,-19304
    6e00:	0399e021 	addu	gp,gp,t9
    6e04:	27bdff90 	addiu	sp,sp,-112
    6e08:	afbf006c 	sw	ra,108(sp)
    6e0c:	afb30068 	sw	s3,104(sp)
    6e10:	afb20064 	sw	s2,100(sp)
    6e14:	afb10060 	sw	s1,96(sp)
    6e18:	afb0005c 	sw	s0,92(sp)
    6e1c:	afbc0010 	sw	gp,16(sp)
    6e20:	8f908018 	lw	s0,-32744(gp)
    6e24:	2cb30001 	sltiu	s3,a1,1
    6e28:	27b10018 	addiu	s1,sp,24
    6e2c:	8f858024 	lw	a1,-32732(gp)
    6e30:	00809021 	move	s2,a0
[31m    6e34:	8f99807c 	lw	t9,sprintf[0m
    6e38:	2604acc0 	addiu	a0,s0,-21312
    6e3c:	02603021 	move	a2,s3
    6e40:	0320f809 	jalr	t9
    6e44:	24a58e24 	addiu	a1,a1,-29148
    6e48:	02402021 	move	a0,s2
    6e4c:	2606acc0 	addiu	a2,s0,-21312
    6e50:	8fbc0010 	lw	gp,16(sp)
    6e54:	8f998050 	lw	t9,-32688(gp)
    6e58:	0320f809 	jalr	t9
    6e5c:	340589f1 	li	a1,0x89f1
    6e60:	02603021 	move	a2,s3
    6e64:	2604acc0 	addiu	a0,s0,-21312
    6e68:	8fbc0010 	lw	gp,16(sp)
    6e6c:	8f858024 	lw	a1,-32732(gp)
[31m    6e70:	8f99807c 	lw	t9,sprintf[0m
    6e74:	0320f809 	jalr	t9
    6e78:	24a58c48 	addiu	a1,a1,-29624
    6e7c:	02403021 	move	a2,s2
    6e80:	8fbc0010 	lw	gp,16(sp)
    6e84:	02202021 	move	a0,s1
    6e88:	8f858024 	lw	a1,-32732(gp)
[31m    6e8c:	8f99807c 	lw	t9,sprintf[0m
    6e90:	0320f809 	jalr	t9
    6e94:	24a58e30 	addiu	a1,a1,-29136
--
    6eac:	8f998060 	lw	t9,-32672(gp)
    6eb0:	248487a0 	addiu	a0,a0,-30816
    6eb4:	0320f809 	jalr	t9
    6eb8:	24a58f64 	addiu	a1,a1,-28828
    6ebc:	8fbf006c 	lw	ra,108(sp)
    6ec0:	8fb30068 	lw	s3,104(sp)
    6ec4:	8fb20064 	lw	s2,100(sp)
    6ec8:	8fb10060 	lw	s1,96(sp)
    6ecc:	8fb0005c 	lw	s0,92(sp)
    6ed0:	03e00008 	jr	ra
    6ed4:	27bd0070 	addiu	sp,sp,112

00006ed8 <realtek_SetIpRepeat@@Base>:
    6ed8:	3c1c0002 	lui	gp,0x2
    6edc:	279cb3b8 	addiu	gp,gp,-19528
    6ee0:	0399e021 	addu	gp,gp,t9
    6ee4:	27bdffd8 	addiu	sp,sp,-40
    6ee8:	afbf0024 	sw	ra,36(sp)
    6eec:	afb10020 	sw	s1,32(sp)
    6ef0:	afb0001c 	sw	s0,28(sp)
    6ef4:	afbc0010 	sw	gp,16(sp)
    6ef8:	8f908018 	lw	s0,-32744(gp)
    6efc:	00a03021 	move	a2,a1
    6f00:	8f858024 	lw	a1,-32732(gp)
    6f04:	00808821 	move	s1,a0
[31m    6f08:	8f99807c 	lw	t9,sprintf[0m
    6f0c:	2604ad00 	addiu	a0,s0,-21248
    6f10:	0320f809 	jalr	t9
--
    7234:	0320f809 	jalr	t9
    7238:	02802821 	move	a1,s4
    723c:	8fbc0038 	lw	gp,56(sp)
    7240:	04410004 	bgez	v0,7254 <realtek_SiteSurvey@@Base+0xc8>
    7244:	00409821 	move	s3,v0
    7248:	8f998034 	lw	t9,-32716(gp)
    724c:	100000bc 	b	7540 <realtek_SiteSurvey@@Base+0x3b4>
    7250:	02802021 	move	a0,s4
    7254:	8f828024 	lw	v0,-32732(gp)
    7258:	02c02021 	move	a0,s6
    725c:	8f858024 	lw	a1,-32732(gp)
    7260:	24428e90 	addiu	v0,v0,-29040
    7264:	afa20010 	sw	v0,16(sp)
    7268:	24a58e6c 	addiu	a1,a1,-29076
    726c:	8f828024 	lw	v0,-32732(gp)
    7270:	8f868024 	lw	a2,-32732(gp)
    7274:	24428e98 	addiu	v0,v0,-29032
    7278:	afa20014 	sw	v0,20(sp)
    727c:	24c68e8c 	addiu	a2,a2,-29044
    7280:	8f828024 	lw	v0,-32732(gp)
    7284:	8f878024 	lw	a3,-32732(gp)
    7288:	24428ea4 	addiu	v0,v0,-29020
    728c:	afa20018 	sw	v0,24(sp)
    7290:	24e78a40 	addiu	a3,a3,-30144
    7294:	8f828024 	lw	v0,-32732(gp)
[31m    7298:	8f99807c 	lw	t9,sprintf[0m
    729c:	24428eb0 	addiu	v0,v0,-29008
    72a0:	afa2001c 	sw	v0,28(sp)
--
    746c:	25070006 	addiu	a3,t0,6
    7470:	8e08005c 	lw	t0,92(s0)
    7474:	01231821 	addu	v1,t1,v1
    7478:	8f898024 	lw	t1,-32732(gp)
    747c:	39020010 	xori	v0,t0,0x10
    7480:	8f888024 	lw	t0,-32732(gp)
    7484:	25298ec8 	addiu	t1,t1,-28984
    7488:	25088ec4 	addiu	t0,t0,-28988
    748c:	0122400a 	0x122400a
    7490:	8c630000 	lw	v1,0(v1)
    7494:	01001021 	move	v0,t0
    7498:	8f888058 	lw	t0,-32680(gp)
    749c:	00031880 	sll	v1,v1,0x2
    74a0:	920e0004 	lbu	t6,4(s0)
    74a4:	01031821 	addu	v1,t0,v1
    74a8:	920d0005 	lbu	t5,5(s0)
    74ac:	920c0006 	lbu	t4,6(s0)
    74b0:	920b0007 	lbu	t3,7(s0)
    74b4:	920a0008 	lbu	t2,8(s0)
    74b8:	92090009 	lbu	t1,9(s0)
    74bc:	92080083 	lbu	t0,131(s0)
    74c0:	8c630000 	lw	v1,0(v1)
    74c4:	8f858024 	lw	a1,-32732(gp)
    74c8:	92060070 	lbu	a2,112(s0)
    74cc:	261000ac 	addiu	s0,s0,172
[31m    74d0:	8f99807c 	lw	t9,sprintf[0m
    74d4:	24a58ecc 	addiu	a1,a1,-28980
    74d8:	afae0010 	sw	t6,16(sp)
--
    7838:	27de8f10 	addiu	s8,s8,-28912
    783c:	a2600000 	sb	zero,0(s3)
    7840:	26f78f08 	addiu	s7,s7,-28920
    7844:	26d68f20 	addiu	s6,s6,-28896
    7848:	24150010 	li	s5,16
    784c:	8f99804c 	lw	t9,strlen
    7850:	02602021 	move	a0,s3
    7854:	0320f809 	jalr	t9
    7858:	26940001 	addiu	s4,s4,1
    785c:	26060006 	addiu	a2,s0,6
    7860:	02c02821 	move	a1,s6
    7864:	8e090058 	lw	t1,88(s0)
    7868:	02622021 	addu	a0,s3,v0
    786c:	02e01021 	move	v0,s7
    7870:	9608006a 	lhu	t0,106(s0)
    7874:	01354826 	xor	t1,t1,s5
    7878:	8fbc0020 	lw	gp,32(sp)
    787c:	03c9100a 	0x3c9100a
    7880:	00084102 	srl	t0,t0,0x4
    7884:	9203007f 	lbu	v1,127(s0)
    7888:	00404821 	move	t1,v0
    788c:	9202007e 	lbu	v0,126(s0)
    7890:	31080001 	andi	t0,t0,0x1
    7894:	9207006c 	lbu	a3,108(s0)
    7898:	261000ac 	addiu	s0,s0,172
[31m    789c:	8f99807c 	lw	t9,sprintf[0m
    78a0:	afa90010 	sw	t1,16(sp)
    78a4:	afa80014 	sw	t0,20(sp)
--
    806c:	10000003 	b	807c <realtek_ListStaInfo@@Base+0xf4>
    8070:	00000000 	nop
    8074:	0320f809 	jalr	t9
    8078:	00063042 	srl	a2,a2,0x1
    807c:	92020000 	lbu	v0,0(s0)
    8080:	02e02821 	move	a1,s7
    8084:	8fbc0030 	lw	gp,48(sp)
    8088:	02602021 	move	a0,s3
    808c:	3042000f 	andi	v0,v0,0xf
    8090:	920affdc 	lbu	t2,-36(s0)
    8094:	8f838064 	lw	v1,-32668(gp)
    8098:	00021080 	sll	v0,v0,0x2
    809c:	9209ffdd 	lbu	t1,-35(s0)
    80a0:	00621021 	addu	v0,v1,v0
    80a4:	8c420000 	lw	v0,0(v0)
    80a8:	8f838058 	lw	v1,-32680(gp)
    80ac:	00021080 	sll	v0,v0,0x2
    80b0:	9208ffde 	lbu	t0,-34(s0)
    80b4:	00621021 	addu	v0,v1,v0
    80b8:	8c4b0000 	lw	t3,0(v0)
    80bc:	9203ffdf 	lbu	v1,-33(s0)
    80c0:	8e02fff0 	lw	v0,-16(s0)
    80c4:	9206ffda 	lbu	a2,-38(s0)
    80c8:	9207ffdb 	lbu	a3,-37(s0)
    80cc:	26100030 	addiu	s0,s0,48
[31m    80d0:	8f99807c 	lw	t9,sprintf[0m
    80d4:	afa3001c 	sw	v1,28(sp)
    80d8:	afaa0010 	sw	t2,16(sp)
--
    80e8:	afa20020 	sw	v0,32(sp)
    80ec:	0320f809 	jalr	t9
    80f0:	afb40024 	sw	s4,36(sp)
    80f4:	8fbc0030 	lw	gp,48(sp)
    80f8:	8f99804c 	lw	t9,strlen
    80fc:	0320f809 	jalr	t9
    8100:	02a02021 	move	a0,s5
    8104:	02602021 	move	a0,s3
    8108:	8fbc0030 	lw	gp,48(sp)
    810c:	8f99804c 	lw	t9,strlen
    8110:	0320f809 	jalr	t9
    8114:	afa201b0 	sw	v0,432(sp)
    8118:	02a02021 	move	a0,s5
    811c:	8fa301b0 	lw	v1,432(sp)
    8120:	8fbc0030 	lw	gp,48(sp)
    8124:	00431821 	addu	v1,v0,v1
    8128:	8fa201e8 	lw	v0,488(sp)
    812c:	8f9980d0 	lw	t9,-32560(gp)
    8130:	0062182b 	sltu	v1,v1,v0
    8134:	10600008 	beqz	v1,8158 <realtek_ListStaInfo@@Base+0x1d0>
    8138:	02602821 	move	a1,s3
    813c:	0320f809 	jalr	t9
    8140:	26520001 	addiu	s2,s2,1
    8144:	8fbc0030 	lw	gp,48(sp)
    8148:	0251102a 	slt	v0,s2,s1
[31m    814c:	8f99807c 	lw	t9,sprintf[0m
    8150:	1440ffb0 	bnez	v0,8014 <realtek_ListStaInfo@@Base+0x8c>
    8154:	02802021 	move	a0,s4

[0m
[[0;33m*[0m] Function [0;33msprintf[0m used [0;33m144[0m times [0;33mlibFVwireless.so[0m

