[[0;33m*[0m] Binary protection state of [0;33mated_iwpriv[0m

  	RELRO          CANARY            NX           PIE          RPATH        RUNPATH      SYMBOLS      
  	[31mNo RELRO[0m       [31mNo Canary found[0m   [31mNX disabled[0m  [31mNo PIE[0m       [32mNo RPATH[0m     [32mNo RUNPATH[0m   [31mSymbols[0m

[0m
[[0;33m*[0m] Function [0;33mfprintf[0m tear down of [0;33mated_iwpriv[0m

  401b00:	00621021 	addu	v0,v1,v0
  401b04:	a0400000 	sb	zero,0(v0)
  401b08:	8fc20020 	lw	v0,32(s8)
  401b0c:	00000000 	nop
  401b10:	80420000 	lb	v0,0(v0)
  401b14:	00000000 	nop
  401b18:	104000a2 	beqz	v0,401da4 <ProcessCmd+0x40c>
  401b1c:	00000000 	nop
  401b20:	3c020041 	lui	v0,0x41
  401b24:	8c42036c 	lw	v0,876(v0)
  401b28:	00000000 	nop
  401b2c:	10400013 	beqz	v0,401b7c <ProcessCmd+0x1e4>
  401b30:	00000000 	nop
  401b34:	3c020041 	lui	v0,0x41
  401b38:	8c420370 	lw	v0,880(v0)
  401b3c:	00000000 	nop
  401b40:	1040000e 	beqz	v0,401b7c <ProcessCmd+0x1e4>
  401b44:	00000000 	nop
  401b48:	3c020041 	lui	v0,0x41
  401b4c:	8c430370 	lw	v1,880(v0)
  401b50:	3c020041 	lui	v0,0x41
  401b54:	2442e80c 	addiu	v0,v0,-6132
  401b58:	00602021 	move	a0,v1
  401b5c:	00402821 	move	a1,v0
  401b60:	8fc60020 	lw	a2,32(s8)
[31m  401b64:	8f82813c 	lw	v0,fprintf[0m
  401b68:	00000000 	nop
  401b6c:	0040c821 	move	t9,v0
--
  401d10:	8f8280bc 	lw	v0,strlen
  401d14:	00000000 	nop
  401d18:	0040c821 	move	t9,v0
  401d1c:	0320f809 	jalr	t9
  401d20:	00000000 	nop
  401d24:	8fdc0010 	lw	gp,16(s8)
  401d28:	afc2001c 	sw	v0,28(s8)
  401d2c:	3c020041 	lui	v0,0x41
  401d30:	8c42036c 	lw	v0,876(v0)
  401d34:	00000000 	nop
  401d38:	10400014 	beqz	v0,401d8c <ProcessCmd+0x3f4>
  401d3c:	00000000 	nop
  401d40:	3c020041 	lui	v0,0x41
  401d44:	8c420370 	lw	v0,880(v0)
  401d48:	00000000 	nop
  401d4c:	1040000f 	beqz	v0,401d8c <ProcessCmd+0x3f4>
  401d50:	00000000 	nop
  401d54:	3c020041 	lui	v0,0x41
  401d58:	8c430370 	lw	v1,880(v0)
  401d5c:	3c020041 	lui	v0,0x41
  401d60:	2442e824 	addiu	v0,v0,-6108
  401d64:	00602021 	move	a0,v1
  401d68:	00402821 	move	a1,v0
  401d6c:	8fc6001c 	lw	a2,28(s8)
  401d70:	8fc7002c 	lw	a3,44(s8)
[31m  401d74:	8f82813c 	lw	v0,fprintf[0m
  401d78:	00000000 	nop
  401d7c:	0040c821 	move	t9,v0
--
  402514:	afc60050 	sw	a2,80(s8)
  402518:	afc70054 	sw	a3,84(s8)
  40251c:	27c20038 	addiu	v0,s8,56
  402520:	8fc40048 	lw	a0,72(s8)
  402524:	8fc50054 	lw	a1,84(s8)
  402528:	00403021 	move	a2,v0
  40252c:	8f828038 	lw	v0,-32712(gp)
  402530:	00000000 	nop
  402534:	0040c821 	move	t9,v0
  402538:	04110e39 	bal	405e20 <iw_get_priv_info>
  40253c:	00000000 	nop
  402540:	8fdc0028 	lw	gp,40(s8)
  402544:	afc20030 	sw	v0,48(s8)
  402548:	8fc20030 	lw	v0,48(s8)
  40254c:	00000000 	nop
  402550:	1c40001f 	bgtz	v0,4025d0 <set_private+0xe0>
  402554:	00000000 	nop
  402558:	8f8280d4 	lw	v0,-32556(gp)
  40255c:	00000000 	nop
  402560:	8c430000 	lw	v1,0(v0)
  402564:	3c020041 	lui	v0,0x41
  402568:	2442e960 	addiu	v0,v0,-5792
  40256c:	00602021 	move	a0,v1
  402570:	00402821 	move	a1,v0
  402574:	8fc60054 	lw	a2,84(s8)
[31m  402578:	8f82813c 	lw	v0,fprintf[0m
  40257c:	00000000 	nop
  402580:	0040c821 	move	t9,v0
--
  404f84:	04410020 	bgez	v0,405008 <iw_enum_devices+0x3bc>
  404f88:	00000000 	nop
  404f8c:	8f8280d4 	lw	v0,-32556(gp)
  404f90:	00000000 	nop
  404f94:	8c510000 	lw	s1,0(v0)
  404f98:	3c020041 	lui	v0,0x41
  404f9c:	2450eed4 	addiu	s0,v0,-4396
  404fa0:	8f8280c4 	lw	v0,-32572(gp)
  404fa4:	00000000 	nop
  404fa8:	0040c821 	move	t9,v0
  404fac:	0320f809 	jalr	t9
  404fb0:	00000000 	nop
  404fb4:	8fdc0010 	lw	gp,16(s8)
  404fb8:	8c420000 	lw	v0,0(v0)
  404fbc:	00000000 	nop
  404fc0:	00402021 	move	a0,v0
  404fc4:	8f828190 	lw	v0,-32368(gp)
  404fc8:	00000000 	nop
  404fcc:	0040c821 	move	t9,v0
  404fd0:	0320f809 	jalr	t9
  404fd4:	00000000 	nop
  404fd8:	8fdc0010 	lw	gp,16(s8)
  404fdc:	02202021 	move	a0,s1
  404fe0:	02002821 	move	a1,s0
  404fe4:	00403021 	move	a2,v0
[31m  404fe8:	8f82813c 	lw	v0,fprintf[0m
  404fec:	00000000 	nop
  404ff0:	0040c821 	move	t9,v0
--
  405498:	00000000 	nop
  40549c:	0040c821 	move	t9,v0
  4054a0:	0320f809 	jalr	t9
  4054a4:	00000000 	nop
  4054a8:	8fdc0010 	lw	gp,16(s8)
  4054ac:	8fc20034 	lw	v0,52(s8)
  4054b0:	8fc4002c 	lw	a0,44(s8)
  4054b4:	00402821 	move	a1,v0
  4054b8:	8fc60038 	lw	a2,56(s8)
  4054bc:	8f8281a4 	lw	v0,-32348(gp)
  4054c0:	00000000 	nop
  4054c4:	0040c821 	move	t9,v0
  4054c8:	0320f809 	jalr	t9
  4054cc:	00000000 	nop
  4054d0:	8fdc0010 	lw	gp,16(s8)
  4054d4:	04410012 	bgez	v0,405520 <print_iface_version_info+0x1c8>
  4054d8:	00000000 	nop
  4054dc:	8f8280d4 	lw	v0,-32556(gp)
  4054e0:	00000000 	nop
  4054e4:	8c430000 	lw	v1,0(v0)
  4054e8:	3c020041 	lui	v0,0x41
  4054ec:	2442ef58 	addiu	v0,v0,-4264
  4054f0:	00602021 	move	a0,v1
  4054f4:	00402821 	move	a1,v0
  4054f8:	8fc60504 	lw	a2,1284(s8)
[31m  4054fc:	8f82813c 	lw	v0,fprintf[0m
  405500:	00000000 	nop
  405504:	0040c821 	move	t9,v0
--
  40556c:	00000000 	nop
  405570:	8fdc0010 	lw	gp,16(s8)
  405574:	3c020041 	lui	v0,0x41
  405578:	2443efd4 	addiu	v1,v0,-4140
  40557c:	8fc20018 	lw	v0,24(s8)
  405580:	00000000 	nop
  405584:	90420118 	lbu	v0,280(v0)
  405588:	00602021 	move	a0,v1
  40558c:	00402821 	move	a1,v0
  405590:	8f828198 	lw	v0,-32360(gp)
  405594:	00000000 	nop
  405598:	0040c821 	move	t9,v0
  40559c:	0320f809 	jalr	t9
  4055a0:	00000000 	nop
  4055a4:	8fdc0010 	lw	gp,16(s8)
  4055a8:	0810157a 	j	4055e8 <print_iface_version_info+0x290>
  4055ac:	00000000 	nop
  4055b0:	8f8280d4 	lw	v0,-32556(gp)
  4055b4:	00000000 	nop
  4055b8:	8c430000 	lw	v1,0(v0)
  4055bc:	3c020041 	lui	v0,0x41
  4055c0:	2442f010 	addiu	v0,v0,-4080
  4055c4:	00602021 	move	a0,v1
  4055c8:	00402821 	move	a1,v0
  4055cc:	8fc60504 	lw	a2,1284(s8)
[31m  4055d0:	8f82813c 	lw	v0,fprintf[0m
  4055d4:	00000000 	nop
  4055d8:	0040c821 	move	t9,v0
--
  405b24:	98650000 	lwr	a1,0(v1)
  405b28:	00000000 	nop
  405b2c:	00a01821 	move	v1,a1
  405b30:	a8430003 	swl	v1,3(v0)
  405b34:	b8430000 	swr	v1,0(v0)
  405b38:	3c020041 	lui	v0,0x41
  405b3c:	8c420390 	lw	v0,912(v0)
  405b40:	00000000 	nop
  405b44:	144000ac 	bnez	v0,405df8 <iw_get_range_info+0x674>
  405b48:	00000000 	nop
  405b4c:	8fc204f8 	lw	v0,1272(s8)
  405b50:	00000000 	nop
  405b54:	90420118 	lbu	v0,280(v0)
  405b58:	00000000 	nop
  405b5c:	2c42000b 	sltiu	v0,v0,11
  405b60:	1040002d 	beqz	v0,405c18 <iw_get_range_info+0x494>
  405b64:	00000000 	nop
  405b68:	8f8280d4 	lw	v0,-32556(gp)
  405b6c:	00000000 	nop
  405b70:	8c430000 	lw	v1,0(v0)
  405b74:	3c020041 	lui	v0,0x41
  405b78:	2442f0e4 	addiu	v0,v0,-3868
  405b7c:	00602021 	move	a0,v1
  405b80:	00402821 	move	a1,v0
  405b84:	8fc604f4 	lw	a2,1268(s8)
[31m  405b88:	8f82813c 	lw	v0,fprintf[0m
  405b8c:	00000000 	nop
  405b90:	0040c821 	move	t9,v0
--
  405bfc:	00403821 	move	a3,v0
  405c00:	8f8280d0 	lw	v0,-32560(gp)
  405c04:	00000000 	nop
  405c08:	0040c821 	move	t9,v0
  405c0c:	0320f809 	jalr	t9
  405c10:	00000000 	nop
  405c14:	8fdc0010 	lw	gp,16(s8)
  405c18:	8fc204f8 	lw	v0,1272(s8)
  405c1c:	00000000 	nop
  405c20:	90420118 	lbu	v0,280(v0)
  405c24:	00000000 	nop
  405c28:	2c420017 	sltiu	v0,v0,23
  405c2c:	14400030 	bnez	v0,405cf0 <iw_get_range_info+0x56c>
  405c30:	00000000 	nop
  405c34:	8f8280d4 	lw	v0,-32556(gp)
  405c38:	00000000 	nop
  405c3c:	8c440000 	lw	a0,0(v0)
  405c40:	3c020041 	lui	v0,0x41
  405c44:	2443f19c 	addiu	v1,v0,-3684
  405c48:	8fc204f8 	lw	v0,1272(s8)
  405c4c:	00000000 	nop
  405c50:	90420118 	lbu	v0,280(v0)
  405c54:	00602821 	move	a1,v1
  405c58:	8fc604f4 	lw	a2,1268(s8)
  405c5c:	00403821 	move	a3,v0
[31m  405c60:	8f82813c 	lw	v0,fprintf[0m
  405c64:	00000000 	nop
  405c68:	0040c821 	move	t9,v0
  405c6c:	0320f809 	jalr	t9
  405c70:	00000000 	nop
  405c74:	8fdc0010 	lw	gp,16(s8)
  405c78:	00000000 	nop
  405c7c:	8f8280d4 	lw	v0,-32556(gp)
  405c80:	00000000 	nop
  405c84:	8c430000 	lw	v1,0(v0)
  405c88:	3c020041 	lui	v0,0x41
  405c8c:	2442f1e0 	addiu	v0,v0,-3616
  405c90:	00602021 	move	a0,v1
  405c94:	00402821 	move	a1,v0
  405c98:	24060016 	li	a2,22
[31m  405c9c:	8f82813c 	lw	v0,fprintf[0m
  405ca0:	00000000 	nop
  405ca4:	0040c821 	move	t9,v0
--
  405cfc:	00000000 	nop
  405d00:	2c42000b 	sltiu	v0,v0,11
  405d04:	1440003c 	bnez	v0,405df8 <iw_get_range_info+0x674>
  405d08:	00000000 	nop
  405d0c:	8fc204f8 	lw	v0,1272(s8)
  405d10:	00000000 	nop
  405d14:	90430118 	lbu	v1,280(v0)
  405d18:	8fc204f8 	lw	v0,1272(s8)
  405d1c:	00000000 	nop
  405d20:	90420119 	lbu	v0,281(v0)
  405d24:	00000000 	nop
  405d28:	0062102b 	sltu	v0,v1,v0
  405d2c:	10400032 	beqz	v0,405df8 <iw_get_range_info+0x674>
  405d30:	00000000 	nop
  405d34:	8f8280d4 	lw	v0,-32556(gp)
  405d38:	00000000 	nop
  405d3c:	8c440000 	lw	a0,0(v0)
  405d40:	3c020041 	lui	v0,0x41
  405d44:	2443f228 	addiu	v1,v0,-3544
  405d48:	8fc204f8 	lw	v0,1272(s8)
  405d4c:	00000000 	nop
  405d50:	90420119 	lbu	v0,281(v0)
  405d54:	00602821 	move	a1,v1
  405d58:	8fc604f4 	lw	a2,1268(s8)
  405d5c:	00403821 	move	a3,v0
[31m  405d60:	8f82813c 	lw	v0,fprintf[0m
  405d64:	00000000 	nop
  405d68:	0040c821 	move	t9,v0
  405d6c:	0320f809 	jalr	t9
  405d70:	00000000 	nop
  405d74:	8fdc0010 	lw	gp,16(s8)
  405d78:	00000000 	nop
  405d7c:	8f8280d4 	lw	v0,-32556(gp)
  405d80:	00000000 	nop
  405d84:	8c440000 	lw	a0,0(v0)
  405d88:	3c020041 	lui	v0,0x41
  405d8c:	2443f274 	addiu	v1,v0,-3468
  405d90:	8fc204f8 	lw	v0,1272(s8)
  405d94:	00000000 	nop
  405d98:	90420118 	lbu	v0,280(v0)
  405d9c:	00602821 	move	a1,v1
  405da0:	00403021 	move	a2,v0
[31m  405da4:	8f82813c 	lw	v0,fprintf[0m
  405da8:	00000000 	nop
  405dac:	0040c821 	move	t9,v0
--
  405e5c:	000210c0 	sll	v0,v0,0x3
  405e60:	00021880 	sll	v1,v0,0x2
  405e64:	00621023 	subu	v0,v1,v0
  405e68:	8fc40018 	lw	a0,24(s8)
  405e6c:	00402821 	move	a1,v0
  405e70:	8f828110 	lw	v0,-32496(gp)
  405e74:	00000000 	nop
  405e78:	0040c821 	move	t9,v0
  405e7c:	0320f809 	jalr	t9
  405e80:	00000000 	nop
  405e84:	8fdc0010 	lw	gp,16(s8)
  405e88:	afc20020 	sw	v0,32(s8)
  405e8c:	8fc20020 	lw	v0,32(s8)
  405e90:	00000000 	nop
  405e94:	14400012 	bnez	v0,405ee0 <iw_get_priv_info+0xc0>
  405e98:	00000000 	nop
  405e9c:	8f8280d4 	lw	v0,-32556(gp)
  405ea0:	00000000 	nop
  405ea4:	8c430000 	lw	v1,0(v0)
  405ea8:	3c020041 	lui	v0,0x41
  405eac:	2442f2d8 	addiu	v0,v0,-3368
  405eb0:	00602021 	move	a0,v1
  405eb4:	00402821 	move	a1,v0
  405eb8:	3c020041 	lui	v0,0x41
  405ebc:	2446fb4c 	addiu	a2,v0,-1204
[31m  405ec0:	8f82813c 	lw	v0,fprintf[0m
  405ec4:	00000000 	nop
  405ec8:	0040c821 	move	t9,v0
--
  406758:	04410020 	bgez	v0,4067dc <iw_set_basic_config+0x21c>
  40675c:	00000000 	nop
  406760:	8f8280d4 	lw	v0,-32556(gp)
  406764:	00000000 	nop
  406768:	8c510000 	lw	s1,0(v0)
  40676c:	3c020041 	lui	v0,0x41
  406770:	2450f2f0 	addiu	s0,v0,-3344
  406774:	8f8280c4 	lw	v0,-32572(gp)
  406778:	00000000 	nop
  40677c:	0040c821 	move	t9,v0
  406780:	0320f809 	jalr	t9
  406784:	00000000 	nop
  406788:	8fdc0010 	lw	gp,16(s8)
  40678c:	8c420000 	lw	v0,0(v0)
  406790:	00000000 	nop
  406794:	00402021 	move	a0,v0
  406798:	8f828190 	lw	v0,-32368(gp)
  40679c:	00000000 	nop
  4067a0:	0040c821 	move	t9,v0
  4067a4:	0320f809 	jalr	t9
  4067a8:	00000000 	nop
  4067ac:	8fdc0010 	lw	gp,16(s8)
  4067b0:	02202021 	move	a0,s1
  4067b4:	02002821 	move	a1,s0
  4067b8:	00403021 	move	a2,v0
[31m  4067bc:	8f82813c 	lw	v0,fprintf[0m
  4067c0:	00000000 	nop
  4067c4:	0040c821 	move	t9,v0
--
  40689c:	04410020 	bgez	v0,406920 <iw_set_basic_config+0x360>
  4068a0:	00000000 	nop
  4068a4:	8f8280d4 	lw	v0,-32556(gp)
  4068a8:	00000000 	nop
  4068ac:	8c510000 	lw	s1,0(v0)
  4068b0:	3c020041 	lui	v0,0x41
  4068b4:	2450f304 	addiu	s0,v0,-3324
  4068b8:	8f8280c4 	lw	v0,-32572(gp)
  4068bc:	00000000 	nop
  4068c0:	0040c821 	move	t9,v0
  4068c4:	0320f809 	jalr	t9
  4068c8:	00000000 	nop
  4068cc:	8fdc0010 	lw	gp,16(s8)
  4068d0:	8c420000 	lw	v0,0(v0)
  4068d4:	00000000 	nop
  4068d8:	00402021 	move	a0,v0
  4068dc:	8f828190 	lw	v0,-32368(gp)
  4068e0:	00000000 	nop
  4068e4:	0040c821 	move	t9,v0
  4068e8:	0320f809 	jalr	t9
  4068ec:	00000000 	nop
  4068f0:	8fdc0010 	lw	gp,16(s8)
  4068f4:	02202021 	move	a0,s1
  4068f8:	02002821 	move	a1,s0
  4068fc:	00403021 	move	a2,v0
[31m  406900:	8f82813c 	lw	v0,fprintf[0m
  406904:	00000000 	nop
  406908:	0040c821 	move	t9,v0
--
  406a34:	00000000 	nop
  406a38:	0040c821 	move	t9,v0
  406a3c:	0320f809 	jalr	t9
  406a40:	00000000 	nop
  406a44:	8fdc0010 	lw	gp,16(s8)
  406a48:	8c500000 	lw	s0,0(v0)
  406a4c:	8f8280c4 	lw	v0,-32572(gp)
  406a50:	00000000 	nop
  406a54:	0040c821 	move	t9,v0
  406a58:	0320f809 	jalr	t9
  406a5c:	00000000 	nop
  406a60:	8fdc0010 	lw	gp,16(s8)
  406a64:	8c420000 	lw	v0,0(v0)
  406a68:	00000000 	nop
  406a6c:	00402021 	move	a0,v0
  406a70:	8f828190 	lw	v0,-32368(gp)
  406a74:	00000000 	nop
  406a78:	0040c821 	move	t9,v0
  406a7c:	0320f809 	jalr	t9
  406a80:	00000000 	nop
  406a84:	8fdc0010 	lw	gp,16(s8)
  406a88:	02402021 	move	a0,s2
  406a8c:	02202821 	move	a1,s1
  406a90:	02003021 	move	a2,s0
  406a94:	00403821 	move	a3,v0
[31m  406a98:	8f82813c 	lw	v0,fprintf[0m
  406a9c:	00000000 	nop
  406aa0:	0040c821 	move	t9,v0
--
  406bb4:	00000000 	nop
  406bb8:	0040c821 	move	t9,v0
  406bbc:	0320f809 	jalr	t9
  406bc0:	00000000 	nop
  406bc4:	8fdc0010 	lw	gp,16(s8)
  406bc8:	8c500000 	lw	s0,0(v0)
  406bcc:	8f8280c4 	lw	v0,-32572(gp)
  406bd0:	00000000 	nop
  406bd4:	0040c821 	move	t9,v0
  406bd8:	0320f809 	jalr	t9
  406bdc:	00000000 	nop
  406be0:	8fdc0010 	lw	gp,16(s8)
  406be4:	8c420000 	lw	v0,0(v0)
  406be8:	00000000 	nop
  406bec:	00402021 	move	a0,v0
  406bf0:	8f828190 	lw	v0,-32368(gp)
  406bf4:	00000000 	nop
  406bf8:	0040c821 	move	t9,v0
  406bfc:	0320f809 	jalr	t9
  406c00:	00000000 	nop
  406c04:	8fdc0010 	lw	gp,16(s8)
  406c08:	02402021 	move	a0,s2
  406c0c:	02202821 	move	a1,s1
  406c10:	02003021 	move	a2,s0
  406c14:	00403821 	move	a3,v0
[31m  406c18:	8f82813c 	lw	v0,fprintf[0m
  406c1c:	00000000 	nop
  406c20:	0040c821 	move	t9,v0
--
  406cec:	04410020 	bgez	v0,406d70 <iw_set_basic_config+0x7b0>
  406cf0:	00000000 	nop
  406cf4:	8f8280d4 	lw	v0,-32556(gp)
  406cf8:	00000000 	nop
  406cfc:	8c510000 	lw	s1,0(v0)
  406d00:	3c020041 	lui	v0,0x41
  406d04:	2450f330 	addiu	s0,v0,-3280
  406d08:	8f8280c4 	lw	v0,-32572(gp)
  406d0c:	00000000 	nop
  406d10:	0040c821 	move	t9,v0
  406d14:	0320f809 	jalr	t9
  406d18:	00000000 	nop
  406d1c:	8fdc0010 	lw	gp,16(s8)
  406d20:	8c420000 	lw	v0,0(v0)
  406d24:	00000000 	nop
  406d28:	00402021 	move	a0,v0
  406d2c:	8f828190 	lw	v0,-32368(gp)
  406d30:	00000000 	nop
  406d34:	0040c821 	move	t9,v0
  406d38:	0320f809 	jalr	t9
  406d3c:	00000000 	nop
  406d40:	8fdc0010 	lw	gp,16(s8)
  406d44:	02202021 	move	a0,s1
  406d48:	02002821 	move	a1,s0
  406d4c:	00403021 	move	a2,v0
[31m  406d50:	8f82813c 	lw	v0,fprintf[0m
  406d54:	00000000 	nop
  406d58:	0040c821 	move	t9,v0
--
  406e94:	04410020 	bgez	v0,406f18 <iw_set_basic_config+0x958>
  406e98:	00000000 	nop
  406e9c:	8f8280d4 	lw	v0,-32556(gp)
  406ea0:	00000000 	nop
  406ea4:	8c510000 	lw	s1,0(v0)
  406ea8:	3c020041 	lui	v0,0x41
  406eac:	2450f344 	addiu	s0,v0,-3260
  406eb0:	8f8280c4 	lw	v0,-32572(gp)
  406eb4:	00000000 	nop
  406eb8:	0040c821 	move	t9,v0
  406ebc:	0320f809 	jalr	t9
  406ec0:	00000000 	nop
  406ec4:	8fdc0010 	lw	gp,16(s8)
  406ec8:	8c420000 	lw	v0,0(v0)
  406ecc:	00000000 	nop
  406ed0:	00402021 	move	a0,v0
  406ed4:	8f828190 	lw	v0,-32368(gp)
  406ed8:	00000000 	nop
  406edc:	0040c821 	move	t9,v0
  406ee0:	0320f809 	jalr	t9
  406ee4:	00000000 	nop
  406ee8:	8fdc0010 	lw	gp,16(s8)
  406eec:	02202021 	move	a0,s1
  406ef0:	02002821 	move	a1,s0
  406ef4:	00403021 	move	a2,v0
[31m  406ef8:	8f82813c 	lw	v0,fprintf[0m
  406efc:	00000000 	nop
  406f00:	0040c821 	move	t9,v0
--
  40ab54:	00403021 	move	a2,v0
  40ab58:	8f8281a4 	lw	v0,-32348(gp)
  40ab5c:	00000000 	nop
  40ab60:	0040c821 	move	t9,v0
  40ab64:	0320f809 	jalr	t9
  40ab68:	00000000 	nop
  40ab6c:	8fdc0010 	lw	gp,16(s8)
  40ab70:	04400009 	bltz	v0,40ab98 <iw_check_mac_addr_type+0x9c>
  40ab74:	00000000 	nop
  40ab78:	97c30028 	lhu	v1,40(s8)
  40ab7c:	24020001 	li	v0,1
  40ab80:	10620016 	beq	v1,v0,40abdc <iw_check_mac_addr_type+0xe0>
  40ab84:	00000000 	nop
  40ab88:	97c30028 	lhu	v1,40(s8)
  40ab8c:	24020321 	li	v0,801
  40ab90:	10620012 	beq	v1,v0,40abdc <iw_check_mac_addr_type+0xe0>
  40ab94:	00000000 	nop
  40ab98:	8f8280d4 	lw	v0,-32556(gp)
  40ab9c:	00000000 	nop
  40aba0:	8c430000 	lw	v1,0(v0)
  40aba4:	3c020041 	lui	v0,0x41
  40aba8:	2442f638 	addiu	v0,v0,-2504
  40abac:	00602021 	move	a0,v1
  40abb0:	00402821 	move	a1,v0
  40abb4:	8fc60044 	lw	a2,68(s8)
[31m  40abb8:	8f82813c 	lw	v0,fprintf[0m
  40abbc:	00000000 	nop
  40abc0:	0040c821 	move	t9,v0
--
  40ac40:	8fdc0010 	lw	gp,16(s8)
  40ac44:	8fc40040 	lw	a0,64(s8)
  40ac48:	34058915 	li	a1,0x8915
  40ac4c:	27c20018 	addiu	v0,s8,24
  40ac50:	00403021 	move	a2,v0
  40ac54:	8f8281a4 	lw	v0,-32348(gp)
  40ac58:	00000000 	nop
  40ac5c:	0040c821 	move	t9,v0
  40ac60:	0320f809 	jalr	t9
  40ac64:	00000000 	nop
  40ac68:	8fdc0010 	lw	gp,16(s8)
  40ac6c:	04400005 	bltz	v0,40ac84 <iw_check_if_addr_type+0x8c>
  40ac70:	00000000 	nop
  40ac74:	97c30028 	lhu	v1,40(s8)
  40ac78:	24020002 	li	v0,2
  40ac7c:	10620012 	beq	v1,v0,40acc8 <iw_check_if_addr_type+0xd0>
  40ac80:	00000000 	nop
  40ac84:	8f8280d4 	lw	v0,-32556(gp)
  40ac88:	00000000 	nop
  40ac8c:	8c430000 	lw	v1,0(v0)
  40ac90:	3c020041 	lui	v0,0x41
  40ac94:	2442f664 	addiu	v0,v0,-2460
  40ac98:	00602021 	move	a0,v1
  40ac9c:	00402821 	move	a1,v0
  40aca0:	8fc60044 	lw	a2,68(s8)
[31m  40aca4:	8f82813c 	lw	v0,fprintf[0m
  40aca8:	00000000 	nop
  40acac:	0040c821 	move	t9,v0
--
  40b6c4:	8fc40098 	lw	a0,152(s8)
  40b6c8:	2405003a 	li	a1,58
  40b6cc:	8f8280b8 	lw	v0,-32584(gp)
  40b6d0:	00000000 	nop
  40b6d4:	0040c821 	move	t9,v0
  40b6d8:	0320f809 	jalr	t9
  40b6dc:	00000000 	nop
  40b6e0:	8fdc0018 	lw	gp,24(s8)
  40b6e4:	14400092 	bnez	v0,40b930 <iw_in_addr+0x2a0>
  40b6e8:	00000000 	nop
  40b6ec:	8fc40090 	lw	a0,144(s8)
  40b6f0:	8fc50094 	lw	a1,148(s8)
  40b6f4:	0c102afe 	jal	40abf8 <iw_check_if_addr_type>
  40b6f8:	00000000 	nop
  40b6fc:	8fdc0018 	lw	gp,24(s8)
  40b700:	04410012 	bgez	v0,40b74c <iw_in_addr+0xbc>
  40b704:	00000000 	nop
  40b708:	8f8280d4 	lw	v0,-32556(gp)
  40b70c:	00000000 	nop
  40b710:	8c430000 	lw	v1,0(v0)
  40b714:	3c020041 	lui	v0,0x41
  40b718:	2442f6f8 	addiu	v0,v0,-2312
  40b71c:	00602021 	move	a0,v1
  40b720:	00402821 	move	a1,v0
  40b724:	8fc60094 	lw	a2,148(s8)
[31m  40b728:	8f82813c 	lw	v0,fprintf[0m
  40b72c:	00000000 	nop
  40b730:	0040c821 	move	t9,v0
  40b734:	0320f809 	jalr	t9
  40b738:	00000000 	nop
  40b73c:	8fdc0018 	lw	gp,24(s8)
  40b740:	2402ffff 	li	v0,-1
  40b744:	08102e89 	j	40ba24 <iw_in_addr+0x394>
  40b748:	00000000 	nop
  40b74c:	27c20028 	addiu	v0,s8,40
  40b750:	8fc40098 	lw	a0,152(s8)
  40b754:	00402821 	move	a1,v0
  40b758:	0c102d0f 	jal	40b43c <iw_in_inet>
  40b75c:	00000000 	nop
  40b760:	8fdc0018 	lw	gp,24(s8)
  40b764:	04410012 	bgez	v0,40b7b0 <iw_in_addr+0x120>
  40b768:	00000000 	nop
  40b76c:	8f8280d4 	lw	v0,-32556(gp)
  40b770:	00000000 	nop
  40b774:	8c430000 	lw	v1,0(v0)
  40b778:	3c020041 	lui	v0,0x41
  40b77c:	2442f72c 	addiu	v0,v0,-2260
  40b780:	00602021 	move	a0,v1
  40b784:	00402821 	move	a1,v0
  40b788:	8fc60098 	lw	a2,152(s8)
[31m  40b78c:	8f82813c 	lw	v0,fprintf[0m
  40b790:	00000000 	nop
  40b794:	0040c821 	move	t9,v0
--
  40b830:	04400006 	bltz	v0,40b84c <iw_in_addr+0x1bc>
  40b834:	00000000 	nop
  40b838:	8fc20058 	lw	v0,88(s8)
  40b83c:	00000000 	nop
  40b840:	30420002 	andi	v0,v0,0x2
  40b844:	1440001c 	bnez	v0,40b8b8 <iw_in_addr+0x228>
  40b848:	00000000 	nop
  40b84c:	8f8280d4 	lw	v0,-32556(gp)
  40b850:	00000000 	nop
  40b854:	8c510000 	lw	s1,0(v0)
  40b858:	3c020041 	lui	v0,0x41
  40b85c:	2450f74c 	addiu	s0,v0,-2228
  40b860:	8f8280c4 	lw	v0,-32572(gp)
  40b864:	00000000 	nop
  40b868:	0040c821 	move	t9,v0
  40b86c:	0320f809 	jalr	t9
  40b870:	00000000 	nop
  40b874:	8fdc0018 	lw	gp,24(s8)
  40b878:	8c420000 	lw	v0,0(v0)
  40b87c:	00000000 	nop
  40b880:	afa20010 	sw	v0,16(sp)
  40b884:	02202021 	move	a0,s1
  40b888:	02002821 	move	a1,s0
  40b88c:	8fc60098 	lw	a2,152(s8)
  40b890:	8fc70094 	lw	a3,148(s8)
[31m  40b894:	8f82813c 	lw	v0,fprintf[0m
  40b898:	00000000 	nop
  40b89c:	0040c821 	move	t9,v0
--
  40b908:	a8460003 	swl	a2,3(v0)
  40b90c:	b8460000 	swr	a2,0(v0)
  40b910:	a8450007 	swl	a1,7(v0)
  40b914:	b8450004 	swr	a1,4(v0)
  40b918:	a844000b 	swl	a0,11(v0)
  40b91c:	b8440008 	swr	a0,8(v0)
  40b920:	a843000f 	swl	v1,15(v0)
  40b924:	b843000c 	swr	v1,12(v0)
  40b928:	08102e88 	j	40ba20 <iw_in_addr+0x390>
  40b92c:	00000000 	nop
  40b930:	8fc40090 	lw	a0,144(s8)
  40b934:	8fc50094 	lw	a1,148(s8)
  40b938:	0c102abf 	jal	40aafc <iw_check_mac_addr_type>
  40b93c:	00000000 	nop
  40b940:	8fdc0018 	lw	gp,24(s8)
  40b944:	04410012 	bgez	v0,40b990 <iw_in_addr+0x300>
  40b948:	00000000 	nop
  40b94c:	8f8280d4 	lw	v0,-32556(gp)
  40b950:	00000000 	nop
  40b954:	8c430000 	lw	v1,0(v0)
  40b958:	3c020041 	lui	v0,0x41
  40b95c:	2442f798 	addiu	v0,v0,-2152
  40b960:	00602021 	move	a0,v1
  40b964:	00402821 	move	a1,v0
  40b968:	8fc60094 	lw	a2,148(s8)
[31m  40b96c:	8f82813c 	lw	v0,fprintf[0m
  40b970:	00000000 	nop
  40b974:	0040c821 	move	t9,v0
--
  40b998:	afc20020 	sw	v0,32(s8)
  40b99c:	8fc2009c 	lw	v0,156(s8)
  40b9a0:	00000000 	nop
  40b9a4:	afc20024 	sw	v0,36(s8)
  40b9a8:	8fc20024 	lw	v0,36(s8)
  40b9ac:	24030001 	li	v1,1
  40b9b0:	a4430000 	sh	v1,0(v0)
  40b9b4:	8fc20024 	lw	v0,36(s8)
  40b9b8:	00000000 	nop
  40b9bc:	24420002 	addiu	v0,v0,2
  40b9c0:	8fc40020 	lw	a0,32(s8)
  40b9c4:	00402821 	move	a1,v0
  40b9c8:	0c102ce6 	jal	40b398 <iw_ether_aton>
  40b9cc:	00000000 	nop
  40b9d0:	8fdc0018 	lw	gp,24(s8)
  40b9d4:	14400012 	bnez	v0,40ba20 <iw_in_addr+0x390>
  40b9d8:	00000000 	nop
  40b9dc:	8f8280d4 	lw	v0,-32556(gp)
  40b9e0:	00000000 	nop
  40b9e4:	8c430000 	lw	v1,0(v0)
  40b9e8:	3c020041 	lui	v0,0x41
  40b9ec:	2442f7cc 	addiu	v0,v0,-2100
  40b9f0:	00602021 	move	a0,v1
  40b9f4:	00402821 	move	a1,v0
  40b9f8:	8fc60098 	lw	a2,152(s8)
[31m  40b9fc:	8f82813c 	lw	v0,fprintf[0m
  40ba00:	00000000 	nop
  40ba04:	0040c821 	move	t9,v0

[0m
[[0;33m*[0m] Function [0;33mfprintf[0m used [0;33m25[0m times [0;33mated_iwpriv[0m

