[0m
[[0;33m*[0m] Function [0;33mprintf[0m tear down of [0;33mautodiscover.cgi[0m

  400b54:	8fbc0010 	lw	gp,16(sp)
  400b58:	8f828040 	lw	v0,-32704(gp)
  400b5c:	8c440000 	lw	a0,0(v0)
  400b60:	3c050040 	lui	a1,0x40
  400b64:	24a51078 	addiu	a1,a1,4216
  400b68:	3c100040 	lui	s0,0x40
  400b6c:	8f998060 	lw	t9,-32672(gp)
  400b70:	0320f809 	jalr	t9
  400b74:	26061088 	addiu	a2,s0,4232
  400b78:	8fbc0010 	lw	gp,16(sp)
  400b7c:	26041088 	addiu	a0,s0,4232
  400b80:	3c050040 	lui	a1,0x40
  400b84:	8f998088 	lw	t9,-32632(gp)
  400b88:	0320f809 	jalr	t9
  400b8c:	24a51098 	addiu	a1,a1,4248
  400b90:	8fbc0010 	lw	gp,16(sp)
  400b94:	1040007d 	beqz	v0,400d8c <_ftext@@Base+0x45c>
  400b98:	00409021 	move	s2,v0
  400b9c:	24110001 	li	s1,1
  400ba0:	27b00018 	addiu	s0,sp,24
  400ba4:	3c130040 	lui	s3,0x40
  400ba8:	2673109c 	addiu	s3,s3,4252
  400bac:	10000007 	b	400bcc <_ftext@@Base+0x29c>
  400bb0:	0000a021 	move	s4,zero
  400bb4:	02602021 	move	a0,s3
[31m  400bb8:	8f998084 	lw	t9,printf[0m
  400bbc:	0320f809 	jalr	t9
  400bc0:	02002821 	move	a1,s0
--
  400cdc:	0320f809 	jalr	t9
  400ce0:	02803021 	move	a2,s4
  400ce4:	8fbc0010 	lw	gp,16(sp)
  400ce8:	8f828040 	lw	v0,-32704(gp)
  400cec:	8c440000 	lw	a0,0(v0)
  400cf0:	3c050040 	lui	a1,0x40
  400cf4:	24a51078 	addiu	a1,a1,4216
  400cf8:	8f998060 	lw	t9,-32672(gp)
  400cfc:	0320f809 	jalr	t9
  400d00:	02003021 	move	a2,s0
  400d04:	8fbc0010 	lw	gp,16(sp)
  400d08:	02002021 	move	a0,s0
  400d0c:	3c050040 	lui	a1,0x40
  400d10:	8f998088 	lw	t9,-32632(gp)
  400d14:	0320f809 	jalr	t9
  400d18:	24a51098 	addiu	a1,a1,4248
  400d1c:	8fbc0010 	lw	gp,16(sp)
  400d20:	1040001a 	beqz	v0,400d8c <_ftext@@Base+0x45c>
  400d24:	00409021 	move	s2,v0
  400d28:	24110001 	li	s1,1
  400d2c:	27b00018 	addiu	s0,sp,24
  400d30:	3c130040 	lui	s3,0x40
  400d34:	2673109c 	addiu	s3,s3,4252
  400d38:	10000006 	b	400d54 <_ftext@@Base+0x424>
  400d3c:	0000a021 	move	s4,zero
[31m  400d40:	8f998084 	lw	t9,printf[0m
  400d44:	0320f809 	jalr	t9
  400d48:	02002821 	move	a1,s0
--
  400d98:	248410c4 	addiu	a0,a0,4292
  400d9c:	8fbc0010 	lw	gp,16(sp)
  400da0:	3c040040 	lui	a0,0x40
  400da4:	8f998074 	lw	t9,-32652(gp)
  400da8:	0320f809 	jalr	t9
  400dac:	248410e4 	addiu	a0,a0,4324
  400db0:	8fbc0010 	lw	gp,16(sp)
  400db4:	3c040040 	lui	a0,0x40
  400db8:	8f998074 	lw	t9,-32652(gp)
  400dbc:	0320f809 	jalr	t9
  400dc0:	24841104 	addiu	a0,a0,4356
  400dc4:	8fbc0010 	lw	gp,16(sp)
  400dc8:	3c040040 	lui	a0,0x40
  400dcc:	8f998074 	lw	t9,-32652(gp)
  400dd0:	0320f809 	jalr	t9
  400dd4:	24841120 	addiu	a0,a0,4384
  400dd8:	8fbc0010 	lw	gp,16(sp)
  400ddc:	8f99808c 	lw	t9,-32628(gp)
  400de0:	0320f809 	jalr	t9
  400de4:	2404007b 	li	a0,123
  400de8:	8fbc0010 	lw	gp,16(sp)
  400dec:	3c100040 	lui	s0,0x40
  400df0:	2610109c 	addiu	s0,s0,4252
  400df4:	02002021 	move	a0,s0
  400df8:	3c050040 	lui	a1,0x40
[31m  400dfc:	8f998084 	lw	t9,printf[0m
  400e00:	0320f809 	jalr	t9
  400e04:	24a51134 	addiu	a1,a1,4404
  400e08:	8fbc0010 	lw	gp,16(sp)
  400e0c:	02002021 	move	a0,s0
  400e10:	3c050040 	lui	a1,0x40
[31m  400e14:	8f998084 	lw	t9,printf[0m
  400e18:	0320f809 	jalr	t9
  400e1c:	24a51148 	addiu	a1,a1,4424

[0m
[[0;33m*[0m] Function [0;33mprintf[0m used [0;33m4[0m times [0;33mautodiscover.cgi[0m

