[0m
[[0;33m*[0m] Function [0;33mstrcat[0m tear down of [0;33mxtables-multi[0m

  407a68:	24040020 	li	a0,32
  407a6c:	a0440000 	sb	a0,0(v0)
  407a70:	10000008 	b	407a94 <main@@Base+0x3bb4>
  407a74:	aca30010 	sw	v1,16(a1)
  407a78:	8f998048 	lw	t9,-32696(gp)
  407a7c:	10000002 	b	407a88 <main@@Base+0x3ba8>
  407a80:	00000000 	nop
  407a84:	8f998188 	lw	t9,-32376(gp)
  407a88:	0320f809 	jalr	t9
  407a8c:	24040020 	li	a0,32
  407a90:	8fbc0010 	lw	gp,16(sp)
  407a94:	32420040 	andi	v0,s2,0x40
  407a98:	10400045 	beqz	v0,407bb0 <main@@Base+0x3cd0>
  407a9c:	00000000 	nop
  407aa0:	92020053 	lbu	v0,83(s0)
  407aa4:	30420001 	andi	v0,v0,0x1
  407aa8:	10400004 	beqz	v0,407abc <main@@Base+0x3bdc>
  407aac:	24020021 	li	v0,33
  407ab0:	a3a20018 	sb	v0,24(sp)
  407ab4:	10000002 	b	407ac0 <main@@Base+0x3be0>
  407ab8:	a3a00019 	sb	zero,25(sp)
  407abc:	a3a00018 	sb	zero,24(sp)
  407ac0:	82020010 	lb	v0,16(s0)
  407ac4:	10400004 	beqz	v0,407ad8 <main@@Base+0x3bf8>
  407ac8:	27a40018 	addiu	a0,sp,24
[31m  407acc:	8f998398 	lw	t9,strcat[0m
  407ad0:	10000008 	b	407af4 <main@@Base+0x3c14>
  407ad4:	26050010 	addiu	a1,s0,16
[31m  407ad8:	8f998398 	lw	t9,strcat[0m
  407adc:	12200003 	beqz	s1,407aec <main@@Base+0x3c0c>
  407ae0:	3c050044 	lui	a1,0x44
--
  407af0:	24a5353c 	addiu	a1,a1,13628
  407af4:	0320f809 	jalr	t9
  407af8:	32530010 	andi	s3,s2,0x10
  407afc:	8fbc0010 	lw	gp,16(sp)
  407b00:	16600003 	bnez	s3,407b10 <main@@Base+0x3c30>
  407b04:	3c040044 	lui	a0,0x44
  407b08:	10000003 	b	407b18 <main@@Base+0x3c38>
  407b0c:	24843540 	addiu	a0,a0,13632
  407b10:	3c040044 	lui	a0,0x44
  407b14:	24843548 	addiu	a0,a0,13640
  407b18:	8f9985bc 	lw	t9,-31300(gp)
  407b1c:	0320f809 	jalr	t9
  407b20:	27a50018 	addiu	a1,sp,24
  407b24:	92020053 	lbu	v0,83(s0)
  407b28:	8fbc0010 	lw	gp,16(sp)
  407b2c:	30420002 	andi	v0,v0,0x2
  407b30:	10400004 	beqz	v0,407b44 <main@@Base+0x3c64>
  407b34:	24020021 	li	v0,33
  407b38:	a3a20018 	sb	v0,24(sp)
  407b3c:	10000002 	b	407b48 <main@@Base+0x3c68>
  407b40:	a3a00019 	sb	zero,25(sp)
  407b44:	a3a00018 	sb	zero,24(sp)
  407b48:	82020020 	lb	v0,32(s0)
  407b4c:	10400004 	beqz	v0,407b60 <main@@Base+0x3c80>
  407b50:	27a40018 	addiu	a0,sp,24
[31m  407b54:	8f998398 	lw	t9,strcat[0m
  407b58:	10000008 	b	407b7c <main@@Base+0x3c9c>
  407b5c:	26050020 	addiu	a1,s0,32
[31m  407b60:	8f998398 	lw	t9,strcat[0m
  407b64:	12200003 	beqz	s1,407b74 <main@@Base+0x3c94>
  407b68:	3c050044 	lui	a1,0x44
--
  407c50:	3c040044 	lui	a0,0x44
  407c54:	24843560 	addiu	a0,a0,13664
  407c58:	3c050044 	lui	a1,0x44
  407c5c:	8f9985bc 	lw	t9,-31300(gp)
  407c60:	10000021 	b	407ce8 <main@@Base+0x3e08>
  407c64:	24a53568 	addiu	a1,a1,13672
  407c68:	12200004 	beqz	s1,407c7c <main@@Base+0x3d9c>
  407c6c:	00000000 	nop
  407c70:	8f998438 	lw	t9,-31688(gp)
  407c74:	10000002 	b	407c80 <main@@Base+0x3da0>
  407c78:	00000000 	nop
  407c7c:	8f9981ac 	lw	t9,-32340(gp)
  407c80:	0320f809 	jalr	t9
  407c84:	02002021 	move	a0,s0
  407c88:	27a4002c 	addiu	a0,sp,44
  407c8c:	8fbc0010 	lw	gp,16(sp)
  407c90:	8f9985e0 	lw	t9,-31264(gp)
  407c94:	0320f809 	jalr	t9
  407c98:	00402821 	move	a1,v0
  407c9c:	8fbc0010 	lw	gp,16(sp)
  407ca0:	8f9981f4 	lw	t9,-32268(gp)
  407ca4:	0320f809 	jalr	t9
  407ca8:	26040008 	addiu	a0,s0,8
  407cac:	27a4002c 	addiu	a0,sp,44
  407cb0:	8fbc0010 	lw	gp,16(sp)
[31m  407cb4:	8f998398 	lw	t9,strcat[0m
  407cb8:	0320f809 	jalr	t9
  407cbc:	00402821 	move	a1,v0
--
  407d94:	3c040044 	lui	a0,0x44
  407d98:	24843560 	addiu	a0,a0,13664
  407d9c:	3c050044 	lui	a1,0x44
  407da0:	8f9985bc 	lw	t9,-31300(gp)
  407da4:	10000021 	b	407e2c <main@@Base+0x3f4c>
  407da8:	24a53568 	addiu	a1,a1,13672
  407dac:	12200004 	beqz	s1,407dc0 <main@@Base+0x3ee0>
  407db0:	00000000 	nop
  407db4:	8f998438 	lw	t9,-31688(gp)
  407db8:	10000002 	b	407dc4 <main@@Base+0x3ee4>
  407dbc:	00000000 	nop
  407dc0:	8f9981ac 	lw	t9,-32340(gp)
  407dc4:	0320f809 	jalr	t9
  407dc8:	26040004 	addiu	a0,s0,4
  407dcc:	27a4002c 	addiu	a0,sp,44
  407dd0:	8fbc0010 	lw	gp,16(sp)
  407dd4:	8f9985e0 	lw	t9,-31264(gp)
  407dd8:	0320f809 	jalr	t9
  407ddc:	00402821 	move	a1,v0
  407de0:	8fbc0010 	lw	gp,16(sp)
  407de4:	8f9981f4 	lw	t9,-32268(gp)
  407de8:	0320f809 	jalr	t9
  407dec:	2604000c 	addiu	a0,s0,12
  407df0:	27a4002c 	addiu	a0,sp,44
  407df4:	8fbc0010 	lw	gp,16(sp)
[31m  407df8:	8f998398 	lw	t9,strcat[0m
  407dfc:	0320f809 	jalr	t9
  407e00:	00402821 	move	a1,v0
--
  40ce5c:	24040020 	li	a0,32
  40ce60:	a0440000 	sb	a0,0(v0)
  40ce64:	10000008 	b	40ce88 <do_command4@@Base+0x4614>
  40ce68:	aca30010 	sw	v1,16(a1)
  40ce6c:	8f998048 	lw	t9,-32696(gp)
  40ce70:	10000002 	b	40ce7c <do_command4@@Base+0x4608>
  40ce74:	00000000 	nop
  40ce78:	8f998188 	lw	t9,-32376(gp)
  40ce7c:	0320f809 	jalr	t9
  40ce80:	24040020 	li	a0,32
  40ce84:	8fbc0010 	lw	gp,16(sp)
  40ce88:	32420040 	andi	v0,s2,0x40
  40ce8c:	10400045 	beqz	v0,40cfa4 <do_command4@@Base+0x4730>
  40ce90:	00000000 	nop
  40ce94:	92020084 	lbu	v0,132(s0)
  40ce98:	30420001 	andi	v0,v0,0x1
  40ce9c:	10400004 	beqz	v0,40ceb0 <do_command4@@Base+0x463c>
  40cea0:	24020021 	li	v0,33
  40cea4:	a3a20018 	sb	v0,24(sp)
  40cea8:	10000002 	b	40ceb4 <do_command4@@Base+0x4640>
  40ceac:	a3a00019 	sb	zero,25(sp)
  40ceb0:	a3a00018 	sb	zero,24(sp)
  40ceb4:	82020040 	lb	v0,64(s0)
  40ceb8:	10400004 	beqz	v0,40cecc <do_command4@@Base+0x4658>
  40cebc:	27a40018 	addiu	a0,sp,24
[31m  40cec0:	8f998398 	lw	t9,strcat[0m
  40cec4:	10000008 	b	40cee8 <do_command4@@Base+0x4674>
  40cec8:	26050040 	addiu	a1,s0,64
[31m  40cecc:	8f998398 	lw	t9,strcat[0m
  40ced0:	12200003 	beqz	s1,40cee0 <do_command4@@Base+0x466c>
  40ced4:	3c050044 	lui	a1,0x44
--
  40cee4:	24a5353c 	addiu	a1,a1,13628
  40cee8:	0320f809 	jalr	t9
  40ceec:	32530010 	andi	s3,s2,0x10
  40cef0:	8fbc0010 	lw	gp,16(sp)
  40cef4:	16600003 	bnez	s3,40cf04 <do_command4@@Base+0x4690>
  40cef8:	3c040044 	lui	a0,0x44
  40cefc:	10000003 	b	40cf0c <do_command4@@Base+0x4698>
  40cf00:	24843540 	addiu	a0,a0,13632
  40cf04:	3c040044 	lui	a0,0x44
  40cf08:	24843548 	addiu	a0,a0,13640
  40cf0c:	8f9985bc 	lw	t9,-31300(gp)
  40cf10:	0320f809 	jalr	t9
  40cf14:	27a50018 	addiu	a1,sp,24
  40cf18:	92020084 	lbu	v0,132(s0)
  40cf1c:	8fbc0010 	lw	gp,16(sp)
  40cf20:	30420002 	andi	v0,v0,0x2
  40cf24:	10400004 	beqz	v0,40cf38 <do_command4@@Base+0x46c4>
  40cf28:	24020021 	li	v0,33
  40cf2c:	a3a20018 	sb	v0,24(sp)
  40cf30:	10000002 	b	40cf3c <do_command4@@Base+0x46c8>
  40cf34:	a3a00019 	sb	zero,25(sp)
  40cf38:	a3a00018 	sb	zero,24(sp)
  40cf3c:	82020050 	lb	v0,80(s0)
  40cf40:	10400004 	beqz	v0,40cf54 <do_command4@@Base+0x46e0>
  40cf44:	27a40018 	addiu	a0,sp,24
[31m  40cf48:	8f998398 	lw	t9,strcat[0m
  40cf4c:	10000008 	b	40cf70 <do_command4@@Base+0x46fc>
  40cf50:	26050050 	addiu	a1,s0,80
[31m  40cf54:	8f998398 	lw	t9,strcat[0m
  40cf58:	12200003 	beqz	s1,40cf68 <do_command4@@Base+0x46f4>
  40cf5c:	3c050044 	lui	a1,0x44
--
  40d05c:	3c040044 	lui	a0,0x44
  40d060:	24843560 	addiu	a0,a0,13664
  40d064:	3c050044 	lui	a1,0x44
  40d068:	8f9985bc 	lw	t9,-31300(gp)
  40d06c:	10000021 	b	40d0f4 <do_command4@@Base+0x4880>
  40d070:	24a53568 	addiu	a1,a1,13672
  40d074:	12200004 	beqz	s1,40d088 <do_command4@@Base+0x4814>
  40d078:	00000000 	nop
  40d07c:	8f998470 	lw	t9,-31632(gp)
  40d080:	10000002 	b	40d08c <do_command4@@Base+0x4818>
  40d084:	00000000 	nop
  40d088:	8f9982f8 	lw	t9,-32008(gp)
  40d08c:	0320f809 	jalr	t9
  40d090:	02002021 	move	a0,s0
  40d094:	27a4002c 	addiu	a0,sp,44
  40d098:	8fbc0010 	lw	gp,16(sp)
  40d09c:	8f9985e0 	lw	t9,-31264(gp)
  40d0a0:	0320f809 	jalr	t9
  40d0a4:	00402821 	move	a1,v0
  40d0a8:	8fbc0010 	lw	gp,16(sp)
  40d0ac:	8f9985c8 	lw	t9,-31288(gp)
  40d0b0:	0320f809 	jalr	t9
  40d0b4:	02602021 	move	a0,s3
  40d0b8:	27a4002c 	addiu	a0,sp,44
  40d0bc:	8fbc0010 	lw	gp,16(sp)
[31m  40d0c0:	8f998398 	lw	t9,strcat[0m
  40d0c4:	0320f809 	jalr	t9
  40d0c8:	00402821 	move	a1,v0
--
  40d1b8:	3c040044 	lui	a0,0x44
  40d1bc:	24843560 	addiu	a0,a0,13664
  40d1c0:	3c050044 	lui	a1,0x44
  40d1c4:	8f9985bc 	lw	t9,-31300(gp)
  40d1c8:	10000021 	b	40d250 <do_command4@@Base+0x49dc>
  40d1cc:	24a53568 	addiu	a1,a1,13672
  40d1d0:	12200004 	beqz	s1,40d1e4 <do_command4@@Base+0x4970>
  40d1d4:	00000000 	nop
  40d1d8:	8f998470 	lw	t9,-31632(gp)
  40d1dc:	10000002 	b	40d1e8 <do_command4@@Base+0x4974>
  40d1e0:	00000000 	nop
  40d1e4:	8f9982f8 	lw	t9,-32008(gp)
  40d1e8:	0320f809 	jalr	t9
  40d1ec:	26040010 	addiu	a0,s0,16
  40d1f0:	27a4002c 	addiu	a0,sp,44
  40d1f4:	8fbc0010 	lw	gp,16(sp)
  40d1f8:	8f9985e0 	lw	t9,-31264(gp)
  40d1fc:	0320f809 	jalr	t9
  40d200:	00402821 	move	a1,v0
  40d204:	8fbc0010 	lw	gp,16(sp)
  40d208:	8f9985c8 	lw	t9,-31288(gp)
  40d20c:	0320f809 	jalr	t9
  40d210:	02602021 	move	a0,s3
  40d214:	27a4002c 	addiu	a0,sp,44
  40d218:	8fbc0010 	lw	gp,16(sp)
[31m  40d21c:	8f998398 	lw	t9,strcat[0m
  40d220:	0320f809 	jalr	t9
  40d224:	00402821 	move	a1,v0
--
  4139d4:	afbc0018 	sw	gp,24(sp)
  4139d8:	8f998358 	lw	t9,-31912(gp)
  4139dc:	8c90000c 	lw	s0,12(a0)
  4139e0:	0320f809 	jalr	t9
  4139e4:	00808821 	move	s1,a0
  4139e8:	24030001 	li	v1,1
  4139ec:	8e220008 	lw	v0,8(s1)
  4139f0:	8fbc0018 	lw	gp,24(sp)
  4139f4:	8c420008 	lw	v0,8(v0)
  4139f8:	10430015 	beq	v0,v1,413a50 <libxt_LED_init@@Base+0xb0>
  4139fc:	3c050044 	lui	a1,0x44
  413a00:	10400006 	beqz	v0,413a1c <libxt_LED_init@@Base+0x7c>
  413a04:	3c050044 	lui	a1,0x44
  413a08:	24040002 	li	a0,2
  413a0c:	1444002c 	bne	v0,a0,413ac0 <libxt_LED_init@@Base+0x120>
  413a10:	00000000 	nop
  413a14:	1000002a 	b	413ac0 <libxt_LED_init@@Base+0x120>
  413a18:	a203001b 	sb	v1,27(s0)
  413a1c:	8f9985e0 	lw	t9,-31264(gp)
  413a20:	02002021 	move	a0,s0
  413a24:	0320f809 	jalr	t9
  413a28:	24a57160 	addiu	a1,a1,29024
  413a2c:	02002021 	move	a0,s0
  413a30:	8fbc0018 	lw	gp,24(sp)
  413a34:	8e250000 	lw	a1,0(s1)
[31m  413a38:	8f998398 	lw	t9,strcat[0m
  413a3c:	8fbf002c 	lw	ra,44(sp)
  413a40:	8fb10028 	lw	s1,40(sp)
--
  41b62c:	3c040045 	lui	a0,0x45
  41b630:	8f9985bc 	lw	t9,-31300(gp)
  41b634:	24844138 	addiu	a0,a0,16696
  41b638:	1000001d 	b	41b6b0 <libxt_conntrack_init@@Base+0x2290>
  41b63c:	24a53568 	addiu	a1,a1,13672
  41b640:	10c00004 	beqz	a2,41b654 <libxt_conntrack_init@@Base+0x2234>
  41b644:	00000000 	nop
  41b648:	8f998438 	lw	t9,-31688(gp)
  41b64c:	10000002 	b	41b658 <libxt_conntrack_init@@Base+0x2238>
  41b650:	00602021 	move	a0,v1
  41b654:	8f9981ac 	lw	t9,-32340(gp)
  41b658:	0320f809 	jalr	t9
  41b65c:	00000000 	nop
  41b660:	27a40018 	addiu	a0,sp,24
  41b664:	8fbc0010 	lw	gp,16(sp)
  41b668:	8f9985e0 	lw	t9,-31264(gp)
  41b66c:	0320f809 	jalr	t9
  41b670:	00402821 	move	a1,v0
  41b674:	02002021 	move	a0,s0
  41b678:	8fbc0010 	lw	gp,16(sp)
  41b67c:	8f9981f4 	lw	t9,-32268(gp)
  41b680:	0320f809 	jalr	t9
  41b684:	27b00018 	addiu	s0,sp,24
  41b688:	02002021 	move	a0,s0
  41b68c:	8fbc0010 	lw	gp,16(sp)
[31m  41b690:	8f998398 	lw	t9,strcat[0m
  41b694:	0320f809 	jalr	t9
  41b698:	00402821 	move	a1,v0
--
  41f630:	8f9985bc 	lw	t9,-31300(gp)
  41f634:	3c040045 	lui	a0,0x45
  41f638:	0320f809 	jalr	t9
  41f63c:	2484a514 	addiu	a0,a0,-23276
  41f640:	1000001d 	b	41f6b8 <libxt_ipvs_init@@Base+0x170>
  41f644:	00000000 	nop
  41f648:	8f998470 	lw	t9,-31632(gp)
  41f64c:	10000003 	b	41f65c <libxt_ipvs_init@@Base+0x114>
  41f650:	00000000 	nop
  41f654:	8f9982f8 	lw	t9,-32008(gp)
  41f658:	00402021 	move	a0,v0
  41f65c:	0320f809 	jalr	t9
  41f660:	00000000 	nop
  41f664:	27a40018 	addiu	a0,sp,24
  41f668:	8fbc0010 	lw	gp,16(sp)
  41f66c:	8f9985e0 	lw	t9,-31264(gp)
  41f670:	0320f809 	jalr	t9
  41f674:	00402821 	move	a1,v0
  41f678:	8fbc0010 	lw	gp,16(sp)
  41f67c:	8f9985c8 	lw	t9,-31288(gp)
  41f680:	02002021 	move	a0,s0
  41f684:	0320f809 	jalr	t9
  41f688:	27b00018 	addiu	s0,sp,24
  41f68c:	02002021 	move	a0,s0
  41f690:	8fbc0010 	lw	gp,16(sp)
[31m  41f694:	8f998398 	lw	t9,strcat[0m
  41f698:	0320f809 	jalr	t9
  41f69c:	00402821 	move	a1,v0
--

0043cf9c <xtables_ip6mask_to_numeric@@Base>:
  43cf9c:	27bdffd8 	addiu	sp,sp,-40
  43cfa0:	afbf0024 	sw	ra,36(sp)
  43cfa4:	afb10020 	sw	s1,32(sp)
  43cfa8:	afb0001c 	sw	s0,28(sp)
  43cfac:	3c1c0047 	lui	gp,0x47
  43cfb0:	279c7ae0 	addiu	gp,gp,31456
  43cfb4:	afbc0010 	sw	gp,16(sp)
  43cfb8:	0c10f1cd 	jal	43c734 <xtables_ip6mask_to_cidr@@Base>
  43cfbc:	00808821 	move	s1,a0
  43cfc0:	2403ffff 	li	v1,-1
  43cfc4:	8fbc0010 	lw	gp,16(sp)
  43cfc8:	14430010 	bne	v0,v1,43d00c <xtables_ip6mask_to_numeric@@Base+0x70>
  43cfcc:	24030080 	li	v1,128
  43cfd0:	8f9985e0 	lw	t9,-31264(gp)
  43cfd4:	3c10004c 	lui	s0,0x4c
  43cfd8:	3c050045 	lui	a1,0x45
  43cfdc:	2604189c 	addiu	a0,s0,6300
  43cfe0:	0320f809 	jalr	t9
  43cfe4:	24a59918 	addiu	a1,a1,-26344
  43cfe8:	0c10f3dd 	jal	43cf74 <xtables_ip6addr_to_numeric@@Base>
  43cfec:	02202021 	move	a0,s1
  43cff0:	2604189c 	addiu	a0,s0,6300
  43cff4:	8fbc0010 	lw	gp,16(sp)
[31m  43cff8:	8f998398 	lw	t9,strcat[0m
  43cffc:	0320f809 	jalr	t9
  43d000:	00402821 	move	a1,v0

[0m
[[0;33m*[0m] Function [0;33mstrcat[0m used [0;33m16[0m times [0;33mxtables-multi[0m

