[0m
[[0;33m*[0m] Function [0;33mfprintf[0m tear down of [0;33mrhea[0m

  400b98:	24050001 	li	a1,1
  400b9c:	2406000c 	li	a2,12
  400ba0:	8f998040 	lw	t9,-32704(gp)
  400ba4:	0320f809 	jalr	t9
  400ba8:	02003821 	move	a3,s0
  400bac:	8fbc0018 	lw	gp,24(sp)
  400bb0:	3c040040 	lui	a0,0x40
  400bb4:	24841568 	addiu	a0,a0,5480
  400bb8:	24050001 	li	a1,1
  400bbc:	2406000c 	li	a2,12
  400bc0:	8f998040 	lw	t9,-32704(gp)
  400bc4:	0320f809 	jalr	t9
  400bc8:	02003821 	move	a3,s0
  400bcc:	8fbc0018 	lw	gp,24(sp)
  400bd0:	3c040040 	lui	a0,0x40
  400bd4:	24841578 	addiu	a0,a0,5496
  400bd8:	24050001 	li	a1,1
  400bdc:	24060002 	li	a2,2
  400be0:	8f998040 	lw	t9,-32704(gp)
  400be4:	0320f809 	jalr	t9
  400be8:	02003821 	move	a3,s0
  400bec:	8fbc0018 	lw	gp,24(sp)
  400bf0:	02002021 	move	a0,s0
  400bf4:	3c050040 	lui	a1,0x40
  400bf8:	24a5157c 	addiu	a1,a1,5500
[31m  400bfc:	8f99806c 	lw	t9,fprintf[0m
  400c00:	0320f809 	jalr	t9
  400c04:	02203021 	move	a2,s1
--
  400cc8:	24050001 	li	a1,1
  400ccc:	2406000c 	li	a2,12
  400cd0:	8f998040 	lw	t9,-32704(gp)
  400cd4:	0320f809 	jalr	t9
  400cd8:	02003821 	move	a3,s0
  400cdc:	8fbc0018 	lw	gp,24(sp)
  400ce0:	3c040040 	lui	a0,0x40
  400ce4:	24841568 	addiu	a0,a0,5480
  400ce8:	24050001 	li	a1,1
  400cec:	2406000c 	li	a2,12
  400cf0:	8f998040 	lw	t9,-32704(gp)
  400cf4:	0320f809 	jalr	t9
  400cf8:	02003821 	move	a3,s0
  400cfc:	8fbc0018 	lw	gp,24(sp)
  400d00:	3c040040 	lui	a0,0x40
  400d04:	24841578 	addiu	a0,a0,5496
  400d08:	24050001 	li	a1,1
  400d0c:	24060002 	li	a2,2
  400d10:	8f998040 	lw	t9,-32704(gp)
  400d14:	0320f809 	jalr	t9
  400d18:	02003821 	move	a3,s0
  400d1c:	8fbc0018 	lw	gp,24(sp)
  400d20:	02002021 	move	a0,s0
  400d24:	3c050040 	lui	a1,0x40
  400d28:	24a5158c 	addiu	a1,a1,5516
[31m  400d2c:	8f99806c 	lw	t9,fprintf[0m
  400d30:	0320f809 	jalr	t9
  400d34:	02203021 	move	a2,s1
--
  40105c:	8fa50248 	lw	a1,584(sp)
  401060:	8f998048 	lw	t9,-32696(gp)
  401064:	0320f809 	jalr	t9
  401068:	2404007d 	li	a0,125
  40106c:	100000a2 	b	4012f8 <_ftext@@Base+0x998>
  401070:	00000000 	nop
  401074:	26101530 	addiu	s0,s0,5424
  401078:	02002021 	move	a0,s0
  40107c:	3c050040 	lui	a1,0x40
  401080:	8f998064 	lw	t9,-32668(gp)
  401084:	0320f809 	jalr	t9
  401088:	24a516a0 	addiu	a1,a1,5792
  40108c:	8fbc0010 	lw	gp,16(sp)
  401090:	1440003d 	bnez	v0,401188 <_ftext@@Base+0x828>
  401094:	02002021 	move	a0,s0
  401098:	3c050040 	lui	a1,0x40
  40109c:	8f998064 	lw	t9,-32668(gp)
  4010a0:	0320f809 	jalr	t9
  4010a4:	24a516a4 	addiu	a1,a1,5796
  4010a8:	8fbc0010 	lw	gp,16(sp)
  4010ac:	14400030 	bnez	v0,401170 <_ftext@@Base+0x810>
  4010b0:	3c050040 	lui	a1,0x40
  4010b4:	8f82804c 	lw	v0,-32692(gp)
  4010b8:	8c440000 	lw	a0,0(v0)
  4010bc:	24a516a8 	addiu	a1,a1,5800
[31m  4010c0:	8f99806c 	lw	t9,fprintf[0m
  4010c4:	0320f809 	jalr	t9
  4010c8:	02003021 	move	a2,s0

[0m
[[0;33m*[0m] Function [0;33mfprintf[0m used [0;33m3[0m times [0;33mrhea[0m

