[0m
[[0;33m*[0m] Function [0;33mfprintf[0m tear down of [0;33mtsa[0m

  4146b0:	02002021 	move	a0,s0
  4146b4:	02002821 	move	a1,s0
  4146b8:	00003821 	move	a3,zero
  4146bc:	8fbc0018 	lw	gp,24(sp)
  4146c0:	02402021 	move	a0,s2
  4146c4:	8f998250 	lw	t9,-32176(gp)
  4146c8:	0320f809 	jalr	t9
  4146cc:	00403021 	move	a2,v0
  4146d0:	8fbc0018 	lw	gp,24(sp)
  4146d4:	0441ffaa 	bgez	v0,414580 <initLog@@Base+0x110>
  4146d8:	00408021 	move	s0,v0
  4146dc:	8f9980a0 	lw	t9,-32608(gp)
  4146e0:	8f8280e8 	lw	v0,-32536(gp)
  4146e4:	8c520000 	lw	s2,0(v0)
  4146e8:	0320f809 	jalr	t9
  4146ec:	00000000 	nop
  4146f0:	8fbc0018 	lw	gp,24(sp)
  4146f4:	8c440000 	lw	a0,0(v0)
  4146f8:	8f998318 	lw	t9,-31976(gp)
  4146fc:	0320f809 	jalr	t9
  414700:	00000000 	nop
  414704:	3c050042 	lui	a1,0x42
  414708:	02402021 	move	a0,s2
  41470c:	8fbc0018 	lw	gp,24(sp)
  414710:	24a59984 	addiu	a1,a1,-26236
[31m  414714:	8f998214 	lw	t9,fprintf[0m
  414718:	0320f809 	jalr	t9
  41471c:	00403021 	move	a2,v0
  414720:	8fbc0018 	lw	gp,24(sp)
  414724:	8f99804c 	lw	t9,-32692(gp)
  414728:	8e24a200 	lw	a0,-24064(s1)
  41472c:	0320f809 	jalr	t9
  414730:	00000000 	nop
  414734:	2402ffff 	li	v0,-1
  414738:	1000ff91 	b	414580 <initLog@@Base+0x110>
  41473c:	ae22a200 	sw	v0,-24064(s1)
  414740:	8f9980a0 	lw	t9,-32608(gp)
  414744:	8f8280e8 	lw	v0,-32536(gp)
  414748:	8c520000 	lw	s2,0(v0)
  41474c:	0320f809 	jalr	t9
  414750:	2410ffff 	li	s0,-1
  414754:	8fbc0018 	lw	gp,24(sp)
  414758:	8c440000 	lw	a0,0(v0)
  41475c:	8f998318 	lw	t9,-31976(gp)
  414760:	0320f809 	jalr	t9
  414764:	00000000 	nop
  414768:	3c050042 	lui	a1,0x42
  41476c:	02402021 	move	a0,s2
  414770:	8fbc0018 	lw	gp,24(sp)
  414774:	24a5996c 	addiu	a1,a1,-26260
[31m  414778:	8f998214 	lw	t9,fprintf[0m
  41477c:	0320f809 	jalr	t9
  414780:	00403021 	move	a2,v0
--
  414794:	3c040042 	lui	a0,0x42
  414798:	8f9980c0 	lw	t9,-32576(gp)
  41479c:	24849950 	addiu	a0,a0,-26288
  4147a0:	8c470000 	lw	a3,0(v0)
  4147a4:	24050001 	li	a1,1
  4147a8:	24060019 	li	a2,25
  4147ac:	0320f809 	jalr	t9
  4147b0:	2410ffff 	li	s0,-1
  4147b4:	8fbc0018 	lw	gp,24(sp)
  4147b8:	1000ffda 	b	414724 <initLog@@Base+0x2b4>
  4147bc:	00000000 	nop
  4147c0:	8f9980a0 	lw	t9,-32608(gp)
  4147c4:	8f8280e8 	lw	v0,-32536(gp)
  4147c8:	8c520000 	lw	s2,0(v0)
  4147cc:	0320f809 	jalr	t9
  4147d0:	2410ffff 	li	s0,-1
  4147d4:	8fbc0018 	lw	gp,24(sp)
  4147d8:	8c440000 	lw	a0,0(v0)
  4147dc:	8f998318 	lw	t9,-31976(gp)
  4147e0:	0320f809 	jalr	t9
  4147e4:	00000000 	nop
  4147e8:	3c050041 	lui	a1,0x41
  4147ec:	02402021 	move	a0,s2
  4147f0:	8fbc0018 	lw	gp,24(sp)
  4147f4:	24a572c4 	addiu	a1,a1,29380
[31m  4147f8:	8f998214 	lw	t9,fprintf[0m
  4147fc:	0320f809 	jalr	t9
  414800:	00403021 	move	a2,v0
--
  414fe0:	90430000 	lbu	v1,0(v0)
  414fe4:	8f99812c 	lw	t9,-32468(gp)
  414fe8:	00602021 	move	a0,v1
  414fec:	0320f809 	jalr	t9
  414ff0:	afa30078 	sw	v1,120(sp)
  414ff4:	8fa30078 	lw	v1,120(sp)
  414ff8:	8fbc0010 	lw	gp,16(sp)
  414ffc:	00031e00 	sll	v1,v1,0x18
  415000:	14400002 	bnez	v0,41500c <show_packet@@Base+0x170>
  415004:	00031e03 	sra	v1,v1,0x18
  415008:	24030020 	li	v1,32
  41500c:	a2030000 	sb	v1,0(s0)
  415010:	3a240007 	xori	a0,s1,0x7
  415014:	26100001 	addiu	s0,s0,1
  415018:	26310001 	addiu	s1,s1,1
  41501c:	26030001 	addiu	v1,s0,1
  415020:	0232102a 	slt	v0,s1,s2
  415024:	10400003 	beqz	v0,415034 <show_packet@@Base+0x198>
  415028:	0064800a 	0x64800a
  41502c:	1634ffec 	bne	s1,s4,414fe0 <show_packet@@Base+0x144>
  415030:	02711021 	addu	v0,s3,s1
  415034:	8f8280e8 	lw	v0,-32536(gp)
  415038:	3c050042 	lui	a1,0x42
  41503c:	a2000000 	sb	zero,0(s0)
  415040:	24a59a44 	addiu	a1,a1,-26044
[31m  415044:	8f998214 	lw	t9,fprintf[0m
  415048:	8fa6006c 	lw	a2,108(sp)
  41504c:	8c440000 	lw	a0,0(v0)

[0m
[[0;33m*[0m] Function [0;33mfprintf[0m used [0;33m4[0m times [0;33mtsa[0m

