[0m
[[0;33m*[0m] Function [0;33mfprintf[0m tear down of [0;33mhnap_service[0m

  40279c:	3c020042 	lui	v0,0x42
  4027a0:	12800005 	beqz	s4,4027b8 <_ftext@@Base+0xb78>
  4027a4:	00000000 	nop
  4027a8:	82820000 	lb	v0,0(s4)
  4027ac:	14400011 	bnez	v0,4027f4 <_ftext@@Base+0xbb4>
  4027b0:	3c050042 	lui	a1,0x42
  4027b4:	3c020042 	lui	v0,0x42
  4027b8:	8c44cbc4 	lw	a0,-13372(v0)
  4027bc:	2442cbc4 	addiu	v0,v0,-13372
  4027c0:	8c430004 	lw	v1,4(v0)
  4027c4:	8c420008 	lw	v0,8(v0)
  4027c8:	aa040000 	swl	a0,0(s0)
  4027cc:	ba040003 	swr	a0,3(s0)
  4027d0:	aa030004 	swl	v1,4(s0)
  4027d4:	ba030007 	swr	v1,7(s0)
  4027d8:	aa020008 	swl	v0,8(s0)
  4027dc:	ba02000b 	swr	v0,11(s0)
  4027e0:	8f9981c0 	lw	t9,-32320(gp)
  4027e4:	0320f809 	jalr	t9
  4027e8:	02a02021 	move	a0,s5
  4027ec:	10000099 	b	402a54 <_ftext@@Base+0xe14>
  4027f0:	02c01021 	move	v0,s6
  4027f4:	8f9780b4 	lw	s7,-32588(gp)
  4027f8:	8ee40000 	lw	a0,0(s7)
  4027fc:	24a5cc78 	addiu	a1,a1,-13192
[31m  402800:	8f998190 	lw	t9,fprintf[0m
  402804:	0320f809 	jalr	t9
  402808:	02603021 	move	a2,s3
  40280c:	8fbc0010 	lw	gp,16(sp)
  402810:	8ee40000 	lw	a0,0(s7)
  402814:	3c050042 	lui	a1,0x42
  402818:	24a5cc98 	addiu	a1,a1,-13160
[31m  40281c:	8f998190 	lw	t9,fprintf[0m
  402820:	0320f809 	jalr	t9
  402824:	02803021 	move	a2,s4
  402828:	8fbc0010 	lw	gp,16(sp)
  40282c:	8ee40000 	lw	a0,0(s7)
  402830:	3c050042 	lui	a1,0x42
  402834:	24a5ccb4 	addiu	a1,a1,-13132
[31m  402838:	8f998190 	lw	t9,fprintf[0m
  40283c:	0320f809 	jalr	t9
  402840:	02403021 	move	a2,s2
--
  40298c:	8f99826c 	lw	t9,-32148(gp)
  402990:	0320f809 	jalr	t9
  402994:	00402821 	move	a1,v0
  402998:	8fbc0010 	lw	gp,16(sp)
  40299c:	27b20164 	addiu	s2,sp,356
  4029a0:	02402021 	move	a0,s2
  4029a4:	3c050042 	lui	a1,0x42
  4029a8:	24a5ccdc 	addiu	a1,a1,-13092
  4029ac:	02803021 	move	a2,s4
  4029b0:	8f9980c0 	lw	t9,-32576(gp)
  4029b4:	0320f809 	jalr	t9
  4029b8:	02603821 	move	a3,s3
  4029bc:	8fbc0010 	lw	gp,16(sp)
  4029c0:	02402021 	move	a0,s2
  4029c4:	27a50018 	addiu	a1,sp,24
  4029c8:	02e03021 	move	a2,s7
  4029cc:	8f9980ac 	lw	t9,-32596(gp)
  4029d0:	0320f809 	jalr	t9
  4029d4:	02203821 	move	a3,s1
  4029d8:	8fbc0010 	lw	gp,16(sp)
  4029dc:	00408821 	move	s1,v0
  4029e0:	8f8280b4 	lw	v0,-32588(gp)
  4029e4:	8c440000 	lw	a0,0(v0)
  4029e8:	3c050042 	lui	a1,0x42
  4029ec:	24a5cce4 	addiu	a1,a1,-13084
[31m  4029f0:	8f998190 	lw	t9,fprintf[0m
  4029f4:	0320f809 	jalr	t9
  4029f8:	02203021 	move	a2,s1
--
  402c14:	2484cd3c 	addiu	a0,a0,-12996
  402c18:	8fbc0020 	lw	gp,32(sp)
  402c1c:	8f998080 	lw	t9,-32640(gp)
  402c20:	0320f809 	jalr	t9
  402c24:	00402021 	move	a0,v0
  402c28:	8fbc0020 	lw	gp,32(sp)
  402c2c:	00408821 	move	s1,v0
  402c30:	3c020002 	lui	v0,0x2
  402c34:	0222102a 	slt	v0,s1,v0
  402c38:	10400212 	beqz	v0,403484 <main@@Base+0x9c4>
  402c3c:	2402ffff 	li	v0,-1
  402c40:	27b00028 	addiu	s0,sp,40
  402c44:	02002021 	move	a0,s0
  402c48:	24050001 	li	a1,1
  402c4c:	8f828164 	lw	v0,-32412(gp)
  402c50:	8c470000 	lw	a3,0(v0)
  402c54:	8f998114 	lw	t9,-32492(gp)
  402c58:	0320f809 	jalr	t9
  402c5c:	02203021 	move	a2,s1
  402c60:	8fbc0020 	lw	gp,32(sp)
  402c64:	3c150042 	lui	s5,0x42
  402c68:	26b5ccb0 	addiu	s5,s5,-13136
  402c6c:	8f9380b4 	lw	s3,-32588(gp)
  402c70:	8e640000 	lw	a0,0(s3)
  402c74:	02a02821 	move	a1,s5
[31m  402c78:	8f998190 	lw	t9,fprintf[0m
  402c7c:	0320f809 	jalr	t9
  402c80:	02003021 	move	a2,s0
--
  402cbc:	00403821 	move	a3,v0
  402cc0:	8fbc0020 	lw	gp,32(sp)
  402cc4:	8f9980e4 	lw	t9,-32540(gp)
  402cc8:	0320f809 	jalr	t9
  402ccc:	02402021 	move	a0,s2
  402cd0:	8fbc0020 	lw	gp,32(sp)
  402cd4:	3c120002 	lui	s2,0x2
  402cd8:	36510004 	ori	s1,s2,0x4
  402cdc:	02002021 	move	a0,s0
  402ce0:	00002821 	move	a1,zero
  402ce4:	8f9980fc 	lw	t9,-32516(gp)
  402ce8:	0320f809 	jalr	t9
  402cec:	02203021 	move	a2,s1
  402cf0:	02118821 	addu	s1,s0,s1
  402cf4:	36520024 	ori	s2,s2,0x24
  402cf8:	02128021 	addu	s0,s0,s2
  402cfc:	2684cd4c 	addiu	a0,s4,-12980
  402d00:	02202821 	move	a1,s1
  402d04:	0c1008a0 	jal	402280 <_ftext@@Base+0x640>
  402d08:	02003021 	move	a2,s0
  402d0c:	8fbc0020 	lw	gp,32(sp)
  402d10:	00409021 	move	s2,v0
  402d14:	8e640000 	lw	a0,0(s3)
  402d18:	3c050042 	lui	a1,0x42
  402d1c:	24a5cd64 	addiu	a1,a1,-12956
[31m  402d20:	8f998190 	lw	t9,fprintf[0m
  402d24:	0320f809 	jalr	t9
  402d28:	02203021 	move	a2,s1
  402d2c:	8fbc0020 	lw	gp,32(sp)
  402d30:	8e640000 	lw	a0,0(s3)
  402d34:	3c050042 	lui	a1,0x42
  402d38:	24a5cd84 	addiu	a1,a1,-12924
[31m  402d3c:	8f998190 	lw	t9,fprintf[0m
  402d40:	0320f809 	jalr	t9
  402d44:	02003021 	move	a2,s0
--
  402e7c:	0320f809 	jalr	t9
  402e80:	2484cf10 	addiu	a0,a0,-12528
  402e84:	8fbc0020 	lw	gp,32(sp)
  402e88:	3c040042 	lui	a0,0x42
  402e8c:	8f998208 	lw	t9,-32248(gp)
  402e90:	0320f809 	jalr	t9
  402e94:	2484cf7c 	addiu	a0,a0,-12420
  402e98:	8fbc0020 	lw	gp,32(sp)
  402e9c:	3c040042 	lui	a0,0x42
  402ea0:	2484cc04 	addiu	a0,a0,-13308
  402ea4:	8f998254 	lw	t9,-32172(gp)
  402ea8:	0320f809 	jalr	t9
  402eac:	02602821 	move	a1,s3
  402eb0:	8fbc0020 	lw	gp,32(sp)
  402eb4:	8f9480b4 	lw	s4,-32588(gp)
  402eb8:	3c040042 	lui	a0,0x42
  402ebc:	2484cf80 	addiu	a0,a0,-12416
  402ec0:	24050001 	li	a1,1
  402ec4:	8e870000 	lw	a3,0(s4)
  402ec8:	8f998094 	lw	t9,-32620(gp)
  402ecc:	0320f809 	jalr	t9
  402ed0:	24060022 	li	a2,34
  402ed4:	8fbc0020 	lw	gp,32(sp)
  402ed8:	8e840000 	lw	a0,0(s4)
  402edc:	02a02821 	move	a1,s5
[31m  402ee0:	8f998190 	lw	t9,fprintf[0m
  402ee4:	0320f809 	jalr	t9
  402ee8:	02603021 	move	a2,s3
--
  403104:	2484cf10 	addiu	a0,a0,-12528
  403108:	8fbc0020 	lw	gp,32(sp)
  40310c:	3c040042 	lui	a0,0x42
  403110:	8f998208 	lw	t9,-32248(gp)
  403114:	0320f809 	jalr	t9
  403118:	2484cf7c 	addiu	a0,a0,-12420
  40311c:	8fbc0020 	lw	gp,32(sp)
  403120:	3c040042 	lui	a0,0x42
  403124:	2484cc04 	addiu	a0,a0,-13308
  403128:	8f998254 	lw	t9,-32172(gp)
  40312c:	0320f809 	jalr	t9
  403130:	02402821 	move	a1,s2
  403134:	8fbc0020 	lw	gp,32(sp)
  403138:	8f9380b4 	lw	s3,-32588(gp)
  40313c:	3c040042 	lui	a0,0x42
  403140:	2484cf80 	addiu	a0,a0,-12416
  403144:	24050001 	li	a1,1
  403148:	8e670000 	lw	a3,0(s3)
  40314c:	8f998094 	lw	t9,-32620(gp)
  403150:	0320f809 	jalr	t9
  403154:	24060022 	li	a2,34
  403158:	8fbc0020 	lw	gp,32(sp)
  40315c:	8e640000 	lw	a0,0(s3)
  403160:	3c050042 	lui	a1,0x42
  403164:	24a5ccb0 	addiu	a1,a1,-13136
[31m  403168:	8f998190 	lw	t9,fprintf[0m
  40316c:	0320f809 	jalr	t9
  403170:	02403021 	move	a2,s2
--
  404114:	02202021 	move	a0,s1
  404118:	3c050042 	lui	a1,0x42
  40411c:	8f998050 	lw	t9,-32688(gp)
  404120:	0320f809 	jalr	t9
  404124:	24a5cbbc 	addiu	a1,a1,-13380
  404128:	8fbc0018 	lw	gp,24(sp)
  40412c:	10400284 	beqz	v0,404b40 <Login@@Base+0xb70>
  404130:	00409821 	move	s3,v0
  404134:	00402021 	move	a0,v0
  404138:	3c050042 	lui	a1,0x42
  40413c:	8f998138 	lw	t9,-32456(gp)
  404140:	0320f809 	jalr	t9
  404144:	24a5d4b0 	addiu	a1,a1,-11088
  404148:	8fbc0018 	lw	gp,24(sp)
  40414c:	10400005 	beqz	v0,404164 <Login@@Base+0x194>
  404150:	27a40074 	addiu	a0,sp,116
  404154:	8f99826c 	lw	t9,-32148(gp)
  404158:	0320f809 	jalr	t9
  40415c:	00402821 	move	a1,v0
  404160:	8fbc0018 	lw	gp,24(sp)
  404164:	27b40074 	addiu	s4,sp,116
  404168:	8f8280b4 	lw	v0,-32588(gp)
  40416c:	8c440000 	lw	a0,0(v0)
  404170:	3c050042 	lui	a1,0x42
  404174:	24a5d4b8 	addiu	a1,a1,-11080
[31m  404178:	8f998190 	lw	t9,fprintf[0m
  40417c:	0320f809 	jalr	t9
  404180:	02803021 	move	a2,s4
--
  4043cc:	27a40020 	addiu	a0,sp,32
  4043d0:	24050020 	li	a1,32
  4043d4:	3c060042 	lui	a2,0x42
  4043d8:	24c6cc04 	addiu	a2,a2,-13308
  4043dc:	3c070042 	lui	a3,0x42
  4043e0:	8f99824c 	lw	t9,-32180(gp)
  4043e4:	0320f809 	jalr	t9
  4043e8:	24e7cc08 	addiu	a3,a3,-13304
  4043ec:	8fbc0018 	lw	gp,24(sp)
  4043f0:	12200006 	beqz	s1,40440c <Login@@Base+0x43c>
  4043f4:	00000000 	nop
  4043f8:	27a40044 	addiu	a0,sp,68
  4043fc:	8f99826c 	lw	t9,-32148(gp)
  404400:	0320f809 	jalr	t9
  404404:	02202821 	move	a1,s1
  404408:	8fbc0018 	lw	gp,24(sp)
  40440c:	8f9e80b4 	lw	s8,-32588(gp)
  404410:	8fc40000 	lw	a0,0(s8)
  404414:	3c050042 	lui	a1,0x42
  404418:	24a5d4f0 	addiu	a1,a1,-11024
  40441c:	27a30020 	addiu	v1,sp,32
  404420:	3c020001 	lui	v0,0x1
  404424:	34424a20 	ori	v0,v0,0x4a20
  404428:	005d1021 	addu	v0,v0,sp
  40442c:	ac430000 	sw	v1,0(v0)
[31m  404430:	8f998190 	lw	t9,fprintf[0m
  404434:	0320f809 	jalr	t9
  404438:	00603021 	move	a2,v1
  40443c:	8fbc0018 	lw	gp,24(sp)
  404440:	27a30044 	addiu	v1,sp,68
  404444:	3c020001 	lui	v0,0x1
  404448:	34424a28 	ori	v0,v0,0x4a28
  40444c:	005d1021 	addu	v0,v0,sp
  404450:	ac430000 	sw	v1,0(v0)
  404454:	8fc40000 	lw	a0,0(s8)
  404458:	3c050042 	lui	a1,0x42
  40445c:	24a5d500 	addiu	a1,a1,-11008
[31m  404460:	8f998190 	lw	t9,fprintf[0m
  404464:	0320f809 	jalr	t9
  404468:	00603021 	move	a2,v1
--
  404544:	8f998274 	lw	t9,-32140(gp)
  404548:	0320f809 	jalr	t9
  40454c:	00000000 	nop
  404550:	8fbc0018 	lw	gp,24(sp)
  404554:	27a201b8 	addiu	v0,sp,440
  404558:	3c030001 	lui	v1,0x1
  40455c:	34634a24 	ori	v1,v1,0x4a24
  404560:	007d1821 	addu	v1,v1,sp
  404564:	ac620000 	sw	v0,0(v1)
  404568:	02202021 	move	a0,s1
  40456c:	3c050042 	lui	a1,0x42
  404570:	24a5ccdc 	addiu	a1,a1,-13092
  404574:	00403021 	move	a2,v0
  404578:	8f9980c0 	lw	t9,-32576(gp)
  40457c:	0320f809 	jalr	t9
  404580:	02603821 	move	a3,s3
  404584:	8fbc0018 	lw	gp,24(sp)
  404588:	27a201dc 	addiu	v0,sp,476
  40458c:	3c030001 	lui	v1,0x1
  404590:	34634a20 	ori	v1,v1,0x4a20
  404594:	007d1821 	addu	v1,v1,sp
  404598:	ac620000 	sw	v0,0(v1)
  40459c:	8fc40000 	lw	a0,0(s8)
  4045a0:	3c050042 	lui	a1,0x42
  4045a4:	24a5d514 	addiu	a1,a1,-10988
[31m  4045a8:	8f998190 	lw	t9,fprintf[0m
  4045ac:	0320f809 	jalr	t9
  4045b0:	00403021 	move	a2,v0
  4045b4:	8fbc0018 	lw	gp,24(sp)
  4045b8:	8fc40000 	lw	a0,0(s8)
  4045bc:	3c050042 	lui	a1,0x42
  4045c0:	3c030001 	lui	v1,0x1
  4045c4:	34634a24 	ori	v1,v1,0x4a24
  4045c8:	007d1821 	addu	v1,v1,sp
  4045cc:	8c660000 	lw	a2,0(v1)
[31m  4045d0:	8f998190 	lw	t9,fprintf[0m
  4045d4:	0320f809 	jalr	t9
  4045d8:	24a5d528 	addiu	a1,a1,-10968
  4045dc:	8fbc0018 	lw	gp,24(sp)
  4045e0:	8fc40000 	lw	a0,0(s8)
  4045e4:	3c050042 	lui	a1,0x42
  4045e8:	24a5d53c 	addiu	a1,a1,-10948
[31m  4045ec:	8f998190 	lw	t9,fprintf[0m
  4045f0:	0320f809 	jalr	t9
  4045f4:	02603021 	move	a2,s3
--
  40463c:	007d1821 	addu	v1,v1,sp
  404640:	8c640000 	lw	a0,0(v1)
  404644:	02602821 	move	a1,s3
  404648:	02203021 	move	a2,s1
  40464c:	8f99825c 	lw	t9,-32164(gp)
  404650:	0320f809 	jalr	t9
  404654:	00403821 	move	a3,v0
  404658:	8fbc0018 	lw	gp,24(sp)
  40465c:	3c110042 	lui	s1,0x42
  404660:	2631d550 	addiu	s1,s1,-10928
  404664:	27b30104 	addiu	s3,sp,260
  404668:	8fa20130 	lw	v0,304(sp)
  40466c:	afa20010 	sw	v0,16(sp)
  404670:	8fa20134 	lw	v0,308(sp)
  404674:	afa20014 	sw	v0,20(sp)
  404678:	02602021 	move	a0,s3
  40467c:	8fa60128 	lw	a2,296(sp)
  404680:	8fa7012c 	lw	a3,300(sp)
  404684:	8f9980c0 	lw	t9,-32576(gp)
  404688:	0320f809 	jalr	t9
  40468c:	02202821 	move	a1,s1
  404690:	8fbc0018 	lw	gp,24(sp)
  404694:	8fc40000 	lw	a0,0(s8)
  404698:	3c050042 	lui	a1,0x42
  40469c:	24a5d564 	addiu	a1,a1,-10908
[31m  4046a0:	8f998190 	lw	t9,fprintf[0m
  4046a4:	0320f809 	jalr	t9
  4046a8:	02603021 	move	a2,s3
--
  40470c:	007d1821 	addu	v1,v1,sp
  404710:	8c640000 	lw	a0,0(v1)
  404714:	3c030001 	lui	v1,0x1
  404718:	34634a24 	ori	v1,v1,0x4a24
  40471c:	007d1821 	addu	v1,v1,sp
  404720:	8c650000 	lw	a1,0(v1)
  404724:	02603021 	move	a2,s3
  404728:	8f99825c 	lw	t9,-32164(gp)
  40472c:	0320f809 	jalr	t9
  404730:	00403821 	move	a3,v0
  404734:	8fbc0018 	lw	gp,24(sp)
  404738:	8fa20130 	lw	v0,304(sp)
  40473c:	afa20010 	sw	v0,16(sp)
  404740:	8fa20134 	lw	v0,308(sp)
  404744:	afa20014 	sw	v0,20(sp)
  404748:	02802021 	move	a0,s4
  40474c:	8fa60128 	lw	a2,296(sp)
  404750:	8fa7012c 	lw	a3,300(sp)
  404754:	8f9980c0 	lw	t9,-32576(gp)
  404758:	0320f809 	jalr	t9
  40475c:	02202821 	move	a1,s1
  404760:	8fbc0018 	lw	gp,24(sp)
  404764:	8fc40000 	lw	a0,0(s8)
  404768:	3c050042 	lui	a1,0x42
  40476c:	24a5d578 	addiu	a1,a1,-10888
[31m  404770:	8f998190 	lw	t9,fprintf[0m
  404774:	0320f809 	jalr	t9
  404778:	02803021 	move	a2,s4
  40477c:	8fbc0018 	lw	gp,24(sp)
  404780:	3c020001 	lui	v0,0x1
  404784:	34424a28 	ori	v0,v0,0x4a28
  404788:	005d1021 	addu	v0,v0,sp
  40478c:	8c440000 	lw	a0,0(v0)
  404790:	8f9980d0 	lw	t9,-32560(gp)
  404794:	0320f809 	jalr	t9
  404798:	02802821 	move	a1,s4
  40479c:	8fbc0018 	lw	gp,24(sp)
  4047a0:	2c510001 	sltiu	s1,v0,1
  4047a4:	8fc40000 	lw	a0,0(s8)
  4047a8:	3c050042 	lui	a1,0x42
  4047ac:	24a5d590 	addiu	a1,a1,-10864
[31m  4047b0:	8f998190 	lw	t9,fprintf[0m
  4047b4:	0320f809 	jalr	t9
  4047b8:	02203021 	move	a2,s1
--
  404e2c:	03c03021 	move	a2,s8
  404e30:	8f99825c 	lw	t9,-32164(gp)
  404e34:	0320f809 	jalr	t9
  404e38:	00403821 	move	a3,v0
  404e3c:	8fbc0018 	lw	gp,24(sp)
  404e40:	8fa2004c 	lw	v0,76(sp)
  404e44:	afa20010 	sw	v0,16(sp)
  404e48:	8fa20050 	lw	v0,80(sp)
  404e4c:	afa20014 	sw	v0,20(sp)
  404e50:	3c020001 	lui	v0,0x1
  404e54:	344248c4 	ori	v0,v0,0x48c4
  404e58:	005d1021 	addu	v0,v0,sp
  404e5c:	8c450000 	lw	a1,0(v0)
  404e60:	8fa60044 	lw	a2,68(sp)
  404e64:	8fa70048 	lw	a3,72(sp)
  404e68:	8f9980c0 	lw	t9,-32576(gp)
  404e6c:	0320f809 	jalr	t9
  404e70:	02e02021 	move	a0,s7
  404e74:	8fbc0018 	lw	gp,24(sp)
  404e78:	8f8380b4 	lw	v1,-32588(gp)
  404e7c:	8c640000 	lw	a0,0(v1)
  404e80:	3c020001 	lui	v0,0x1
  404e84:	344248c8 	ori	v0,v0,0x48c8
  404e88:	005d1021 	addu	v0,v0,sp
  404e8c:	8c450000 	lw	a1,0(v0)
[31m  404e90:	8f998190 	lw	t9,fprintf[0m
  404e94:	0320f809 	jalr	t9
  404e98:	02e03021 	move	a2,s7
--
  40c140:	8f9981e8 	lw	t9,-32280(gp)
  40c144:	0320f809 	jalr	t9
  40c148:	24070001 	li	a3,1
  40c14c:	8fbc0020 	lw	gp,32(sp)
  40c150:	92420000 	lbu	v0,0(s2)
  40c154:	1040003d 	beqz	v0,40c24c <GetmydlinkRegInfo@@Base+0x38c>
  40c158:	00000000 	nop
  40c15c:	92620000 	lbu	v0,0(s3)
  40c160:	1040003a 	beqz	v0,40c24c <GetmydlinkRegInfo@@Base+0x38c>
  40c164:	00000000 	nop
  40c168:	0c102f87 	jal	40be1c <GetmydlinkSupportStatus@@Base+0x154>
  40c16c:	24040001 	li	a0,1
  40c170:	8fbc0020 	lw	gp,32(sp)
  40c174:	3c071062 	lui	a3,0x1062
  40c178:	34e74dd3 	ori	a3,a3,0x4dd3
  40c17c:	00470018 	mult	v0,a3
  40c180:	00003810 	mfhi	a3
  40c184:	00073983 	sra	a3,a3,0x6
  40c188:	000217c3 	sra	v0,v0,0x1f
  40c18c:	8f8380b4 	lw	v1,-32588(gp)
  40c190:	8c640000 	lw	a0,0(v1)
  40c194:	3c050042 	lui	a1,0x42
  40c198:	24a5e9e4 	addiu	a1,a1,-5660
  40c19c:	3c060042 	lui	a2,0x42
  40c1a0:	24c6ed10 	addiu	a2,a2,-4848
[31m  40c1a4:	8f998190 	lw	t9,fprintf[0m
  40c1a8:	0320f809 	jalr	t9
  40c1ac:	00e23823 	subu	a3,a3,v0
--
  40c1f0:	93a700c5 	lbu	a3,197(sp)
  40c1f4:	93a200c6 	lbu	v0,198(sp)
  40c1f8:	afa20010 	sw	v0,16(sp)
  40c1fc:	93a200c7 	lbu	v0,199(sp)
  40c200:	afa20014 	sw	v0,20(sp)
  40c204:	93a200c8 	lbu	v0,200(sp)
  40c208:	afa20018 	sw	v0,24(sp)
  40c20c:	93a200c9 	lbu	v0,201(sp)
  40c210:	afa2001c 	sw	v0,28(sp)
  40c214:	27a401d4 	addiu	a0,sp,468
  40c218:	3c050042 	lui	a1,0x42
  40c21c:	8f9980c0 	lw	t9,-32576(gp)
  40c220:	0320f809 	jalr	t9
  40c224:	24a5d86c 	addiu	a1,a1,-10132
  40c228:	0c102f87 	jal	40be1c <GetmydlinkSupportStatus@@Base+0x154>
  40c22c:	00002021 	move	a0,zero
  40c230:	8fbc0020 	lw	gp,32(sp)
  40c234:	93a300c0 	lbu	v1,192(sp)
  40c238:	24020001 	li	v0,1
  40c23c:	1462007e 	bne	v1,v0,40c438 <GetmydlinkRegInfo@@Base+0x578>
  40c240:	27b401f4 	addiu	s4,sp,500
  40c244:	10000033 	b	40c314 <GetmydlinkRegInfo@@Base+0x454>
  40c248:	3c040042 	lui	a0,0x42
  40c24c:	8e840000 	lw	a0,0(s4)
  40c250:	8fa502bc 	lw	a1,700(sp)
[31m  40c254:	8f998190 	lw	t9,fprintf[0m
  40c258:	0320f809 	jalr	t9
  40c25c:	02a03021 	move	a2,s5
  40c260:	10000006 	b	40c27c <GetmydlinkRegInfo@@Base+0x3bc>
  40c264:	00000000 	nop
  40c268:	8e840000 	lw	a0,0(s4)
  40c26c:	8fa502c4 	lw	a1,708(sp)
[31m  40c270:	8f998190 	lw	t9,fprintf[0m
  40c274:	0320f809 	jalr	t9
  40c278:	02a03021 	move	a2,s5
  40c27c:	0c102f87 	jal	40be1c <GetmydlinkSupportStatus@@Base+0x154>
  40c280:	24040001 	li	a0,1
  40c284:	8fbc0020 	lw	gp,32(sp)
  40c288:	28432711 	slti	v1,v0,10001
  40c28c:	1460001b 	bnez	v1,40c2fc <GetmydlinkRegInfo@@Base+0x43c>
  40c290:	3c071062 	lui	a3,0x1062
  40c294:	34e74dd3 	ori	a3,a3,0x4dd3
  40c298:	00470018 	mult	v0,a3
  40c29c:	00003810 	mfhi	a3
  40c2a0:	00073983 	sra	a3,a3,0x6
  40c2a4:	000217c3 	sra	v0,v0,0x1f
  40c2a8:	8f8380b4 	lw	v1,-32588(gp)
  40c2ac:	8c640000 	lw	a0,0(v1)
  40c2b0:	3c050042 	lui	a1,0x42
  40c2b4:	24a5ea78 	addiu	a1,a1,-5512
  40c2b8:	3c060042 	lui	a2,0x42
  40c2bc:	24c6ed10 	addiu	a2,a2,-4848
[31m  40c2c0:	8f998190 	lw	t9,fprintf[0m
  40c2c4:	0320f809 	jalr	t9
  40c2c8:	00e23823 	subu	a3,a3,v0
--
  40c42c:	8fbc0020 	lw	gp,32(sp)
  40c430:	100000cc 	b	40c764 <GetmydlinkRegInfo@@Base+0x8a4>
  40c434:	00000000 	nop
  40c438:	8f9180b4 	lw	s1,-32588(gp)
  40c43c:	3c150042 	lui	s5,0x42
  40c440:	26b5eb04 	addiu	s5,s5,-5372
  40c444:	3c120042 	lui	s2,0x42
  40c448:	2652ed10 	addiu	s2,s2,-4848
  40c44c:	3c160042 	lui	s6,0x42
  40c450:	26d6eb24 	addiu	s6,s6,-5340
  40c454:	27b00234 	addiu	s0,sp,564
  40c458:	24130040 	li	s3,64
  40c45c:	3c170042 	lui	s7,0x42
  40c460:	26f7e9b8 	addiu	s7,s7,-5704
  40c464:	3c1e0042 	lui	s8,0x42
  40c468:	27decef8 	addiu	s8,s8,-12552
  40c46c:	3c020042 	lui	v0,0x42
  40c470:	2442eb74 	addiu	v0,v0,-5260
  40c474:	afa202bc 	sw	v0,700(sp)
  40c478:	3c020042 	lui	v0,0x42
  40c47c:	2442eb94 	addiu	v0,v0,-5228
  40c480:	afa202b8 	sw	v0,696(sp)
  40c484:	8e240000 	lw	a0,0(s1)
  40c488:	02a02821 	move	a1,s5
  40c48c:	02403021 	move	a2,s2
[31m  40c490:	8f998190 	lw	t9,fprintf[0m
  40c494:	0320f809 	jalr	t9
  40c498:	02803821 	move	a3,s4
  40c49c:	8fbc0020 	lw	gp,32(sp)
  40c4a0:	8f9981fc 	lw	t9,-32260(gp)
  40c4a4:	0320f809 	jalr	t9
  40c4a8:	02c02021 	move	a0,s6
  40c4ac:	8fbc0020 	lw	gp,32(sp)
  40c4b0:	02002021 	move	a0,s0
  40c4b4:	00002821 	move	a1,zero
  40c4b8:	8f9980fc 	lw	t9,-32516(gp)
  40c4bc:	0320f809 	jalr	t9
  40c4c0:	02603021 	move	a2,s3
  40c4c4:	8fbc0020 	lw	gp,32(sp)
  40c4c8:	afb00010 	sw	s0,16(sp)
  40c4cc:	afb30014 	sw	s3,20(sp)
  40c4d0:	02e02021 	move	a0,s7
  40c4d4:	03c02821 	move	a1,s8
  40c4d8:	3c060042 	lui	a2,0x42
  40c4dc:	24c6e9d8 	addiu	a2,a2,-5672
  40c4e0:	8f9981e8 	lw	t9,-32280(gp)
  40c4e4:	0320f809 	jalr	t9
  40c4e8:	24070001 	li	a3,1
  40c4ec:	8fbc0020 	lw	gp,32(sp)
  40c4f0:	8e240000 	lw	a0,0(s1)
  40c4f4:	3c050042 	lui	a1,0x42
  40c4f8:	24a5eb54 	addiu	a1,a1,-5292
  40c4fc:	02403021 	move	a2,s2
[31m  40c500:	8f998190 	lw	t9,fprintf[0m
  40c504:	0320f809 	jalr	t9
  40c508:	02003821 	move	a3,s0
  40c50c:	8fbc0020 	lw	gp,32(sp)
  40c510:	92020000 	lbu	v0,0(s0)
  40c514:	14400008 	bnez	v0,40c538 <GetmydlinkRegInfo@@Base+0x678>
  40c518:	00000000 	nop
  40c51c:	8e240000 	lw	a0,0(s1)
  40c520:	8fa502bc 	lw	a1,700(sp)
[31m  40c524:	8f998190 	lw	t9,fprintf[0m
  40c528:	0320f809 	jalr	t9
  40c52c:	02403021 	move	a2,s2
  40c530:	1000004e 	b	40c66c <GetmydlinkRegInfo@@Base+0x7ac>
  40c534:	00000000 	nop
  40c538:	02802021 	move	a0,s4
  40c53c:	8f9980d0 	lw	t9,-32560(gp)
  40c540:	0320f809 	jalr	t9
  40c544:	02002821 	move	a1,s0
  40c548:	8fbc0020 	lw	gp,32(sp)
  40c54c:	14400008 	bnez	v0,40c570 <GetmydlinkRegInfo@@Base+0x6b0>
  40c550:	00000000 	nop
  40c554:	8e240000 	lw	a0,0(s1)
  40c558:	8fa502b8 	lw	a1,696(sp)
[31m  40c55c:	8f998190 	lw	t9,fprintf[0m
  40c560:	0320f809 	jalr	t9
  40c564:	02403021 	move	a2,s2
  40c568:	10000040 	b	40c66c <GetmydlinkRegInfo@@Base+0x7ac>
  40c56c:	00000000 	nop
  40c570:	0c102f87 	jal	40be1c <GetmydlinkSupportStatus@@Base+0x154>
  40c574:	24040001 	li	a0,1
  40c578:	8fbc0020 	lw	gp,32(sp)
  40c57c:	3c071062 	lui	a3,0x1062
  40c580:	34e74dd3 	ori	a3,a3,0x4dd3
  40c584:	00470018 	mult	v0,a3
  40c588:	00003810 	mfhi	a3
  40c58c:	00073983 	sra	a3,a3,0x6
  40c590:	000217c3 	sra	v0,v0,0x1f
  40c594:	8f8380b4 	lw	v1,-32588(gp)
  40c598:	8c640000 	lw	a0,0(v1)
  40c59c:	3c050042 	lui	a1,0x42
  40c5a0:	24a5ebb4 	addiu	a1,a1,-5196
  40c5a4:	3c060042 	lui	a2,0x42
  40c5a8:	24c6ed10 	addiu	a2,a2,-4848
[31m  40c5ac:	8f998190 	lw	t9,fprintf[0m
  40c5b0:	0320f809 	jalr	t9
  40c5b4:	00e23823 	subu	a3,a3,v0
--
  40c64c:	24c6eaf8 	addiu	a2,a2,-5384
  40c650:	3c070042 	lui	a3,0x42
  40c654:	8f9980e0 	lw	t9,-32544(gp)
  40c658:	0320f809 	jalr	t9
  40c65c:	24e7d960 	addiu	a3,a3,-9888
  40c660:	8fbc0020 	lw	gp,32(sp)
  40c664:	1000003f 	b	40c764 <GetmydlinkRegInfo@@Base+0x8a4>
  40c668:	00000000 	nop
  40c66c:	0c102f87 	jal	40be1c <GetmydlinkSupportStatus@@Base+0x154>
  40c670:	24040001 	li	a0,1
  40c674:	8fbc0020 	lw	gp,32(sp)
  40c678:	28432711 	slti	v1,v0,10001
  40c67c:	1460002f 	bnez	v1,40c73c <GetmydlinkRegInfo@@Base+0x87c>
  40c680:	3c071062 	lui	a3,0x1062
  40c684:	34e74dd3 	ori	a3,a3,0x4dd3
  40c688:	00470018 	mult	v0,a3
  40c68c:	00003810 	mfhi	a3
  40c690:	00073983 	sra	a3,a3,0x6
  40c694:	000217c3 	sra	v0,v0,0x1f
  40c698:	8f8380b4 	lw	v1,-32588(gp)
  40c69c:	8c640000 	lw	a0,0(v1)
  40c6a0:	3c050042 	lui	a1,0x42
  40c6a4:	24a5ebdc 	addiu	a1,a1,-5156
  40c6a8:	3c060042 	lui	a2,0x42
  40c6ac:	24c6ed10 	addiu	a2,a2,-4848
[31m  40c6b0:	8f998190 	lw	t9,fprintf[0m
  40c6b4:	0320f809 	jalr	t9
  40c6b8:	00e23823 	subu	a3,a3,v0
--
  40dd10:	009e2021 	addu	a0,a0,s8
  40dd14:	248414f0 	addiu	a0,a0,5360
  40dd18:	0c103241 	jal	40c904 <GetmydlinkRegInfo@@Base+0xa44>
  40dd1c:	02e42021 	addu	a0,s7,a0
  40dd20:	8fbc0010 	lw	gp,16(sp)
  40dd24:	0040a021 	move	s4,v0
  40dd28:	8e300000 	lw	s0,0(s1)
  40dd2c:	3c020005 	lui	v0,0x5
  40dd30:	34425830 	ori	v0,v0,0x5830
  40dd34:	005d1021 	addu	v0,v0,sp
  40dd38:	8c440000 	lw	a0,0(v0)
  40dd3c:	8f998080 	lw	t9,-32640(gp)
  40dd40:	0320f809 	jalr	t9
  40dd44:	00000000 	nop
  40dd48:	8fbc0010 	lw	gp,16(sp)
  40dd4c:	16020013 	bne	s0,v0,40dd9c <GetmydlinkRegInfo@@Base+0x1edc>
  40dd50:	3c020005 	lui	v0,0x5
  40dd54:	16600011 	bnez	s3,40dd9c <GetmydlinkRegInfo@@Base+0x1edc>
  40dd58:	00000000 	nop
  40dd5c:	16800010 	bnez	s4,40dda0 <GetmydlinkRegInfo@@Base+0x1ee0>
  40dd60:	34425834 	ori	v0,v0,0x5834
  40dd64:	8f8280b4 	lw	v0,-32588(gp)
  40dd68:	8c440000 	lw	a0,0(v0)
  40dd6c:	3c050042 	lui	a1,0x42
  40dd70:	8ec60000 	lw	a2,0(s6)
[31m  40dd74:	8f998190 	lw	t9,fprintf[0m
  40dd78:	0320f809 	jalr	t9
  40dd7c:	24a5ee20 	addiu	a1,a1,-4576
  40dd80:	8fbc0010 	lw	gp,16(sp)
  40dd84:	24040001 	li	a0,1
  40dd88:	3c030005 	lui	v1,0x5
  40dd8c:	34635868 	ori	v1,v1,0x5868
  40dd90:	007d1821 	addu	v1,v1,sp
  40dd94:	100001e8 	b	40e538 <GetmydlinkRegInfo@@Base+0x2678>
  40dd98:	ac640000 	sw	a0,0(v1)
  40dd9c:	34425834 	ori	v0,v0,0x5834
  40dda0:	005d1021 	addu	v0,v0,sp
  40dda4:	8c440000 	lw	a0,0(v0)
  40dda8:	8f998080 	lw	t9,-32640(gp)
  40ddac:	0320f809 	jalr	t9
  40ddb0:	00000000 	nop
  40ddb4:	8fbc0010 	lw	gp,16(sp)
  40ddb8:	16020013 	bne	s0,v0,40de08 <GetmydlinkRegInfo@@Base+0x1f48>
  40ddbc:	3c020005 	lui	v0,0x5
  40ddc0:	16600011 	bnez	s3,40de08 <GetmydlinkRegInfo@@Base+0x1f48>
  40ddc4:	00000000 	nop
  40ddc8:	16800010 	bnez	s4,40de0c <GetmydlinkRegInfo@@Base+0x1f4c>
  40ddcc:	34425838 	ori	v0,v0,0x5838
  40ddd0:	8f8280b4 	lw	v0,-32588(gp)
  40ddd4:	8c440000 	lw	a0,0(v0)
  40ddd8:	3c050042 	lui	a1,0x42
  40dddc:	8ec60000 	lw	a2,0(s6)
[31m  40dde0:	8f998190 	lw	t9,fprintf[0m
  40dde4:	0320f809 	jalr	t9
  40dde8:	24a5ee64 	addiu	a1,a1,-4508
  40ddec:	8fbc0010 	lw	gp,16(sp)
  40ddf0:	24040001 	li	a0,1
  40ddf4:	3c030005 	lui	v1,0x5
  40ddf8:	34635868 	ori	v1,v1,0x5868
  40ddfc:	007d1821 	addu	v1,v1,sp
  40de00:	100001cd 	b	40e538 <GetmydlinkRegInfo@@Base+0x2678>
  40de04:	ac640000 	sw	a0,0(v1)
  40de08:	34425838 	ori	v0,v0,0x5838
  40de0c:	005d1021 	addu	v0,v0,sp
  40de10:	8c440000 	lw	a0,0(v0)
  40de14:	8f998080 	lw	t9,-32640(gp)
  40de18:	0320f809 	jalr	t9
  40de1c:	00000000 	nop
  40de20:	8fbc0010 	lw	gp,16(sp)
  40de24:	16020013 	bne	s0,v0,40de74 <GetmydlinkRegInfo@@Base+0x1fb4>
  40de28:	3c020005 	lui	v0,0x5
  40de2c:	16600011 	bnez	s3,40de74 <GetmydlinkRegInfo@@Base+0x1fb4>
  40de30:	00000000 	nop
  40de34:	16800010 	bnez	s4,40de78 <GetmydlinkRegInfo@@Base+0x1fb8>
  40de38:	3442583c 	ori	v0,v0,0x583c
  40de3c:	8f8280b4 	lw	v0,-32588(gp)
  40de40:	8c440000 	lw	a0,0(v0)
  40de44:	3c050042 	lui	a1,0x42
  40de48:	8ec60000 	lw	a2,0(s6)
[31m  40de4c:	8f998190 	lw	t9,fprintf[0m
  40de50:	0320f809 	jalr	t9
  40de54:	24a5eea8 	addiu	a1,a1,-4440
  40de58:	8fbc0010 	lw	gp,16(sp)
  40de5c:	24040001 	li	a0,1
  40de60:	3c030005 	lui	v1,0x5
  40de64:	3463586c 	ori	v1,v1,0x586c
  40de68:	007d1821 	addu	v1,v1,sp
  40de6c:	100001b2 	b	40e538 <GetmydlinkRegInfo@@Base+0x2678>
  40de70:	ac640000 	sw	a0,0(v1)
  40de74:	3442583c 	ori	v0,v0,0x583c
  40de78:	005d1021 	addu	v0,v0,sp
  40de7c:	8c440000 	lw	a0,0(v0)
  40de80:	8f998080 	lw	t9,-32640(gp)
  40de84:	0320f809 	jalr	t9
  40de88:	00000000 	nop
  40de8c:	8fbc0010 	lw	gp,16(sp)
  40de90:	16020013 	bne	s0,v0,40dee0 <GetmydlinkRegInfo@@Base+0x2020>
  40de94:	3c020005 	lui	v0,0x5
  40de98:	16600011 	bnez	s3,40dee0 <GetmydlinkRegInfo@@Base+0x2020>
  40de9c:	00000000 	nop
  40dea0:	16800010 	bnez	s4,40dee4 <GetmydlinkRegInfo@@Base+0x2024>
  40dea4:	34425840 	ori	v0,v0,0x5840
  40dea8:	8f8280b4 	lw	v0,-32588(gp)
  40deac:	8c440000 	lw	a0,0(v0)
  40deb0:	3c050042 	lui	a1,0x42
  40deb4:	8ec60000 	lw	a2,0(s6)
[31m  40deb8:	8f998190 	lw	t9,fprintf[0m
  40debc:	0320f809 	jalr	t9
  40dec0:	24a5eeec 	addiu	a1,a1,-4372
  40dec4:	8fbc0010 	lw	gp,16(sp)
  40dec8:	24040001 	li	a0,1
  40decc:	3c030005 	lui	v1,0x5
  40ded0:	3463586c 	ori	v1,v1,0x586c
  40ded4:	007d1821 	addu	v1,v1,sp
  40ded8:	10000197 	b	40e538 <GetmydlinkRegInfo@@Base+0x2678>
  40dedc:	ac640000 	sw	a0,0(v1)
  40dee0:	34425840 	ori	v0,v0,0x5840
  40dee4:	005d1021 	addu	v0,v0,sp
  40dee8:	8c440000 	lw	a0,0(v0)
  40deec:	8f998080 	lw	t9,-32640(gp)
  40def0:	0320f809 	jalr	t9
  40def4:	00000000 	nop
  40def8:	8fbc0010 	lw	gp,16(sp)
  40defc:	16020013 	bne	s0,v0,40df4c <GetmydlinkRegInfo@@Base+0x208c>
  40df00:	3c020005 	lui	v0,0x5
  40df04:	16600011 	bnez	s3,40df4c <GetmydlinkRegInfo@@Base+0x208c>
  40df08:	00000000 	nop
  40df0c:	16800010 	bnez	s4,40df50 <GetmydlinkRegInfo@@Base+0x2090>
  40df10:	34425844 	ori	v0,v0,0x5844
  40df14:	8f8280b4 	lw	v0,-32588(gp)
  40df18:	8c440000 	lw	a0,0(v0)
  40df1c:	3c050042 	lui	a1,0x42
  40df20:	8ec60000 	lw	a2,0(s6)
[31m  40df24:	8f998190 	lw	t9,fprintf[0m
  40df28:	0320f809 	jalr	t9
  40df2c:	24a5ef28 	addiu	a1,a1,-4312
  40df30:	8fbc0010 	lw	gp,16(sp)
  40df34:	24040001 	li	a0,1
  40df38:	3c030005 	lui	v1,0x5
  40df3c:	34635870 	ori	v1,v1,0x5870
  40df40:	007d1821 	addu	v1,v1,sp
  40df44:	1000017c 	b	40e538 <GetmydlinkRegInfo@@Base+0x2678>
  40df48:	ac640000 	sw	a0,0(v1)
  40df4c:	34425844 	ori	v0,v0,0x5844
  40df50:	005d1021 	addu	v0,v0,sp
  40df54:	8c440000 	lw	a0,0(v0)
  40df58:	8f998080 	lw	t9,-32640(gp)
  40df5c:	0320f809 	jalr	t9
  40df60:	00000000 	nop
  40df64:	8fbc0010 	lw	gp,16(sp)
  40df68:	16020013 	bne	s0,v0,40dfb8 <GetmydlinkRegInfo@@Base+0x20f8>
  40df6c:	3c020005 	lui	v0,0x5
  40df70:	16600011 	bnez	s3,40dfb8 <GetmydlinkRegInfo@@Base+0x20f8>
  40df74:	00000000 	nop
  40df78:	16800010 	bnez	s4,40dfbc <GetmydlinkRegInfo@@Base+0x20fc>
  40df7c:	34425848 	ori	v0,v0,0x5848
  40df80:	8f8280b4 	lw	v0,-32588(gp)
  40df84:	8c440000 	lw	a0,0(v0)
  40df88:	3c050042 	lui	a1,0x42
  40df8c:	8ec60000 	lw	a2,0(s6)
[31m  40df90:	8f998190 	lw	t9,fprintf[0m
  40df94:	0320f809 	jalr	t9
  40df98:	24a5ef64 	addiu	a1,a1,-4252
  40df9c:	8fbc0010 	lw	gp,16(sp)
  40dfa0:	24040001 	li	a0,1
  40dfa4:	3c030005 	lui	v1,0x5
  40dfa8:	34635870 	ori	v1,v1,0x5870
  40dfac:	007d1821 	addu	v1,v1,sp
  40dfb0:	10000161 	b	40e538 <GetmydlinkRegInfo@@Base+0x2678>
  40dfb4:	ac640000 	sw	a0,0(v1)
  40dfb8:	34425848 	ori	v0,v0,0x5848
  40dfbc:	005d1021 	addu	v0,v0,sp
  40dfc0:	8c440000 	lw	a0,0(v0)
  40dfc4:	8f998080 	lw	t9,-32640(gp)
  40dfc8:	0320f809 	jalr	t9
  40dfcc:	00000000 	nop
  40dfd0:	8fbc0010 	lw	gp,16(sp)
  40dfd4:	16020013 	bne	s0,v0,40e024 <GetmydlinkRegInfo@@Base+0x2164>
  40dfd8:	3c020005 	lui	v0,0x5
  40dfdc:	16600011 	bnez	s3,40e024 <GetmydlinkRegInfo@@Base+0x2164>
  40dfe0:	00000000 	nop
  40dfe4:	16800010 	bnez	s4,40e028 <GetmydlinkRegInfo@@Base+0x2168>
  40dfe8:	3442584c 	ori	v0,v0,0x584c
  40dfec:	8f8280b4 	lw	v0,-32588(gp)
  40dff0:	8c440000 	lw	a0,0(v0)
  40dff4:	3c050042 	lui	a1,0x42
  40dff8:	8ec60000 	lw	a2,0(s6)
[31m  40dffc:	8f998190 	lw	t9,fprintf[0m
  40e000:	0320f809 	jalr	t9
  40e004:	24a5efa8 	addiu	a1,a1,-4184
  40e008:	8fbc0010 	lw	gp,16(sp)
  40e00c:	24040001 	li	a0,1
  40e010:	3c030005 	lui	v1,0x5
  40e014:	34635868 	ori	v1,v1,0x5868
  40e018:	007d1821 	addu	v1,v1,sp
  40e01c:	10000146 	b	40e538 <GetmydlinkRegInfo@@Base+0x2678>
  40e020:	ac640000 	sw	a0,0(v1)
  40e024:	3442584c 	ori	v0,v0,0x584c
  40e028:	005d1021 	addu	v0,v0,sp
  40e02c:	8c440000 	lw	a0,0(v0)
  40e030:	8f998080 	lw	t9,-32640(gp)
  40e034:	0320f809 	jalr	t9
  40e038:	00000000 	nop
  40e03c:	8fbc0010 	lw	gp,16(sp)
  40e040:	16020013 	bne	s0,v0,40e090 <GetmydlinkRegInfo@@Base+0x21d0>
  40e044:	3c020005 	lui	v0,0x5
  40e048:	16600011 	bnez	s3,40e090 <GetmydlinkRegInfo@@Base+0x21d0>
  40e04c:	00000000 	nop
  40e050:	16800010 	bnez	s4,40e094 <GetmydlinkRegInfo@@Base+0x21d4>
  40e054:	34425850 	ori	v0,v0,0x5850
  40e058:	8f8280b4 	lw	v0,-32588(gp)
  40e05c:	8c440000 	lw	a0,0(v0)
  40e060:	3c050042 	lui	a1,0x42
  40e064:	8ec60000 	lw	a2,0(s6)
[31m  40e068:	8f998190 	lw	t9,fprintf[0m
  40e06c:	0320f809 	jalr	t9
  40e070:	24a5efec 	addiu	a1,a1,-4116
--
  4106e0:	27a40071 	addiu	a0,sp,113
  4106e4:	00002821 	move	a1,zero
  4106e8:	8f9980fc 	lw	t9,-32516(gp)
  4106ec:	0320f809 	jalr	t9
  4106f0:	240600ff 	li	a2,255
  4106f4:	8fbc0020 	lw	gp,32(sp)
  4106f8:	02602021 	move	a0,s3
  4106fc:	8f998158 	lw	t9,-32424(gp)
  410700:	0320f809 	jalr	t9
  410704:	02002821 	move	a1,s0
  410708:	8fbc0020 	lw	gp,32(sp)
  41070c:	10400007 	beqz	v0,41072c <GetEventSupportList@@Base+0x9a8>
  410710:	00402021 	move	a0,v0
  410714:	02e02821 	move	a1,s7
  410718:	27a60070 	addiu	a2,sp,112
  41071c:	8f998148 	lw	t9,-32440(gp)
  410720:	0320f809 	jalr	t9
  410724:	24070100 	li	a3,256
  410728:	8fbc0020 	lw	gp,32(sp)
  41072c:	8f8280b4 	lw	v0,-32588(gp)
  410730:	8c440000 	lw	a0,0(v0)
  410734:	27a20070 	addiu	v0,sp,112
  410738:	afa20010 	sw	v0,16(sp)
  41073c:	02c02821 	move	a1,s6
  410740:	02803021 	move	a2,s4
[31m  410744:	8f998190 	lw	t9,fprintf[0m
  410748:	0320f809 	jalr	t9
  41074c:	02203821 	move	a3,s1
--
  41098c:	8fa40598 	lw	a0,1432(sp)
  410990:	8fa5059c 	lw	a1,1436(sp)
  410994:	8fa605a0 	lw	a2,1440(sp)
  410998:	8f9981e8 	lw	t9,-32280(gp)
  41099c:	0320f809 	jalr	t9
  4109a0:	24070001 	li	a3,1
  4109a4:	8fbc0020 	lw	gp,32(sp)
  4109a8:	27a20170 	addiu	v0,sp,368
  4109ac:	afa2057c 	sw	v0,1404(sp)
  4109b0:	27a30070 	addiu	v1,sp,112
  4109b4:	afa3058c 	sw	v1,1420(sp)
  4109b8:	afa30010 	sw	v1,16(sp)
  4109bc:	8fa20584 	lw	v0,1412(sp)
  4109c0:	afa20014 	sw	v0,20(sp)
  4109c4:	8fa4057c 	lw	a0,1404(sp)
  4109c8:	8fa605a4 	lw	a2,1444(sp)
  4109cc:	8fa70574 	lw	a3,1396(sp)
  4109d0:	8f99824c 	lw	t9,-32180(gp)
  4109d4:	0320f809 	jalr	t9
  4109d8:	24050100 	li	a1,256
  4109dc:	8fbc0020 	lw	gp,32(sp)
  4109e0:	8f8380b4 	lw	v1,-32588(gp)
  4109e4:	8c640000 	lw	a0,0(v1)
  4109e8:	8fa505a8 	lw	a1,1448(sp)
  4109ec:	8fa6057c 	lw	a2,1404(sp)
[31m  4109f0:	8f998190 	lw	t9,fprintf[0m
  4109f4:	0320f809 	jalr	t9
  4109f8:	00000000 	nop
--
  410a64:	0320f809 	jalr	t9
  410a68:	24a5f4d0 	addiu	a1,a1,-2864
  410a6c:	8fbc0020 	lw	gp,32(sp)
  410a70:	27a30370 	addiu	v1,sp,880
  410a74:	afa30574 	sw	v1,1396(sp)
  410a78:	8fa2058c 	lw	v0,1420(sp)
  410a7c:	afa20010 	sw	v0,16(sp)
  410a80:	8fa30584 	lw	v1,1412(sp)
  410a84:	afa30014 	sw	v1,20(sp)
  410a88:	8fa2057c 	lw	v0,1404(sp)
  410a8c:	afa20018 	sw	v0,24(sp)
  410a90:	8fa305ac 	lw	v1,1452(sp)
  410a94:	afa3001c 	sw	v1,28(sp)
  410a98:	8fa40574 	lw	a0,1396(sp)
  410a9c:	240501ff 	li	a1,511
  410aa0:	3c060042 	lui	a2,0x42
  410aa4:	8fa70588 	lw	a3,1416(sp)
  410aa8:	8f99824c 	lw	t9,-32180(gp)
  410aac:	0320f809 	jalr	t9
  410ab0:	24c6f4e4 	addiu	a2,a2,-2844
  410ab4:	8fbc0020 	lw	gp,32(sp)
  410ab8:	8f8280b4 	lw	v0,-32588(gp)
  410abc:	8c440000 	lw	a0,0(v0)
  410ac0:	3c050042 	lui	a1,0x42
  410ac4:	8fa60574 	lw	a2,1396(sp)
[31m  410ac8:	8f998190 	lw	t9,fprintf[0m
  410acc:	0320f809 	jalr	t9
  410ad0:	24a5f57c 	addiu	a1,a1,-2692
--
  412264:	8f998080 	lw	t9,-32640(gp)
  412268:	0320f809 	jalr	t9
  41226c:	0040a821 	move	s5,v0
  412270:	8fbc0028 	lw	gp,40(sp)
  412274:	16020073 	bne	s0,v0,412444 <GetEventSupportList@@Base+0x26c0>
  412278:	3c030005 	lui	v1,0x5
  41227c:	16600071 	bnez	s3,412444 <GetEventSupportList@@Base+0x26c0>
  412280:	00000000 	nop
  412284:	16a00070 	bnez	s5,412448 <GetEventSupportList@@Base+0x26c4>
  412288:	34635f94 	ori	v1,v1,0x5f94
  41228c:	3c050005 	lui	a1,0x5
  412290:	02e52021 	addu	a0,s7,a1
  412294:	3c020042 	lui	v0,0x42
  412298:	9042ff60 	lbu	v0,-160(v0)
  41229c:	a0825854 	sb	v0,22612(a0)
  4122a0:	24845855 	addiu	a0,a0,22613
  4122a4:	00002821 	move	a1,zero
  4122a8:	8f9980fc 	lw	t9,-32516(gp)
  4122ac:	0320f809 	jalr	t9
  4122b0:	240600ff 	li	a2,255
  4122b4:	8fbc0028 	lw	gp,40(sp)
  4122b8:	8f8280b4 	lw	v0,-32588(gp)
  4122bc:	8c440000 	lw	a0,0(v0)
  4122c0:	3c050042 	lui	a1,0x42
  4122c4:	8fc60000 	lw	a2,0(s8)
[31m  4122c8:	8f998190 	lw	t9,fprintf[0m
  4122cc:	0320f809 	jalr	t9
  4122d0:	24a5f58c 	addiu	a1,a1,-2676
--
  412450:	8f998080 	lw	t9,-32640(gp)
  412454:	0320f809 	jalr	t9
  412458:	00000000 	nop
  41245c:	8fbc0028 	lw	gp,40(sp)
  412460:	16020073 	bne	s0,v0,412630 <GetEventSupportList@@Base+0x28ac>
  412464:	3c030005 	lui	v1,0x5
  412468:	16600072 	bnez	s3,412634 <GetEventSupportList@@Base+0x28b0>
  41246c:	34635f9c 	ori	v1,v1,0x5f9c
  412470:	16a0006f 	bnez	s5,412630 <GetEventSupportList@@Base+0x28ac>
  412474:	3c030005 	lui	v1,0x5
  412478:	3c050005 	lui	a1,0x5
  41247c:	02e52021 	addu	a0,s7,a1
  412480:	3c020042 	lui	v0,0x42
  412484:	9042ff60 	lbu	v0,-160(v0)
  412488:	a0825854 	sb	v0,22612(a0)
  41248c:	24845855 	addiu	a0,a0,22613
  412490:	00002821 	move	a1,zero
  412494:	8f9980fc 	lw	t9,-32516(gp)
  412498:	0320f809 	jalr	t9
  41249c:	240600ff 	li	a2,255
  4124a0:	8fbc0028 	lw	gp,40(sp)
  4124a4:	8f8280b4 	lw	v0,-32588(gp)
  4124a8:	8c440000 	lw	a0,0(v0)
  4124ac:	3c050042 	lui	a1,0x42
  4124b0:	8fc60000 	lw	a2,0(s8)
[31m  4124b4:	8f998190 	lw	t9,fprintf[0m
  4124b8:	0320f809 	jalr	t9
  4124bc:	24a5f620 	addiu	a1,a1,-2528
--
  41263c:	8f998080 	lw	t9,-32640(gp)
  412640:	0320f809 	jalr	t9
  412644:	00000000 	nop
  412648:	8fbc0028 	lw	gp,40(sp)
  41264c:	16020073 	bne	s0,v0,41281c <GetEventSupportList@@Base+0x2a98>
  412650:	3c030005 	lui	v1,0x5
  412654:	16600072 	bnez	s3,412820 <GetEventSupportList@@Base+0x2a9c>
  412658:	34635fa0 	ori	v1,v1,0x5fa0
  41265c:	16a0006f 	bnez	s5,41281c <GetEventSupportList@@Base+0x2a98>
  412660:	3c030005 	lui	v1,0x5
  412664:	3c050005 	lui	a1,0x5
  412668:	02e52021 	addu	a0,s7,a1
  41266c:	3c020042 	lui	v0,0x42
  412670:	9042ff60 	lbu	v0,-160(v0)
  412674:	a0825854 	sb	v0,22612(a0)
  412678:	24845855 	addiu	a0,a0,22613
  41267c:	00002821 	move	a1,zero
  412680:	8f9980fc 	lw	t9,-32516(gp)
  412684:	0320f809 	jalr	t9
  412688:	240600ff 	li	a2,255
  41268c:	8fbc0028 	lw	gp,40(sp)
  412690:	8f8280b4 	lw	v0,-32588(gp)
  412694:	8c440000 	lw	a0,0(v0)
  412698:	3c050042 	lui	a1,0x42
  41269c:	8fc60000 	lw	a2,0(s8)
[31m  4126a0:	8f998190 	lw	t9,fprintf[0m
  4126a4:	0320f809 	jalr	t9
  4126a8:	24a5f660 	addiu	a1,a1,-2464
--
  412828:	8f998080 	lw	t9,-32640(gp)
  41282c:	0320f809 	jalr	t9
  412830:	00000000 	nop
  412834:	8fbc0028 	lw	gp,40(sp)
  412838:	16020073 	bne	s0,v0,412a08 <GetEventSupportList@@Base+0x2c84>
  41283c:	3c030005 	lui	v1,0x5
  412840:	16600072 	bnez	s3,412a0c <GetEventSupportList@@Base+0x2c88>
  412844:	34635fa8 	ori	v1,v1,0x5fa8
  412848:	16a0006f 	bnez	s5,412a08 <GetEventSupportList@@Base+0x2c84>
  41284c:	3c030005 	lui	v1,0x5
  412850:	3c050005 	lui	a1,0x5
  412854:	02e52021 	addu	a0,s7,a1
  412858:	3c020042 	lui	v0,0x42
  41285c:	9042ff60 	lbu	v0,-160(v0)
  412860:	a0825854 	sb	v0,22612(a0)
  412864:	24845855 	addiu	a0,a0,22613
  412868:	00002821 	move	a1,zero
  41286c:	8f9980fc 	lw	t9,-32516(gp)
  412870:	0320f809 	jalr	t9
  412874:	240600ff 	li	a2,255
  412878:	8fbc0028 	lw	gp,40(sp)
  41287c:	8f8280b4 	lw	v0,-32588(gp)
  412880:	8c440000 	lw	a0,0(v0)
  412884:	3c050042 	lui	a1,0x42
  412888:	8fc60000 	lw	a2,0(s8)
[31m  41288c:	8f998190 	lw	t9,fprintf[0m
  412890:	0320f809 	jalr	t9
  412894:	24a5f6fc 	addiu	a1,a1,-2308
--
  412a10:	8c640000 	lw	a0,0(v1)
  412a14:	8f998080 	lw	t9,-32640(gp)
  412a18:	0320f809 	jalr	t9
  412a1c:	00000000 	nop
  412a20:	8fbc0028 	lw	gp,40(sp)
  412a24:	16020072 	bne	s0,v0,412bf0 <GetEventSupportList@@Base+0x2e6c>
  412a28:	3c030042 	lui	v1,0x42
  412a2c:	16600070 	bnez	s3,412bf0 <GetEventSupportList@@Base+0x2e6c>
  412a30:	00000000 	nop
  412a34:	16a0006e 	bnez	s5,412bf0 <GetEventSupportList@@Base+0x2e6c>
  412a38:	3c050005 	lui	a1,0x5
  412a3c:	02e52021 	addu	a0,s7,a1
  412a40:	3c020042 	lui	v0,0x42
  412a44:	9042ff60 	lbu	v0,-160(v0)
  412a48:	a0825854 	sb	v0,22612(a0)
  412a4c:	24845855 	addiu	a0,a0,22613
  412a50:	00002821 	move	a1,zero
  412a54:	8f9980fc 	lw	t9,-32516(gp)
  412a58:	0320f809 	jalr	t9
  412a5c:	240600ff 	li	a2,255
  412a60:	8fbc0028 	lw	gp,40(sp)
  412a64:	8f8280b4 	lw	v0,-32588(gp)
  412a68:	8c440000 	lw	a0,0(v0)
  412a6c:	3c050042 	lui	a1,0x42
  412a70:	8fc60000 	lw	a2,0(s8)
[31m  412a74:	8f998190 	lw	t9,fprintf[0m
  412a78:	0320f809 	jalr	t9
  412a7c:	24a5f73c 	addiu	a1,a1,-2244
--
  412bec:	00000000 	nop
  412bf0:	8f998080 	lw	t9,-32640(gp)
  412bf4:	0320f809 	jalr	t9
  412bf8:	2464efe4 	addiu	a0,v1,-4124
  412bfc:	8fbc0028 	lw	gp,40(sp)
  412c00:	16020072 	bne	s0,v0,412dcc <GetEventSupportList@@Base+0x3048>
  412c04:	3c040042 	lui	a0,0x42
  412c08:	16600070 	bnez	s3,412dcc <GetEventSupportList@@Base+0x3048>
  412c0c:	00000000 	nop
  412c10:	16a0006e 	bnez	s5,412dcc <GetEventSupportList@@Base+0x3048>
  412c14:	3c050005 	lui	a1,0x5
  412c18:	02e52021 	addu	a0,s7,a1
  412c1c:	3c020042 	lui	v0,0x42
  412c20:	9042ff60 	lbu	v0,-160(v0)
  412c24:	a0825854 	sb	v0,22612(a0)
  412c28:	24845855 	addiu	a0,a0,22613
  412c2c:	00002821 	move	a1,zero
  412c30:	8f9980fc 	lw	t9,-32516(gp)
  412c34:	0320f809 	jalr	t9
  412c38:	240600ff 	li	a2,255
  412c3c:	8fbc0028 	lw	gp,40(sp)
  412c40:	8f8280b4 	lw	v0,-32588(gp)
  412c44:	8c440000 	lw	a0,0(v0)
  412c48:	3c050042 	lui	a1,0x42
  412c4c:	8fc60000 	lw	a2,0(s8)
[31m  412c50:	8f998190 	lw	t9,fprintf[0m
  412c54:	0320f809 	jalr	t9
  412c58:	24a5f77c 	addiu	a1,a1,-2180
--
  412dc8:	00000000 	nop
  412dcc:	8f998080 	lw	t9,-32640(gp)
  412dd0:	0320f809 	jalr	t9
  412dd4:	2484f7bc 	addiu	a0,a0,-2116
  412dd8:	8fbc0028 	lw	gp,40(sp)
  412ddc:	16020079 	bne	s0,v0,412fc4 <GetEventSupportList@@Base+0x3240>
  412de0:	3c040042 	lui	a0,0x42
  412de4:	16600077 	bnez	s3,412fc4 <GetEventSupportList@@Base+0x3240>
  412de8:	00000000 	nop
  412dec:	16a00075 	bnez	s5,412fc4 <GetEventSupportList@@Base+0x3240>
  412df0:	3c030005 	lui	v1,0x5
  412df4:	02e32021 	addu	a0,s7,v1
  412df8:	3c020042 	lui	v0,0x42
  412dfc:	9042ff60 	lbu	v0,-160(v0)
  412e00:	a0825854 	sb	v0,22612(a0)
  412e04:	24845855 	addiu	a0,a0,22613
  412e08:	00002821 	move	a1,zero
  412e0c:	8f9980fc 	lw	t9,-32516(gp)
  412e10:	0320f809 	jalr	t9
  412e14:	240600ff 	li	a2,255
  412e18:	8fbc0028 	lw	gp,40(sp)
  412e1c:	8f8280b4 	lw	v0,-32588(gp)
  412e20:	8c440000 	lw	a0,0(v0)
  412e24:	3c050042 	lui	a1,0x42
  412e28:	8fc60000 	lw	a2,0(s8)
[31m  412e2c:	8f998190 	lw	t9,fprintf[0m
  412e30:	0320f809 	jalr	t9
  412e34:	24a5f7c4 	addiu	a1,a1,-2108
--
  412fc0:	00000000 	nop
  412fc4:	8f998080 	lw	t9,-32640(gp)
  412fc8:	0320f809 	jalr	t9
  412fcc:	2484f860 	addiu	a0,a0,-1952
  412fd0:	8fbc0028 	lw	gp,40(sp)
  412fd4:	16020075 	bne	s0,v0,4131ac <GetEventSupportList@@Base+0x3428>
  412fd8:	3c040042 	lui	a0,0x42
  412fdc:	16600073 	bnez	s3,4131ac <GetEventSupportList@@Base+0x3428>
  412fe0:	00000000 	nop
  412fe4:	16a00071 	bnez	s5,4131ac <GetEventSupportList@@Base+0x3428>
  412fe8:	3c030005 	lui	v1,0x5
  412fec:	02e32021 	addu	a0,s7,v1
  412ff0:	3c020042 	lui	v0,0x42
  412ff4:	9042ff60 	lbu	v0,-160(v0)
  412ff8:	a0825854 	sb	v0,22612(a0)
  412ffc:	24845855 	addiu	a0,a0,22613
  413000:	00002821 	move	a1,zero
  413004:	8f9980fc 	lw	t9,-32516(gp)
  413008:	0320f809 	jalr	t9
  41300c:	240600ff 	li	a2,255
  413010:	8fbc0028 	lw	gp,40(sp)
  413014:	8f8280b4 	lw	v0,-32588(gp)
  413018:	8c440000 	lw	a0,0(v0)
  41301c:	3c050042 	lui	a1,0x42
  413020:	8fc60000 	lw	a2,0(s8)
[31m  413024:	8f998190 	lw	t9,fprintf[0m
  413028:	0320f809 	jalr	t9
  41302c:	24a5f868 	addiu	a1,a1,-1944
--
  4131a8:	00000000 	nop
  4131ac:	8f998080 	lw	t9,-32640(gp)
  4131b0:	0320f809 	jalr	t9
  4131b4:	2484ed38 	addiu	a0,a0,-4808
  4131b8:	8fbc0028 	lw	gp,40(sp)
  4131bc:	160200bc 	bne	s0,v0,4134b0 <GetEventSupportList@@Base+0x372c>
  4131c0:	00000000 	nop
  4131c4:	166000ba 	bnez	s3,4134b0 <GetEventSupportList@@Base+0x372c>
  4131c8:	00000000 	nop
  4131cc:	16a000b8 	bnez	s5,4134b0 <GetEventSupportList@@Base+0x372c>
  4131d0:	3c030005 	lui	v1,0x5
  4131d4:	02e32021 	addu	a0,s7,v1
  4131d8:	3c020042 	lui	v0,0x42
  4131dc:	9042ff60 	lbu	v0,-160(v0)
  4131e0:	a0825854 	sb	v0,22612(a0)
  4131e4:	24845855 	addiu	a0,a0,22613
  4131e8:	00002821 	move	a1,zero
  4131ec:	8f9980fc 	lw	t9,-32516(gp)
  4131f0:	0320f809 	jalr	t9
  4131f4:	240600ff 	li	a2,255
  4131f8:	8fbc0028 	lw	gp,40(sp)
  4131fc:	8f8280b4 	lw	v0,-32588(gp)
  413200:	8c440000 	lw	a0,0(v0)
  413204:	3c050042 	lui	a1,0x42
  413208:	8fc60000 	lw	a2,0(s8)
[31m  41320c:	8f998190 	lw	t9,fprintf[0m
  413210:	0320f809 	jalr	t9
  413214:	24a5f900 	addiu	a1,a1,-1792
--
  4134b0:	3c040042 	lui	a0,0x42
  4134b4:	8f998080 	lw	t9,-32640(gp)
  4134b8:	0320f809 	jalr	t9
  4134bc:	2484ed30 	addiu	a0,a0,-4816
  4134c0:	8fbc0028 	lw	gp,40(sp)
  4134c4:	160200bc 	bne	s0,v0,4137b8 <GetEventSupportList@@Base+0x3a34>
  4134c8:	00000000 	nop
  4134cc:	166000ba 	bnez	s3,4137b8 <GetEventSupportList@@Base+0x3a34>
  4134d0:	00000000 	nop
  4134d4:	16a000b8 	bnez	s5,4137b8 <GetEventSupportList@@Base+0x3a34>
  4134d8:	3c030005 	lui	v1,0x5
  4134dc:	02e32021 	addu	a0,s7,v1
  4134e0:	3c020042 	lui	v0,0x42
  4134e4:	9042ff60 	lbu	v0,-160(v0)
  4134e8:	a0825854 	sb	v0,22612(a0)
  4134ec:	24845855 	addiu	a0,a0,22613
  4134f0:	00002821 	move	a1,zero
  4134f4:	8f9980fc 	lw	t9,-32516(gp)
  4134f8:	0320f809 	jalr	t9
  4134fc:	240600ff 	li	a2,255
  413500:	8fbc0028 	lw	gp,40(sp)
  413504:	8f8280b4 	lw	v0,-32588(gp)
  413508:	8c440000 	lw	a0,0(v0)
  41350c:	3c050042 	lui	a1,0x42
  413510:	8fc60000 	lw	a2,0(s8)
[31m  413514:	8f998190 	lw	t9,fprintf[0m
  413518:	0320f809 	jalr	t9
  41351c:	24a5f9e8 	addiu	a1,a1,-1560
--
  4137fc:	34845fb8 	ori	a0,a0,0x5fb8
  413800:	009d2021 	addu	a0,a0,sp
  413804:	100000d8 	b	413b68 <GetEventSupportList@@Base+0x3de4>
  413808:	ac850000 	sw	a1,0(a0)
  41380c:	02e61021 	addu	v0,s7,a2
  413810:	ac505848 	sw	s0,22600(v0)
  413814:	3c070005 	lui	a3,0x5
  413818:	34e75fb8 	ori	a3,a3,0x5fb8
  41381c:	00fd3821 	addu	a3,a3,sp
  413820:	8ce70000 	lw	a3,0(a3)
  413824:	14e000d1 	bnez	a3,413b6c <GetEventSupportList@@Base+0x3de8>
  413828:	3c050005 	lui	a1,0x5
  41382c:	120000d0 	beqz	s0,413b70 <GetEventSupportList@@Base+0x3dec>
  413830:	34a55fac 	ori	a1,a1,0x5fac
  413834:	8c47584c 	lw	a3,22604(v0)
  413838:	10e000cc 	beqz	a3,413b6c <GetEventSupportList@@Base+0x3de8>
  41383c:	3c050005 	lui	a1,0x5
  413840:	8c425850 	lw	v0,22608(v0)
  413844:	104000ca 	beqz	v0,413b70 <GetEventSupportList@@Base+0x3dec>
  413848:	34a55fac 	ori	a1,a1,0x5fac
  41384c:	8f8380b4 	lw	v1,-32588(gp)
  413850:	8c640000 	lw	a0,0(v1)
  413854:	afa20010 	sw	v0,16(sp)
  413858:	3c050042 	lui	a1,0x42
  41385c:	24a5fa28 	addiu	a1,a1,-1496
[31m  413860:	8f998190 	lw	t9,fprintf[0m
  413864:	0320f809 	jalr	t9
  413868:	02003021 	move	a2,s0
--
  413ce0:	34845fb8 	ori	a0,a0,0x5fb8
  413ce4:	009d2021 	addu	a0,a0,sp
  413ce8:	100000d8 	b	41404c <GetEventSupportList@@Base+0x42c8>
  413cec:	ac850000 	sw	a1,0(a0)
  413cf0:	02e61021 	addu	v0,s7,a2
  413cf4:	ac50584c 	sw	s0,22604(v0)
  413cf8:	3c070005 	lui	a3,0x5
  413cfc:	34e75fb8 	ori	a3,a3,0x5fb8
  413d00:	00fd3821 	addu	a3,a3,sp
  413d04:	8ce70000 	lw	a3,0(a3)
  413d08:	14e000d1 	bnez	a3,414050 <GetEventSupportList@@Base+0x42cc>
  413d0c:	3c050005 	lui	a1,0x5
  413d10:	8c465848 	lw	a2,22600(v0)
  413d14:	10c000cf 	beqz	a2,414054 <GetEventSupportList@@Base+0x42d0>
  413d18:	34a55fac 	ori	a1,a1,0x5fac
  413d1c:	120000cc 	beqz	s0,414050 <GetEventSupportList@@Base+0x42cc>
  413d20:	3c050005 	lui	a1,0x5
  413d24:	8c425850 	lw	v0,22608(v0)
  413d28:	104000ca 	beqz	v0,414054 <GetEventSupportList@@Base+0x42d0>
  413d2c:	34a55fac 	ori	a1,a1,0x5fac
  413d30:	8f8380b4 	lw	v1,-32588(gp)
  413d34:	8c640000 	lw	a0,0(v1)
  413d38:	afa20010 	sw	v0,16(sp)
  413d3c:	3c050042 	lui	a1,0x42
  413d40:	24a5fa28 	addiu	a1,a1,-1496
[31m  413d44:	8f998190 	lw	t9,fprintf[0m
  413d48:	0320f809 	jalr	t9
  413d4c:	02003821 	move	a3,s0
--
  4141c4:	34845fb8 	ori	a0,a0,0x5fb8
  4141c8:	009d2021 	addu	a0,a0,sp
  4141cc:	100000d8 	b	414530 <GetEventSupportList@@Base+0x47ac>
  4141d0:	ac850000 	sw	a1,0(a0)
  4141d4:	02e61021 	addu	v0,s7,a2
  4141d8:	ac50584c 	sw	s0,22604(v0)
  4141dc:	3c070005 	lui	a3,0x5
  4141e0:	34e75fb8 	ori	a3,a3,0x5fb8
  4141e4:	00fd3821 	addu	a3,a3,sp
  4141e8:	8ce70000 	lw	a3,0(a3)
  4141ec:	14e000d1 	bnez	a3,414534 <GetEventSupportList@@Base+0x47b0>
  4141f0:	3c050005 	lui	a1,0x5
  4141f4:	8c465848 	lw	a2,22600(v0)
  4141f8:	10c000cf 	beqz	a2,414538 <GetEventSupportList@@Base+0x47b4>
  4141fc:	34a55fac 	ori	a1,a1,0x5fac
  414200:	120000cc 	beqz	s0,414534 <GetEventSupportList@@Base+0x47b0>
  414204:	3c050005 	lui	a1,0x5
  414208:	8c425850 	lw	v0,22608(v0)
  41420c:	104000ca 	beqz	v0,414538 <GetEventSupportList@@Base+0x47b4>
  414210:	34a55fac 	ori	a1,a1,0x5fac
  414214:	8f8380b4 	lw	v1,-32588(gp)
  414218:	8c640000 	lw	a0,0(v1)
  41421c:	afa20010 	sw	v0,16(sp)
  414220:	3c050042 	lui	a1,0x42
  414224:	24a5fa28 	addiu	a1,a1,-1496
[31m  414228:	8f998190 	lw	t9,fprintf[0m
  41422c:	0320f809 	jalr	t9
  414230:	02003821 	move	a3,s0
--
  4146a8:	3c040005 	lui	a0,0x5
  4146ac:	34845fb8 	ori	a0,a0,0x5fb8
  4146b0:	009d2021 	addu	a0,a0,sp
  4146b4:	100000d7 	b	414a14 <GetEventSupportList@@Base+0x4c90>
  4146b8:	ac850000 	sw	a1,0(a0)
  4146bc:	02e61021 	addu	v0,s7,a2
  4146c0:	ac505850 	sw	s0,22608(v0)
  4146c4:	3c070005 	lui	a3,0x5
  4146c8:	34e75fb8 	ori	a3,a3,0x5fb8
  4146cc:	00fd3821 	addu	a3,a3,sp
  4146d0:	8ce70000 	lw	a3,0(a3)
  4146d4:	14e000d0 	bnez	a3,414a18 <GetEventSupportList@@Base+0x4c94>
  4146d8:	3c050005 	lui	a1,0x5
  4146dc:	8c465848 	lw	a2,22600(v0)
  4146e0:	10c000ce 	beqz	a2,414a1c <GetEventSupportList@@Base+0x4c98>
  4146e4:	34a55fac 	ori	a1,a1,0x5fac
  4146e8:	8c47584c 	lw	a3,22604(v0)
  4146ec:	10e000ca 	beqz	a3,414a18 <GetEventSupportList@@Base+0x4c94>
  4146f0:	3c050005 	lui	a1,0x5
  4146f4:	120000c9 	beqz	s0,414a1c <GetEventSupportList@@Base+0x4c98>
  4146f8:	34a55fac 	ori	a1,a1,0x5fac
  4146fc:	8f8280b4 	lw	v0,-32588(gp)
  414700:	8c440000 	lw	a0,0(v0)
  414704:	afb00010 	sw	s0,16(sp)
  414708:	3c050042 	lui	a1,0x42
[31m  41470c:	8f998190 	lw	t9,fprintf[0m
  414710:	0320f809 	jalr	t9
  414714:	24a5fa28 	addiu	a1,a1,-1496
--
  414b20:	8f998270 	lw	t9,-32144(gp)
  414b24:	0320f809 	jalr	t9
  414b28:	02003821 	move	a3,s0
  414b2c:	8fbc0028 	lw	gp,40(sp)
  414b30:	8f998168 	lw	t9,-32408(gp)
  414b34:	0320f809 	jalr	t9
  414b38:	02002021 	move	a0,s0
  414b3c:	8fbc0028 	lw	gp,40(sp)
  414b40:	10000196 	b	41519c <GetEventSupportList@@Base+0x5418>
  414b44:	00000000 	nop
  414b48:	34427815 	ori	v0,v0,0x7815
  414b4c:	02021021 	addu	v0,s0,v0
  414b50:	2c42002c 	sltiu	v0,v0,44
  414b54:	14400005 	bnez	v0,414b6c <GetEventSupportList@@Base+0x4de8>
  414b58:	24130001 	li	s3,1
  414b5c:	3c13fff9 	lui	s3,0xfff9
  414b60:	36738ebe 	ori	s3,s3,0x8ebe
  414b64:	02139821 	addu	s3,s0,s3
  414b68:	2e730027 	sltiu	s3,s3,39
  414b6c:	12a00087 	beqz	s5,414d8c <GetEventSupportList@@Base+0x5008>
  414b70:	3c050042 	lui	a1,0x42
  414b74:	8f8280b4 	lw	v0,-32588(gp)
  414b78:	8c440000 	lw	a0,0(v0)
  414b7c:	24a5fb1c 	addiu	a1,a1,-1252
  414b80:	8fc60000 	lw	a2,0(s8)
[31m  414b84:	8f998190 	lw	t9,fprintf[0m
  414b88:	0320f809 	jalr	t9
  414b8c:	02003821 	move	a3,s0
--
  416d3c:	1642007e 	bne	s2,v0,416f38 <GetEventSupportList@@Base+0x71b4>
  416d40:	3c050005 	lui	a1,0x5
  416d44:	16a0007d 	bnez	s5,416f3c <GetEventSupportList@@Base+0x71b8>
  416d48:	34a587f4 	ori	a1,a1,0x87f4
  416d4c:	16c00079 	bnez	s6,416f34 <GetEventSupportList@@Base+0x71b0>
  416d50:	3c020042 	lui	v0,0x42
  416d54:	9042ff60 	lbu	v0,-160(v0)
  416d58:	a2e280ac 	sb	v0,-32596(s7)
  416d5c:	3c050005 	lui	a1,0x5
  416d60:	34a58800 	ori	a1,a1,0x8800
  416d64:	00bd2821 	addu	a1,a1,sp
  416d68:	8ca40000 	lw	a0,0(a1)
  416d6c:	00002821 	move	a1,zero
  416d70:	8f9980fc 	lw	t9,-32516(gp)
  416d74:	0320f809 	jalr	t9
  416d78:	240600ff 	li	a2,255
  416d7c:	8fbc0028 	lw	gp,40(sp)
  416d80:	8f8280b4 	lw	v0,-32588(gp)
  416d84:	8c440000 	lw	a0,0(v0)
  416d88:	3c050042 	lui	a1,0x42
  416d8c:	3c020005 	lui	v0,0x5
  416d90:	344287fc 	ori	v0,v0,0x87fc
  416d94:	005d1021 	addu	v0,v0,sp
  416d98:	8c420000 	lw	v0,0(v0)
  416d9c:	8c460000 	lw	a2,0(v0)
[31m  416da0:	8f998190 	lw	t9,fprintf[0m
  416da4:	0320f809 	jalr	t9
  416da8:	24a5fb5c 	addiu	a1,a1,-1188
--
  416f54:	1642007e 	bne	s2,v0,417150 <GetEventSupportList@@Base+0x73cc>
  416f58:	3c050005 	lui	a1,0x5
  416f5c:	16a0007d 	bnez	s5,417154 <GetEventSupportList@@Base+0x73d0>
  416f60:	34a587f8 	ori	a1,a1,0x87f8
  416f64:	16c00079 	bnez	s6,41714c <GetEventSupportList@@Base+0x73c8>
  416f68:	3c020042 	lui	v0,0x42
  416f6c:	9042ff60 	lbu	v0,-160(v0)
  416f70:	a2e280ac 	sb	v0,-32596(s7)
  416f74:	3c020005 	lui	v0,0x5
  416f78:	34428800 	ori	v0,v0,0x8800
  416f7c:	005d1021 	addu	v0,v0,sp
  416f80:	8c440000 	lw	a0,0(v0)
  416f84:	00002821 	move	a1,zero
  416f88:	8f9980fc 	lw	t9,-32516(gp)
  416f8c:	0320f809 	jalr	t9
  416f90:	240600ff 	li	a2,255
  416f94:	8fbc0028 	lw	gp,40(sp)
  416f98:	8f8280b4 	lw	v0,-32588(gp)
  416f9c:	8c440000 	lw	a0,0(v0)
  416fa0:	3c050042 	lui	a1,0x42
  416fa4:	3c030005 	lui	v1,0x5
  416fa8:	346387fc 	ori	v1,v1,0x87fc
  416fac:	007d1821 	addu	v1,v1,sp
  416fb0:	8c630000 	lw	v1,0(v1)
  416fb4:	8c660000 	lw	a2,0(v1)
[31m  416fb8:	8f998190 	lw	t9,fprintf[0m
  416fbc:	0320f809 	jalr	t9
  416fc0:	24a5fb94 	addiu	a1,a1,-1132
--
  41716c:	1642007e 	bne	s2,v0,417368 <GetEventSupportList@@Base+0x75e4>
  417170:	3c050005 	lui	a1,0x5
  417174:	16a0007d 	bnez	s5,41736c <GetEventSupportList@@Base+0x75e8>
  417178:	34a587e4 	ori	a1,a1,0x87e4
  41717c:	16c00079 	bnez	s6,417364 <GetEventSupportList@@Base+0x75e0>
  417180:	3c020042 	lui	v0,0x42
  417184:	9042ff60 	lbu	v0,-160(v0)
  417188:	a2e280ac 	sb	v0,-32596(s7)
  41718c:	3c020005 	lui	v0,0x5
  417190:	34428800 	ori	v0,v0,0x8800
  417194:	005d1021 	addu	v0,v0,sp
  417198:	8c440000 	lw	a0,0(v0)
  41719c:	00002821 	move	a1,zero
  4171a0:	8f9980fc 	lw	t9,-32516(gp)
  4171a4:	0320f809 	jalr	t9
  4171a8:	240600ff 	li	a2,255
  4171ac:	8fbc0028 	lw	gp,40(sp)
  4171b0:	8f8280b4 	lw	v0,-32588(gp)
  4171b4:	8c440000 	lw	a0,0(v0)
  4171b8:	3c050042 	lui	a1,0x42
  4171bc:	3c030005 	lui	v1,0x5
  4171c0:	346387fc 	ori	v1,v1,0x87fc
  4171c4:	007d1821 	addu	v1,v1,sp
  4171c8:	8c630000 	lw	v1,0(v1)
  4171cc:	8c660000 	lw	a2,0(v1)
[31m  4171d0:	8f998190 	lw	t9,fprintf[0m
  4171d4:	0320f809 	jalr	t9
  4171d8:	24a5fbcc 	addiu	a1,a1,-1076
--
  417384:	1642007e 	bne	s2,v0,417580 <GetEventSupportList@@Base+0x77fc>
  417388:	3c050005 	lui	a1,0x5
  41738c:	16a0007d 	bnez	s5,417584 <GetEventSupportList@@Base+0x7800>
  417390:	34a587e8 	ori	a1,a1,0x87e8
  417394:	16c00079 	bnez	s6,41757c <GetEventSupportList@@Base+0x77f8>
  417398:	3c020042 	lui	v0,0x42
  41739c:	9042ff60 	lbu	v0,-160(v0)
  4173a0:	a2e280ac 	sb	v0,-32596(s7)
  4173a4:	3c020005 	lui	v0,0x5
  4173a8:	34428800 	ori	v0,v0,0x8800
  4173ac:	005d1021 	addu	v0,v0,sp
  4173b0:	8c440000 	lw	a0,0(v0)
  4173b4:	00002821 	move	a1,zero
  4173b8:	8f9980fc 	lw	t9,-32516(gp)
  4173bc:	0320f809 	jalr	t9
  4173c0:	240600ff 	li	a2,255
  4173c4:	8fbc0028 	lw	gp,40(sp)
  4173c8:	8f8280b4 	lw	v0,-32588(gp)
  4173cc:	8c440000 	lw	a0,0(v0)
  4173d0:	3c050042 	lui	a1,0x42
  4173d4:	3c030005 	lui	v1,0x5
  4173d8:	346387fc 	ori	v1,v1,0x87fc
  4173dc:	007d1821 	addu	v1,v1,sp
  4173e0:	8c630000 	lw	v1,0(v1)
  4173e4:	8c660000 	lw	a2,0(v1)
[31m  4173e8:	8f998190 	lw	t9,fprintf[0m
  4173ec:	0320f809 	jalr	t9
  4173f0:	24a5fc04 	addiu	a1,a1,-1020
--
  41759c:	1642007d 	bne	s2,v0,417794 <GetEventSupportList@@Base+0x7a10>
  4175a0:	3c050042 	lui	a1,0x42
  4175a4:	16a0007b 	bnez	s5,417794 <GetEventSupportList@@Base+0x7a10>
  4175a8:	00000000 	nop
  4175ac:	16c00079 	bnez	s6,417794 <GetEventSupportList@@Base+0x7a10>
  4175b0:	3c020042 	lui	v0,0x42
  4175b4:	9042ff60 	lbu	v0,-160(v0)
  4175b8:	a2e280ac 	sb	v0,-32596(s7)
  4175bc:	3c020005 	lui	v0,0x5
  4175c0:	34428800 	ori	v0,v0,0x8800
  4175c4:	005d1021 	addu	v0,v0,sp
  4175c8:	8c440000 	lw	a0,0(v0)
  4175cc:	00002821 	move	a1,zero
  4175d0:	8f9980fc 	lw	t9,-32516(gp)
  4175d4:	0320f809 	jalr	t9
  4175d8:	240600ff 	li	a2,255
  4175dc:	8fbc0028 	lw	gp,40(sp)
  4175e0:	8f8280b4 	lw	v0,-32588(gp)
  4175e4:	8c440000 	lw	a0,0(v0)
  4175e8:	3c050042 	lui	a1,0x42
  4175ec:	3c030005 	lui	v1,0x5
  4175f0:	346387fc 	ori	v1,v1,0x87fc
  4175f4:	007d1821 	addu	v1,v1,sp
  4175f8:	8c630000 	lw	v1,0(v1)
  4175fc:	8c660000 	lw	a2,0(v1)
[31m  417600:	8f998190 	lw	t9,fprintf[0m
  417604:	0320f809 	jalr	t9
  417608:	24a5fc40 	addiu	a1,a1,-960
--
  4177a4:	1642007d 	bne	s2,v0,41799c <GetEventSupportList@@Base+0x7c18>
  4177a8:	00000000 	nop
  4177ac:	16a0007b 	bnez	s5,41799c <GetEventSupportList@@Base+0x7c18>
  4177b0:	00000000 	nop
  4177b4:	16c00079 	bnez	s6,41799c <GetEventSupportList@@Base+0x7c18>
  4177b8:	3c020042 	lui	v0,0x42
  4177bc:	9042ff60 	lbu	v0,-160(v0)
  4177c0:	a2e280ac 	sb	v0,-32596(s7)
  4177c4:	3c020005 	lui	v0,0x5
  4177c8:	34428800 	ori	v0,v0,0x8800
  4177cc:	005d1021 	addu	v0,v0,sp
  4177d0:	8c440000 	lw	a0,0(v0)
  4177d4:	00002821 	move	a1,zero
  4177d8:	8f9980fc 	lw	t9,-32516(gp)
  4177dc:	0320f809 	jalr	t9
  4177e0:	240600ff 	li	a2,255
  4177e4:	8fbc0028 	lw	gp,40(sp)
  4177e8:	8f8280b4 	lw	v0,-32588(gp)
  4177ec:	8c440000 	lw	a0,0(v0)
  4177f0:	3c050042 	lui	a1,0x42
  4177f4:	3c030005 	lui	v1,0x5
  4177f8:	346387fc 	ori	v1,v1,0x87fc
  4177fc:	007d1821 	addu	v1,v1,sp
  417800:	8c630000 	lw	v1,0(v1)
  417804:	8c660000 	lw	a2,0(v1)
[31m  417808:	8f998190 	lw	t9,fprintf[0m
  41780c:	0320f809 	jalr	t9
  417810:	24a5fc78 	addiu	a1,a1,-904
--
  4179b0:	16420085 	bne	s2,v0,417bc8 <GetEventSupportList@@Base+0x7e44>
  4179b4:	3c040042 	lui	a0,0x42
  4179b8:	16a00083 	bnez	s5,417bc8 <GetEventSupportList@@Base+0x7e44>
  4179bc:	00000000 	nop
  4179c0:	16c00081 	bnez	s6,417bc8 <GetEventSupportList@@Base+0x7e44>
  4179c4:	3c020042 	lui	v0,0x42
  4179c8:	9042ff60 	lbu	v0,-160(v0)
  4179cc:	a2e280ac 	sb	v0,-32596(s7)
  4179d0:	3c050005 	lui	a1,0x5
  4179d4:	34a58800 	ori	a1,a1,0x8800
  4179d8:	00bd2821 	addu	a1,a1,sp
  4179dc:	8ca40000 	lw	a0,0(a1)
  4179e0:	00002821 	move	a1,zero
  4179e4:	8f9980fc 	lw	t9,-32516(gp)
  4179e8:	0320f809 	jalr	t9
  4179ec:	240600ff 	li	a2,255
  4179f0:	8fbc0028 	lw	gp,40(sp)
  4179f4:	8f8280b4 	lw	v0,-32588(gp)
  4179f8:	8c440000 	lw	a0,0(v0)
  4179fc:	3c050042 	lui	a1,0x42
  417a00:	3c020005 	lui	v0,0x5
  417a04:	344287fc 	ori	v0,v0,0x87fc
  417a08:	005d1021 	addu	v0,v0,sp
  417a0c:	8c420000 	lw	v0,0(v0)
  417a10:	8c460000 	lw	a2,0(v0)
[31m  417a14:	8f998190 	lw	t9,fprintf[0m
  417a18:	0320f809 	jalr	t9
  417a1c:	24a5fcb4 	addiu	a1,a1,-844
--
  417bd8:	16420081 	bne	s2,v0,417de0 <GetEventSupportList@@Base+0x805c>
  417bdc:	3c040042 	lui	a0,0x42
  417be0:	16a0007f 	bnez	s5,417de0 <GetEventSupportList@@Base+0x805c>
  417be4:	00000000 	nop
  417be8:	16c0007d 	bnez	s6,417de0 <GetEventSupportList@@Base+0x805c>
  417bec:	3c020042 	lui	v0,0x42
  417bf0:	9042ff60 	lbu	v0,-160(v0)
  417bf4:	a2e280ac 	sb	v0,-32596(s7)
  417bf8:	3c050005 	lui	a1,0x5
  417bfc:	34a58800 	ori	a1,a1,0x8800
  417c00:	00bd2821 	addu	a1,a1,sp
  417c04:	8ca40000 	lw	a0,0(a1)
  417c08:	00002821 	move	a1,zero
  417c0c:	8f9980fc 	lw	t9,-32516(gp)
  417c10:	0320f809 	jalr	t9
  417c14:	240600ff 	li	a2,255
  417c18:	8fbc0028 	lw	gp,40(sp)
  417c1c:	8f8280b4 	lw	v0,-32588(gp)
  417c20:	8c440000 	lw	a0,0(v0)
  417c24:	3c050042 	lui	a1,0x42
  417c28:	3c020005 	lui	v0,0x5
  417c2c:	344287fc 	ori	v0,v0,0x87fc
  417c30:	005d1021 	addu	v0,v0,sp
  417c34:	8c420000 	lw	v0,0(v0)
  417c38:	8c460000 	lw	a2,0(v0)
[31m  417c3c:	8f998190 	lw	t9,fprintf[0m
  417c40:	0320f809 	jalr	t9
  417c44:	24a5fcf0 	addiu	a1,a1,-784
--
  417e14:	24050001 	li	a1,1
  417e18:	3c040005 	lui	a0,0x5
  417e1c:	34848820 	ori	a0,a0,0x8820
  417e20:	009d2021 	addu	a0,a0,sp
  417e24:	100000eb 	b	4181d4 <GetEventSupportList@@Base+0x8450>
  417e28:	ac850000 	sw	a1,0(a0)
  417e2c:	aef280a0 	sw	s2,-32608(s7)
  417e30:	34428820 	ori	v0,v0,0x8820
  417e34:	005d1021 	addu	v0,v0,sp
  417e38:	8c420000 	lw	v0,0(v0)
  417e3c:	144000e6 	bnez	v0,4181d8 <GetEventSupportList@@Base+0x8454>
  417e40:	3c030005 	lui	v1,0x5
  417e44:	124000e5 	beqz	s2,4181dc <GetEventSupportList@@Base+0x8458>
  417e48:	34638804 	ori	v1,v1,0x8804
  417e4c:	8ee780a4 	lw	a3,-32604(s7)
  417e50:	10e000e1 	beqz	a3,4181d8 <GetEventSupportList@@Base+0x8454>
  417e54:	3c030005 	lui	v1,0x5
  417e58:	8ee280a8 	lw	v0,-32600(s7)
  417e5c:	104000df 	beqz	v0,4181dc <GetEventSupportList@@Base+0x8458>
  417e60:	34638804 	ori	v1,v1,0x8804
  417e64:	8f8380b4 	lw	v1,-32588(gp)
  417e68:	8c640000 	lw	a0,0(v1)
  417e6c:	afa20010 	sw	v0,16(sp)
  417e70:	3c050042 	lui	a1,0x42
  417e74:	24a5fa28 	addiu	a1,a1,-1496
[31m  417e78:	8f998190 	lw	t9,fprintf[0m
  417e7c:	0320f809 	jalr	t9
  417e80:	02403021 	move	a2,s2
--
  418348:	24050001 	li	a1,1
  41834c:	3c040005 	lui	a0,0x5
  418350:	34848820 	ori	a0,a0,0x8820
  418354:	009d2021 	addu	a0,a0,sp
  418358:	100000eb 	b	418708 <GetEventSupportList@@Base+0x8984>
  41835c:	ac850000 	sw	a1,0(a0)
  418360:	aef280a4 	sw	s2,-32604(s7)
  418364:	34428820 	ori	v0,v0,0x8820
  418368:	005d1021 	addu	v0,v0,sp
  41836c:	8c420000 	lw	v0,0(v0)
  418370:	144000e6 	bnez	v0,41870c <GetEventSupportList@@Base+0x8988>
  418374:	3c030005 	lui	v1,0x5
  418378:	8ee680a0 	lw	a2,-32608(s7)
  41837c:	10c000e4 	beqz	a2,418710 <GetEventSupportList@@Base+0x898c>
  418380:	34638804 	ori	v1,v1,0x8804
  418384:	124000e1 	beqz	s2,41870c <GetEventSupportList@@Base+0x8988>
  418388:	3c030005 	lui	v1,0x5
  41838c:	8ee280a8 	lw	v0,-32600(s7)
  418390:	104000df 	beqz	v0,418710 <GetEventSupportList@@Base+0x898c>
  418394:	34638804 	ori	v1,v1,0x8804
  418398:	8f8380b4 	lw	v1,-32588(gp)
  41839c:	8c640000 	lw	a0,0(v1)
  4183a0:	afa20010 	sw	v0,16(sp)
  4183a4:	3c050042 	lui	a1,0x42
  4183a8:	24a5fa28 	addiu	a1,a1,-1496
[31m  4183ac:	8f998190 	lw	t9,fprintf[0m
  4183b0:	0320f809 	jalr	t9
  4183b4:	02403821 	move	a3,s2
--
  41887c:	24050001 	li	a1,1
  418880:	3c040005 	lui	a0,0x5
  418884:	34848820 	ori	a0,a0,0x8820
  418888:	009d2021 	addu	a0,a0,sp
  41888c:	100000eb 	b	418c3c <GetEventSupportList@@Base+0x8eb8>
  418890:	ac850000 	sw	a1,0(a0)
  418894:	aef280a4 	sw	s2,-32604(s7)
  418898:	34428820 	ori	v0,v0,0x8820
  41889c:	005d1021 	addu	v0,v0,sp
  4188a0:	8c420000 	lw	v0,0(v0)
  4188a4:	144000e6 	bnez	v0,418c40 <GetEventSupportList@@Base+0x8ebc>
  4188a8:	3c030005 	lui	v1,0x5
  4188ac:	8ee680a0 	lw	a2,-32608(s7)
  4188b0:	10c000e4 	beqz	a2,418c44 <GetEventSupportList@@Base+0x8ec0>
  4188b4:	34638804 	ori	v1,v1,0x8804
  4188b8:	124000e1 	beqz	s2,418c40 <GetEventSupportList@@Base+0x8ebc>
  4188bc:	3c030005 	lui	v1,0x5
  4188c0:	8ee280a8 	lw	v0,-32600(s7)
  4188c4:	104000df 	beqz	v0,418c44 <GetEventSupportList@@Base+0x8ec0>
  4188c8:	34638804 	ori	v1,v1,0x8804
  4188cc:	8f8380b4 	lw	v1,-32588(gp)
  4188d0:	8c640000 	lw	a0,0(v1)
  4188d4:	afa20010 	sw	v0,16(sp)
  4188d8:	3c050042 	lui	a1,0x42
  4188dc:	24a5fa28 	addiu	a1,a1,-1496
[31m  4188e0:	8f998190 	lw	t9,fprintf[0m
  4188e4:	0320f809 	jalr	t9
  4188e8:	02403821 	move	a3,s2
--
  418dac:	3c020005 	lui	v0,0x5
  418db0:	24050001 	li	a1,1
  418db4:	3c040005 	lui	a0,0x5
  418db8:	34848820 	ori	a0,a0,0x8820
  418dbc:	009d2021 	addu	a0,a0,sp
  418dc0:	100000ea 	b	41916c <GetEventSupportList@@Base+0x93e8>
  418dc4:	ac850000 	sw	a1,0(a0)
  418dc8:	aef280a8 	sw	s2,-32600(s7)
  418dcc:	34428820 	ori	v0,v0,0x8820
  418dd0:	005d1021 	addu	v0,v0,sp
  418dd4:	8c420000 	lw	v0,0(v0)
  418dd8:	144000e5 	bnez	v0,419170 <GetEventSupportList@@Base+0x93ec>
  418ddc:	3c030005 	lui	v1,0x5
  418de0:	8ee680a0 	lw	a2,-32608(s7)
  418de4:	10c000e3 	beqz	a2,419174 <GetEventSupportList@@Base+0x93f0>
  418de8:	34638804 	ori	v1,v1,0x8804
  418dec:	8ee780a4 	lw	a3,-32604(s7)
  418df0:	10e000df 	beqz	a3,419170 <GetEventSupportList@@Base+0x93ec>
  418df4:	3c030005 	lui	v1,0x5
  418df8:	124000de 	beqz	s2,419174 <GetEventSupportList@@Base+0x93f0>
  418dfc:	34638804 	ori	v1,v1,0x8804
  418e00:	8f8280b4 	lw	v0,-32588(gp)
  418e04:	8c440000 	lw	a0,0(v0)
  418e08:	afb20010 	sw	s2,16(sp)
  418e0c:	3c050042 	lui	a1,0x42
[31m  418e10:	8f998190 	lw	t9,fprintf[0m
  418e14:	0320f809 	jalr	t9
  418e18:	24a5fa28 	addiu	a1,a1,-1496
--
  419e08:	14400003 	bnez	v0,419e18 <PushDCHEvent@@Base+0x64c>
  419e0c:	24020001 	li	v0,1
  419e10:	10000002 	b	419e1c <PushDCHEvent@@Base+0x650>
  419e14:	afb1002c 	sw	s1,44(sp)
  419e18:	afa2013c 	sw	v0,316(sp)
  419e1c:	26100001 	addiu	s0,s0,1
  419e20:	0216102a 	slt	v0,s0,s6
  419e24:	1440ffb3 	bnez	v0,419cf4 <PushDCHEvent@@Base+0x528>
  419e28:	00000000 	nop
  419e2c:	8fa3013c 	lw	v1,316(sp)
  419e30:	1460005e 	bnez	v1,419fac <PushDCHEvent@@Base+0x7e0>
  419e34:	00000000 	nop
  419e38:	8fa60024 	lw	a2,36(sp)
  419e3c:	10c0005b 	beqz	a2,419fac <PushDCHEvent@@Base+0x7e0>
  419e40:	00000000 	nop
  419e44:	8fa70028 	lw	a3,40(sp)
  419e48:	10e00058 	beqz	a3,419fac <PushDCHEvent@@Base+0x7e0>
  419e4c:	00000000 	nop
  419e50:	8fa2002c 	lw	v0,44(sp)
  419e54:	10400055 	beqz	v0,419fac <PushDCHEvent@@Base+0x7e0>
  419e58:	00000000 	nop
  419e5c:	8f8380b4 	lw	v1,-32588(gp)
  419e60:	8c640000 	lw	a0,0(v1)
  419e64:	afa20010 	sw	v0,16(sp)
  419e68:	8fa50154 	lw	a1,340(sp)
[31m  419e6c:	8f998190 	lw	t9,fprintf[0m
  419e70:	0320f809 	jalr	t9
  419e74:	00000000 	nop
--
  41b25c:	00101042 	srl	v0,s0,0x1
  41b260:	82220000 	lb	v0,0(s1)
  41b264:	28430030 	slti	v1,v0,48
  41b268:	1460002a 	bnez	v1,41b314 <encrypt@@Base+0x340>
  41b26c:	304300ff 	andi	v1,v0,0xff
  41b270:	2464ffc6 	addiu	a0,v1,-58
  41b274:	308400ff 	andi	a0,a0,0xff
  41b278:	2c840007 	sltiu	a0,a0,7
  41b27c:	14800025 	bnez	a0,41b314 <encrypt@@Base+0x340>
  41b280:	2463ffb9 	addiu	v1,v1,-71
  41b284:	306300ff 	andi	v1,v1,0xff
  41b288:	2c63001a 	sltiu	v1,v1,26
  41b28c:	14600021 	bnez	v1,41b314 <encrypt@@Base+0x340>
  41b290:	00000000 	nop
  41b294:	28420067 	slti	v0,v0,103
  41b298:	1440002a 	bnez	v0,41b344 <encrypt@@Base+0x370>
  41b29c:	00000000 	nop
  41b2a0:	1000001c 	b	41b314 <encrypt@@Base+0x340>
  41b2a4:	00000000 	nop
  41b2a8:	8f8280b4 	lw	v0,-32588(gp)
  41b2ac:	8c440000 	lw	a0,0(v0)
  41b2b0:	afb00010 	sw	s0,16(sp)
  41b2b4:	24a5ff80 	addiu	a1,a1,-128
  41b2b8:	3c060042 	lui	a2,0x42
  41b2bc:	24c6ffa8 	addiu	a2,a2,-88
[31m  41b2c0:	8f998190 	lw	t9,fprintf[0m
  41b2c4:	0320f809 	jalr	t9
  41b2c8:	240700be 	li	a3,190
  41b2cc:	10000037 	b	41b3ac <encrypt@@Base+0x3d8>
  41b2d0:	00001021 	move	v0,zero
  41b2d4:	80630000 	lb	v1,0(v1)
  41b2d8:	28640030 	slti	a0,v1,48
  41b2dc:	1480000d 	bnez	a0,41b314 <encrypt@@Base+0x340>
  41b2e0:	306400ff 	andi	a0,v1,0xff
  41b2e4:	2485ffc6 	addiu	a1,a0,-58
  41b2e8:	30a500ff 	andi	a1,a1,0xff
  41b2ec:	2ca50007 	sltiu	a1,a1,7
  41b2f0:	14a00008 	bnez	a1,41b314 <encrypt@@Base+0x340>
  41b2f4:	2484ffb9 	addiu	a0,a0,-71
  41b2f8:	308400ff 	andi	a0,a0,0xff
  41b2fc:	2c84001a 	sltiu	a0,a0,26
  41b300:	14800004 	bnez	a0,41b314 <encrypt@@Base+0x340>
  41b304:	28630067 	slti	v1,v1,103
  41b308:	14600010 	bnez	v1,41b34c <encrypt@@Base+0x378>
  41b30c:	24420001 	addiu	v0,v0,1
  41b310:	2442ffff 	addiu	v0,v0,-1
  41b314:	8f8280b4 	lw	v0,-32588(gp)
  41b318:	8c440000 	lw	a0,0(v0)
  41b31c:	afb10010 	sw	s1,16(sp)
  41b320:	3c050042 	lui	a1,0x42
  41b324:	24a5ffb0 	addiu	a1,a1,-80
  41b328:	3c060042 	lui	a2,0x42
  41b32c:	24c6ffa8 	addiu	a2,a2,-88
[31m  41b330:	8f998190 	lw	t9,fprintf[0m
  41b334:	0320f809 	jalr	t9
  41b338:	240700ca 	li	a3,202
--
  41b6b8:	240603ff 	li	a2,1023
  41b6bc:	8fbc0010 	lw	gp,16(sp)
  41b6c0:	3c020042 	lui	v0,0x42
  41b6c4:	944205e0 	lhu	v0,1504(v0)
  41b6c8:	a7a20418 	sh	v0,1048(sp)
  41b6cc:	a7a0041a 	sh	zero,1050(sp)
  41b6d0:	3c020042 	lui	v0,0x42
  41b6d4:	8c4205e4 	lw	v0,1508(v0)
  41b6d8:	afa2041c 	sw	v0,1052(sp)
  41b6dc:	afa00420 	sw	zero,1056(sp)
  41b6e0:	afa00424 	sw	zero,1060(sp)
  41b6e4:	afa00428 	sw	zero,1064(sp)
  41b6e8:	afa0042c 	sw	zero,1068(sp)
  41b6ec:	afa00430 	sw	zero,1072(sp)
  41b6f0:	afa00434 	sw	zero,1076(sp)
  41b6f4:	12a000f8 	beqz	s5,41bad8 <AESDecrypt@@Base+0x5dc>
  41b6f8:	afa00438 	sw	zero,1080(sp)
  41b6fc:	92a6000e 	lbu	a2,14(s5)
  41b700:	00063200 	sll	a2,a2,0x8
  41b704:	92a2000f 	lbu	v0,15(s5)
  41b708:	00463025 	or	a2,v0,a2
  41b70c:	10c000f2 	beqz	a2,41bad8 <AESDecrypt@@Base+0x5dc>
  41b710:	3c050042 	lui	a1,0x42
  41b714:	8f9080b4 	lw	s0,-32588(gp)
  41b718:	8e040000 	lw	a0,0(s0)
[31m  41b71c:	8f998190 	lw	t9,fprintf[0m
  41b720:	0320f809 	jalr	t9
  41b724:	24a5fff0 	addiu	a1,a1,-16
  41b728:	8fbc0010 	lw	gp,16(sp)
  41b72c:	8e040000 	lw	a0,0(s0)
  41b730:	3c050042 	lui	a1,0x42
  41b734:	24a50018 	addiu	a1,a1,24
[31m  41b738:	8f998190 	lw	t9,fprintf[0m
  41b73c:	0320f809 	jalr	t9
  41b740:	24060010 	li	a2,16
--
  41b754:	8fbc0010 	lw	gp,16(sp)
  41b758:	104000df 	beqz	v0,41bad8 <AESDecrypt@@Base+0x5dc>
  41b75c:	0040a021 	move	s4,v0
  41b760:	26a20010 	addiu	v0,s5,16
  41b764:	afa2044c 	sw	v0,1100(sp)
  41b768:	00408021 	move	s0,v0
  41b76c:	0000b821 	move	s7,zero
  41b770:	8f9e80b4 	lw	s8,-32588(gp)
  41b774:	3c020043 	lui	v0,0x43
  41b778:	244206e8 	addiu	v0,v0,1768
  41b77c:	afa20450 	sw	v0,1104(sp)
  41b780:	27a30418 	addiu	v1,sp,1048
  41b784:	afa30454 	sw	v1,1108(sp)
  41b788:	3c020042 	lui	v0,0x42
  41b78c:	24420078 	addiu	v0,v0,120
  41b790:	afa20440 	sw	v0,1088(sp)
  41b794:	3c020042 	lui	v0,0x42
  41b798:	24420088 	addiu	v0,v0,136
  41b79c:	afa20448 	sw	v0,1096(sp)
  41b7a0:	92060000 	lbu	a2,0(s0)
  41b7a4:	00063200 	sll	a2,a2,0x8
  41b7a8:	92020001 	lbu	v0,1(s0)
  41b7ac:	8fc40000 	lw	a0,0(s8)
  41b7b0:	3c050042 	lui	a1,0x42
  41b7b4:	24a50038 	addiu	a1,a1,56
[31m  41b7b8:	8f998190 	lw	t9,fprintf[0m
  41b7bc:	0320f809 	jalr	t9
  41b7c0:	00463025 	or	a2,v0,a2
  41b7c4:	8fbc0010 	lw	gp,16(sp)
  41b7c8:	92060002 	lbu	a2,2(s0)
  41b7cc:	00063200 	sll	a2,a2,0x8
  41b7d0:	92020003 	lbu	v0,3(s0)
  41b7d4:	8fc40000 	lw	a0,0(s8)
  41b7d8:	3c050042 	lui	a1,0x42
  41b7dc:	24a50054 	addiu	a1,a1,84
[31m  41b7e0:	8f998190 	lw	t9,fprintf[0m
  41b7e4:	0320f809 	jalr	t9
  41b7e8:	00463025 	or	a2,v0,a2
--
  41c020:	9443000c 	lhu	v1,12(v0)
  41c024:	a7a3003c 	sh	v1,60(sp)
  41c028:	9042000e 	lbu	v0,14(v0)
  41c02c:	a3a2003e 	sb	v0,62(sp)
  41c030:	27a4003f 	addiu	a0,sp,63
  41c034:	00002821 	move	a1,zero
  41c038:	8f9980fc 	lw	t9,-32516(gp)
  41c03c:	0320f809 	jalr	t9
  41c040:	24060031 	li	a2,49
  41c044:	8fbc0018 	lw	gp,24(sp)
  41c048:	3c020042 	lui	v0,0x42
  41c04c:	904201e0 	lbu	v0,480(v0)
  41c050:	a3a20070 	sb	v0,112(sp)
  41c054:	27a40071 	addiu	a0,sp,113
  41c058:	00002821 	move	a1,zero
  41c05c:	8f9980fc 	lw	t9,-32516(gp)
  41c060:	0320f809 	jalr	t9
  41c064:	2406000f 	li	a2,15
  41c068:	8fbc0018 	lw	gp,24(sp)
  41c06c:	1660000a 	bnez	s3,41c098 <sendEventMsg@@Base+0xd4>
  41c070:	3c050042 	lui	a1,0x42
  41c074:	8f8280b4 	lw	v0,-32588(gp)
  41c078:	8c440000 	lw	a0,0(v0)
  41c07c:	24a50098 	addiu	a1,a1,152
  41c080:	3c060042 	lui	a2,0x42
[31m  41c084:	8f998190 	lw	t9,fprintf[0m
  41c088:	0320f809 	jalr	t9
  41c08c:	24c60684 	addiu	a2,a2,1668
--
  41c0ac:	2410ffff 	li	s0,-1
  41c0b0:	27b00030 	addiu	s0,sp,48
  41c0b4:	8f998074 	lw	t9,strlen
  41c0b8:	0320f809 	jalr	t9
  41c0bc:	02002021 	move	a0,s0
  41c0c0:	afa20010 	sw	v0,16(sp)
  41c0c4:	02602021 	move	a0,s3
  41c0c8:	00002821 	move	a1,zero
  41c0cc:	27a60070 	addiu	a2,sp,112
  41c0d0:	0c106ec2 	jal	41bb08 <fillEventMessageContent@@Base>
  41c0d4:	02003821 	move	a3,s0
  41c0d8:	8fbc0018 	lw	gp,24(sp)
  41c0dc:	24040002 	li	a0,2
  41c0e0:	24050001 	li	a1,1
  41c0e4:	8f9981e4 	lw	t9,-32284(gp)
  41c0e8:	0320f809 	jalr	t9
  41c0ec:	00003021 	move	a2,zero
  41c0f0:	8fbc0018 	lw	gp,24(sp)
  41c0f4:	0441000c 	bgez	v0,41c128 <sendEventMsg@@Base+0x164>
  41c0f8:	0040a021 	move	s4,v0
  41c0fc:	8f8280b4 	lw	v0,-32588(gp)
  41c100:	8c440000 	lw	a0,0(v0)
  41c104:	3c050042 	lui	a1,0x42
  41c108:	24a500c4 	addiu	a1,a1,196
  41c10c:	3c060042 	lui	a2,0x42
[31m  41c110:	8f998190 	lw	t9,fprintf[0m
  41c114:	0320f809 	jalr	t9
  41c118:	24c60684 	addiu	a2,a2,1668
--
  41c178:	8f9680b4 	lw	s6,-32588(gp)
  41c17c:	3c170042 	lui	s7,0x42
  41c180:	26f7012c 	addiu	s7,s7,300
  41c184:	3c1e0042 	lui	s8,0x42
  41c188:	27de0684 	addiu	s8,s8,1668
  41c18c:	00122900 	sll	a1,s2,0x4
  41c190:	00121400 	sll	v0,s2,0x10
  41c194:	00a22821 	addu	a1,a1,v0
  41c198:	8fa20080 	lw	v0,128(sp)
  41c19c:	afa20010 	sw	v0,16(sp)
  41c1a0:	afb50014 	sw	s5,20(sp)
  41c1a4:	02802021 	move	a0,s4
  41c1a8:	02652821 	addu	a1,s3,a1
  41c1ac:	02203021 	move	a2,s1
  41c1b0:	8f998130 	lw	t9,-32464(gp)
  41c1b4:	0320f809 	jalr	t9
  41c1b8:	00003821 	move	a3,zero
  41c1bc:	8fbc0018 	lw	gp,24(sp)
  41c1c0:	1c40000c 	bgtz	v0,41c1f4 <sendEventMsg@@Base+0x230>
  41c1c4:	00408021 	move	s0,v0
  41c1c8:	8f8280b4 	lw	v0,-32588(gp)
  41c1cc:	8c440000 	lw	a0,0(v0)
  41c1d0:	3c050042 	lui	a1,0x42
  41c1d4:	24a500f8 	addiu	a1,a1,248
  41c1d8:	3c060042 	lui	a2,0x42
[31m  41c1dc:	8f998190 	lw	t9,fprintf[0m
  41c1e0:	0320f809 	jalr	t9
  41c1e4:	24c60684 	addiu	a2,a2,1668
  41c1e8:	8fbc0018 	lw	gp,24(sp)
  41c1ec:	1000000c 	b	41c220 <sendEventMsg@@Base+0x25c>
  41c1f0:	2410ffff 	li	s0,-1
  41c1f4:	8ec40000 	lw	a0,0(s6)
  41c1f8:	02e02821 	move	a1,s7
  41c1fc:	03c03021 	move	a2,s8
[31m  41c200:	8f998190 	lw	t9,fprintf[0m
  41c204:	0320f809 	jalr	t9
  41c208:	00403821 	move	a3,v0
--
  41c290:	00000000 	nop
  41c294:	00001021 	move	v0,zero
  41c298:	8fbf001c 	lw	ra,28(sp)
  41c29c:	03e00008 	jr	ra
  41c2a0:	27bd0020 	addiu	sp,sp,32

0041c2a4 <initEventMsg@@Base>:
  41c2a4:	27bdffe0 	addiu	sp,sp,-32
  41c2a8:	afbf001c 	sw	ra,28(sp)
  41c2ac:	afb00018 	sw	s0,24(sp)
  41c2b0:	3c1c0044 	lui	gp,0x44
  41c2b4:	279c8830 	addiu	gp,gp,-30672
  41c2b8:	afbc0010 	sw	gp,16(sp)
  41c2bc:	3c040001 	lui	a0,0x1
  41c2c0:	8f9981f8 	lw	t9,-32264(gp)
  41c2c4:	0320f809 	jalr	t9
  41c2c8:	34840010 	ori	a0,a0,0x10
  41c2cc:	8fbc0010 	lw	gp,16(sp)
  41c2d0:	1440000b 	bnez	v0,41c300 <initEventMsg@@Base+0x5c>
  41c2d4:	00408021 	move	s0,v0
  41c2d8:	8f8280b4 	lw	v0,-32588(gp)
  41c2dc:	8c440000 	lw	a0,0(v0)
  41c2e0:	3c050042 	lui	a1,0x42
  41c2e4:	24a50164 	addiu	a1,a1,356
  41c2e8:	3c060042 	lui	a2,0x42
[31m  41c2ec:	8f998190 	lw	t9,fprintf[0m
  41c2f0:	0320f809 	jalr	t9
  41c2f4:	24c60694 	addiu	a2,a2,1684

[0m
[[0;33m*[0m] Function [0;33mfprintf[0m used [0;33m79[0m times [0;33mhnap_service[0m

