[0m
[[0;33m*[0m] Function [0;33mfprintf[0m tear down of [0;33mhttpd[0m

  4049c0:	90422090 	lbu	v0,8336(v0)
  4049c4:	a3a20020 	sb	v0,32(sp)
  4049c8:	27a40021 	addiu	a0,sp,33
  4049cc:	00002821 	move	a1,zero
  4049d0:	8f998104 	lw	t9,-32508(gp)
  4049d4:	0320f809 	jalr	t9
  4049d8:	240600ff 	li	a2,255
  4049dc:	8fbc0018 	lw	gp,24(sp)
  4049e0:	27b10020 	addiu	s1,sp,32
  4049e4:	afb10010 	sw	s1,16(sp)
  4049e8:	24020100 	li	v0,256
  4049ec:	afa20014 	sw	v0,20(sp)
  4049f0:	3c040041 	lui	a0,0x41
  4049f4:	24840a70 	addiu	a0,a0,2672
  4049f8:	3c050041 	lui	a1,0x41
  4049fc:	24a50a90 	addiu	a1,a1,2704
  404a00:	3c060041 	lui	a2,0x41
  404a04:	24c60a6c 	addiu	a2,a2,2668
  404a08:	8f9981c8 	lw	t9,-32312(gp)
  404a0c:	0320f809 	jalr	t9
  404a10:	24070001 	li	a3,1
  404a14:	8fbc0018 	lw	gp,24(sp)
  404a18:	02002021 	move	a0,s0
  404a1c:	3c050041 	lui	a1,0x41
  404a20:	24a5fdec 	addiu	a1,a1,-532
[31m  404a24:	8f9980c8 	lw	t9,fprintf[0m
  404a28:	0320f809 	jalr	t9
  404a2c:	02203021 	move	a2,s1
--
  404a94:	02002021 	move	a0,s0
  404a98:	3c050041 	lui	a1,0x41
  404a9c:	8f9980dc 	lw	t9,-32548(gp)
  404aa0:	0320f809 	jalr	t9
  404aa4:	24a50a98 	addiu	a1,a1,2712
  404aa8:	8fbc0018 	lw	gp,24(sp)
  404aac:	14400016 	bnez	v0,404b08 <AspInitial@@Base+0xba0>
  404ab0:	00001021 	move	v0,zero
  404ab4:	27b00020 	addiu	s0,sp,32
  404ab8:	afb00010 	sw	s0,16(sp)
  404abc:	24020100 	li	v0,256
  404ac0:	afa20014 	sw	v0,20(sp)
  404ac4:	3c040041 	lui	a0,0x41
  404ac8:	24840aa8 	addiu	a0,a0,2728
  404acc:	3c050041 	lui	a1,0x41
  404ad0:	24a5fe24 	addiu	a1,a1,-476
  404ad4:	3c060041 	lui	a2,0x41
  404ad8:	24c60abc 	addiu	a2,a2,2748
  404adc:	8f9981c8 	lw	t9,-32312(gp)
  404ae0:	0320f809 	jalr	t9
  404ae4:	24070001 	li	a3,1
  404ae8:	8fbc0018 	lw	gp,24(sp)
  404aec:	02202021 	move	a0,s1
  404af0:	3c050041 	lui	a1,0x41
  404af4:	24a5fdec 	addiu	a1,a1,-532
[31m  404af8:	8f9980c8 	lw	t9,fprintf[0m
  404afc:	0320f809 	jalr	t9
  404b00:	02003021 	move	a2,s0
--
  404ba4:	27b10020 	addiu	s1,sp,32
  404ba8:	02002021 	move	a0,s0
  404bac:	3c050041 	lui	a1,0x41
  404bb0:	8f9980dc 	lw	t9,-32548(gp)
  404bb4:	0320f809 	jalr	t9
  404bb8:	24a50ad8 	addiu	a1,a1,2776
  404bbc:	8fbc0018 	lw	gp,24(sp)
  404bc0:	14400015 	bnez	v0,404c18 <AspInitial@@Base+0xcb0>
  404bc4:	00001021 	move	v0,zero
  404bc8:	27b10020 	addiu	s1,sp,32
  404bcc:	afb10010 	sw	s1,16(sp)
  404bd0:	24020010 	li	v0,16
  404bd4:	afa20014 	sw	v0,20(sp)
  404bd8:	3c040041 	lui	a0,0x41
  404bdc:	24840ae0 	addiu	a0,a0,2784
  404be0:	3c050041 	lui	a1,0x41
  404be4:	24a50b00 	addiu	a1,a1,2816
  404be8:	02003021 	move	a2,s0
  404bec:	8f9981c8 	lw	t9,-32312(gp)
  404bf0:	0320f809 	jalr	t9
  404bf4:	24070001 	li	a3,1
  404bf8:	8fbc0018 	lw	gp,24(sp)
  404bfc:	02402021 	move	a0,s2
  404c00:	3c050041 	lui	a1,0x41
  404c04:	24a5fdec 	addiu	a1,a1,-532
[31m  404c08:	8f9980c8 	lw	t9,fprintf[0m
  404c0c:	0320f809 	jalr	t9
  404c10:	02203021 	move	a2,s1
--
  404c5c:	3c020041 	lui	v0,0x41
  404c60:	90422090 	lbu	v0,8336(v0)
  404c64:	a3a20020 	sb	v0,32(sp)
  404c68:	27a40021 	addiu	a0,sp,33
  404c6c:	00002821 	move	a1,zero
  404c70:	8f998104 	lw	t9,-32508(gp)
  404c74:	0320f809 	jalr	t9
  404c78:	240600ff 	li	a2,255
  404c7c:	8fbc0018 	lw	gp,24(sp)
  404c80:	27b20020 	addiu	s2,sp,32
  404c84:	afb20010 	sw	s2,16(sp)
  404c88:	24020100 	li	v0,256
  404c8c:	afa20014 	sw	v0,20(sp)
  404c90:	3c040041 	lui	a0,0x41
  404c94:	24840b0c 	addiu	a0,a0,2828
  404c98:	3c050041 	lui	a1,0x41
  404c9c:	24a50b20 	addiu	a1,a1,2848
  404ca0:	02003021 	move	a2,s0
  404ca4:	8f9981c8 	lw	t9,-32312(gp)
  404ca8:	0320f809 	jalr	t9
  404cac:	00003821 	move	a3,zero
  404cb0:	8fbc0018 	lw	gp,24(sp)
  404cb4:	02202021 	move	a0,s1
  404cb8:	3c050041 	lui	a1,0x41
  404cbc:	24a5fdec 	addiu	a1,a1,-532
[31m  404cc0:	8f9980c8 	lw	t9,fprintf[0m
  404cc4:	0320f809 	jalr	t9
  404cc8:	02403021 	move	a2,s2
--
  404d00:	afb40050 	sw	s4,80(sp)
  404d04:	afb3004c 	sw	s3,76(sp)
  404d08:	afb20048 	sw	s2,72(sp)
  404d0c:	afb10044 	sw	s1,68(sp)
  404d10:	afb00040 	sw	s0,64(sp)
  404d14:	3c1c0043 	lui	gp,0x43
  404d18:	279ca840 	addiu	gp,gp,-22464
  404d1c:	afbc0010 	sw	gp,16(sp)
  404d20:	00808821 	move	s1,a0
  404d24:	00a0a021 	move	s4,a1
  404d28:	3c050041 	lui	a1,0x41
  404d2c:	8f9980dc 	lw	t9,-32548(gp)
  404d30:	0320f809 	jalr	t9
  404d34:	24a50b28 	addiu	a1,a1,2856
  404d38:	8fbc0010 	lw	gp,16(sp)
  404d3c:	1440000e 	bnez	v0,404d78 <AspInitial@@Base+0xe10>
  404d40:	3c050041 	lui	a1,0x41
  404d44:	a3a00018 	sb	zero,24(sp)
  404d48:	8f9981e4 	lw	t9,-32284(gp)
  404d4c:	0320f809 	jalr	t9
  404d50:	27a40018 	addiu	a0,sp,24
  404d54:	8fbc0010 	lw	gp,16(sp)
  404d58:	02802021 	move	a0,s4
  404d5c:	3c050041 	lui	a1,0x41
  404d60:	93a60018 	lbu	a2,24(sp)
[31m  404d64:	8f9980c8 	lw	t9,fprintf[0m
  404d68:	0320f809 	jalr	t9
  404d6c:	24a50f14 	addiu	a1,a1,3860
  404d70:	100001ba 	b	40545c <AspInitial@@Base+0x14f4>
  404d74:	00001021 	move	v0,zero
  404d78:	02202021 	move	a0,s1
  404d7c:	8f9980dc 	lw	t9,-32548(gp)
  404d80:	0320f809 	jalr	t9
  404d84:	24a50b30 	addiu	a1,a1,2864
  404d88:	8fbc0010 	lw	gp,16(sp)
  404d8c:	144000d7 	bnez	v0,4050ec <AspInitial@@Base+0x1184>
  404d90:	02202021 	move	a0,s1
  404d94:	a3a00018 	sb	zero,24(sp)
  404d98:	8f9981e4 	lw	t9,-32284(gp)
  404d9c:	0320f809 	jalr	t9
  404da0:	27a40018 	addiu	a0,sp,24
  404da4:	8fbc0010 	lw	gp,16(sp)
  404da8:	93a20018 	lbu	v0,24(sp)
  404dac:	24030011 	li	v1,17
  404db0:	1443000a 	bne	v0,v1,404ddc <AspInitial@@Base+0xe74>
  404db4:	24030012 	li	v1,18
  404db8:	02802021 	move	a0,s4
  404dbc:	3c050041 	lui	a1,0x41
  404dc0:	24a5fdec 	addiu	a1,a1,-532
  404dc4:	3c060041 	lui	a2,0x41
[31m  404dc8:	8f9980c8 	lw	t9,fprintf[0m
  404dcc:	0320f809 	jalr	t9
  404dd0:	24c60b3c 	addiu	a2,a2,2876
  404dd4:	100001a1 	b	40545c <AspInitial@@Base+0x14f4>
  404dd8:	00001021 	move	v0,zero
  404ddc:	1443000a 	bne	v0,v1,404e08 <AspInitial@@Base+0xea0>
  404de0:	24030013 	li	v1,19
  404de4:	02802021 	move	a0,s4
  404de8:	3c050041 	lui	a1,0x41
  404dec:	24a5fdec 	addiu	a1,a1,-532
  404df0:	3c060041 	lui	a2,0x41
[31m  404df4:	8f9980c8 	lw	t9,fprintf[0m
  404df8:	0320f809 	jalr	t9
  404dfc:	24c60b44 	addiu	a2,a2,2884
  404e00:	10000196 	b	40545c <AspInitial@@Base+0x14f4>
  404e04:	00001021 	move	v0,zero
  404e08:	1443000a 	bne	v0,v1,404e34 <AspInitial@@Base+0xecc>
  404e0c:	24030014 	li	v1,20
  404e10:	02802021 	move	a0,s4
  404e14:	3c050041 	lui	a1,0x41
  404e18:	24a5fdec 	addiu	a1,a1,-532
  404e1c:	3c060041 	lui	a2,0x41
[31m  404e20:	8f9980c8 	lw	t9,fprintf[0m
  404e24:	0320f809 	jalr	t9
  404e28:	24c60b4c 	addiu	a2,a2,2892
  404e2c:	1000018b 	b	40545c <AspInitial@@Base+0x14f4>
  404e30:	00001021 	move	v0,zero
  404e34:	1443000a 	bne	v0,v1,404e60 <AspInitial@@Base+0xef8>
  404e38:	24030015 	li	v1,21
  404e3c:	02802021 	move	a0,s4
  404e40:	3c050041 	lui	a1,0x41
  404e44:	24a5fdec 	addiu	a1,a1,-532
  404e48:	3c060041 	lui	a2,0x41
[31m  404e4c:	8f9980c8 	lw	t9,fprintf[0m
  404e50:	0320f809 	jalr	t9
  404e54:	24c60b54 	addiu	a2,a2,2900
  404e58:	10000180 	b	40545c <AspInitial@@Base+0x14f4>
  404e5c:	00001021 	move	v0,zero
  404e60:	1443000a 	bne	v0,v1,404e8c <AspInitial@@Base+0xf24>
  404e64:	2443ffea 	addiu	v1,v0,-22
  404e68:	02802021 	move	a0,s4
  404e6c:	3c050041 	lui	a1,0x41
  404e70:	24a5fdec 	addiu	a1,a1,-532
  404e74:	3c060041 	lui	a2,0x41
[31m  404e78:	8f9980c8 	lw	t9,fprintf[0m
  404e7c:	0320f809 	jalr	t9
  404e80:	24c60b5c 	addiu	a2,a2,2908
  404e84:	10000175 	b	40545c <AspInitial@@Base+0x14f4>
  404e88:	00001021 	move	v0,zero
  404e8c:	306300ff 	andi	v1,v1,0xff
  404e90:	2c630003 	sltiu	v1,v1,3
  404e94:	1060000a 	beqz	v1,404ec0 <AspInitial@@Base+0xf58>
  404e98:	24030019 	li	v1,25
  404e9c:	02802021 	move	a0,s4
  404ea0:	3c050041 	lui	a1,0x41
  404ea4:	24a5fdec 	addiu	a1,a1,-532
  404ea8:	3c060041 	lui	a2,0x41
[31m  404eac:	8f9980c8 	lw	t9,fprintf[0m
  404eb0:	0320f809 	jalr	t9
  404eb4:	24c60b64 	addiu	a2,a2,2916
  404eb8:	10000168 	b	40545c <AspInitial@@Base+0x14f4>
  404ebc:	00001021 	move	v0,zero
  404ec0:	1443000a 	bne	v0,v1,404eec <AspInitial@@Base+0xf84>
  404ec4:	2403001a 	li	v1,26
  404ec8:	02802021 	move	a0,s4
  404ecc:	3c050041 	lui	a1,0x41
  404ed0:	24a5fdec 	addiu	a1,a1,-532
  404ed4:	3c060041 	lui	a2,0x41
[31m  404ed8:	8f9980c8 	lw	t9,fprintf[0m
  404edc:	0320f809 	jalr	t9
  404ee0:	24c60b6c 	addiu	a2,a2,2924
  404ee4:	1000015d 	b	40545c <AspInitial@@Base+0x14f4>
  404ee8:	00001021 	move	v0,zero
  404eec:	1443000a 	bne	v0,v1,404f18 <AspInitial@@Base+0xfb0>
  404ef0:	2403001b 	li	v1,27
  404ef4:	02802021 	move	a0,s4
  404ef8:	3c050041 	lui	a1,0x41
  404efc:	24a5fdec 	addiu	a1,a1,-532
  404f00:	3c060041 	lui	a2,0x41
[31m  404f04:	8f9980c8 	lw	t9,fprintf[0m
  404f08:	0320f809 	jalr	t9
  404f0c:	24c60b74 	addiu	a2,a2,2932
  404f10:	10000152 	b	40545c <AspInitial@@Base+0x14f4>
  404f14:	00001021 	move	v0,zero
  404f18:	1443000a 	bne	v0,v1,404f44 <AspInitial@@Base+0xfdc>
  404f1c:	2403001c 	li	v1,28
  404f20:	02802021 	move	a0,s4
  404f24:	3c050041 	lui	a1,0x41
  404f28:	24a5fdec 	addiu	a1,a1,-532
  404f2c:	3c060041 	lui	a2,0x41
[31m  404f30:	8f9980c8 	lw	t9,fprintf[0m
  404f34:	0320f809 	jalr	t9
  404f38:	24c60b7c 	addiu	a2,a2,2940
  404f3c:	10000147 	b	40545c <AspInitial@@Base+0x14f4>
  404f40:	00001021 	move	v0,zero
  404f44:	1443000a 	bne	v0,v1,404f70 <AspInitial@@Base+0x1008>
  404f48:	2403001d 	li	v1,29
  404f4c:	02802021 	move	a0,s4
  404f50:	3c050041 	lui	a1,0x41
  404f54:	24a5fdec 	addiu	a1,a1,-532
  404f58:	3c060041 	lui	a2,0x41
[31m  404f5c:	8f9980c8 	lw	t9,fprintf[0m
  404f60:	0320f809 	jalr	t9
  404f64:	24c60b84 	addiu	a2,a2,2948
  404f68:	1000013c 	b	40545c <AspInitial@@Base+0x14f4>
  404f6c:	00001021 	move	v0,zero
  404f70:	1443000a 	bne	v0,v1,404f9c <AspInitial@@Base+0x1034>
  404f74:	2403001e 	li	v1,30
  404f78:	02802021 	move	a0,s4
  404f7c:	3c050041 	lui	a1,0x41
  404f80:	24a5fdec 	addiu	a1,a1,-532
  404f84:	3c060041 	lui	a2,0x41
[31m  404f88:	8f9980c8 	lw	t9,fprintf[0m
  404f8c:	0320f809 	jalr	t9
  404f90:	24c60b8c 	addiu	a2,a2,2956
  404f94:	10000131 	b	40545c <AspInitial@@Base+0x14f4>
  404f98:	00001021 	move	v0,zero
  404f9c:	1443000a 	bne	v0,v1,404fc8 <AspInitial@@Base+0x1060>
  404fa0:	2403001f 	li	v1,31
  404fa4:	02802021 	move	a0,s4
  404fa8:	3c050041 	lui	a1,0x41
  404fac:	24a5fdec 	addiu	a1,a1,-532
  404fb0:	3c060041 	lui	a2,0x41
[31m  404fb4:	8f9980c8 	lw	t9,fprintf[0m
  404fb8:	0320f809 	jalr	t9
  404fbc:	24c60b90 	addiu	a2,a2,2960
  404fc0:	10000126 	b	40545c <AspInitial@@Base+0x14f4>
  404fc4:	00001021 	move	v0,zero
  404fc8:	1443000a 	bne	v0,v1,404ff4 <AspInitial@@Base+0x108c>
  404fcc:	24030020 	li	v1,32
  404fd0:	02802021 	move	a0,s4
  404fd4:	3c050041 	lui	a1,0x41
  404fd8:	24a5fdec 	addiu	a1,a1,-532
  404fdc:	3c060041 	lui	a2,0x41
[31m  404fe0:	8f9980c8 	lw	t9,fprintf[0m
  404fe4:	0320f809 	jalr	t9
  404fe8:	24c60b98 	addiu	a2,a2,2968
  404fec:	1000011b 	b	40545c <AspInitial@@Base+0x14f4>
  404ff0:	00001021 	move	v0,zero
  404ff4:	1443000a 	bne	v0,v1,405020 <AspInitial@@Base+0x10b8>
  404ff8:	24030021 	li	v1,33
  404ffc:	02802021 	move	a0,s4
  405000:	3c050041 	lui	a1,0x41
  405004:	24a5fdec 	addiu	a1,a1,-532
  405008:	3c060041 	lui	a2,0x41
[31m  40500c:	8f9980c8 	lw	t9,fprintf[0m
  405010:	0320f809 	jalr	t9
  405014:	24c60ba0 	addiu	a2,a2,2976
  405018:	10000110 	b	40545c <AspInitial@@Base+0x14f4>
  40501c:	00001021 	move	v0,zero
  405020:	1443000a 	bne	v0,v1,40504c <AspInitial@@Base+0x10e4>
  405024:	24030022 	li	v1,34
  405028:	02802021 	move	a0,s4
  40502c:	3c050041 	lui	a1,0x41
  405030:	24a5fdec 	addiu	a1,a1,-532
  405034:	3c060041 	lui	a2,0x41
[31m  405038:	8f9980c8 	lw	t9,fprintf[0m
  40503c:	0320f809 	jalr	t9
  405040:	24c60ba8 	addiu	a2,a2,2984
  405044:	10000105 	b	40545c <AspInitial@@Base+0x14f4>
  405048:	00001021 	move	v0,zero
  40504c:	1443000a 	bne	v0,v1,405078 <AspInitial@@Base+0x1110>
  405050:	24030023 	li	v1,35
  405054:	02802021 	move	a0,s4
  405058:	3c050041 	lui	a1,0x41
  40505c:	24a5fdec 	addiu	a1,a1,-532
  405060:	3c060041 	lui	a2,0x41
[31m  405064:	8f9980c8 	lw	t9,fprintf[0m
  405068:	0320f809 	jalr	t9
  40506c:	24c60bb0 	addiu	a2,a2,2992
  405070:	100000fa 	b	40545c <AspInitial@@Base+0x14f4>
  405074:	00001021 	move	v0,zero
  405078:	1443000a 	bne	v0,v1,4050a4 <AspInitial@@Base+0x113c>
  40507c:	24030024 	li	v1,36
  405080:	02802021 	move	a0,s4
  405084:	3c050041 	lui	a1,0x41
  405088:	24a5fdec 	addiu	a1,a1,-532
  40508c:	3c060041 	lui	a2,0x41
[31m  405090:	8f9980c8 	lw	t9,fprintf[0m
  405094:	0320f809 	jalr	t9
  405098:	24c60bb8 	addiu	a2,a2,3000
  40509c:	100000ef 	b	40545c <AspInitial@@Base+0x14f4>
  4050a0:	00001021 	move	v0,zero
  4050a4:	14430009 	bne	v0,v1,4050cc <AspInitial@@Base+0x1164>
  4050a8:	3c050041 	lui	a1,0x41
  4050ac:	02802021 	move	a0,s4
  4050b0:	24a5fdec 	addiu	a1,a1,-532
  4050b4:	3c060041 	lui	a2,0x41
[31m  4050b8:	8f9980c8 	lw	t9,fprintf[0m
  4050bc:	0320f809 	jalr	t9
  4050c0:	24c60bc0 	addiu	a2,a2,3008
  4050c4:	100000e5 	b	40545c <AspInitial@@Base+0x14f4>
  4050c8:	00001021 	move	v0,zero
  4050cc:	02802021 	move	a0,s4
  4050d0:	24a5fdec 	addiu	a1,a1,-532
  4050d4:	3c060041 	lui	a2,0x41
[31m  4050d8:	8f9980c8 	lw	t9,fprintf[0m
  4050dc:	0320f809 	jalr	t9
  4050e0:	24c60bc8 	addiu	a2,a2,3016
--
  405a14:	0320f809 	jalr	t9
  405a18:	00000000 	nop
  405a1c:	8fbc0018 	lw	gp,24(sp)
  405a20:	02121824 	and	v1,s0,s2
  405a24:	04610004 	bgez	v1,405a38 <AspInitial@@Base+0x1ad0>
  405a28:	00000000 	nop
  405a2c:	2463ffff 	addiu	v1,v1,-1
  405a30:	007e1825 	or	v1,v1,s8
  405a34:	24630001 	addiu	v1,v1,1
  405a38:	1071000a 	beq	v1,s1,405a64 <AspInitial@@Base+0x1afc>
  405a3c:	00541024 	and	v0,v0,s4
  405a40:	04410005 	bgez	v0,405a58 <AspInitial@@Base+0x1af0>
  405a44:	02d01821 	addu	v1,s6,s0
  405a48:	2442ffff 	addiu	v0,v0,-1
  405a4c:	2404fff0 	li	a0,-16
  405a50:	00441025 	or	v0,v0,a0
  405a54:	24420001 	addiu	v0,v0,1
  405a58:	00551021 	addu	v0,v0,s5
  405a5c:	90420000 	lbu	v0,0(v0)
  405a60:	a0620000 	sb	v0,0(v1)
  405a64:	26100001 	addiu	s0,s0,1
  405a68:	1613ffe9 	bne	s0,s3,405a10 <AspInitial@@Base+0x1aa8>
  405a6c:	02e02021 	move	a0,s7
  405a70:	3c050041 	lui	a1,0x41
  405a74:	24a5fdec 	addiu	a1,a1,-532
[31m  405a78:	8f9980c8 	lw	t9,fprintf[0m
  405a7c:	0320f809 	jalr	t9
  405a80:	27a60044 	addiu	a2,sp,68
--
  405d9c:	3c050041 	lui	a1,0x41
  405da0:	8f9980dc 	lw	t9,-32548(gp)
  405da4:	0320f809 	jalr	t9
  405da8:	24a50d80 	addiu	a1,a1,3456
  405dac:	8fbc0010 	lw	gp,16(sp)
  405db0:	10400008 	beqz	v0,405dd4 <AspInitial@@Base+0x1e6c>
  405db4:	02002021 	move	a0,s0
  405db8:	3c050041 	lui	a1,0x41
  405dbc:	8f9980dc 	lw	t9,-32548(gp)
  405dc0:	0320f809 	jalr	t9
  405dc4:	24a50d94 	addiu	a1,a1,3476
  405dc8:	8fbc0010 	lw	gp,16(sp)
  405dcc:	14400011 	bnez	v0,405e14 <AspInitial@@Base+0x1eac>
  405dd0:	02002021 	move	a0,s0
  405dd4:	a3a00018 	sb	zero,24(sp)
  405dd8:	3c040041 	lui	a0,0x41
  405ddc:	24840da4 	addiu	a0,a0,3492
  405de0:	02002821 	move	a1,s0
  405de4:	8f99806c 	lw	t9,-32660(gp)
  405de8:	0320f809 	jalr	t9
  405dec:	27a60018 	addiu	a2,sp,24
  405df0:	8fbc0010 	lw	gp,16(sp)
  405df4:	02202021 	move	a0,s1
  405df8:	3c050041 	lui	a1,0x41
  405dfc:	93a60018 	lbu	a2,24(sp)
[31m  405e00:	8f9980c8 	lw	t9,fprintf[0m
  405e04:	0320f809 	jalr	t9
  405e08:	24a50dac 	addiu	a1,a1,3500
--
  405fdc:	0320f809 	jalr	t9
  405fe0:	24a50e58 	addiu	a1,a1,3672
  405fe4:	8fbc0010 	lw	gp,16(sp)
  405fe8:	1440001a 	bnez	v0,406054 <AspInitial@@Base+0x20ec>
  405fec:	3c040041 	lui	a0,0x41
  405ff0:	3c020041 	lui	v0,0x41
  405ff4:	90422090 	lbu	v0,8336(v0)
  405ff8:	a3a2001c 	sb	v0,28(sp)
  405ffc:	27a4001d 	addiu	a0,sp,29
  406000:	00002821 	move	a1,zero
  406004:	8f998104 	lw	t9,-32508(gp)
  406008:	0320f809 	jalr	t9
  40600c:	240600ff 	li	a2,255
  406010:	8fbc0010 	lw	gp,16(sp)
  406014:	27b2001c 	addiu	s2,sp,28
  406018:	3c040041 	lui	a0,0x41
  40601c:	24840da4 	addiu	a0,a0,3492
  406020:	02002821 	move	a1,s0
  406024:	8f99806c 	lw	t9,-32660(gp)
  406028:	0320f809 	jalr	t9
  40602c:	02403021 	move	a2,s2
  406030:	8fbc0010 	lw	gp,16(sp)
  406034:	02202021 	move	a0,s1
  406038:	3c050041 	lui	a1,0x41
  40603c:	24a5fdec 	addiu	a1,a1,-532
[31m  406040:	8f9980c8 	lw	t9,fprintf[0m
  406044:	0320f809 	jalr	t9
  406048:	02403021 	move	a2,s2
  40604c:	1000000f 	b	40608c <AspInitial@@Base+0x2124>
  406050:	00001021 	move	v0,zero
  406054:	afa00018 	sw	zero,24(sp)
  406058:	24840da4 	addiu	a0,a0,3492
  40605c:	02002821 	move	a1,s0
  406060:	8f99806c 	lw	t9,-32660(gp)
  406064:	0320f809 	jalr	t9
  406068:	27a60018 	addiu	a2,sp,24
  40606c:	8fbc0010 	lw	gp,16(sp)
  406070:	02202021 	move	a0,s1
  406074:	3c050041 	lui	a1,0x41
  406078:	8fa60018 	lw	a2,24(sp)
[31m  40607c:	8f9980c8 	lw	t9,fprintf[0m
  406080:	0320f809 	jalr	t9
  406084:	24a50f14 	addiu	a1,a1,3860
--
  40679c:	0320f809 	jalr	t9
  4067a0:	24a50f70 	addiu	a1,a1,3952
  4067a4:	8fbc0010 	lw	gp,16(sp)
  4067a8:	1440001a 	bnez	v0,406814 <AspInitial@@Base+0x28ac>
  4067ac:	02002021 	move	a0,s0
  4067b0:	3c020041 	lui	v0,0x41
  4067b4:	90422090 	lbu	v0,8336(v0)
  4067b8:	a3a2001c 	sb	v0,28(sp)
  4067bc:	27a4001d 	addiu	a0,sp,29
  4067c0:	00002821 	move	a1,zero
  4067c4:	8f998104 	lw	t9,-32508(gp)
  4067c8:	0320f809 	jalr	t9
  4067cc:	240600ff 	li	a2,255
  4067d0:	8fbc0010 	lw	gp,16(sp)
  4067d4:	27b1001c 	addiu	s1,sp,28
  4067d8:	3c040041 	lui	a0,0x41
  4067dc:	24840f84 	addiu	a0,a0,3972
  4067e0:	02002821 	move	a1,s0
  4067e4:	8f99806c 	lw	t9,-32660(gp)
  4067e8:	0320f809 	jalr	t9
  4067ec:	02203021 	move	a2,s1
  4067f0:	8fbc0010 	lw	gp,16(sp)
  4067f4:	02402021 	move	a0,s2
  4067f8:	3c050041 	lui	a1,0x41
  4067fc:	24a5fdec 	addiu	a1,a1,-532
[31m  406800:	8f9980c8 	lw	t9,fprintf[0m
  406804:	0320f809 	jalr	t9
  406808:	02203021 	move	a2,s1
  40680c:	1000005b 	b	40697c <AspInitial@@Base+0x2a14>
  406810:	00001021 	move	v0,zero
  406814:	3c050041 	lui	a1,0x41
  406818:	8f9980dc 	lw	t9,-32548(gp)
  40681c:	0320f809 	jalr	t9
  406820:	24a50f90 	addiu	a1,a1,3984
  406824:	8fbc0010 	lw	gp,16(sp)
  406828:	14400011 	bnez	v0,406870 <AspInitial@@Base+0x2908>
  40682c:	02002021 	move	a0,s0
  406830:	a3a00018 	sb	zero,24(sp)
  406834:	3c040041 	lui	a0,0x41
  406838:	24840f84 	addiu	a0,a0,3972
  40683c:	02002821 	move	a1,s0
  406840:	8f99806c 	lw	t9,-32660(gp)
  406844:	0320f809 	jalr	t9
  406848:	27a60018 	addiu	a2,sp,24
  40684c:	8fbc0010 	lw	gp,16(sp)
  406850:	02402021 	move	a0,s2
  406854:	3c050041 	lui	a1,0x41
  406858:	93a60018 	lbu	a2,24(sp)
[31m  40685c:	8f9980c8 	lw	t9,fprintf[0m
  406860:	0320f809 	jalr	t9
  406864:	24a50dac 	addiu	a1,a1,3500
--
  4068cc:	8fbc0010 	lw	gp,16(sp)
  4068d0:	27b0001c 	addiu	s0,sp,28
  4068d4:	3c040041 	lui	a0,0x41
  4068d8:	24840f84 	addiu	a0,a0,3972
  4068dc:	3c050041 	lui	a1,0x41
  4068e0:	24a50f6c 	addiu	a1,a1,3948
  4068e4:	8f99806c 	lw	t9,-32660(gp)
  4068e8:	0320f809 	jalr	t9
  4068ec:	02003021 	move	a2,s0
  4068f0:	8fbc0010 	lw	gp,16(sp)
  4068f4:	8f998078 	lw	t9,strlen
  4068f8:	0320f809 	jalr	t9
  4068fc:	02002021 	move	a0,s0
  406900:	8fbc0010 	lw	gp,16(sp)
  406904:	18400007 	blez	v0,406924 <AspInitial@@Base+0x29bc>
  406908:	27a3011c 	addiu	v1,sp,284
  40690c:	00431021 	addu	v0,v0,v1
  406910:	2404002a 	li	a0,42
  406914:	a0640000 	sb	a0,0(v1)
  406918:	24630001 	addiu	v1,v1,1
  40691c:	1462fffd 	bne	v1,v0,406914 <AspInitial@@Base+0x29ac>
  406920:	00000000 	nop
  406924:	02402021 	move	a0,s2
  406928:	3c050041 	lui	a1,0x41
  40692c:	24a5fdec 	addiu	a1,a1,-532
[31m  406930:	8f9980c8 	lw	t9,fprintf[0m
  406934:	0320f809 	jalr	t9
  406938:	27a6011c 	addiu	a2,sp,284
  40693c:	1000000f 	b	40697c <AspInitial@@Base+0x2a14>
  406940:	00001021 	move	v0,zero
  406944:	afa00018 	sw	zero,24(sp)
  406948:	3c040041 	lui	a0,0x41
  40694c:	24840f84 	addiu	a0,a0,3972
  406950:	8f99806c 	lw	t9,-32660(gp)
  406954:	0320f809 	jalr	t9
  406958:	27a60018 	addiu	a2,sp,24
  40695c:	8fbc0010 	lw	gp,16(sp)
  406960:	02402021 	move	a0,s2
  406964:	3c050041 	lui	a1,0x41
  406968:	8fa60018 	lw	a2,24(sp)
[31m  40696c:	8f9980c8 	lw	t9,fprintf[0m
  406970:	0320f809 	jalr	t9
  406974:	24a50f14 	addiu	a1,a1,3860
--
  406a54:	0320f809 	jalr	t9
  406a58:	24a50fcc 	addiu	a1,a1,4044
  406a5c:	8fbc0010 	lw	gp,16(sp)
  406a60:	1440001a 	bnez	v0,406acc <AspInitial@@Base+0x2b64>
  406a64:	3c040041 	lui	a0,0x41
  406a68:	3c020041 	lui	v0,0x41
  406a6c:	90422090 	lbu	v0,8336(v0)
  406a70:	a3a2001c 	sb	v0,28(sp)
  406a74:	27a4001d 	addiu	a0,sp,29
  406a78:	00002821 	move	a1,zero
  406a7c:	8f998104 	lw	t9,-32508(gp)
  406a80:	0320f809 	jalr	t9
  406a84:	240600ff 	li	a2,255
  406a88:	8fbc0010 	lw	gp,16(sp)
  406a8c:	27b1001c 	addiu	s1,sp,28
  406a90:	3c040041 	lui	a0,0x41
  406a94:	24840fdc 	addiu	a0,a0,4060
  406a98:	02002821 	move	a1,s0
  406a9c:	8f99806c 	lw	t9,-32660(gp)
  406aa0:	0320f809 	jalr	t9
  406aa4:	02203021 	move	a2,s1
  406aa8:	8fbc0010 	lw	gp,16(sp)
  406aac:	02402021 	move	a0,s2
  406ab0:	3c050041 	lui	a1,0x41
  406ab4:	24a5fdec 	addiu	a1,a1,-532
[31m  406ab8:	8f9980c8 	lw	t9,fprintf[0m
  406abc:	0320f809 	jalr	t9
  406ac0:	02203021 	move	a2,s1
  406ac4:	1000000f 	b	406b04 <AspInitial@@Base+0x2b9c>
  406ac8:	00001021 	move	v0,zero
  406acc:	afa00018 	sw	zero,24(sp)
  406ad0:	24840fdc 	addiu	a0,a0,4060
  406ad4:	02002821 	move	a1,s0
  406ad8:	8f99806c 	lw	t9,-32660(gp)
  406adc:	0320f809 	jalr	t9
  406ae0:	27a60018 	addiu	a2,sp,24
  406ae4:	8fbc0010 	lw	gp,16(sp)
  406ae8:	02402021 	move	a0,s2
  406aec:	3c050041 	lui	a1,0x41
  406af0:	8fa60018 	lw	a2,24(sp)
[31m  406af4:	8f9980c8 	lw	t9,fprintf[0m
  406af8:	0320f809 	jalr	t9
  406afc:	24a50f14 	addiu	a1,a1,3860
--
  406b2c:	afb00120 	sw	s0,288(sp)
  406b30:	3c1c0043 	lui	gp,0x43
  406b34:	279ca840 	addiu	gp,gp,-22464
  406b38:	afbc0010 	sw	gp,16(sp)
  406b3c:	00808021 	move	s0,a0
  406b40:	10800053 	beqz	a0,406c90 <AspInitial@@Base+0x2d28>
  406b44:	00a08821 	move	s1,a1
  406b48:	3c050041 	lui	a1,0x41
  406b4c:	8f9980dc 	lw	t9,-32548(gp)
  406b50:	0320f809 	jalr	t9
  406b54:	24a50fec 	addiu	a1,a1,4076
  406b58:	8fbc0010 	lw	gp,16(sp)
  406b5c:	14400011 	bnez	v0,406ba4 <AspInitial@@Base+0x2c3c>
  406b60:	02002021 	move	a0,s0
  406b64:	afa00018 	sw	zero,24(sp)
  406b68:	3c040041 	lui	a0,0x41
  406b6c:	24840ff8 	addiu	a0,a0,4088
  406b70:	02002821 	move	a1,s0
  406b74:	8f99806c 	lw	t9,-32660(gp)
  406b78:	0320f809 	jalr	t9
  406b7c:	27a60018 	addiu	a2,sp,24
  406b80:	8fbc0010 	lw	gp,16(sp)
  406b84:	02202021 	move	a0,s1
  406b88:	3c050041 	lui	a1,0x41
  406b8c:	8fa60018 	lw	a2,24(sp)
[31m  406b90:	8f9980c8 	lw	t9,fprintf[0m
  406b94:	0320f809 	jalr	t9
  406b98:	24a50f14 	addiu	a1,a1,3860
--
  406bc0:	3c050041 	lui	a1,0x41
  406bc4:	8f9980dc 	lw	t9,-32548(gp)
  406bc8:	0320f809 	jalr	t9
  406bcc:	24a51018 	addiu	a1,a1,4120
  406bd0:	8fbc0010 	lw	gp,16(sp)
  406bd4:	10400008 	beqz	v0,406bf8 <AspInitial@@Base+0x2c90>
  406bd8:	02002021 	move	a0,s0
  406bdc:	3c050041 	lui	a1,0x41
  406be0:	8f9980dc 	lw	t9,-32548(gp)
  406be4:	0320f809 	jalr	t9
  406be8:	24a5fe74 	addiu	a1,a1,-396
  406bec:	8fbc0010 	lw	gp,16(sp)
  406bf0:	14400011 	bnez	v0,406c38 <AspInitial@@Base+0x2cd0>
  406bf4:	27a4001d 	addiu	a0,sp,29
  406bf8:	a3a00018 	sb	zero,24(sp)
  406bfc:	3c040041 	lui	a0,0x41
  406c00:	24840ff8 	addiu	a0,a0,4088
  406c04:	02002821 	move	a1,s0
  406c08:	8f99806c 	lw	t9,-32660(gp)
  406c0c:	0320f809 	jalr	t9
  406c10:	27a60018 	addiu	a2,sp,24
  406c14:	8fbc0010 	lw	gp,16(sp)
  406c18:	02202021 	move	a0,s1
  406c1c:	3c050041 	lui	a1,0x41
  406c20:	93a60018 	lbu	a2,24(sp)
[31m  406c24:	8f9980c8 	lw	t9,fprintf[0m
  406c28:	0320f809 	jalr	t9
  406c2c:	24a50dac 	addiu	a1,a1,3500
  406c30:	10000018 	b	406c94 <AspInitial@@Base+0x2d2c>
  406c34:	00001021 	move	v0,zero
  406c38:	3c020041 	lui	v0,0x41
  406c3c:	90422090 	lbu	v0,8336(v0)
  406c40:	a3a2001c 	sb	v0,28(sp)
  406c44:	00002821 	move	a1,zero
  406c48:	8f998104 	lw	t9,-32508(gp)
  406c4c:	0320f809 	jalr	t9
  406c50:	240600ff 	li	a2,255
  406c54:	8fbc0010 	lw	gp,16(sp)
  406c58:	27b2001c 	addiu	s2,sp,28
  406c5c:	3c040041 	lui	a0,0x41
  406c60:	24840ff8 	addiu	a0,a0,4088
  406c64:	02002821 	move	a1,s0
  406c68:	8f99806c 	lw	t9,-32660(gp)
  406c6c:	0320f809 	jalr	t9
  406c70:	02403021 	move	a2,s2
  406c74:	8fbc0010 	lw	gp,16(sp)
  406c78:	02202021 	move	a0,s1
  406c7c:	3c050041 	lui	a1,0x41
  406c80:	24a5fdec 	addiu	a1,a1,-532
[31m  406c84:	8f9980c8 	lw	t9,fprintf[0m
  406c88:	0320f809 	jalr	t9
  406c8c:	02403021 	move	a2,s2
--
  406cd8:	3c050041 	lui	a1,0x41
  406cdc:	8f9980dc 	lw	t9,-32548(gp)
  406ce0:	0320f809 	jalr	t9
  406ce4:	24a51024 	addiu	a1,a1,4132
  406ce8:	8fbc0010 	lw	gp,16(sp)
  406cec:	10400008 	beqz	v0,406d10 <AspInitial@@Base+0x2da8>
  406cf0:	02002021 	move	a0,s0
  406cf4:	3c050041 	lui	a1,0x41
  406cf8:	8f9980dc 	lw	t9,-32548(gp)
  406cfc:	0320f809 	jalr	t9
  406d00:	24a51030 	addiu	a1,a1,4144
  406d04:	8fbc0010 	lw	gp,16(sp)
  406d08:	14400011 	bnez	v0,406d50 <AspInitial@@Base+0x2de8>
  406d0c:	27a4001d 	addiu	a0,sp,29
  406d10:	afa00018 	sw	zero,24(sp)
  406d14:	3c040041 	lui	a0,0x41
  406d18:	24841044 	addiu	a0,a0,4164
  406d1c:	02002821 	move	a1,s0
  406d20:	8f99806c 	lw	t9,-32660(gp)
  406d24:	0320f809 	jalr	t9
  406d28:	27a60018 	addiu	a2,sp,24
  406d2c:	8fbc0010 	lw	gp,16(sp)
  406d30:	02202021 	move	a0,s1
  406d34:	3c050041 	lui	a1,0x41
  406d38:	8fa60018 	lw	a2,24(sp)
[31m  406d3c:	8f9980c8 	lw	t9,fprintf[0m
  406d40:	0320f809 	jalr	t9
  406d44:	24a50f14 	addiu	a1,a1,3860
  406d48:	10000018 	b	406dac <AspInitial@@Base+0x2e44>
  406d4c:	00001021 	move	v0,zero
  406d50:	3c020041 	lui	v0,0x41
  406d54:	90422090 	lbu	v0,8336(v0)
  406d58:	a3a2001c 	sb	v0,28(sp)
  406d5c:	00002821 	move	a1,zero
  406d60:	8f998104 	lw	t9,-32508(gp)
  406d64:	0320f809 	jalr	t9
  406d68:	240600ff 	li	a2,255
  406d6c:	8fbc0010 	lw	gp,16(sp)
  406d70:	27b2001c 	addiu	s2,sp,28
  406d74:	3c040041 	lui	a0,0x41
  406d78:	24841044 	addiu	a0,a0,4164
  406d7c:	02002821 	move	a1,s0
  406d80:	8f99806c 	lw	t9,-32660(gp)
  406d84:	0320f809 	jalr	t9
  406d88:	02403021 	move	a2,s2
  406d8c:	8fbc0010 	lw	gp,16(sp)
  406d90:	02202021 	move	a0,s1
  406d94:	3c050041 	lui	a1,0x41
  406d98:	24a5fdec 	addiu	a1,a1,-532
[31m  406d9c:	8f9980c8 	lw	t9,fprintf[0m
  406da0:	0320f809 	jalr	t9
  406da4:	02403021 	move	a2,s2
--
  406dd4:	afb00220 	sw	s0,544(sp)
  406dd8:	3c1c0043 	lui	gp,0x43
  406ddc:	279ca840 	addiu	gp,gp,-22464
  406de0:	afbc0010 	sw	gp,16(sp)
  406de4:	00808021 	move	s0,a0
  406de8:	1080007a 	beqz	a0,406fd4 <AspInitial@@Base+0x306c>
  406dec:	00a08821 	move	s1,a1
  406df0:	3c050041 	lui	a1,0x41
  406df4:	8f9980dc 	lw	t9,-32548(gp)
  406df8:	0320f809 	jalr	t9
  406dfc:	24a51024 	addiu	a1,a1,4132
  406e00:	8fbc0010 	lw	gp,16(sp)
  406e04:	14400011 	bnez	v0,406e4c <AspInitial@@Base+0x2ee4>
  406e08:	02002021 	move	a0,s0
  406e0c:	afa00018 	sw	zero,24(sp)
  406e10:	3c040041 	lui	a0,0x41
  406e14:	24841058 	addiu	a0,a0,4184
  406e18:	02002821 	move	a1,s0
  406e1c:	8f99806c 	lw	t9,-32660(gp)
  406e20:	0320f809 	jalr	t9
  406e24:	27a60018 	addiu	a2,sp,24
  406e28:	8fbc0010 	lw	gp,16(sp)
  406e2c:	02202021 	move	a0,s1
  406e30:	3c050041 	lui	a1,0x41
  406e34:	8fa60018 	lw	a2,24(sp)
[31m  406e38:	8f9980c8 	lw	t9,fprintf[0m
  406e3c:	0320f809 	jalr	t9
  406e40:	24a50f14 	addiu	a1,a1,3860
  406e44:	10000064 	b	406fd8 <AspInitial@@Base+0x3070>
  406e48:	00001021 	move	v0,zero
  406e4c:	3c050041 	lui	a1,0x41
  406e50:	8f9980dc 	lw	t9,-32548(gp)
  406e54:	0320f809 	jalr	t9
  406e58:	24a5106c 	addiu	a1,a1,4204
  406e5c:	8fbc0010 	lw	gp,16(sp)
  406e60:	14400011 	bnez	v0,406ea8 <AspInitial@@Base+0x2f40>
  406e64:	02002021 	move	a0,s0
  406e68:	a3a00018 	sb	zero,24(sp)
  406e6c:	3c040041 	lui	a0,0x41
  406e70:	24841058 	addiu	a0,a0,4184
  406e74:	02002821 	move	a1,s0
  406e78:	8f99806c 	lw	t9,-32660(gp)
  406e7c:	0320f809 	jalr	t9
  406e80:	27a60018 	addiu	a2,sp,24
  406e84:	8fbc0010 	lw	gp,16(sp)
  406e88:	02202021 	move	a0,s1
  406e8c:	3c050041 	lui	a1,0x41
  406e90:	93a60018 	lbu	a2,24(sp)
[31m  406e94:	8f9980c8 	lw	t9,fprintf[0m
  406e98:	0320f809 	jalr	t9
  406e9c:	24a50dac 	addiu	a1,a1,3500
--
  406f04:	8fbc0010 	lw	gp,16(sp)
  406f08:	27b0001c 	addiu	s0,sp,28
  406f0c:	3c040041 	lui	a0,0x41
  406f10:	24841058 	addiu	a0,a0,4184
  406f14:	3c050041 	lui	a1,0x41
  406f18:	24a51088 	addiu	a1,a1,4232
  406f1c:	8f99806c 	lw	t9,-32660(gp)
  406f20:	0320f809 	jalr	t9
  406f24:	02003021 	move	a2,s0
  406f28:	8fbc0010 	lw	gp,16(sp)
  406f2c:	8f998078 	lw	t9,strlen
  406f30:	0320f809 	jalr	t9
  406f34:	02002021 	move	a0,s0
  406f38:	8fbc0010 	lw	gp,16(sp)
  406f3c:	18400007 	blez	v0,406f5c <AspInitial@@Base+0x2ff4>
  406f40:	27a3011c 	addiu	v1,sp,284
  406f44:	00431021 	addu	v0,v0,v1
  406f48:	2404002a 	li	a0,42
  406f4c:	a0640000 	sb	a0,0(v1)
  406f50:	24630001 	addiu	v1,v1,1
  406f54:	1462fffd 	bne	v1,v0,406f4c <AspInitial@@Base+0x2fe4>
  406f58:	00000000 	nop
  406f5c:	02202021 	move	a0,s1
  406f60:	3c050041 	lui	a1,0x41
  406f64:	24a5fdec 	addiu	a1,a1,-532
[31m  406f68:	8f9980c8 	lw	t9,fprintf[0m
  406f6c:	0320f809 	jalr	t9
  406f70:	27a6011c 	addiu	a2,sp,284
  406f74:	10000018 	b	406fd8 <AspInitial@@Base+0x3070>
  406f78:	00001021 	move	v0,zero
  406f7c:	90422090 	lbu	v0,8336(v0)
  406f80:	a3a2011c 	sb	v0,284(sp)
  406f84:	27a4011d 	addiu	a0,sp,285
  406f88:	00002821 	move	a1,zero
  406f8c:	8f998104 	lw	t9,-32508(gp)
  406f90:	0320f809 	jalr	t9
  406f94:	240600ff 	li	a2,255
  406f98:	8fbc0010 	lw	gp,16(sp)
  406f9c:	27b2011c 	addiu	s2,sp,284
  406fa0:	3c040041 	lui	a0,0x41
  406fa4:	24841058 	addiu	a0,a0,4184
  406fa8:	02002821 	move	a1,s0
  406fac:	8f99806c 	lw	t9,-32660(gp)
  406fb0:	0320f809 	jalr	t9
  406fb4:	02403021 	move	a2,s2
  406fb8:	8fbc0010 	lw	gp,16(sp)
  406fbc:	02202021 	move	a0,s1
  406fc0:	3c050041 	lui	a1,0x41
  406fc4:	24a5fdec 	addiu	a1,a1,-532
[31m  406fc8:	8f9980c8 	lw	t9,fprintf[0m
  406fcc:	0320f809 	jalr	t9
  406fd0:	02403021 	move	a2,s2
--
  407020:	0320f809 	jalr	t9
  407024:	24a51094 	addiu	a1,a1,4244
  407028:	8fbc0010 	lw	gp,16(sp)
  40702c:	14400019 	bnez	v0,407094 <AspInitial@@Base+0x312c>
  407030:	00001021 	move	v0,zero
  407034:	3c020041 	lui	v0,0x41
  407038:	90422090 	lbu	v0,8336(v0)
  40703c:	a3a20018 	sb	v0,24(sp)
  407040:	27a40019 	addiu	a0,sp,25
  407044:	00002821 	move	a1,zero
  407048:	8f998104 	lw	t9,-32508(gp)
  40704c:	0320f809 	jalr	t9
  407050:	240600ff 	li	a2,255
  407054:	8fbc0010 	lw	gp,16(sp)
  407058:	3c040041 	lui	a0,0x41
  40705c:	248410a0 	addiu	a0,a0,4256
  407060:	02002821 	move	a1,s0
  407064:	27b00018 	addiu	s0,sp,24
  407068:	8f99806c 	lw	t9,-32660(gp)
  40706c:	0320f809 	jalr	t9
  407070:	02003021 	move	a2,s0
  407074:	8fbc0010 	lw	gp,16(sp)
  407078:	02202021 	move	a0,s1
  40707c:	3c050041 	lui	a1,0x41
  407080:	24a5fdec 	addiu	a1,a1,-532
[31m  407084:	8f9980c8 	lw	t9,fprintf[0m
  407088:	0320f809 	jalr	t9
  40708c:	02003021 	move	a2,s0
--
  4070b0:	afb10028 	sw	s1,40(sp)
  4070b4:	afb00024 	sw	s0,36(sp)
  4070b8:	3c1c0043 	lui	gp,0x43
  4070bc:	279ca840 	addiu	gp,gp,-22464
  4070c0:	afbc0010 	sw	gp,16(sp)
  4070c4:	00808021 	move	s0,a0
  4070c8:	10800024 	beqz	a0,40715c <AspInitial@@Base+0x31f4>
  4070cc:	00a08821 	move	s1,a1
  4070d0:	3c050041 	lui	a1,0x41
  4070d4:	8f9980dc 	lw	t9,-32548(gp)
  4070d8:	0320f809 	jalr	t9
  4070dc:	24a50f90 	addiu	a1,a1,3984
  4070e0:	8fbc0010 	lw	gp,16(sp)
  4070e4:	14400010 	bnez	v0,407128 <AspInitial@@Base+0x31c0>
  4070e8:	3c040041 	lui	a0,0x41
  4070ec:	a3a00018 	sb	zero,24(sp)
  4070f0:	248410b4 	addiu	a0,a0,4276
  4070f4:	02002821 	move	a1,s0
  4070f8:	8f99806c 	lw	t9,-32660(gp)
  4070fc:	0320f809 	jalr	t9
  407100:	27a60018 	addiu	a2,sp,24
  407104:	8fbc0010 	lw	gp,16(sp)
  407108:	02202021 	move	a0,s1
  40710c:	3c050041 	lui	a1,0x41
  407110:	93a60018 	lbu	a2,24(sp)
[31m  407114:	8f9980c8 	lw	t9,fprintf[0m
  407118:	0320f809 	jalr	t9
  40711c:	24a50dac 	addiu	a1,a1,3500
  407120:	1000000f 	b	407160 <AspInitial@@Base+0x31f8>
  407124:	00001021 	move	v0,zero
  407128:	afa00018 	sw	zero,24(sp)
  40712c:	248410b4 	addiu	a0,a0,4276
  407130:	02002821 	move	a1,s0
  407134:	8f99806c 	lw	t9,-32660(gp)
  407138:	0320f809 	jalr	t9
  40713c:	27a60018 	addiu	a2,sp,24
  407140:	8fbc0010 	lw	gp,16(sp)
  407144:	02202021 	move	a0,s1
  407148:	3c050041 	lui	a1,0x41
  40714c:	8fa60018 	lw	a2,24(sp)
[31m  407150:	8f9980c8 	lw	t9,fprintf[0m
  407154:	0320f809 	jalr	t9
  407158:	24a50f14 	addiu	a1,a1,3860
--
  40717c:	afb10028 	sw	s1,40(sp)
  407180:	afb00024 	sw	s0,36(sp)
  407184:	3c1c0043 	lui	gp,0x43
  407188:	279ca840 	addiu	gp,gp,-22464
  40718c:	afbc0010 	sw	gp,16(sp)
  407190:	00808021 	move	s0,a0
  407194:	10800024 	beqz	a0,407228 <AspInitial@@Base+0x32c0>
  407198:	00a08821 	move	s1,a1
  40719c:	3c050041 	lui	a1,0x41
  4071a0:	8f9980dc 	lw	t9,-32548(gp)
  4071a4:	0320f809 	jalr	t9
  4071a8:	24a50f90 	addiu	a1,a1,3984
  4071ac:	8fbc0010 	lw	gp,16(sp)
  4071b0:	14400010 	bnez	v0,4071f4 <AspInitial@@Base+0x328c>
  4071b4:	3c040041 	lui	a0,0x41
  4071b8:	a3a00018 	sb	zero,24(sp)
  4071bc:	248410c4 	addiu	a0,a0,4292
  4071c0:	02002821 	move	a1,s0
  4071c4:	8f99806c 	lw	t9,-32660(gp)
  4071c8:	0320f809 	jalr	t9
  4071cc:	27a60018 	addiu	a2,sp,24
  4071d0:	8fbc0010 	lw	gp,16(sp)
  4071d4:	02202021 	move	a0,s1
  4071d8:	3c050041 	lui	a1,0x41
  4071dc:	93a60018 	lbu	a2,24(sp)
[31m  4071e0:	8f9980c8 	lw	t9,fprintf[0m
  4071e4:	0320f809 	jalr	t9
  4071e8:	24a50dac 	addiu	a1,a1,3500
  4071ec:	1000000f 	b	40722c <AspInitial@@Base+0x32c4>
  4071f0:	00001021 	move	v0,zero
  4071f4:	afa00018 	sw	zero,24(sp)
  4071f8:	248410c4 	addiu	a0,a0,4292
  4071fc:	02002821 	move	a1,s0
  407200:	8f99806c 	lw	t9,-32660(gp)
  407204:	0320f809 	jalr	t9
  407208:	27a60018 	addiu	a2,sp,24
  40720c:	8fbc0010 	lw	gp,16(sp)
  407210:	02202021 	move	a0,s1
  407214:	3c050041 	lui	a1,0x41
  407218:	8fa60018 	lw	a2,24(sp)
[31m  40721c:	8f9980c8 	lw	t9,fprintf[0m
  407220:	0320f809 	jalr	t9
  407224:	24a50f14 	addiu	a1,a1,3860
--
  407248:	afb10028 	sw	s1,40(sp)
  40724c:	afb00024 	sw	s0,36(sp)
  407250:	3c1c0043 	lui	gp,0x43
  407254:	279ca840 	addiu	gp,gp,-22464
  407258:	afbc0010 	sw	gp,16(sp)
  40725c:	00808021 	move	s0,a0
  407260:	10800024 	beqz	a0,4072f4 <AspInitial@@Base+0x338c>
  407264:	00a08821 	move	s1,a1
  407268:	3c050041 	lui	a1,0x41
  40726c:	8f9980dc 	lw	t9,-32548(gp)
  407270:	0320f809 	jalr	t9
  407274:	24a50f90 	addiu	a1,a1,3984
  407278:	8fbc0010 	lw	gp,16(sp)
  40727c:	14400010 	bnez	v0,4072c0 <AspInitial@@Base+0x3358>
  407280:	3c040041 	lui	a0,0x41
  407284:	a3a00018 	sb	zero,24(sp)
  407288:	248410d4 	addiu	a0,a0,4308
  40728c:	02002821 	move	a1,s0
  407290:	8f99806c 	lw	t9,-32660(gp)
  407294:	0320f809 	jalr	t9
  407298:	27a60018 	addiu	a2,sp,24
  40729c:	8fbc0010 	lw	gp,16(sp)
  4072a0:	02202021 	move	a0,s1
  4072a4:	3c050041 	lui	a1,0x41
  4072a8:	93a60018 	lbu	a2,24(sp)
[31m  4072ac:	8f9980c8 	lw	t9,fprintf[0m
  4072b0:	0320f809 	jalr	t9
  4072b4:	24a50dac 	addiu	a1,a1,3500
  4072b8:	1000000f 	b	4072f8 <AspInitial@@Base+0x3390>
  4072bc:	00001021 	move	v0,zero
  4072c0:	afa00018 	sw	zero,24(sp)
  4072c4:	248410d4 	addiu	a0,a0,4308
  4072c8:	02002821 	move	a1,s0
  4072cc:	8f99806c 	lw	t9,-32660(gp)
  4072d0:	0320f809 	jalr	t9
  4072d4:	27a60018 	addiu	a2,sp,24
  4072d8:	8fbc0010 	lw	gp,16(sp)
  4072dc:	02202021 	move	a0,s1
  4072e0:	3c050041 	lui	a1,0x41
  4072e4:	8fa60018 	lw	a2,24(sp)
[31m  4072e8:	8f9980c8 	lw	t9,fprintf[0m
  4072ec:	0320f809 	jalr	t9
  4072f0:	24a50f14 	addiu	a1,a1,3860
--
  40731c:	afb00120 	sw	s0,288(sp)
  407320:	3c1c0043 	lui	gp,0x43
  407324:	279ca840 	addiu	gp,gp,-22464
  407328:	afbc0010 	sw	gp,16(sp)
  40732c:	00808021 	move	s0,a0
  407330:	10800045 	beqz	a0,407448 <AspInitial@@Base+0x34e0>
  407334:	00a08821 	move	s1,a1
  407338:	3c050041 	lui	a1,0x41
  40733c:	8f9980dc 	lw	t9,-32548(gp)
  407340:	0320f809 	jalr	t9
  407344:	24a50f90 	addiu	a1,a1,3984
  407348:	8fbc0010 	lw	gp,16(sp)
  40734c:	14400011 	bnez	v0,407394 <AspInitial@@Base+0x342c>
  407350:	02002021 	move	a0,s0
  407354:	a3a00018 	sb	zero,24(sp)
  407358:	3c040041 	lui	a0,0x41
  40735c:	248410e4 	addiu	a0,a0,4324
  407360:	02002821 	move	a1,s0
  407364:	8f99806c 	lw	t9,-32660(gp)
  407368:	0320f809 	jalr	t9
  40736c:	27a60018 	addiu	a2,sp,24
  407370:	8fbc0010 	lw	gp,16(sp)
  407374:	02202021 	move	a0,s1
  407378:	3c050041 	lui	a1,0x41
  40737c:	93a60018 	lbu	a2,24(sp)
[31m  407380:	8f9980c8 	lw	t9,fprintf[0m
  407384:	0320f809 	jalr	t9
  407388:	24a50dac 	addiu	a1,a1,3500
--
  40739c:	0320f809 	jalr	t9
  4073a0:	24a510ec 	addiu	a1,a1,4332
  4073a4:	8fbc0010 	lw	gp,16(sp)
  4073a8:	1440001a 	bnez	v0,407414 <AspInitial@@Base+0x34ac>
  4073ac:	3c040041 	lui	a0,0x41
  4073b0:	3c020041 	lui	v0,0x41
  4073b4:	90422090 	lbu	v0,8336(v0)
  4073b8:	a3a2001c 	sb	v0,28(sp)
  4073bc:	27a4001d 	addiu	a0,sp,29
  4073c0:	00002821 	move	a1,zero
  4073c4:	8f998104 	lw	t9,-32508(gp)
  4073c8:	0320f809 	jalr	t9
  4073cc:	240600ff 	li	a2,255
  4073d0:	8fbc0010 	lw	gp,16(sp)
  4073d4:	27b2001c 	addiu	s2,sp,28
  4073d8:	3c040041 	lui	a0,0x41
  4073dc:	248410e4 	addiu	a0,a0,4324
  4073e0:	02002821 	move	a1,s0
  4073e4:	8f99806c 	lw	t9,-32660(gp)
  4073e8:	0320f809 	jalr	t9
  4073ec:	02403021 	move	a2,s2
  4073f0:	8fbc0010 	lw	gp,16(sp)
  4073f4:	02202021 	move	a0,s1
  4073f8:	3c050041 	lui	a1,0x41
  4073fc:	24a5fdec 	addiu	a1,a1,-532
[31m  407400:	8f9980c8 	lw	t9,fprintf[0m
  407404:	0320f809 	jalr	t9
  407408:	02403021 	move	a2,s2
  40740c:	1000000f 	b	40744c <AspInitial@@Base+0x34e4>
  407410:	00001021 	move	v0,zero
  407414:	afa00018 	sw	zero,24(sp)
  407418:	248410e4 	addiu	a0,a0,4324
  40741c:	02002821 	move	a1,s0
  407420:	8f99806c 	lw	t9,-32660(gp)
  407424:	0320f809 	jalr	t9
  407428:	27a60018 	addiu	a2,sp,24
  40742c:	8fbc0010 	lw	gp,16(sp)
  407430:	02202021 	move	a0,s1
  407434:	3c050041 	lui	a1,0x41
  407438:	8fa60018 	lw	a2,24(sp)
[31m  40743c:	8f9980c8 	lw	t9,fprintf[0m
  407440:	0320f809 	jalr	t9
  407444:	24a50f14 	addiu	a1,a1,3860
--
  407474:	afb00120 	sw	s0,288(sp)
  407478:	3c1c0043 	lui	gp,0x43
  40747c:	279ca840 	addiu	gp,gp,-22464
  407480:	afbc0010 	sw	gp,16(sp)
  407484:	00808021 	move	s0,a0
  407488:	10800045 	beqz	a0,4075a0 <AspInitial@@Base+0x3638>
  40748c:	00a08821 	move	s1,a1
  407490:	3c050041 	lui	a1,0x41
  407494:	8f9980dc 	lw	t9,-32548(gp)
  407498:	0320f809 	jalr	t9
  40749c:	24a50f90 	addiu	a1,a1,3984
  4074a0:	8fbc0010 	lw	gp,16(sp)
  4074a4:	14400011 	bnez	v0,4074ec <AspInitial@@Base+0x3584>
  4074a8:	02002021 	move	a0,s0
  4074ac:	a3a00018 	sb	zero,24(sp)
  4074b0:	3c040041 	lui	a0,0x41
  4074b4:	248410f4 	addiu	a0,a0,4340
  4074b8:	02002821 	move	a1,s0
  4074bc:	8f99806c 	lw	t9,-32660(gp)
  4074c0:	0320f809 	jalr	t9
  4074c4:	27a60018 	addiu	a2,sp,24
  4074c8:	8fbc0010 	lw	gp,16(sp)
  4074cc:	02202021 	move	a0,s1
  4074d0:	3c050041 	lui	a1,0x41
  4074d4:	93a60018 	lbu	a2,24(sp)
[31m  4074d8:	8f9980c8 	lw	t9,fprintf[0m
  4074dc:	0320f809 	jalr	t9
  4074e0:	24a50dac 	addiu	a1,a1,3500
--
  4074f4:	0320f809 	jalr	t9
  4074f8:	24a510ec 	addiu	a1,a1,4332
  4074fc:	8fbc0010 	lw	gp,16(sp)
  407500:	1440001a 	bnez	v0,40756c <AspInitial@@Base+0x3604>
  407504:	3c040041 	lui	a0,0x41
  407508:	3c020041 	lui	v0,0x41
  40750c:	90422090 	lbu	v0,8336(v0)
  407510:	a3a2001c 	sb	v0,28(sp)
  407514:	27a4001d 	addiu	a0,sp,29
  407518:	00002821 	move	a1,zero
  40751c:	8f998104 	lw	t9,-32508(gp)
  407520:	0320f809 	jalr	t9
  407524:	240600ff 	li	a2,255
  407528:	8fbc0010 	lw	gp,16(sp)
  40752c:	27b2001c 	addiu	s2,sp,28
  407530:	3c040041 	lui	a0,0x41
  407534:	248410f4 	addiu	a0,a0,4340
  407538:	02002821 	move	a1,s0
  40753c:	8f99806c 	lw	t9,-32660(gp)
  407540:	0320f809 	jalr	t9
  407544:	02403021 	move	a2,s2
  407548:	8fbc0010 	lw	gp,16(sp)
  40754c:	02202021 	move	a0,s1
  407550:	3c050041 	lui	a1,0x41
  407554:	24a5fdec 	addiu	a1,a1,-532
[31m  407558:	8f9980c8 	lw	t9,fprintf[0m
  40755c:	0320f809 	jalr	t9
  407560:	02403021 	move	a2,s2
  407564:	1000000f 	b	4075a4 <AspInitial@@Base+0x363c>
  407568:	00001021 	move	v0,zero
  40756c:	afa00018 	sw	zero,24(sp)
  407570:	248410f4 	addiu	a0,a0,4340
  407574:	02002821 	move	a1,s0
  407578:	8f99806c 	lw	t9,-32660(gp)
  40757c:	0320f809 	jalr	t9
  407580:	27a60018 	addiu	a2,sp,24
  407584:	8fbc0010 	lw	gp,16(sp)
  407588:	02202021 	move	a0,s1
  40758c:	3c050041 	lui	a1,0x41
  407590:	8fa60018 	lw	a2,24(sp)
[31m  407594:	8f9980c8 	lw	t9,fprintf[0m
  407598:	0320f809 	jalr	t9
  40759c:	24a50f14 	addiu	a1,a1,3860
--
  4075cc:	afb00120 	sw	s0,288(sp)
  4075d0:	3c1c0043 	lui	gp,0x43
  4075d4:	279ca840 	addiu	gp,gp,-22464
  4075d8:	afbc0010 	sw	gp,16(sp)
  4075dc:	00808021 	move	s0,a0
  4075e0:	10800045 	beqz	a0,4076f8 <AspInitial@@Base+0x3790>
  4075e4:	00a08821 	move	s1,a1
  4075e8:	3c050041 	lui	a1,0x41
  4075ec:	8f9980dc 	lw	t9,-32548(gp)
  4075f0:	0320f809 	jalr	t9
  4075f4:	24a50f90 	addiu	a1,a1,3984
  4075f8:	8fbc0010 	lw	gp,16(sp)
  4075fc:	14400011 	bnez	v0,407644 <AspInitial@@Base+0x36dc>
  407600:	02002021 	move	a0,s0
  407604:	a3a00018 	sb	zero,24(sp)
  407608:	3c040041 	lui	a0,0x41
  40760c:	248410fc 	addiu	a0,a0,4348
  407610:	02002821 	move	a1,s0
  407614:	8f99806c 	lw	t9,-32660(gp)
  407618:	0320f809 	jalr	t9
  40761c:	27a60018 	addiu	a2,sp,24
  407620:	8fbc0010 	lw	gp,16(sp)
  407624:	02202021 	move	a0,s1
  407628:	3c050041 	lui	a1,0x41
  40762c:	93a60018 	lbu	a2,24(sp)
[31m  407630:	8f9980c8 	lw	t9,fprintf[0m
  407634:	0320f809 	jalr	t9
  407638:	24a50dac 	addiu	a1,a1,3500
--
  40764c:	0320f809 	jalr	t9
  407650:	24a510ec 	addiu	a1,a1,4332
  407654:	8fbc0010 	lw	gp,16(sp)
  407658:	1440001a 	bnez	v0,4076c4 <AspInitial@@Base+0x375c>
  40765c:	3c040041 	lui	a0,0x41
  407660:	3c020041 	lui	v0,0x41
  407664:	90422090 	lbu	v0,8336(v0)
  407668:	a3a2001c 	sb	v0,28(sp)
  40766c:	27a4001d 	addiu	a0,sp,29
  407670:	00002821 	move	a1,zero
  407674:	8f998104 	lw	t9,-32508(gp)
  407678:	0320f809 	jalr	t9
  40767c:	240600ff 	li	a2,255
  407680:	8fbc0010 	lw	gp,16(sp)
  407684:	27b2001c 	addiu	s2,sp,28
  407688:	3c040041 	lui	a0,0x41
  40768c:	248410fc 	addiu	a0,a0,4348
  407690:	02002821 	move	a1,s0
  407694:	8f99806c 	lw	t9,-32660(gp)
  407698:	0320f809 	jalr	t9
  40769c:	02403021 	move	a2,s2
  4076a0:	8fbc0010 	lw	gp,16(sp)
  4076a4:	02202021 	move	a0,s1
  4076a8:	3c050041 	lui	a1,0x41
  4076ac:	24a5fdec 	addiu	a1,a1,-532
[31m  4076b0:	8f9980c8 	lw	t9,fprintf[0m
  4076b4:	0320f809 	jalr	t9
  4076b8:	02403021 	move	a2,s2
  4076bc:	1000000f 	b	4076fc <AspInitial@@Base+0x3794>
  4076c0:	00001021 	move	v0,zero
  4076c4:	afa00018 	sw	zero,24(sp)
  4076c8:	248410fc 	addiu	a0,a0,4348
  4076cc:	02002821 	move	a1,s0
  4076d0:	8f99806c 	lw	t9,-32660(gp)
  4076d4:	0320f809 	jalr	t9
  4076d8:	27a60018 	addiu	a2,sp,24
  4076dc:	8fbc0010 	lw	gp,16(sp)
  4076e0:	02202021 	move	a0,s1
  4076e4:	3c050041 	lui	a1,0x41
  4076e8:	8fa60018 	lw	a2,24(sp)
[31m  4076ec:	8f9980c8 	lw	t9,fprintf[0m
  4076f0:	0320f809 	jalr	t9
  4076f4:	24a50f14 	addiu	a1,a1,3860
--
  407954:	3c050041 	lui	a1,0x41
  407958:	8f9980dc 	lw	t9,-32548(gp)
  40795c:	0320f809 	jalr	t9
  407960:	24a51204 	addiu	a1,a1,4612
  407964:	8fbc0010 	lw	gp,16(sp)
  407968:	10400008 	beqz	v0,40798c <AspInitial@@Base+0x3a24>
  40796c:	02002021 	move	a0,s0
  407970:	3c050041 	lui	a1,0x41
  407974:	8f9980dc 	lw	t9,-32548(gp)
  407978:	0320f809 	jalr	t9
  40797c:	24a51210 	addiu	a1,a1,4624
  407980:	8fbc0010 	lw	gp,16(sp)
  407984:	14400011 	bnez	v0,4079cc <AspInitial@@Base+0x3a64>
  407988:	02002021 	move	a0,s0
  40798c:	a3a00018 	sb	zero,24(sp)
  407990:	3c040041 	lui	a0,0x41
  407994:	24840e78 	addiu	a0,a0,3704
  407998:	02002821 	move	a1,s0
  40799c:	8f99806c 	lw	t9,-32660(gp)
  4079a0:	0320f809 	jalr	t9
  4079a4:	27a60018 	addiu	a2,sp,24
  4079a8:	8fbc0010 	lw	gp,16(sp)
  4079ac:	02202021 	move	a0,s1
  4079b0:	3c050041 	lui	a1,0x41
  4079b4:	93a60018 	lbu	a2,24(sp)
[31m  4079b8:	8f9980c8 	lw	t9,fprintf[0m
  4079bc:	0320f809 	jalr	t9
  4079c0:	24a50dac 	addiu	a1,a1,3500
--
  407d4c:	3c050041 	lui	a1,0x41
  407d50:	8f9980dc 	lw	t9,-32548(gp)
  407d54:	0320f809 	jalr	t9
  407d58:	24a513d0 	addiu	a1,a1,5072
  407d5c:	8fbc0010 	lw	gp,16(sp)
  407d60:	10400008 	beqz	v0,407d84 <AspInitial@@Base+0x3e1c>
  407d64:	02002021 	move	a0,s0
  407d68:	3c050041 	lui	a1,0x41
  407d6c:	8f9980dc 	lw	t9,-32548(gp)
  407d70:	0320f809 	jalr	t9
  407d74:	24a513e0 	addiu	a1,a1,5088
  407d78:	8fbc0010 	lw	gp,16(sp)
  407d7c:	14400011 	bnez	v0,407dc4 <AspInitial@@Base+0x3e5c>
  407d80:	02002021 	move	a0,s0
  407d84:	afa00018 	sw	zero,24(sp)
  407d88:	3c040041 	lui	a0,0x41
  407d8c:	24840e78 	addiu	a0,a0,3704
  407d90:	02002821 	move	a1,s0
  407d94:	8f99806c 	lw	t9,-32660(gp)
  407d98:	0320f809 	jalr	t9
  407d9c:	27a60018 	addiu	a2,sp,24
  407da0:	8fbc0010 	lw	gp,16(sp)
  407da4:	02202021 	move	a0,s1
  407da8:	3c050041 	lui	a1,0x41
  407dac:	8fa60018 	lw	a2,24(sp)
[31m  407db0:	8f9980c8 	lw	t9,fprintf[0m
  407db4:	0320f809 	jalr	t9
  407db8:	24a50f14 	addiu	a1,a1,3860
  407dbc:	1000002d 	b	407e74 <AspInitial@@Base+0x3f0c>
  407dc0:	00001021 	move	v0,zero
  407dc4:	3c050041 	lui	a1,0x41
  407dc8:	8f9980dc 	lw	t9,-32548(gp)
  407dcc:	0320f809 	jalr	t9
  407dd0:	24a513f0 	addiu	a1,a1,5104
  407dd4:	8fbc0010 	lw	gp,16(sp)
  407dd8:	1440000f 	bnez	v0,407e18 <AspInitial@@Base+0x3eb0>
  407ddc:	27a4001d 	addiu	a0,sp,29
  407de0:	afa00018 	sw	zero,24(sp)
  407de4:	2404003b 	li	a0,59
  407de8:	8f998188 	lw	t9,-32376(gp)
  407dec:	0320f809 	jalr	t9
  407df0:	27a50018 	addiu	a1,sp,24
  407df4:	8fbc0010 	lw	gp,16(sp)
  407df8:	02202021 	move	a0,s1
  407dfc:	3c050041 	lui	a1,0x41
  407e00:	8fa60018 	lw	a2,24(sp)
[31m  407e04:	8f9980c8 	lw	t9,fprintf[0m
  407e08:	0320f809 	jalr	t9
  407e0c:	24a50f14 	addiu	a1,a1,3860
  407e10:	10000018 	b	407e74 <AspInitial@@Base+0x3f0c>
  407e14:	00001021 	move	v0,zero
  407e18:	3c020041 	lui	v0,0x41
  407e1c:	90422090 	lbu	v0,8336(v0)
  407e20:	a3a2001c 	sb	v0,28(sp)
  407e24:	00002821 	move	a1,zero
  407e28:	8f998104 	lw	t9,-32508(gp)
  407e2c:	0320f809 	jalr	t9
  407e30:	240600ff 	li	a2,255
  407e34:	8fbc0010 	lw	gp,16(sp)
  407e38:	27b2001c 	addiu	s2,sp,28
  407e3c:	3c040041 	lui	a0,0x41
  407e40:	24840e78 	addiu	a0,a0,3704
  407e44:	02002821 	move	a1,s0
  407e48:	8f99806c 	lw	t9,-32660(gp)
  407e4c:	0320f809 	jalr	t9
  407e50:	02403021 	move	a2,s2
  407e54:	8fbc0010 	lw	gp,16(sp)
  407e58:	02202021 	move	a0,s1
  407e5c:	3c050041 	lui	a1,0x41
  407e60:	24a5fdec 	addiu	a1,a1,-532
[31m  407e64:	8f9980c8 	lw	t9,fprintf[0m
  407e68:	0320f809 	jalr	t9
  407e6c:	02403021 	move	a2,s2
--
  407e9c:	afb00120 	sw	s0,288(sp)
  407ea0:	3c1c0043 	lui	gp,0x43
  407ea4:	279ca840 	addiu	gp,gp,-22464
  407ea8:	afbc0010 	sw	gp,16(sp)
  407eac:	00808021 	move	s0,a0
  407eb0:	10800068 	beqz	a0,408054 <AspInitial@@Base+0x40ec>
  407eb4:	00a08821 	move	s1,a1
  407eb8:	3c050041 	lui	a1,0x41
  407ebc:	8f9980dc 	lw	t9,-32548(gp)
  407ec0:	0320f809 	jalr	t9
  407ec4:	24a50f90 	addiu	a1,a1,3984
  407ec8:	8fbc0010 	lw	gp,16(sp)
  407ecc:	14400011 	bnez	v0,407f14 <AspInitial@@Base+0x3fac>
  407ed0:	02002021 	move	a0,s0
  407ed4:	a3a00018 	sb	zero,24(sp)
  407ed8:	3c040041 	lui	a0,0x41
  407edc:	24841400 	addiu	a0,a0,5120
  407ee0:	02002821 	move	a1,s0
  407ee4:	8f99806c 	lw	t9,-32660(gp)
  407ee8:	0320f809 	jalr	t9
  407eec:	27a60018 	addiu	a2,sp,24
  407ef0:	8fbc0010 	lw	gp,16(sp)
  407ef4:	02202021 	move	a0,s1
  407ef8:	3c050041 	lui	a1,0x41
  407efc:	93a60018 	lbu	a2,24(sp)
[31m  407f00:	8f9980c8 	lw	t9,fprintf[0m
  407f04:	0320f809 	jalr	t9
  407f08:	24a50dac 	addiu	a1,a1,3500
--
  407f84:	3c050041 	lui	a1,0x41
  407f88:	8f9980dc 	lw	t9,-32548(gp)
  407f8c:	0320f809 	jalr	t9
  407f90:	24a5143c 	addiu	a1,a1,5180
  407f94:	8fbc0010 	lw	gp,16(sp)
  407f98:	10400008 	beqz	v0,407fbc <AspInitial@@Base+0x4054>
  407f9c:	02002021 	move	a0,s0
  407fa0:	3c050041 	lui	a1,0x41
  407fa4:	8f9980dc 	lw	t9,-32548(gp)
  407fa8:	0320f809 	jalr	t9
  407fac:	24a51448 	addiu	a1,a1,5192
  407fb0:	8fbc0010 	lw	gp,16(sp)
  407fb4:	14400011 	bnez	v0,407ffc <AspInitial@@Base+0x4094>
  407fb8:	27a4001d 	addiu	a0,sp,29
  407fbc:	afa00018 	sw	zero,24(sp)
  407fc0:	3c040041 	lui	a0,0x41
  407fc4:	24841400 	addiu	a0,a0,5120
  407fc8:	02002821 	move	a1,s0
  407fcc:	8f99806c 	lw	t9,-32660(gp)
  407fd0:	0320f809 	jalr	t9
  407fd4:	27a60018 	addiu	a2,sp,24
  407fd8:	8fbc0010 	lw	gp,16(sp)
  407fdc:	02202021 	move	a0,s1
  407fe0:	3c050041 	lui	a1,0x41
  407fe4:	8fa60018 	lw	a2,24(sp)
[31m  407fe8:	8f9980c8 	lw	t9,fprintf[0m
  407fec:	0320f809 	jalr	t9
  407ff0:	24a50f14 	addiu	a1,a1,3860
  407ff4:	10000018 	b	408058 <AspInitial@@Base+0x40f0>
  407ff8:	00001021 	move	v0,zero
  407ffc:	3c020041 	lui	v0,0x41
  408000:	90422090 	lbu	v0,8336(v0)
  408004:	a3a2001c 	sb	v0,28(sp)
  408008:	00002821 	move	a1,zero
  40800c:	8f998104 	lw	t9,-32508(gp)
  408010:	0320f809 	jalr	t9
  408014:	240600ff 	li	a2,255
  408018:	8fbc0010 	lw	gp,16(sp)
  40801c:	27b2001c 	addiu	s2,sp,28
  408020:	3c040041 	lui	a0,0x41
  408024:	24841400 	addiu	a0,a0,5120
  408028:	02002821 	move	a1,s0
  40802c:	8f99806c 	lw	t9,-32660(gp)
  408030:	0320f809 	jalr	t9
  408034:	02403021 	move	a2,s2
  408038:	8fbc0010 	lw	gp,16(sp)
  40803c:	02202021 	move	a0,s1
  408040:	3c050041 	lui	a1,0x41
  408044:	24a5fdec 	addiu	a1,a1,-532
[31m  408048:	8f9980c8 	lw	t9,fprintf[0m
  40804c:	0320f809 	jalr	t9
  408050:	02403021 	move	a2,s2
--
  40807c:	afb00024 	sw	s0,36(sp)
  408080:	3c1c0043 	lui	gp,0x43
  408084:	279ca840 	addiu	gp,gp,-22464
  408088:	afbc0010 	sw	gp,16(sp)
  40808c:	00808021 	move	s0,a0
  408090:	10800016 	beqz	a0,4080ec <AspInitial@@Base+0x4184>
  408094:	00a08821 	move	s1,a1
  408098:	3c050041 	lui	a1,0x41
  40809c:	8f9980dc 	lw	t9,-32548(gp)
  4080a0:	0320f809 	jalr	t9
  4080a4:	24a51454 	addiu	a1,a1,5204
  4080a8:	8fbc0010 	lw	gp,16(sp)
  4080ac:	14400010 	bnez	v0,4080f0 <AspInitial@@Base+0x4188>
  4080b0:	00001021 	move	v0,zero
  4080b4:	afa00018 	sw	zero,24(sp)
  4080b8:	3c040041 	lui	a0,0x41
  4080bc:	24841460 	addiu	a0,a0,5216
  4080c0:	02002821 	move	a1,s0
  4080c4:	8f99806c 	lw	t9,-32660(gp)
  4080c8:	0320f809 	jalr	t9
  4080cc:	27a60018 	addiu	a2,sp,24
  4080d0:	8fbc0010 	lw	gp,16(sp)
  4080d4:	02202021 	move	a0,s1
  4080d8:	3c050041 	lui	a1,0x41
  4080dc:	8fa60018 	lw	a2,24(sp)
[31m  4080e0:	8f9980c8 	lw	t9,fprintf[0m
  4080e4:	0320f809 	jalr	t9
  4080e8:	24a50f14 	addiu	a1,a1,3860
--
  4081f0:	3c050041 	lui	a1,0x41
  4081f4:	8f9980dc 	lw	t9,-32548(gp)
  4081f8:	0320f809 	jalr	t9
  4081fc:	24a514e4 	addiu	a1,a1,5348
  408200:	8fbc0010 	lw	gp,16(sp)
  408204:	10400008 	beqz	v0,408228 <AspInitial@@Base+0x42c0>
  408208:	02002021 	move	a0,s0
  40820c:	3c050041 	lui	a1,0x41
  408210:	8f9980dc 	lw	t9,-32548(gp)
  408214:	0320f809 	jalr	t9
  408218:	24a514f0 	addiu	a1,a1,5360
  40821c:	8fbc0010 	lw	gp,16(sp)
  408220:	14400010 	bnez	v0,408264 <AspInitial@@Base+0x42fc>
  408224:	00001021 	move	v0,zero
  408228:	a3a00018 	sb	zero,24(sp)
  40822c:	3c040041 	lui	a0,0x41
  408230:	248414fc 	addiu	a0,a0,5372
  408234:	02002821 	move	a1,s0
  408238:	8f99806c 	lw	t9,-32660(gp)
  40823c:	0320f809 	jalr	t9
  408240:	27a60018 	addiu	a2,sp,24
  408244:	8fbc0010 	lw	gp,16(sp)
  408248:	02202021 	move	a0,s1
  40824c:	3c050041 	lui	a1,0x41
  408250:	93a60018 	lbu	a2,24(sp)
[31m  408254:	8f9980c8 	lw	t9,fprintf[0m
  408258:	0320f809 	jalr	t9
  40825c:	24a50dac 	addiu	a1,a1,3500
--
  4082c8:	0320f809 	jalr	t9
  4082cc:	24a51514 	addiu	a1,a1,5396
  4082d0:	8fbc0010 	lw	gp,16(sp)
  4082d4:	1440001a 	bnez	v0,408340 <AspInitial@@Base+0x43d8>
  4082d8:	02002021 	move	a0,s0
  4082dc:	3c020041 	lui	v0,0x41
  4082e0:	90422090 	lbu	v0,8336(v0)
  4082e4:	a3a2001c 	sb	v0,28(sp)
  4082e8:	27a4001d 	addiu	a0,sp,29
  4082ec:	00002821 	move	a1,zero
  4082f0:	8f998104 	lw	t9,-32508(gp)
  4082f4:	0320f809 	jalr	t9
  4082f8:	240600ff 	li	a2,255
  4082fc:	8fbc0010 	lw	gp,16(sp)
  408300:	27b1001c 	addiu	s1,sp,28
  408304:	3c040041 	lui	a0,0x41
  408308:	2484151c 	addiu	a0,a0,5404
  40830c:	02002821 	move	a1,s0
  408310:	8f99806c 	lw	t9,-32660(gp)
  408314:	0320f809 	jalr	t9
  408318:	02203021 	move	a2,s1
  40831c:	8fbc0010 	lw	gp,16(sp)
  408320:	02402021 	move	a0,s2
  408324:	3c050041 	lui	a1,0x41
  408328:	24a5fdec 	addiu	a1,a1,-532
[31m  40832c:	8f9980c8 	lw	t9,fprintf[0m
  408330:	0320f809 	jalr	t9
  408334:	02203021 	move	a2,s1
--
  4083e8:	3c050041 	lui	a1,0x41
  4083ec:	8f9980dc 	lw	t9,-32548(gp)
  4083f0:	0320f809 	jalr	t9
  4083f4:	24a51584 	addiu	a1,a1,5508
  4083f8:	8fbc0010 	lw	gp,16(sp)
  4083fc:	10400008 	beqz	v0,408420 <AspInitial@@Base+0x44b8>
  408400:	02002021 	move	a0,s0
  408404:	3c050041 	lui	a1,0x41
  408408:	8f9980dc 	lw	t9,-32548(gp)
  40840c:	0320f809 	jalr	t9
  408410:	24a51590 	addiu	a1,a1,5520
  408414:	8fbc0010 	lw	gp,16(sp)
  408418:	14400011 	bnez	v0,408460 <AspInitial@@Base+0x44f8>
  40841c:	3c040041 	lui	a0,0x41
  408420:	afa00018 	sw	zero,24(sp)
  408424:	3c040041 	lui	a0,0x41
  408428:	2484151c 	addiu	a0,a0,5404
  40842c:	02002821 	move	a1,s0
  408430:	8f99806c 	lw	t9,-32660(gp)
  408434:	0320f809 	jalr	t9
  408438:	27a60018 	addiu	a2,sp,24
  40843c:	8fbc0010 	lw	gp,16(sp)
  408440:	02402021 	move	a0,s2
  408444:	3c050041 	lui	a1,0x41
  408448:	8fa60018 	lw	a2,24(sp)
[31m  40844c:	8f9980c8 	lw	t9,fprintf[0m
  408450:	0320f809 	jalr	t9
  408454:	24a50f14 	addiu	a1,a1,3860
  408458:	1000000f 	b	408498 <AspInitial@@Base+0x4530>
  40845c:	00001021 	move	v0,zero
  408460:	a3a00018 	sb	zero,24(sp)
  408464:	2484151c 	addiu	a0,a0,5404
  408468:	02002821 	move	a1,s0
  40846c:	8f99806c 	lw	t9,-32660(gp)
  408470:	0320f809 	jalr	t9
  408474:	27a60018 	addiu	a2,sp,24
  408478:	8fbc0010 	lw	gp,16(sp)
  40847c:	02402021 	move	a0,s2
  408480:	3c050041 	lui	a1,0x41
  408484:	93a60018 	lbu	a2,24(sp)
[31m  408488:	8f9980c8 	lw	t9,fprintf[0m
  40848c:	0320f809 	jalr	t9
  408490:	24a50dac 	addiu	a1,a1,3500
--
  408500:	0320f809 	jalr	t9
  408504:	24a51514 	addiu	a1,a1,5396
  408508:	8fbc0010 	lw	gp,16(sp)
  40850c:	1440001a 	bnez	v0,408578 <AspInitial@@Base+0x4610>
  408510:	02002021 	move	a0,s0
  408514:	3c020041 	lui	v0,0x41
  408518:	90422090 	lbu	v0,8336(v0)
  40851c:	a3a2001c 	sb	v0,28(sp)
  408520:	27a4001d 	addiu	a0,sp,29
  408524:	00002821 	move	a1,zero
  408528:	8f998104 	lw	t9,-32508(gp)
  40852c:	0320f809 	jalr	t9
  408530:	240600ff 	li	a2,255
  408534:	8fbc0010 	lw	gp,16(sp)
  408538:	27b1001c 	addiu	s1,sp,28
  40853c:	3c040041 	lui	a0,0x41
  408540:	248415a0 	addiu	a0,a0,5536
  408544:	02002821 	move	a1,s0
  408548:	8f99806c 	lw	t9,-32660(gp)
  40854c:	0320f809 	jalr	t9
  408550:	02203021 	move	a2,s1
  408554:	8fbc0010 	lw	gp,16(sp)
  408558:	02402021 	move	a0,s2
  40855c:	3c050041 	lui	a1,0x41
  408560:	24a5fdec 	addiu	a1,a1,-532
[31m  408564:	8f9980c8 	lw	t9,fprintf[0m
  408568:	0320f809 	jalr	t9
  40856c:	02203021 	move	a2,s1
--
  408578:	3c050041 	lui	a1,0x41
  40857c:	8f9980dc 	lw	t9,-32548(gp)
  408580:	0320f809 	jalr	t9
  408584:	24a52008 	addiu	a1,a1,8200
  408588:	8fbc0010 	lw	gp,16(sp)
  40858c:	10400008 	beqz	v0,4085b0 <AspInitial@@Base+0x4648>
  408590:	02002021 	move	a0,s0
  408594:	3c050041 	lui	a1,0x41
  408598:	8f9980dc 	lw	t9,-32548(gp)
  40859c:	0320f809 	jalr	t9
  4085a0:	24a515c0 	addiu	a1,a1,5568
  4085a4:	8fbc0010 	lw	gp,16(sp)
  4085a8:	14400011 	bnez	v0,4085f0 <AspInitial@@Base+0x4688>
  4085ac:	3c040041 	lui	a0,0x41
  4085b0:	afa00018 	sw	zero,24(sp)
  4085b4:	3c040041 	lui	a0,0x41
  4085b8:	248415a0 	addiu	a0,a0,5536
  4085bc:	02002821 	move	a1,s0
  4085c0:	8f99806c 	lw	t9,-32660(gp)
  4085c4:	0320f809 	jalr	t9
  4085c8:	27a60018 	addiu	a2,sp,24
  4085cc:	8fbc0010 	lw	gp,16(sp)
  4085d0:	02402021 	move	a0,s2
  4085d4:	3c050041 	lui	a1,0x41
  4085d8:	8fa60018 	lw	a2,24(sp)
[31m  4085dc:	8f9980c8 	lw	t9,fprintf[0m
  4085e0:	0320f809 	jalr	t9
  4085e4:	24a50f14 	addiu	a1,a1,3860
  4085e8:	1000000f 	b	408628 <AspInitial@@Base+0x46c0>
  4085ec:	00001021 	move	v0,zero
  4085f0:	a3a00018 	sb	zero,24(sp)
  4085f4:	248415a0 	addiu	a0,a0,5536
  4085f8:	02002821 	move	a1,s0
  4085fc:	8f99806c 	lw	t9,-32660(gp)
  408600:	0320f809 	jalr	t9
  408604:	27a60018 	addiu	a2,sp,24
  408608:	8fbc0010 	lw	gp,16(sp)
  40860c:	02402021 	move	a0,s2
  408610:	3c050041 	lui	a1,0x41
  408614:	93a60018 	lbu	a2,24(sp)
[31m  408618:	8f9980c8 	lw	t9,fprintf[0m
  40861c:	0320f809 	jalr	t9
  408620:	24a50dac 	addiu	a1,a1,3500
--
  408690:	0320f809 	jalr	t9
  408694:	24a51514 	addiu	a1,a1,5396
  408698:	8fbc0010 	lw	gp,16(sp)
  40869c:	1440001a 	bnez	v0,408708 <AspInitial@@Base+0x47a0>
  4086a0:	02002021 	move	a0,s0
  4086a4:	3c020041 	lui	v0,0x41
  4086a8:	90422090 	lbu	v0,8336(v0)
  4086ac:	a3a2001c 	sb	v0,28(sp)
  4086b0:	27a4001d 	addiu	a0,sp,29
  4086b4:	00002821 	move	a1,zero
  4086b8:	8f998104 	lw	t9,-32508(gp)
  4086bc:	0320f809 	jalr	t9
  4086c0:	240600ff 	li	a2,255
  4086c4:	8fbc0010 	lw	gp,16(sp)
  4086c8:	27b1001c 	addiu	s1,sp,28
  4086cc:	3c040041 	lui	a0,0x41
  4086d0:	248415c8 	addiu	a0,a0,5576
  4086d4:	02002821 	move	a1,s0
  4086d8:	8f99806c 	lw	t9,-32660(gp)
  4086dc:	0320f809 	jalr	t9
  4086e0:	02203021 	move	a2,s1
  4086e4:	8fbc0010 	lw	gp,16(sp)
  4086e8:	02402021 	move	a0,s2
  4086ec:	3c050041 	lui	a1,0x41
  4086f0:	24a5fdec 	addiu	a1,a1,-532
[31m  4086f4:	8f9980c8 	lw	t9,fprintf[0m
  4086f8:	0320f809 	jalr	t9
  4086fc:	02203021 	move	a2,s1
--
  408708:	3c050041 	lui	a1,0x41
  40870c:	8f9980dc 	lw	t9,-32548(gp)
  408710:	0320f809 	jalr	t9
  408714:	24a52008 	addiu	a1,a1,8200
  408718:	8fbc0010 	lw	gp,16(sp)
  40871c:	10400008 	beqz	v0,408740 <AspInitial@@Base+0x47d8>
  408720:	02002021 	move	a0,s0
  408724:	3c050041 	lui	a1,0x41
  408728:	8f9980dc 	lw	t9,-32548(gp)
  40872c:	0320f809 	jalr	t9
  408730:	24a515c0 	addiu	a1,a1,5568
  408734:	8fbc0010 	lw	gp,16(sp)
  408738:	14400011 	bnez	v0,408780 <AspInitial@@Base+0x4818>
  40873c:	3c040041 	lui	a0,0x41
  408740:	afa00018 	sw	zero,24(sp)
  408744:	3c040041 	lui	a0,0x41
  408748:	248415c8 	addiu	a0,a0,5576
  40874c:	02002821 	move	a1,s0
  408750:	8f99806c 	lw	t9,-32660(gp)
  408754:	0320f809 	jalr	t9
  408758:	27a60018 	addiu	a2,sp,24
  40875c:	8fbc0010 	lw	gp,16(sp)
  408760:	02402021 	move	a0,s2
  408764:	3c050041 	lui	a1,0x41
  408768:	8fa60018 	lw	a2,24(sp)
[31m  40876c:	8f9980c8 	lw	t9,fprintf[0m
  408770:	0320f809 	jalr	t9
  408774:	24a50f14 	addiu	a1,a1,3860
  408778:	1000000f 	b	4087b8 <AspInitial@@Base+0x4850>
  40877c:	00001021 	move	v0,zero
  408780:	a3a00018 	sb	zero,24(sp)
  408784:	248415c8 	addiu	a0,a0,5576
  408788:	02002821 	move	a1,s0
  40878c:	8f99806c 	lw	t9,-32660(gp)
  408790:	0320f809 	jalr	t9
  408794:	27a60018 	addiu	a2,sp,24
  408798:	8fbc0010 	lw	gp,16(sp)
  40879c:	02402021 	move	a0,s2
  4087a0:	3c050041 	lui	a1,0x41
  4087a4:	93a60018 	lbu	a2,24(sp)
[31m  4087a8:	8f9980c8 	lw	t9,fprintf[0m
  4087ac:	0320f809 	jalr	t9
  4087b0:	24a50dac 	addiu	a1,a1,3500
--
  408820:	0320f809 	jalr	t9
  408824:	24a51514 	addiu	a1,a1,5396
  408828:	8fbc0010 	lw	gp,16(sp)
  40882c:	1440001a 	bnez	v0,408898 <AspInitial@@Base+0x4930>
  408830:	02002021 	move	a0,s0
  408834:	3c020041 	lui	v0,0x41
  408838:	90422090 	lbu	v0,8336(v0)
  40883c:	a3a2001c 	sb	v0,28(sp)
  408840:	27a4001d 	addiu	a0,sp,29
  408844:	00002821 	move	a1,zero
  408848:	8f998104 	lw	t9,-32508(gp)
  40884c:	0320f809 	jalr	t9
  408850:	240600ff 	li	a2,255
  408854:	8fbc0010 	lw	gp,16(sp)
  408858:	27b1001c 	addiu	s1,sp,28
  40885c:	3c040041 	lui	a0,0x41
  408860:	248415e4 	addiu	a0,a0,5604
  408864:	02002821 	move	a1,s0
  408868:	8f99806c 	lw	t9,-32660(gp)
  40886c:	0320f809 	jalr	t9
  408870:	02203021 	move	a2,s1
  408874:	8fbc0010 	lw	gp,16(sp)
  408878:	02402021 	move	a0,s2
  40887c:	3c050041 	lui	a1,0x41
  408880:	24a5fdec 	addiu	a1,a1,-532
[31m  408884:	8f9980c8 	lw	t9,fprintf[0m
  408888:	0320f809 	jalr	t9
  40888c:	02203021 	move	a2,s1
--
  408898:	3c050041 	lui	a1,0x41
  40889c:	8f9980dc 	lw	t9,-32548(gp)
  4088a0:	0320f809 	jalr	t9
  4088a4:	24a52008 	addiu	a1,a1,8200
  4088a8:	8fbc0010 	lw	gp,16(sp)
  4088ac:	10400008 	beqz	v0,4088d0 <AspInitial@@Base+0x4968>
  4088b0:	02002021 	move	a0,s0
  4088b4:	3c050041 	lui	a1,0x41
  4088b8:	8f9980dc 	lw	t9,-32548(gp)
  4088bc:	0320f809 	jalr	t9
  4088c0:	24a515c0 	addiu	a1,a1,5568
  4088c4:	8fbc0010 	lw	gp,16(sp)
  4088c8:	14400011 	bnez	v0,408910 <AspInitial@@Base+0x49a8>
  4088cc:	3c040041 	lui	a0,0x41
  4088d0:	afa00018 	sw	zero,24(sp)
  4088d4:	3c040041 	lui	a0,0x41
  4088d8:	248415e4 	addiu	a0,a0,5604
  4088dc:	02002821 	move	a1,s0
  4088e0:	8f99806c 	lw	t9,-32660(gp)
  4088e4:	0320f809 	jalr	t9
  4088e8:	27a60018 	addiu	a2,sp,24
  4088ec:	8fbc0010 	lw	gp,16(sp)
  4088f0:	02402021 	move	a0,s2
  4088f4:	3c050041 	lui	a1,0x41
  4088f8:	8fa60018 	lw	a2,24(sp)
[31m  4088fc:	8f9980c8 	lw	t9,fprintf[0m
  408900:	0320f809 	jalr	t9
  408904:	24a50f14 	addiu	a1,a1,3860
  408908:	1000000f 	b	408948 <AspInitial@@Base+0x49e0>
  40890c:	00001021 	move	v0,zero
  408910:	a3a00018 	sb	zero,24(sp)
  408914:	248415e4 	addiu	a0,a0,5604
  408918:	02002821 	move	a1,s0
  40891c:	8f99806c 	lw	t9,-32660(gp)
  408920:	0320f809 	jalr	t9
  408924:	27a60018 	addiu	a2,sp,24
  408928:	8fbc0010 	lw	gp,16(sp)
  40892c:	02402021 	move	a0,s2
  408930:	3c050041 	lui	a1,0x41
  408934:	93a60018 	lbu	a2,24(sp)
[31m  408938:	8f9980c8 	lw	t9,fprintf[0m
  40893c:	0320f809 	jalr	t9
  408940:	24a50dac 	addiu	a1,a1,3500
--
  4089b0:	0320f809 	jalr	t9
  4089b4:	24a51514 	addiu	a1,a1,5396
  4089b8:	8fbc0010 	lw	gp,16(sp)
  4089bc:	1440001a 	bnez	v0,408a28 <AspInitial@@Base+0x4ac0>
  4089c0:	02002021 	move	a0,s0
  4089c4:	3c020041 	lui	v0,0x41
  4089c8:	90422090 	lbu	v0,8336(v0)
  4089cc:	a3a2001c 	sb	v0,28(sp)
  4089d0:	27a4001d 	addiu	a0,sp,29
  4089d4:	00002821 	move	a1,zero
  4089d8:	8f998104 	lw	t9,-32508(gp)
  4089dc:	0320f809 	jalr	t9
  4089e0:	240600ff 	li	a2,255
  4089e4:	8fbc0010 	lw	gp,16(sp)
  4089e8:	27b1001c 	addiu	s1,sp,28
  4089ec:	3c040041 	lui	a0,0x41
  4089f0:	24841600 	addiu	a0,a0,5632
  4089f4:	02002821 	move	a1,s0
  4089f8:	8f99806c 	lw	t9,-32660(gp)
  4089fc:	0320f809 	jalr	t9
  408a00:	02203021 	move	a2,s1
  408a04:	8fbc0010 	lw	gp,16(sp)
  408a08:	02402021 	move	a0,s2
  408a0c:	3c050041 	lui	a1,0x41
  408a10:	24a5fdec 	addiu	a1,a1,-532
[31m  408a14:	8f9980c8 	lw	t9,fprintf[0m
  408a18:	0320f809 	jalr	t9
  408a1c:	02203021 	move	a2,s1
--
  408a28:	3c050041 	lui	a1,0x41
  408a2c:	8f9980dc 	lw	t9,-32548(gp)
  408a30:	0320f809 	jalr	t9
  408a34:	24a52008 	addiu	a1,a1,8200
  408a38:	8fbc0010 	lw	gp,16(sp)
  408a3c:	10400008 	beqz	v0,408a60 <AspInitial@@Base+0x4af8>
  408a40:	02002021 	move	a0,s0
  408a44:	3c050041 	lui	a1,0x41
  408a48:	8f9980dc 	lw	t9,-32548(gp)
  408a4c:	0320f809 	jalr	t9
  408a50:	24a515c0 	addiu	a1,a1,5568
  408a54:	8fbc0010 	lw	gp,16(sp)
  408a58:	14400011 	bnez	v0,408aa0 <AspInitial@@Base+0x4b38>
  408a5c:	3c040041 	lui	a0,0x41
  408a60:	afa00018 	sw	zero,24(sp)
  408a64:	3c040041 	lui	a0,0x41
  408a68:	24841600 	addiu	a0,a0,5632
  408a6c:	02002821 	move	a1,s0
  408a70:	8f99806c 	lw	t9,-32660(gp)
  408a74:	0320f809 	jalr	t9
  408a78:	27a60018 	addiu	a2,sp,24
  408a7c:	8fbc0010 	lw	gp,16(sp)
  408a80:	02402021 	move	a0,s2
  408a84:	3c050041 	lui	a1,0x41
  408a88:	8fa60018 	lw	a2,24(sp)
[31m  408a8c:	8f9980c8 	lw	t9,fprintf[0m
  408a90:	0320f809 	jalr	t9
  408a94:	24a50f14 	addiu	a1,a1,3860
  408a98:	1000000f 	b	408ad8 <AspInitial@@Base+0x4b70>
  408a9c:	00001021 	move	v0,zero
  408aa0:	a3a00018 	sb	zero,24(sp)
  408aa4:	24841600 	addiu	a0,a0,5632
  408aa8:	02002821 	move	a1,s0
  408aac:	8f99806c 	lw	t9,-32660(gp)
  408ab0:	0320f809 	jalr	t9
  408ab4:	27a60018 	addiu	a2,sp,24
  408ab8:	8fbc0010 	lw	gp,16(sp)
  408abc:	02402021 	move	a0,s2
  408ac0:	3c050041 	lui	a1,0x41
  408ac4:	93a60018 	lbu	a2,24(sp)
[31m  408ac8:	8f9980c8 	lw	t9,fprintf[0m
  408acc:	0320f809 	jalr	t9
  408ad0:	24a50dac 	addiu	a1,a1,3500
--
  408b40:	0320f809 	jalr	t9
  408b44:	24a51514 	addiu	a1,a1,5396
  408b48:	8fbc0010 	lw	gp,16(sp)
  408b4c:	1440001a 	bnez	v0,408bb8 <AspInitial@@Base+0x4c50>
  408b50:	02002021 	move	a0,s0
  408b54:	3c020041 	lui	v0,0x41
  408b58:	90422090 	lbu	v0,8336(v0)
  408b5c:	a3a2001c 	sb	v0,28(sp)
  408b60:	27a4001d 	addiu	a0,sp,29
  408b64:	00002821 	move	a1,zero
  408b68:	8f998104 	lw	t9,-32508(gp)
  408b6c:	0320f809 	jalr	t9
  408b70:	240600ff 	li	a2,255
  408b74:	8fbc0010 	lw	gp,16(sp)
  408b78:	27b1001c 	addiu	s1,sp,28
  408b7c:	3c040041 	lui	a0,0x41
  408b80:	2484161c 	addiu	a0,a0,5660
  408b84:	02002821 	move	a1,s0
  408b88:	8f99806c 	lw	t9,-32660(gp)
  408b8c:	0320f809 	jalr	t9
  408b90:	02203021 	move	a2,s1
  408b94:	8fbc0010 	lw	gp,16(sp)
  408b98:	02402021 	move	a0,s2
  408b9c:	3c050041 	lui	a1,0x41
  408ba0:	24a5fdec 	addiu	a1,a1,-532
[31m  408ba4:	8f9980c8 	lw	t9,fprintf[0m
  408ba8:	0320f809 	jalr	t9
  408bac:	02203021 	move	a2,s1
--
  408bb8:	3c050041 	lui	a1,0x41
  408bbc:	8f9980dc 	lw	t9,-32548(gp)
  408bc0:	0320f809 	jalr	t9
  408bc4:	24a52008 	addiu	a1,a1,8200
  408bc8:	8fbc0010 	lw	gp,16(sp)
  408bcc:	10400008 	beqz	v0,408bf0 <AspInitial@@Base+0x4c88>
  408bd0:	02002021 	move	a0,s0
  408bd4:	3c050041 	lui	a1,0x41
  408bd8:	8f9980dc 	lw	t9,-32548(gp)
  408bdc:	0320f809 	jalr	t9
  408be0:	24a515c0 	addiu	a1,a1,5568
  408be4:	8fbc0010 	lw	gp,16(sp)
  408be8:	14400011 	bnez	v0,408c30 <AspInitial@@Base+0x4cc8>
  408bec:	3c040041 	lui	a0,0x41
  408bf0:	afa00018 	sw	zero,24(sp)
  408bf4:	3c040041 	lui	a0,0x41
  408bf8:	2484161c 	addiu	a0,a0,5660
  408bfc:	02002821 	move	a1,s0
  408c00:	8f99806c 	lw	t9,-32660(gp)
  408c04:	0320f809 	jalr	t9
  408c08:	27a60018 	addiu	a2,sp,24
  408c0c:	8fbc0010 	lw	gp,16(sp)
  408c10:	02402021 	move	a0,s2
  408c14:	3c050041 	lui	a1,0x41
  408c18:	8fa60018 	lw	a2,24(sp)
[31m  408c1c:	8f9980c8 	lw	t9,fprintf[0m
  408c20:	0320f809 	jalr	t9
  408c24:	24a50f14 	addiu	a1,a1,3860
  408c28:	1000000f 	b	408c68 <AspInitial@@Base+0x4d00>
  408c2c:	00001021 	move	v0,zero
  408c30:	a3a00018 	sb	zero,24(sp)
  408c34:	2484161c 	addiu	a0,a0,5660
  408c38:	02002821 	move	a1,s0
  408c3c:	8f99806c 	lw	t9,-32660(gp)
  408c40:	0320f809 	jalr	t9
  408c44:	27a60018 	addiu	a2,sp,24
  408c48:	8fbc0010 	lw	gp,16(sp)
  408c4c:	02402021 	move	a0,s2
  408c50:	3c050041 	lui	a1,0x41
  408c54:	93a60018 	lbu	a2,24(sp)
[31m  408c58:	8f9980c8 	lw	t9,fprintf[0m
  408c5c:	0320f809 	jalr	t9
  408c60:	24a50dac 	addiu	a1,a1,3500
--
  408cd0:	0320f809 	jalr	t9
  408cd4:	24a51514 	addiu	a1,a1,5396
  408cd8:	8fbc0010 	lw	gp,16(sp)
  408cdc:	1440001a 	bnez	v0,408d48 <AspInitial@@Base+0x4de0>
  408ce0:	02002021 	move	a0,s0
  408ce4:	3c020041 	lui	v0,0x41
  408ce8:	90422090 	lbu	v0,8336(v0)
  408cec:	a3a2001c 	sb	v0,28(sp)
  408cf0:	27a4001d 	addiu	a0,sp,29
  408cf4:	00002821 	move	a1,zero
  408cf8:	8f998104 	lw	t9,-32508(gp)
  408cfc:	0320f809 	jalr	t9
  408d00:	240600ff 	li	a2,255
  408d04:	8fbc0010 	lw	gp,16(sp)
  408d08:	27b1001c 	addiu	s1,sp,28
  408d0c:	3c040041 	lui	a0,0x41
  408d10:	24841638 	addiu	a0,a0,5688
  408d14:	02002821 	move	a1,s0
  408d18:	8f99806c 	lw	t9,-32660(gp)
  408d1c:	0320f809 	jalr	t9
  408d20:	02203021 	move	a2,s1
  408d24:	8fbc0010 	lw	gp,16(sp)
  408d28:	02402021 	move	a0,s2
  408d2c:	3c050041 	lui	a1,0x41
  408d30:	24a5fdec 	addiu	a1,a1,-532
[31m  408d34:	8f9980c8 	lw	t9,fprintf[0m
  408d38:	0320f809 	jalr	t9
  408d3c:	02203021 	move	a2,s1
--
  408d48:	3c050041 	lui	a1,0x41
  408d4c:	8f9980dc 	lw	t9,-32548(gp)
  408d50:	0320f809 	jalr	t9
  408d54:	24a52008 	addiu	a1,a1,8200
  408d58:	8fbc0010 	lw	gp,16(sp)
  408d5c:	10400008 	beqz	v0,408d80 <AspInitial@@Base+0x4e18>
  408d60:	02002021 	move	a0,s0
  408d64:	3c050041 	lui	a1,0x41
  408d68:	8f9980dc 	lw	t9,-32548(gp)
  408d6c:	0320f809 	jalr	t9
  408d70:	24a515c0 	addiu	a1,a1,5568
  408d74:	8fbc0010 	lw	gp,16(sp)
  408d78:	14400011 	bnez	v0,408dc0 <AspInitial@@Base+0x4e58>
  408d7c:	3c040041 	lui	a0,0x41
  408d80:	afa00018 	sw	zero,24(sp)
  408d84:	3c040041 	lui	a0,0x41
  408d88:	24841638 	addiu	a0,a0,5688
  408d8c:	02002821 	move	a1,s0
  408d90:	8f99806c 	lw	t9,-32660(gp)
  408d94:	0320f809 	jalr	t9
  408d98:	27a60018 	addiu	a2,sp,24
  408d9c:	8fbc0010 	lw	gp,16(sp)
  408da0:	02402021 	move	a0,s2
  408da4:	3c050041 	lui	a1,0x41
  408da8:	8fa60018 	lw	a2,24(sp)
[31m  408dac:	8f9980c8 	lw	t9,fprintf[0m
  408db0:	0320f809 	jalr	t9
  408db4:	24a50f14 	addiu	a1,a1,3860
  408db8:	1000000f 	b	408df8 <AspInitial@@Base+0x4e90>
  408dbc:	00001021 	move	v0,zero
  408dc0:	a3a00018 	sb	zero,24(sp)
  408dc4:	24841638 	addiu	a0,a0,5688
  408dc8:	02002821 	move	a1,s0
  408dcc:	8f99806c 	lw	t9,-32660(gp)
  408dd0:	0320f809 	jalr	t9
  408dd4:	27a60018 	addiu	a2,sp,24
  408dd8:	8fbc0010 	lw	gp,16(sp)
  408ddc:	02402021 	move	a0,s2
  408de0:	3c050041 	lui	a1,0x41
  408de4:	93a60018 	lbu	a2,24(sp)
[31m  408de8:	8f9980c8 	lw	t9,fprintf[0m
  408dec:	0320f809 	jalr	t9
  408df0:	24a50dac 	addiu	a1,a1,3500
--
  408e44:	0320f809 	jalr	t9
  408e48:	24a51654 	addiu	a1,a1,5716
  408e4c:	8fbc0010 	lw	gp,16(sp)
  408e50:	1440001a 	bnez	v0,408ebc <AspInitial@@Base+0x4f54>
  408e54:	02002021 	move	a0,s0
  408e58:	3c020041 	lui	v0,0x41
  408e5c:	90422090 	lbu	v0,8336(v0)
  408e60:	a3a2001c 	sb	v0,28(sp)
  408e64:	27a4001d 	addiu	a0,sp,29
  408e68:	00002821 	move	a1,zero
  408e6c:	8f998104 	lw	t9,-32508(gp)
  408e70:	0320f809 	jalr	t9
  408e74:	240600ff 	li	a2,255
  408e78:	8fbc0010 	lw	gp,16(sp)
  408e7c:	27b2001c 	addiu	s2,sp,28
  408e80:	3c040041 	lui	a0,0x41
  408e84:	24841660 	addiu	a0,a0,5728
  408e88:	02002821 	move	a1,s0
  408e8c:	8f99806c 	lw	t9,-32660(gp)
  408e90:	0320f809 	jalr	t9
  408e94:	02403021 	move	a2,s2
  408e98:	8fbc0010 	lw	gp,16(sp)
  408e9c:	02202021 	move	a0,s1
  408ea0:	3c050041 	lui	a1,0x41
  408ea4:	24a5fdec 	addiu	a1,a1,-532
[31m  408ea8:	8f9980c8 	lw	t9,fprintf[0m
  408eac:	0320f809 	jalr	t9
  408eb0:	02403021 	move	a2,s2
--
  408ef4:	3c050041 	lui	a1,0x41
  408ef8:	8f9980dc 	lw	t9,-32548(gp)
  408efc:	0320f809 	jalr	t9
  408f00:	24a5168c 	addiu	a1,a1,5772
  408f04:	8fbc0010 	lw	gp,16(sp)
  408f08:	10400008 	beqz	v0,408f2c <AspInitial@@Base+0x4fc4>
  408f0c:	02002021 	move	a0,s0
  408f10:	3c050041 	lui	a1,0x41
  408f14:	8f9980dc 	lw	t9,-32548(gp)
  408f18:	0320f809 	jalr	t9
  408f1c:	24a5153c 	addiu	a1,a1,5436
  408f20:	8fbc0010 	lw	gp,16(sp)
  408f24:	14400011 	bnez	v0,408f6c <AspInitial@@Base+0x5004>
  408f28:	3c040041 	lui	a0,0x41
  408f2c:	a3a00018 	sb	zero,24(sp)
  408f30:	3c040041 	lui	a0,0x41
  408f34:	24841660 	addiu	a0,a0,5728
  408f38:	02002821 	move	a1,s0
  408f3c:	8f99806c 	lw	t9,-32660(gp)
  408f40:	0320f809 	jalr	t9
  408f44:	27a60018 	addiu	a2,sp,24
  408f48:	8fbc0010 	lw	gp,16(sp)
  408f4c:	02202021 	move	a0,s1
  408f50:	3c050041 	lui	a1,0x41
  408f54:	93a60018 	lbu	a2,24(sp)
[31m  408f58:	8f9980c8 	lw	t9,fprintf[0m
  408f5c:	0320f809 	jalr	t9
  408f60:	24a50dac 	addiu	a1,a1,3500
  408f64:	1000000f 	b	408fa4 <AspInitial@@Base+0x503c>
  408f68:	00001021 	move	v0,zero
  408f6c:	afa00018 	sw	zero,24(sp)
  408f70:	24841660 	addiu	a0,a0,5728
  408f74:	02002821 	move	a1,s0
  408f78:	8f99806c 	lw	t9,-32660(gp)
  408f7c:	0320f809 	jalr	t9
  408f80:	27a60018 	addiu	a2,sp,24
  408f84:	8fbc0010 	lw	gp,16(sp)
  408f88:	02202021 	move	a0,s1
  408f8c:	3c050041 	lui	a1,0x41
  408f90:	8fa60018 	lw	a2,24(sp)
[31m  408f94:	8f9980c8 	lw	t9,fprintf[0m
  408f98:	0320f809 	jalr	t9
  408f9c:	24a50f14 	addiu	a1,a1,3860
--
  40900c:	0320f809 	jalr	t9
  409010:	24a51514 	addiu	a1,a1,5396
  409014:	8fbc0010 	lw	gp,16(sp)
  409018:	1440001a 	bnez	v0,409084 <AspInitial@@Base+0x511c>
  40901c:	02002021 	move	a0,s0
  409020:	3c020041 	lui	v0,0x41
  409024:	90422090 	lbu	v0,8336(v0)
  409028:	a3a2001c 	sb	v0,28(sp)
  40902c:	27a4001d 	addiu	a0,sp,29
  409030:	00002821 	move	a1,zero
  409034:	8f998104 	lw	t9,-32508(gp)
  409038:	0320f809 	jalr	t9
  40903c:	240600ff 	li	a2,255
  409040:	8fbc0010 	lw	gp,16(sp)
  409044:	27b1001c 	addiu	s1,sp,28
  409048:	3c040041 	lui	a0,0x41
  40904c:	24841698 	addiu	a0,a0,5784
  409050:	02002821 	move	a1,s0
  409054:	8f99806c 	lw	t9,-32660(gp)
  409058:	0320f809 	jalr	t9
  40905c:	02203021 	move	a2,s1
  409060:	8fbc0010 	lw	gp,16(sp)
  409064:	02402021 	move	a0,s2
  409068:	3c050041 	lui	a1,0x41
  40906c:	24a5fdec 	addiu	a1,a1,-532
[31m  409070:	8f9980c8 	lw	t9,fprintf[0m
  409074:	0320f809 	jalr	t9
  409078:	02203021 	move	a2,s1
--
  40919c:	3c050041 	lui	a1,0x41
  4091a0:	8f9980dc 	lw	t9,-32548(gp)
  4091a4:	0320f809 	jalr	t9
  4091a8:	24a51738 	addiu	a1,a1,5944
  4091ac:	8fbc0010 	lw	gp,16(sp)
  4091b0:	10400008 	beqz	v0,4091d4 <AspInitial@@Base+0x526c>
  4091b4:	02002021 	move	a0,s0
  4091b8:	3c050041 	lui	a1,0x41
  4091bc:	8f9980dc 	lw	t9,-32548(gp)
  4091c0:	0320f809 	jalr	t9
  4091c4:	24a51744 	addiu	a1,a1,5956
  4091c8:	8fbc0010 	lw	gp,16(sp)
  4091cc:	14400011 	bnez	v0,409214 <AspInitial@@Base+0x52ac>
  4091d0:	3c040041 	lui	a0,0x41
  4091d4:	a3a00018 	sb	zero,24(sp)
  4091d8:	3c040041 	lui	a0,0x41
  4091dc:	24841698 	addiu	a0,a0,5784
  4091e0:	02002821 	move	a1,s0
  4091e4:	8f99806c 	lw	t9,-32660(gp)
  4091e8:	0320f809 	jalr	t9
  4091ec:	27a60018 	addiu	a2,sp,24
  4091f0:	8fbc0010 	lw	gp,16(sp)
  4091f4:	02402021 	move	a0,s2
  4091f8:	3c050041 	lui	a1,0x41
  4091fc:	93a60018 	lbu	a2,24(sp)
[31m  409200:	8f9980c8 	lw	t9,fprintf[0m
  409204:	0320f809 	jalr	t9
  409208:	24a50dac 	addiu	a1,a1,3500
  40920c:	1000000f 	b	40924c <AspInitial@@Base+0x52e4>
  409210:	00001021 	move	v0,zero
  409214:	afa00018 	sw	zero,24(sp)
  409218:	24841698 	addiu	a0,a0,5784
  40921c:	02002821 	move	a1,s0
  409220:	8f99806c 	lw	t9,-32660(gp)
  409224:	0320f809 	jalr	t9
  409228:	27a60018 	addiu	a2,sp,24
  40922c:	8fbc0010 	lw	gp,16(sp)
  409230:	02402021 	move	a0,s2
  409234:	3c050041 	lui	a1,0x41
  409238:	8fa60018 	lw	a2,24(sp)
[31m  40923c:	8f9980c8 	lw	t9,fprintf[0m
  409240:	0320f809 	jalr	t9
  409244:	24a50f14 	addiu	a1,a1,3860
--
  409274:	afb00120 	sw	s0,288(sp)
  409278:	3c1c0043 	lui	gp,0x43
  40927c:	279ca840 	addiu	gp,gp,-22464
  409280:	afbc0010 	sw	gp,16(sp)
  409284:	00808021 	move	s0,a0
  409288:	1080002e 	beqz	a0,409344 <AspInitial@@Base+0x53dc>
  40928c:	00a09021 	move	s2,a1
  409290:	3c050041 	lui	a1,0x41
  409294:	8f9980dc 	lw	t9,-32548(gp)
  409298:	0320f809 	jalr	t9
  40929c:	24a51758 	addiu	a1,a1,5976
  4092a0:	8fbc0010 	lw	gp,16(sp)
  4092a4:	14400011 	bnez	v0,4092ec <AspInitial@@Base+0x5384>
  4092a8:	27a4001d 	addiu	a0,sp,29
  4092ac:	a3a00018 	sb	zero,24(sp)
  4092b0:	3c040041 	lui	a0,0x41
  4092b4:	24841764 	addiu	a0,a0,5988
  4092b8:	02002821 	move	a1,s0
  4092bc:	8f99806c 	lw	t9,-32660(gp)
  4092c0:	0320f809 	jalr	t9
  4092c4:	27a60018 	addiu	a2,sp,24
  4092c8:	8fbc0010 	lw	gp,16(sp)
  4092cc:	02402021 	move	a0,s2
  4092d0:	3c050041 	lui	a1,0x41
  4092d4:	93a60018 	lbu	a2,24(sp)
[31m  4092d8:	8f9980c8 	lw	t9,fprintf[0m
  4092dc:	0320f809 	jalr	t9
  4092e0:	24a50dac 	addiu	a1,a1,3500
  4092e4:	10000018 	b	409348 <AspInitial@@Base+0x53e0>
  4092e8:	00001021 	move	v0,zero
  4092ec:	3c020041 	lui	v0,0x41
  4092f0:	90422090 	lbu	v0,8336(v0)
  4092f4:	a3a2001c 	sb	v0,28(sp)
  4092f8:	00002821 	move	a1,zero
  4092fc:	8f998104 	lw	t9,-32508(gp)
  409300:	0320f809 	jalr	t9
  409304:	240600ff 	li	a2,255
  409308:	8fbc0010 	lw	gp,16(sp)
  40930c:	27b1001c 	addiu	s1,sp,28
  409310:	3c040041 	lui	a0,0x41
  409314:	24841764 	addiu	a0,a0,5988
  409318:	02002821 	move	a1,s0
  40931c:	8f99806c 	lw	t9,-32660(gp)
  409320:	0320f809 	jalr	t9
  409324:	02203021 	move	a2,s1
  409328:	8fbc0010 	lw	gp,16(sp)
  40932c:	02402021 	move	a0,s2
  409330:	3c050041 	lui	a1,0x41
  409334:	24a5fdec 	addiu	a1,a1,-532
[31m  409338:	8f9980c8 	lw	t9,fprintf[0m
  40933c:	0320f809 	jalr	t9
  409340:	02203021 	move	a2,s1
--
  40938c:	3c050041 	lui	a1,0x41
  409390:	8f9980dc 	lw	t9,-32548(gp)
  409394:	0320f809 	jalr	t9
  409398:	24a50fec 	addiu	a1,a1,4076
  40939c:	8fbc0010 	lw	gp,16(sp)
  4093a0:	10400008 	beqz	v0,4093c4 <AspInitial@@Base+0x545c>
  4093a4:	02002021 	move	a0,s0
  4093a8:	3c050041 	lui	a1,0x41
  4093ac:	8f9980dc 	lw	t9,-32548(gp)
  4093b0:	0320f809 	jalr	t9
  4093b4:	24a52008 	addiu	a1,a1,8200
  4093b8:	8fbc0010 	lw	gp,16(sp)
  4093bc:	14400011 	bnez	v0,409404 <AspInitial@@Base+0x549c>
  4093c0:	02002021 	move	a0,s0
  4093c4:	afa00018 	sw	zero,24(sp)
  4093c8:	3c040041 	lui	a0,0x41
  4093cc:	24841778 	addiu	a0,a0,6008
  4093d0:	02002821 	move	a1,s0
  4093d4:	8f99806c 	lw	t9,-32660(gp)
  4093d8:	0320f809 	jalr	t9
  4093dc:	27a60018 	addiu	a2,sp,24
  4093e0:	8fbc0010 	lw	gp,16(sp)
  4093e4:	02202021 	move	a0,s1
  4093e8:	3c050041 	lui	a1,0x41
  4093ec:	8fa60018 	lw	a2,24(sp)
[31m  4093f0:	8f9980c8 	lw	t9,fprintf[0m
  4093f4:	0320f809 	jalr	t9
  4093f8:	24a50f14 	addiu	a1,a1,3860
--
  409420:	3c050041 	lui	a1,0x41
  409424:	8f9980dc 	lw	t9,-32548(gp)
  409428:	0320f809 	jalr	t9
  40942c:	24a51018 	addiu	a1,a1,4120
  409430:	8fbc0010 	lw	gp,16(sp)
  409434:	10400008 	beqz	v0,409458 <AspInitial@@Base+0x54f0>
  409438:	02002021 	move	a0,s0
  40943c:	3c050041 	lui	a1,0x41
  409440:	8f9980dc 	lw	t9,-32548(gp)
  409444:	0320f809 	jalr	t9
  409448:	24a5fe74 	addiu	a1,a1,-396
  40944c:	8fbc0010 	lw	gp,16(sp)
  409450:	14400011 	bnez	v0,409498 <AspInitial@@Base+0x5530>
  409454:	02002021 	move	a0,s0
  409458:	a3a00018 	sb	zero,24(sp)
  40945c:	3c040041 	lui	a0,0x41
  409460:	24841778 	addiu	a0,a0,6008
  409464:	02002821 	move	a1,s0
  409468:	8f99806c 	lw	t9,-32660(gp)
  40946c:	0320f809 	jalr	t9
  409470:	27a60018 	addiu	a2,sp,24
  409474:	8fbc0010 	lw	gp,16(sp)
  409478:	02202021 	move	a0,s1
  40947c:	3c050041 	lui	a1,0x41
  409480:	93a60018 	lbu	a2,24(sp)
[31m  409484:	8f9980c8 	lw	t9,fprintf[0m
  409488:	0320f809 	jalr	t9
  40948c:	24a50dac 	addiu	a1,a1,3500
--
  4094f4:	8fbc0010 	lw	gp,16(sp)
  4094f8:	27b0001c 	addiu	s0,sp,28
  4094fc:	3c040041 	lui	a0,0x41
  409500:	24841778 	addiu	a0,a0,6008
  409504:	3c050041 	lui	a1,0x41
  409508:	24a50f6c 	addiu	a1,a1,3948
  40950c:	8f99806c 	lw	t9,-32660(gp)
  409510:	0320f809 	jalr	t9
  409514:	02003021 	move	a2,s0
  409518:	8fbc0010 	lw	gp,16(sp)
  40951c:	8f998078 	lw	t9,strlen
  409520:	0320f809 	jalr	t9
  409524:	02002021 	move	a0,s0
  409528:	8fbc0010 	lw	gp,16(sp)
  40952c:	18400007 	blez	v0,40954c <AspInitial@@Base+0x55e4>
  409530:	27a3011c 	addiu	v1,sp,284
  409534:	00431021 	addu	v0,v0,v1
  409538:	2404002a 	li	a0,42
  40953c:	a0640000 	sb	a0,0(v1)
  409540:	24630001 	addiu	v1,v1,1
  409544:	1462fffd 	bne	v1,v0,40953c <AspInitial@@Base+0x55d4>
  409548:	00000000 	nop
  40954c:	02202021 	move	a0,s1
  409550:	3c050041 	lui	a1,0x41
  409554:	24a5fdec 	addiu	a1,a1,-532
[31m  409558:	8f9980c8 	lw	t9,fprintf[0m
  40955c:	0320f809 	jalr	t9
  409560:	27a6011c 	addiu	a2,sp,284
  409564:	10000018 	b	4095c8 <AspInitial@@Base+0x5660>
  409568:	00001021 	move	v0,zero
  40956c:	90422090 	lbu	v0,8336(v0)
  409570:	a3a2011c 	sb	v0,284(sp)
  409574:	27a4011d 	addiu	a0,sp,285
  409578:	00002821 	move	a1,zero
  40957c:	8f998104 	lw	t9,-32508(gp)
  409580:	0320f809 	jalr	t9
  409584:	240600ff 	li	a2,255
  409588:	8fbc0010 	lw	gp,16(sp)
  40958c:	27b2011c 	addiu	s2,sp,284
  409590:	3c040041 	lui	a0,0x41
  409594:	24841778 	addiu	a0,a0,6008
  409598:	02002821 	move	a1,s0
  40959c:	8f99806c 	lw	t9,-32660(gp)
  4095a0:	0320f809 	jalr	t9
  4095a4:	02403021 	move	a2,s2
  4095a8:	8fbc0010 	lw	gp,16(sp)
  4095ac:	02202021 	move	a0,s1
  4095b0:	3c050041 	lui	a1,0x41
  4095b4:	24a5fdec 	addiu	a1,a1,-532
[31m  4095b8:	8f9980c8 	lw	t9,fprintf[0m
  4095bc:	0320f809 	jalr	t9
  4095c0:	02403021 	move	a2,s2
--
  409628:	3c050041 	lui	a1,0x41
  40962c:	8f9980dc 	lw	t9,-32548(gp)
  409630:	0320f809 	jalr	t9
  409634:	24a52008 	addiu	a1,a1,8200
  409638:	8fbc0010 	lw	gp,16(sp)
  40963c:	10400008 	beqz	v0,409660 <AspInitial@@Base+0x56f8>
  409640:	02002021 	move	a0,s0
  409644:	3c050041 	lui	a1,0x41
  409648:	8f9980dc 	lw	t9,-32548(gp)
  40964c:	0320f809 	jalr	t9
  409650:	24a51794 	addiu	a1,a1,6036
  409654:	8fbc0010 	lw	gp,16(sp)
  409658:	14400011 	bnez	v0,4096a0 <AspInitial@@Base+0x5738>
  40965c:	02002021 	move	a0,s0
  409660:	afa00018 	sw	zero,24(sp)
  409664:	3c040041 	lui	a0,0x41
  409668:	248417a0 	addiu	a0,a0,6048
  40966c:	02002821 	move	a1,s0
  409670:	8f99806c 	lw	t9,-32660(gp)
  409674:	0320f809 	jalr	t9
  409678:	27a60018 	addiu	a2,sp,24
  40967c:	8fbc0010 	lw	gp,16(sp)
  409680:	02202021 	move	a0,s1
  409684:	3c050041 	lui	a1,0x41
  409688:	8fa60018 	lw	a2,24(sp)
[31m  40968c:	8f9980c8 	lw	t9,fprintf[0m
  409690:	0320f809 	jalr	t9
  409694:	24a50f14 	addiu	a1,a1,3860
  409698:	10000064 	b	40982c <AspInitial@@Base+0x58c4>
  40969c:	00001021 	move	v0,zero
  4096a0:	3c050041 	lui	a1,0x41
  4096a4:	8f9980dc 	lw	t9,-32548(gp)
  4096a8:	0320f809 	jalr	t9
  4096ac:	24a517bc 	addiu	a1,a1,6076
  4096b0:	8fbc0010 	lw	gp,16(sp)
  4096b4:	14400011 	bnez	v0,4096fc <AspInitial@@Base+0x5794>
  4096b8:	02002021 	move	a0,s0
  4096bc:	a3a00018 	sb	zero,24(sp)
  4096c0:	3c040041 	lui	a0,0x41
  4096c4:	248417a0 	addiu	a0,a0,6048
  4096c8:	02002821 	move	a1,s0
  4096cc:	8f99806c 	lw	t9,-32660(gp)
  4096d0:	0320f809 	jalr	t9
  4096d4:	27a60018 	addiu	a2,sp,24
  4096d8:	8fbc0010 	lw	gp,16(sp)
  4096dc:	02202021 	move	a0,s1
  4096e0:	3c050041 	lui	a1,0x41
  4096e4:	93a60018 	lbu	a2,24(sp)
[31m  4096e8:	8f9980c8 	lw	t9,fprintf[0m
  4096ec:	0320f809 	jalr	t9
  4096f0:	24a50dac 	addiu	a1,a1,3500
--
  409758:	8fbc0010 	lw	gp,16(sp)
  40975c:	27b0001c 	addiu	s0,sp,28
  409760:	3c040041 	lui	a0,0x41
  409764:	248417a0 	addiu	a0,a0,6048
  409768:	3c050041 	lui	a1,0x41
  40976c:	24a50f6c 	addiu	a1,a1,3948
  409770:	8f99806c 	lw	t9,-32660(gp)
  409774:	0320f809 	jalr	t9
  409778:	02003021 	move	a2,s0
  40977c:	8fbc0010 	lw	gp,16(sp)
  409780:	8f998078 	lw	t9,strlen
  409784:	0320f809 	jalr	t9
  409788:	02002021 	move	a0,s0
  40978c:	8fbc0010 	lw	gp,16(sp)
  409790:	18400007 	blez	v0,4097b0 <AspInitial@@Base+0x5848>
  409794:	27a3011c 	addiu	v1,sp,284
  409798:	00431021 	addu	v0,v0,v1
  40979c:	2404002a 	li	a0,42
  4097a0:	a0640000 	sb	a0,0(v1)
  4097a4:	24630001 	addiu	v1,v1,1
  4097a8:	1462fffd 	bne	v1,v0,4097a0 <AspInitial@@Base+0x5838>
  4097ac:	00000000 	nop
  4097b0:	02202021 	move	a0,s1
  4097b4:	3c050041 	lui	a1,0x41
  4097b8:	24a5fdec 	addiu	a1,a1,-532
[31m  4097bc:	8f9980c8 	lw	t9,fprintf[0m
  4097c0:	0320f809 	jalr	t9
  4097c4:	27a6011c 	addiu	a2,sp,284
  4097c8:	10000018 	b	40982c <AspInitial@@Base+0x58c4>
  4097cc:	00001021 	move	v0,zero
  4097d0:	90422090 	lbu	v0,8336(v0)
  4097d4:	a3a2011c 	sb	v0,284(sp)
  4097d8:	27a4011d 	addiu	a0,sp,285
  4097dc:	00002821 	move	a1,zero
  4097e0:	8f998104 	lw	t9,-32508(gp)
  4097e4:	0320f809 	jalr	t9
  4097e8:	240600ff 	li	a2,255
  4097ec:	8fbc0010 	lw	gp,16(sp)
  4097f0:	27b2011c 	addiu	s2,sp,284
  4097f4:	3c040041 	lui	a0,0x41
  4097f8:	248417a0 	addiu	a0,a0,6048
  4097fc:	02002821 	move	a1,s0
  409800:	8f99806c 	lw	t9,-32660(gp)
  409804:	0320f809 	jalr	t9
  409808:	02403021 	move	a2,s2
  40980c:	8fbc0010 	lw	gp,16(sp)
  409810:	02202021 	move	a0,s1
  409814:	3c050041 	lui	a1,0x41
  409818:	24a5fdec 	addiu	a1,a1,-532
[31m  40981c:	8f9980c8 	lw	t9,fprintf[0m
  409820:	0320f809 	jalr	t9
  409824:	02403021 	move	a2,s2
--
  409870:	3c050041 	lui	a1,0x41
  409874:	8f9980dc 	lw	t9,-32548(gp)
  409878:	0320f809 	jalr	t9
  40987c:	24a50fec 	addiu	a1,a1,4076
  409880:	8fbc0010 	lw	gp,16(sp)
  409884:	10400008 	beqz	v0,4098a8 <AspInitial@@Base+0x5940>
  409888:	02002021 	move	a0,s0
  40988c:	3c050041 	lui	a1,0x41
  409890:	8f9980dc 	lw	t9,-32548(gp)
  409894:	0320f809 	jalr	t9
  409898:	24a52008 	addiu	a1,a1,8200
  40989c:	8fbc0010 	lw	gp,16(sp)
  4098a0:	14400011 	bnez	v0,4098e8 <AspInitial@@Base+0x5980>
  4098a4:	02002021 	move	a0,s0
  4098a8:	afa00018 	sw	zero,24(sp)
  4098ac:	3c040041 	lui	a0,0x41
  4098b0:	248417c4 	addiu	a0,a0,6084
  4098b4:	02002821 	move	a1,s0
  4098b8:	8f99806c 	lw	t9,-32660(gp)
  4098bc:	0320f809 	jalr	t9
  4098c0:	27a60018 	addiu	a2,sp,24
  4098c4:	8fbc0010 	lw	gp,16(sp)
  4098c8:	02202021 	move	a0,s1
  4098cc:	3c050041 	lui	a1,0x41
  4098d0:	8fa60018 	lw	a2,24(sp)
[31m  4098d4:	8f9980c8 	lw	t9,fprintf[0m
  4098d8:	0320f809 	jalr	t9
  4098dc:	24a50f14 	addiu	a1,a1,3860
--
  409904:	3c050041 	lui	a1,0x41
  409908:	8f9980dc 	lw	t9,-32548(gp)
  40990c:	0320f809 	jalr	t9
  409910:	24a51018 	addiu	a1,a1,4120
  409914:	8fbc0010 	lw	gp,16(sp)
  409918:	10400008 	beqz	v0,40993c <AspInitial@@Base+0x59d4>
  40991c:	02002021 	move	a0,s0
  409920:	3c050041 	lui	a1,0x41
  409924:	8f9980dc 	lw	t9,-32548(gp)
  409928:	0320f809 	jalr	t9
  40992c:	24a5fe74 	addiu	a1,a1,-396
  409930:	8fbc0010 	lw	gp,16(sp)
  409934:	14400011 	bnez	v0,40997c <AspInitial@@Base+0x5a14>
  409938:	02002021 	move	a0,s0
  40993c:	a3a00018 	sb	zero,24(sp)
  409940:	3c040041 	lui	a0,0x41
  409944:	248417c4 	addiu	a0,a0,6084
  409948:	02002821 	move	a1,s0
  40994c:	8f99806c 	lw	t9,-32660(gp)
  409950:	0320f809 	jalr	t9
  409954:	27a60018 	addiu	a2,sp,24
  409958:	8fbc0010 	lw	gp,16(sp)
  40995c:	02202021 	move	a0,s1
  409960:	3c050041 	lui	a1,0x41
  409964:	93a60018 	lbu	a2,24(sp)
[31m  409968:	8f9980c8 	lw	t9,fprintf[0m
  40996c:	0320f809 	jalr	t9
  409970:	24a50dac 	addiu	a1,a1,3500
--
  4099d8:	8fbc0010 	lw	gp,16(sp)
  4099dc:	27b0001c 	addiu	s0,sp,28
  4099e0:	3c040041 	lui	a0,0x41
  4099e4:	248417c4 	addiu	a0,a0,6084
  4099e8:	3c050041 	lui	a1,0x41
  4099ec:	24a50f6c 	addiu	a1,a1,3948
  4099f0:	8f99806c 	lw	t9,-32660(gp)
  4099f4:	0320f809 	jalr	t9
  4099f8:	02003021 	move	a2,s0
  4099fc:	8fbc0010 	lw	gp,16(sp)
  409a00:	8f998078 	lw	t9,strlen
  409a04:	0320f809 	jalr	t9
  409a08:	02002021 	move	a0,s0
  409a0c:	8fbc0010 	lw	gp,16(sp)
  409a10:	18400007 	blez	v0,409a30 <AspInitial@@Base+0x5ac8>
  409a14:	27a3011c 	addiu	v1,sp,284
  409a18:	00431021 	addu	v0,v0,v1
  409a1c:	2404002a 	li	a0,42
  409a20:	a0640000 	sb	a0,0(v1)
  409a24:	24630001 	addiu	v1,v1,1
  409a28:	1462fffd 	bne	v1,v0,409a20 <AspInitial@@Base+0x5ab8>
  409a2c:	00000000 	nop
  409a30:	02202021 	move	a0,s1
  409a34:	3c050041 	lui	a1,0x41
  409a38:	24a5fdec 	addiu	a1,a1,-532
[31m  409a3c:	8f9980c8 	lw	t9,fprintf[0m
  409a40:	0320f809 	jalr	t9
  409a44:	27a6011c 	addiu	a2,sp,284
  409a48:	10000018 	b	409aac <AspInitial@@Base+0x5b44>
  409a4c:	00001021 	move	v0,zero
  409a50:	90422090 	lbu	v0,8336(v0)
  409a54:	a3a2011c 	sb	v0,284(sp)
  409a58:	27a4011d 	addiu	a0,sp,285
  409a5c:	00002821 	move	a1,zero
  409a60:	8f998104 	lw	t9,-32508(gp)
  409a64:	0320f809 	jalr	t9
  409a68:	240600ff 	li	a2,255
  409a6c:	8fbc0010 	lw	gp,16(sp)
  409a70:	27b2011c 	addiu	s2,sp,284
  409a74:	3c040041 	lui	a0,0x41
  409a78:	248417c4 	addiu	a0,a0,6084
  409a7c:	02002821 	move	a1,s0
  409a80:	8f99806c 	lw	t9,-32660(gp)
  409a84:	0320f809 	jalr	t9
  409a88:	02403021 	move	a2,s2
  409a8c:	8fbc0010 	lw	gp,16(sp)
  409a90:	02202021 	move	a0,s1
  409a94:	3c050041 	lui	a1,0x41
  409a98:	24a5fdec 	addiu	a1,a1,-532
[31m  409a9c:	8f9980c8 	lw	t9,fprintf[0m
  409aa0:	0320f809 	jalr	t9
  409aa4:	02403021 	move	a2,s2
--
  409b0c:	3c050041 	lui	a1,0x41
  409b10:	8f9980dc 	lw	t9,-32548(gp)
  409b14:	0320f809 	jalr	t9
  409b18:	24a52008 	addiu	a1,a1,8200
  409b1c:	8fbc0010 	lw	gp,16(sp)
  409b20:	10400008 	beqz	v0,409b44 <AspInitial@@Base+0x5bdc>
  409b24:	02002021 	move	a0,s0
  409b28:	3c050041 	lui	a1,0x41
  409b2c:	8f9980dc 	lw	t9,-32548(gp)
  409b30:	0320f809 	jalr	t9
  409b34:	24a51794 	addiu	a1,a1,6036
  409b38:	8fbc0010 	lw	gp,16(sp)
  409b3c:	14400011 	bnez	v0,409b84 <AspInitial@@Base+0x5c1c>
  409b40:	02002021 	move	a0,s0
  409b44:	afa00018 	sw	zero,24(sp)
  409b48:	3c040041 	lui	a0,0x41
  409b4c:	248417d8 	addiu	a0,a0,6104
  409b50:	02002821 	move	a1,s0
  409b54:	8f99806c 	lw	t9,-32660(gp)
  409b58:	0320f809 	jalr	t9
  409b5c:	27a60018 	addiu	a2,sp,24
  409b60:	8fbc0010 	lw	gp,16(sp)
  409b64:	02202021 	move	a0,s1
  409b68:	3c050041 	lui	a1,0x41
  409b6c:	8fa60018 	lw	a2,24(sp)
[31m  409b70:	8f9980c8 	lw	t9,fprintf[0m
  409b74:	0320f809 	jalr	t9
  409b78:	24a50f14 	addiu	a1,a1,3860
  409b7c:	10000064 	b	409d10 <AspInitial@@Base+0x5da8>
  409b80:	00001021 	move	v0,zero
  409b84:	3c050041 	lui	a1,0x41
  409b88:	8f9980dc 	lw	t9,-32548(gp)
  409b8c:	0320f809 	jalr	t9
  409b90:	24a517bc 	addiu	a1,a1,6076
  409b94:	8fbc0010 	lw	gp,16(sp)
  409b98:	14400011 	bnez	v0,409be0 <AspInitial@@Base+0x5c78>
  409b9c:	02002021 	move	a0,s0
  409ba0:	a3a00018 	sb	zero,24(sp)
  409ba4:	3c040041 	lui	a0,0x41
  409ba8:	248417d8 	addiu	a0,a0,6104
  409bac:	02002821 	move	a1,s0
  409bb0:	8f99806c 	lw	t9,-32660(gp)
  409bb4:	0320f809 	jalr	t9
  409bb8:	27a60018 	addiu	a2,sp,24
  409bbc:	8fbc0010 	lw	gp,16(sp)
  409bc0:	02202021 	move	a0,s1
  409bc4:	3c050041 	lui	a1,0x41
  409bc8:	93a60018 	lbu	a2,24(sp)
[31m  409bcc:	8f9980c8 	lw	t9,fprintf[0m
  409bd0:	0320f809 	jalr	t9
  409bd4:	24a50dac 	addiu	a1,a1,3500
--
  409c3c:	8fbc0010 	lw	gp,16(sp)
  409c40:	27b0001c 	addiu	s0,sp,28
  409c44:	3c040041 	lui	a0,0x41
  409c48:	248417d8 	addiu	a0,a0,6104
  409c4c:	3c050041 	lui	a1,0x41
  409c50:	24a50f6c 	addiu	a1,a1,3948
  409c54:	8f99806c 	lw	t9,-32660(gp)
  409c58:	0320f809 	jalr	t9
  409c5c:	02003021 	move	a2,s0
  409c60:	8fbc0010 	lw	gp,16(sp)
  409c64:	8f998078 	lw	t9,strlen
  409c68:	0320f809 	jalr	t9
  409c6c:	02002021 	move	a0,s0
  409c70:	8fbc0010 	lw	gp,16(sp)
  409c74:	18400007 	blez	v0,409c94 <AspInitial@@Base+0x5d2c>
  409c78:	27a3011c 	addiu	v1,sp,284
  409c7c:	00431021 	addu	v0,v0,v1
  409c80:	2404002a 	li	a0,42
  409c84:	a0640000 	sb	a0,0(v1)
  409c88:	24630001 	addiu	v1,v1,1
  409c8c:	1462fffd 	bne	v1,v0,409c84 <AspInitial@@Base+0x5d1c>
  409c90:	00000000 	nop
  409c94:	02202021 	move	a0,s1
  409c98:	3c050041 	lui	a1,0x41
  409c9c:	24a5fdec 	addiu	a1,a1,-532
[31m  409ca0:	8f9980c8 	lw	t9,fprintf[0m
  409ca4:	0320f809 	jalr	t9
  409ca8:	27a6011c 	addiu	a2,sp,284
  409cac:	10000018 	b	409d10 <AspInitial@@Base+0x5da8>
  409cb0:	00001021 	move	v0,zero
  409cb4:	90422090 	lbu	v0,8336(v0)
  409cb8:	a3a2011c 	sb	v0,284(sp)
  409cbc:	27a4011d 	addiu	a0,sp,285
  409cc0:	00002821 	move	a1,zero
  409cc4:	8f998104 	lw	t9,-32508(gp)
  409cc8:	0320f809 	jalr	t9
  409ccc:	240600ff 	li	a2,255
  409cd0:	8fbc0010 	lw	gp,16(sp)
  409cd4:	27b2011c 	addiu	s2,sp,284
  409cd8:	3c040041 	lui	a0,0x41
  409cdc:	248417d8 	addiu	a0,a0,6104
  409ce0:	02002821 	move	a1,s0
  409ce4:	8f99806c 	lw	t9,-32660(gp)
  409ce8:	0320f809 	jalr	t9
  409cec:	02403021 	move	a2,s2
  409cf0:	8fbc0010 	lw	gp,16(sp)
  409cf4:	02202021 	move	a0,s1
  409cf8:	3c050041 	lui	a1,0x41
  409cfc:	24a5fdec 	addiu	a1,a1,-532
[31m  409d00:	8f9980c8 	lw	t9,fprintf[0m
  409d04:	0320f809 	jalr	t9
  409d08:	02403021 	move	a2,s2
--
  409d38:	afb00120 	sw	s0,288(sp)
  409d3c:	3c1c0043 	lui	gp,0x43
  409d40:	279ca840 	addiu	gp,gp,-22464
  409d44:	afbc0010 	sw	gp,16(sp)
  409d48:	00808021 	move	s0,a0
  409d4c:	1080002e 	beqz	a0,409e08 <AspInitial@@Base+0x5ea0>
  409d50:	00a09021 	move	s2,a1
  409d54:	3c050041 	lui	a1,0x41
  409d58:	8f9980dc 	lw	t9,-32548(gp)
  409d5c:	0320f809 	jalr	t9
  409d60:	24a50fec 	addiu	a1,a1,4076
  409d64:	8fbc0010 	lw	gp,16(sp)
  409d68:	14400011 	bnez	v0,409db0 <AspInitial@@Base+0x5e48>
  409d6c:	27a4001d 	addiu	a0,sp,29
  409d70:	afa00018 	sw	zero,24(sp)
  409d74:	3c040041 	lui	a0,0x41
  409d78:	248417ec 	addiu	a0,a0,6124
  409d7c:	02002821 	move	a1,s0
  409d80:	8f99806c 	lw	t9,-32660(gp)
  409d84:	0320f809 	jalr	t9
  409d88:	27a60018 	addiu	a2,sp,24
  409d8c:	8fbc0010 	lw	gp,16(sp)
  409d90:	02402021 	move	a0,s2
  409d94:	3c050041 	lui	a1,0x41
  409d98:	8fa60018 	lw	a2,24(sp)
[31m  409d9c:	8f9980c8 	lw	t9,fprintf[0m
  409da0:	0320f809 	jalr	t9
  409da4:	24a50f14 	addiu	a1,a1,3860
  409da8:	10000018 	b	409e0c <AspInitial@@Base+0x5ea4>
  409dac:	00001021 	move	v0,zero
  409db0:	3c020041 	lui	v0,0x41
  409db4:	90422090 	lbu	v0,8336(v0)
  409db8:	a3a2001c 	sb	v0,28(sp)
  409dbc:	00002821 	move	a1,zero
  409dc0:	8f998104 	lw	t9,-32508(gp)
  409dc4:	0320f809 	jalr	t9
  409dc8:	240600ff 	li	a2,255
  409dcc:	8fbc0010 	lw	gp,16(sp)
  409dd0:	27b1001c 	addiu	s1,sp,28
  409dd4:	3c040041 	lui	a0,0x41
  409dd8:	248417ec 	addiu	a0,a0,6124
  409ddc:	02002821 	move	a1,s0
  409de0:	8f99806c 	lw	t9,-32660(gp)
  409de4:	0320f809 	jalr	t9
  409de8:	02203021 	move	a2,s1
  409dec:	8fbc0010 	lw	gp,16(sp)
  409df0:	02402021 	move	a0,s2
  409df4:	3c050041 	lui	a1,0x41
  409df8:	24a5fdec 	addiu	a1,a1,-532
[31m  409dfc:	8f9980c8 	lw	t9,fprintf[0m
  409e00:	0320f809 	jalr	t9
  409e04:	02203021 	move	a2,s1
--
  409e58:	0320f809 	jalr	t9
  409e5c:	24a51800 	addiu	a1,a1,6144
  409e60:	8fbc0010 	lw	gp,16(sp)
  409e64:	1440001a 	bnez	v0,409ed0 <AspInitial@@Base+0x5f68>
  409e68:	02002021 	move	a0,s0
  409e6c:	3c020041 	lui	v0,0x41
  409e70:	90422090 	lbu	v0,8336(v0)
  409e74:	a3a2001c 	sb	v0,28(sp)
  409e78:	27a4001d 	addiu	a0,sp,29
  409e7c:	00002821 	move	a1,zero
  409e80:	8f998104 	lw	t9,-32508(gp)
  409e84:	0320f809 	jalr	t9
  409e88:	240600ff 	li	a2,255
  409e8c:	8fbc0010 	lw	gp,16(sp)
  409e90:	27b2001c 	addiu	s2,sp,28
  409e94:	3c040041 	lui	a0,0x41
  409e98:	24841808 	addiu	a0,a0,6152
  409e9c:	02002821 	move	a1,s0
  409ea0:	8f99806c 	lw	t9,-32660(gp)
  409ea4:	0320f809 	jalr	t9
  409ea8:	02403021 	move	a2,s2
  409eac:	8fbc0010 	lw	gp,16(sp)
  409eb0:	02202021 	move	a0,s1
  409eb4:	3c050041 	lui	a1,0x41
  409eb8:	24a5fdec 	addiu	a1,a1,-532
[31m  409ebc:	8f9980c8 	lw	t9,fprintf[0m
  409ec0:	0320f809 	jalr	t9
  409ec4:	02403021 	move	a2,s2
--
  409ed0:	3c050041 	lui	a1,0x41
  409ed4:	8f9980dc 	lw	t9,-32548(gp)
  409ed8:	0320f809 	jalr	t9
  409edc:	24a51818 	addiu	a1,a1,6168
  409ee0:	8fbc0010 	lw	gp,16(sp)
  409ee4:	10400008 	beqz	v0,409f08 <AspInitial@@Base+0x5fa0>
  409ee8:	02002021 	move	a0,s0
  409eec:	3c050041 	lui	a1,0x41
  409ef0:	8f9980dc 	lw	t9,-32548(gp)
  409ef4:	0320f809 	jalr	t9
  409ef8:	24a51820 	addiu	a1,a1,6176
  409efc:	8fbc0010 	lw	gp,16(sp)
  409f00:	14400011 	bnez	v0,409f48 <AspInitial@@Base+0x5fe0>
  409f04:	3c040041 	lui	a0,0x41
  409f08:	afa00018 	sw	zero,24(sp)
  409f0c:	3c040041 	lui	a0,0x41
  409f10:	24841808 	addiu	a0,a0,6152
  409f14:	02002821 	move	a1,s0
  409f18:	8f99806c 	lw	t9,-32660(gp)
  409f1c:	0320f809 	jalr	t9
  409f20:	27a60018 	addiu	a2,sp,24
  409f24:	8fbc0010 	lw	gp,16(sp)
  409f28:	02202021 	move	a0,s1
  409f2c:	3c050041 	lui	a1,0x41
  409f30:	8fa60018 	lw	a2,24(sp)
[31m  409f34:	8f9980c8 	lw	t9,fprintf[0m
  409f38:	0320f809 	jalr	t9
  409f3c:	24a50f14 	addiu	a1,a1,3860
  409f40:	1000000f 	b	409f80 <AspInitial@@Base+0x6018>
  409f44:	00001021 	move	v0,zero
  409f48:	a3a00018 	sb	zero,24(sp)
  409f4c:	24841808 	addiu	a0,a0,6152
  409f50:	02002821 	move	a1,s0
  409f54:	8f99806c 	lw	t9,-32660(gp)
  409f58:	0320f809 	jalr	t9
  409f5c:	27a60018 	addiu	a2,sp,24
  409f60:	8fbc0010 	lw	gp,16(sp)
  409f64:	02202021 	move	a0,s1
  409f68:	3c050041 	lui	a1,0x41
  409f6c:	93a60018 	lbu	a2,24(sp)
[31m  409f70:	8f9980c8 	lw	t9,fprintf[0m
  409f74:	0320f809 	jalr	t9
  409f78:	24a50dac 	addiu	a1,a1,3500
--
  409fc0:	3c050041 	lui	a1,0x41
  409fc4:	8f9980dc 	lw	t9,-32548(gp)
  409fc8:	0320f809 	jalr	t9
  409fcc:	24a51828 	addiu	a1,a1,6184
  409fd0:	8fbc0010 	lw	gp,16(sp)
  409fd4:	10400008 	beqz	v0,409ff8 <AspInitial@@Base+0x6090>
  409fd8:	02002021 	move	a0,s0
  409fdc:	3c050041 	lui	a1,0x41
  409fe0:	8f9980dc 	lw	t9,-32548(gp)
  409fe4:	0320f809 	jalr	t9
  409fe8:	24a51834 	addiu	a1,a1,6196
  409fec:	8fbc0010 	lw	gp,16(sp)
  409ff0:	14400011 	bnez	v0,40a038 <AspInitial@@Base+0x60d0>
  409ff4:	3c040041 	lui	a0,0x41
  409ff8:	a3a00018 	sb	zero,24(sp)
  409ffc:	3c040041 	lui	a0,0x41
  40a000:	24841844 	addiu	a0,a0,6212
  40a004:	02002821 	move	a1,s0
  40a008:	8f99806c 	lw	t9,-32660(gp)
  40a00c:	0320f809 	jalr	t9
  40a010:	27a60018 	addiu	a2,sp,24
  40a014:	8fbc0010 	lw	gp,16(sp)
  40a018:	02202021 	move	a0,s1
  40a01c:	3c050041 	lui	a1,0x41
  40a020:	93a60018 	lbu	a2,24(sp)
[31m  40a024:	8f9980c8 	lw	t9,fprintf[0m
  40a028:	0320f809 	jalr	t9
  40a02c:	24a50dac 	addiu	a1,a1,3500
  40a030:	1000000f 	b	40a070 <AspInitial@@Base+0x6108>
  40a034:	00001021 	move	v0,zero
  40a038:	afa00018 	sw	zero,24(sp)
  40a03c:	24841844 	addiu	a0,a0,6212
  40a040:	02002821 	move	a1,s0
  40a044:	8f99806c 	lw	t9,-32660(gp)
  40a048:	0320f809 	jalr	t9
  40a04c:	27a60018 	addiu	a2,sp,24
  40a050:	8fbc0010 	lw	gp,16(sp)
  40a054:	02202021 	move	a0,s1
  40a058:	3c050041 	lui	a1,0x41
  40a05c:	8fa60018 	lw	a2,24(sp)
[31m  40a060:	8f9980c8 	lw	t9,fprintf[0m
  40a064:	0320f809 	jalr	t9
  40a068:	24a50f14 	addiu	a1,a1,3860
--
  40a0b8:	24a51854 	addiu	a1,a1,6228
  40a0bc:	8fbc0010 	lw	gp,16(sp)
  40a0c0:	1440001b 	bnez	v0,40a130 <AspInitial@@Base+0x61c8>
  40a0c4:	02002021 	move	a0,s0
  40a0c8:	afa00018 	sw	zero,24(sp)
  40a0cc:	afa0001c 	sw	zero,28(sp)
  40a0d0:	3c100041 	lui	s0,0x41
  40a0d4:	26041860 	addiu	a0,s0,6240
  40a0d8:	3c050041 	lui	a1,0x41
  40a0dc:	24a51870 	addiu	a1,a1,6256
  40a0e0:	8f99806c 	lw	t9,-32660(gp)
  40a0e4:	0320f809 	jalr	t9
  40a0e8:	27a60018 	addiu	a2,sp,24
  40a0ec:	8fbc0010 	lw	gp,16(sp)
  40a0f0:	26041860 	addiu	a0,s0,6240
  40a0f4:	3c050041 	lui	a1,0x41
  40a0f8:	24a51878 	addiu	a1,a1,6264
  40a0fc:	8f99806c 	lw	t9,-32660(gp)
  40a100:	0320f809 	jalr	t9
  40a104:	27a6001c 	addiu	a2,sp,28
  40a108:	8fbc0010 	lw	gp,16(sp)
  40a10c:	02202021 	move	a0,s1
  40a110:	3c050041 	lui	a1,0x41
  40a114:	8fa60018 	lw	a2,24(sp)
  40a118:	8fa7001c 	lw	a3,28(sp)
[31m  40a11c:	8f9980c8 	lw	t9,fprintf[0m
  40a120:	0320f809 	jalr	t9
  40a124:	24a51880 	addiu	a1,a1,6272
  40a128:	10000025 	b	40a1c0 <AspInitial@@Base+0x6258>
  40a12c:	00001021 	move	v0,zero
  40a130:	3c050041 	lui	a1,0x41
  40a134:	8f9980dc 	lw	t9,-32548(gp)
  40a138:	0320f809 	jalr	t9
  40a13c:	24a50f90 	addiu	a1,a1,3984
  40a140:	8fbc0010 	lw	gp,16(sp)
  40a144:	14400010 	bnez	v0,40a188 <AspInitial@@Base+0x6220>
  40a148:	3c040041 	lui	a0,0x41
  40a14c:	a3a00018 	sb	zero,24(sp)
  40a150:	24841860 	addiu	a0,a0,6240
  40a154:	02002821 	move	a1,s0
  40a158:	8f99806c 	lw	t9,-32660(gp)
  40a15c:	0320f809 	jalr	t9
  40a160:	27a60018 	addiu	a2,sp,24
  40a164:	8fbc0010 	lw	gp,16(sp)
  40a168:	02202021 	move	a0,s1
  40a16c:	3c050041 	lui	a1,0x41
  40a170:	93a60018 	lbu	a2,24(sp)
[31m  40a174:	8f9980c8 	lw	t9,fprintf[0m
  40a178:	0320f809 	jalr	t9
  40a17c:	24a50dac 	addiu	a1,a1,3500
  40a180:	1000000f 	b	40a1c0 <AspInitial@@Base+0x6258>
  40a184:	00001021 	move	v0,zero
  40a188:	afa0001c 	sw	zero,28(sp)
  40a18c:	24841860 	addiu	a0,a0,6240
  40a190:	02002821 	move	a1,s0
  40a194:	8f99806c 	lw	t9,-32660(gp)
  40a198:	0320f809 	jalr	t9
  40a19c:	27a6001c 	addiu	a2,sp,28
  40a1a0:	8fbc0010 	lw	gp,16(sp)
  40a1a4:	02202021 	move	a0,s1
  40a1a8:	3c050041 	lui	a1,0x41
  40a1ac:	8fa6001c 	lw	a2,28(sp)
[31m  40a1b0:	8f9980c8 	lw	t9,fprintf[0m
  40a1b4:	0320f809 	jalr	t9
  40a1b8:	24a50f14 	addiu	a1,a1,3860
--
  40a20c:	24a51854 	addiu	a1,a1,6228
  40a210:	8fbc0010 	lw	gp,16(sp)
  40a214:	1440001b 	bnez	v0,40a284 <AspInitial@@Base+0x631c>
  40a218:	02002021 	move	a0,s0
  40a21c:	afa00018 	sw	zero,24(sp)
  40a220:	afa0001c 	sw	zero,28(sp)
  40a224:	3c100041 	lui	s0,0x41
  40a228:	26041888 	addiu	a0,s0,6280
  40a22c:	3c050041 	lui	a1,0x41
  40a230:	24a51870 	addiu	a1,a1,6256
  40a234:	8f99806c 	lw	t9,-32660(gp)
  40a238:	0320f809 	jalr	t9
  40a23c:	27a60018 	addiu	a2,sp,24
  40a240:	8fbc0010 	lw	gp,16(sp)
  40a244:	26041888 	addiu	a0,s0,6280
  40a248:	3c050041 	lui	a1,0x41
  40a24c:	24a51878 	addiu	a1,a1,6264
  40a250:	8f99806c 	lw	t9,-32660(gp)
  40a254:	0320f809 	jalr	t9
  40a258:	27a6001c 	addiu	a2,sp,28
  40a25c:	8fbc0010 	lw	gp,16(sp)
  40a260:	02202021 	move	a0,s1
  40a264:	3c050041 	lui	a1,0x41
  40a268:	8fa60018 	lw	a2,24(sp)
  40a26c:	8fa7001c 	lw	a3,28(sp)
[31m  40a270:	8f9980c8 	lw	t9,fprintf[0m
  40a274:	0320f809 	jalr	t9
  40a278:	24a51880 	addiu	a1,a1,6272
  40a27c:	10000046 	b	40a398 <AspInitial@@Base+0x6430>
  40a280:	00001021 	move	v0,zero
  40a284:	3c050041 	lui	a1,0x41
  40a288:	8f9980dc 	lw	t9,-32548(gp)
  40a28c:	0320f809 	jalr	t9
  40a290:	24a50f90 	addiu	a1,a1,3984
  40a294:	8fbc0010 	lw	gp,16(sp)
  40a298:	14400011 	bnez	v0,40a2e0 <AspInitial@@Base+0x6378>
  40a29c:	02002021 	move	a0,s0
  40a2a0:	a3a00018 	sb	zero,24(sp)
  40a2a4:	3c040041 	lui	a0,0x41
  40a2a8:	24841888 	addiu	a0,a0,6280
  40a2ac:	02002821 	move	a1,s0
  40a2b0:	8f99806c 	lw	t9,-32660(gp)
  40a2b4:	0320f809 	jalr	t9
  40a2b8:	27a60018 	addiu	a2,sp,24
  40a2bc:	8fbc0010 	lw	gp,16(sp)
  40a2c0:	02202021 	move	a0,s1
  40a2c4:	3c050041 	lui	a1,0x41
  40a2c8:	93a60018 	lbu	a2,24(sp)
[31m  40a2cc:	8f9980c8 	lw	t9,fprintf[0m
  40a2d0:	0320f809 	jalr	t9
  40a2d4:	24a50dac 	addiu	a1,a1,3500
--
  40a2e8:	0320f809 	jalr	t9
  40a2ec:	24a51898 	addiu	a1,a1,6296
  40a2f0:	8fbc0010 	lw	gp,16(sp)
  40a2f4:	1440001a 	bnez	v0,40a360 <AspInitial@@Base+0x63f8>
  40a2f8:	3c040041 	lui	a0,0x41
  40a2fc:	3c020041 	lui	v0,0x41
  40a300:	90422090 	lbu	v0,8336(v0)
  40a304:	a3a20020 	sb	v0,32(sp)
  40a308:	27a40021 	addiu	a0,sp,33
  40a30c:	00002821 	move	a1,zero
  40a310:	8f998104 	lw	t9,-32508(gp)
  40a314:	0320f809 	jalr	t9
  40a318:	240600ff 	li	a2,255
  40a31c:	8fbc0010 	lw	gp,16(sp)
  40a320:	27b20020 	addiu	s2,sp,32
  40a324:	3c040041 	lui	a0,0x41
  40a328:	24841888 	addiu	a0,a0,6280
  40a32c:	02002821 	move	a1,s0
  40a330:	8f99806c 	lw	t9,-32660(gp)
  40a334:	0320f809 	jalr	t9
  40a338:	02403021 	move	a2,s2
  40a33c:	8fbc0010 	lw	gp,16(sp)
  40a340:	02202021 	move	a0,s1
  40a344:	3c050041 	lui	a1,0x41
  40a348:	24a5fdec 	addiu	a1,a1,-532
[31m  40a34c:	8f9980c8 	lw	t9,fprintf[0m
  40a350:	0320f809 	jalr	t9
  40a354:	02403021 	move	a2,s2
  40a358:	1000000f 	b	40a398 <AspInitial@@Base+0x6430>
  40a35c:	00001021 	move	v0,zero
  40a360:	afa0001c 	sw	zero,28(sp)
  40a364:	24841888 	addiu	a0,a0,6280
  40a368:	02002821 	move	a1,s0
  40a36c:	8f99806c 	lw	t9,-32660(gp)
  40a370:	0320f809 	jalr	t9
  40a374:	27a6001c 	addiu	a2,sp,28
  40a378:	8fbc0010 	lw	gp,16(sp)
  40a37c:	02202021 	move	a0,s1
  40a380:	3c050041 	lui	a1,0x41
  40a384:	8fa6001c 	lw	a2,28(sp)
[31m  40a388:	8f9980c8 	lw	t9,fprintf[0m
  40a38c:	0320f809 	jalr	t9
  40a390:	24a50f14 	addiu	a1,a1,3860
--
  40a3e8:	24a51854 	addiu	a1,a1,6228
  40a3ec:	8fbc0010 	lw	gp,16(sp)
  40a3f0:	1440001b 	bnez	v0,40a460 <AspInitial@@Base+0x64f8>
  40a3f4:	02002021 	move	a0,s0
  40a3f8:	afa00018 	sw	zero,24(sp)
  40a3fc:	afa0001c 	sw	zero,28(sp)
  40a400:	3c100041 	lui	s0,0x41
  40a404:	260418a0 	addiu	a0,s0,6304
  40a408:	3c050041 	lui	a1,0x41
  40a40c:	24a51870 	addiu	a1,a1,6256
  40a410:	8f99806c 	lw	t9,-32660(gp)
  40a414:	0320f809 	jalr	t9
  40a418:	27a60018 	addiu	a2,sp,24
  40a41c:	8fbc0010 	lw	gp,16(sp)
  40a420:	260418a0 	addiu	a0,s0,6304
  40a424:	3c050041 	lui	a1,0x41
  40a428:	24a51878 	addiu	a1,a1,6264
  40a42c:	8f99806c 	lw	t9,-32660(gp)
  40a430:	0320f809 	jalr	t9
  40a434:	27a6001c 	addiu	a2,sp,28
  40a438:	8fbc0010 	lw	gp,16(sp)
  40a43c:	02202021 	move	a0,s1
  40a440:	3c050041 	lui	a1,0x41
  40a444:	8fa60018 	lw	a2,24(sp)
  40a448:	8fa7001c 	lw	a3,28(sp)
[31m  40a44c:	8f9980c8 	lw	t9,fprintf[0m
  40a450:	0320f809 	jalr	t9
  40a454:	24a51880 	addiu	a1,a1,6272
  40a458:	10000046 	b	40a574 <AspInitial@@Base+0x660c>
  40a45c:	00001021 	move	v0,zero
  40a460:	3c050041 	lui	a1,0x41
  40a464:	8f9980dc 	lw	t9,-32548(gp)
  40a468:	0320f809 	jalr	t9
  40a46c:	24a50f90 	addiu	a1,a1,3984
  40a470:	8fbc0010 	lw	gp,16(sp)
  40a474:	14400011 	bnez	v0,40a4bc <AspInitial@@Base+0x6554>
  40a478:	02002021 	move	a0,s0
  40a47c:	a3a00018 	sb	zero,24(sp)
  40a480:	3c040041 	lui	a0,0x41
  40a484:	248418a0 	addiu	a0,a0,6304
  40a488:	02002821 	move	a1,s0
  40a48c:	8f99806c 	lw	t9,-32660(gp)
  40a490:	0320f809 	jalr	t9
  40a494:	27a60018 	addiu	a2,sp,24
  40a498:	8fbc0010 	lw	gp,16(sp)
  40a49c:	02202021 	move	a0,s1
  40a4a0:	3c050041 	lui	a1,0x41
  40a4a4:	93a60018 	lbu	a2,24(sp)
[31m  40a4a8:	8f9980c8 	lw	t9,fprintf[0m
  40a4ac:	0320f809 	jalr	t9
  40a4b0:	24a50dac 	addiu	a1,a1,3500
--
  40a4c4:	0320f809 	jalr	t9
  40a4c8:	24a51898 	addiu	a1,a1,6296
  40a4cc:	8fbc0010 	lw	gp,16(sp)
  40a4d0:	1440001a 	bnez	v0,40a53c <AspInitial@@Base+0x65d4>
  40a4d4:	3c040041 	lui	a0,0x41
  40a4d8:	3c020041 	lui	v0,0x41
  40a4dc:	90422090 	lbu	v0,8336(v0)
  40a4e0:	a3a20020 	sb	v0,32(sp)
  40a4e4:	27a40021 	addiu	a0,sp,33
  40a4e8:	00002821 	move	a1,zero
  40a4ec:	8f998104 	lw	t9,-32508(gp)
  40a4f0:	0320f809 	jalr	t9
  40a4f4:	240600ff 	li	a2,255
  40a4f8:	8fbc0010 	lw	gp,16(sp)
  40a4fc:	27b20020 	addiu	s2,sp,32
  40a500:	3c040041 	lui	a0,0x41
  40a504:	248418a0 	addiu	a0,a0,6304
  40a508:	02002821 	move	a1,s0
  40a50c:	8f99806c 	lw	t9,-32660(gp)
  40a510:	0320f809 	jalr	t9
  40a514:	02403021 	move	a2,s2
  40a518:	8fbc0010 	lw	gp,16(sp)
  40a51c:	02202021 	move	a0,s1
  40a520:	3c050041 	lui	a1,0x41
  40a524:	24a5fdec 	addiu	a1,a1,-532
[31m  40a528:	8f9980c8 	lw	t9,fprintf[0m
  40a52c:	0320f809 	jalr	t9
  40a530:	02403021 	move	a2,s2
  40a534:	1000000f 	b	40a574 <AspInitial@@Base+0x660c>
  40a538:	00001021 	move	v0,zero
  40a53c:	afa0001c 	sw	zero,28(sp)
  40a540:	248418a0 	addiu	a0,a0,6304
  40a544:	02002821 	move	a1,s0
  40a548:	8f99806c 	lw	t9,-32660(gp)
  40a54c:	0320f809 	jalr	t9
  40a550:	27a6001c 	addiu	a2,sp,28
  40a554:	8fbc0010 	lw	gp,16(sp)
  40a558:	02202021 	move	a0,s1
  40a55c:	3c050041 	lui	a1,0x41
  40a560:	8fa6001c 	lw	a2,28(sp)
[31m  40a564:	8f9980c8 	lw	t9,fprintf[0m
  40a568:	0320f809 	jalr	t9
  40a56c:	24a50f14 	addiu	a1,a1,3860
--
  40a5c4:	24a51854 	addiu	a1,a1,6228
  40a5c8:	8fbc0010 	lw	gp,16(sp)
  40a5cc:	1440001b 	bnez	v0,40a63c <AspInitial@@Base+0x66d4>
  40a5d0:	02002021 	move	a0,s0
  40a5d4:	afa00018 	sw	zero,24(sp)
  40a5d8:	afa0001c 	sw	zero,28(sp)
  40a5dc:	3c100041 	lui	s0,0x41
  40a5e0:	260418b0 	addiu	a0,s0,6320
  40a5e4:	3c050041 	lui	a1,0x41
  40a5e8:	24a51870 	addiu	a1,a1,6256
  40a5ec:	8f99806c 	lw	t9,-32660(gp)
  40a5f0:	0320f809 	jalr	t9
  40a5f4:	27a60018 	addiu	a2,sp,24
  40a5f8:	8fbc0010 	lw	gp,16(sp)
  40a5fc:	260418b0 	addiu	a0,s0,6320
  40a600:	3c050041 	lui	a1,0x41
  40a604:	24a51878 	addiu	a1,a1,6264
  40a608:	8f99806c 	lw	t9,-32660(gp)
  40a60c:	0320f809 	jalr	t9
  40a610:	27a6001c 	addiu	a2,sp,28
  40a614:	8fbc0010 	lw	gp,16(sp)
  40a618:	02202021 	move	a0,s1
  40a61c:	3c050041 	lui	a1,0x41
  40a620:	8fa60018 	lw	a2,24(sp)
  40a624:	8fa7001c 	lw	a3,28(sp)
[31m  40a628:	8f9980c8 	lw	t9,fprintf[0m
  40a62c:	0320f809 	jalr	t9
  40a630:	24a51880 	addiu	a1,a1,6272
  40a634:	10000046 	b	40a750 <AspInitial@@Base+0x67e8>
  40a638:	00001021 	move	v0,zero
  40a63c:	3c050041 	lui	a1,0x41
  40a640:	8f9980dc 	lw	t9,-32548(gp)
  40a644:	0320f809 	jalr	t9
  40a648:	24a50f90 	addiu	a1,a1,3984
  40a64c:	8fbc0010 	lw	gp,16(sp)
  40a650:	14400011 	bnez	v0,40a698 <AspInitial@@Base+0x6730>
  40a654:	02002021 	move	a0,s0
  40a658:	a3a00018 	sb	zero,24(sp)
  40a65c:	3c040041 	lui	a0,0x41
  40a660:	248418b0 	addiu	a0,a0,6320
  40a664:	02002821 	move	a1,s0
  40a668:	8f99806c 	lw	t9,-32660(gp)
  40a66c:	0320f809 	jalr	t9
  40a670:	27a60018 	addiu	a2,sp,24
  40a674:	8fbc0010 	lw	gp,16(sp)
  40a678:	02202021 	move	a0,s1
  40a67c:	3c050041 	lui	a1,0x41
  40a680:	93a60018 	lbu	a2,24(sp)
[31m  40a684:	8f9980c8 	lw	t9,fprintf[0m
  40a688:	0320f809 	jalr	t9
  40a68c:	24a50dac 	addiu	a1,a1,3500
--
  40a6a0:	0320f809 	jalr	t9
  40a6a4:	24a51898 	addiu	a1,a1,6296
  40a6a8:	8fbc0010 	lw	gp,16(sp)
  40a6ac:	1440001a 	bnez	v0,40a718 <AspInitial@@Base+0x67b0>
  40a6b0:	3c040041 	lui	a0,0x41
  40a6b4:	3c020041 	lui	v0,0x41
  40a6b8:	90422090 	lbu	v0,8336(v0)
  40a6bc:	a3a20020 	sb	v0,32(sp)
  40a6c0:	27a40021 	addiu	a0,sp,33
  40a6c4:	00002821 	move	a1,zero
  40a6c8:	8f998104 	lw	t9,-32508(gp)
  40a6cc:	0320f809 	jalr	t9
  40a6d0:	240600ff 	li	a2,255
  40a6d4:	8fbc0010 	lw	gp,16(sp)
  40a6d8:	27b20020 	addiu	s2,sp,32
  40a6dc:	3c040041 	lui	a0,0x41
  40a6e0:	248418b0 	addiu	a0,a0,6320
  40a6e4:	02002821 	move	a1,s0
  40a6e8:	8f99806c 	lw	t9,-32660(gp)
  40a6ec:	0320f809 	jalr	t9
  40a6f0:	02403021 	move	a2,s2
  40a6f4:	8fbc0010 	lw	gp,16(sp)
  40a6f8:	02202021 	move	a0,s1
  40a6fc:	3c050041 	lui	a1,0x41
  40a700:	24a5fdec 	addiu	a1,a1,-532
[31m  40a704:	8f9980c8 	lw	t9,fprintf[0m
  40a708:	0320f809 	jalr	t9
  40a70c:	02403021 	move	a2,s2
  40a710:	1000000f 	b	40a750 <AspInitial@@Base+0x67e8>
  40a714:	00001021 	move	v0,zero
  40a718:	afa0001c 	sw	zero,28(sp)
  40a71c:	248418b0 	addiu	a0,a0,6320
  40a720:	02002821 	move	a1,s0
  40a724:	8f99806c 	lw	t9,-32660(gp)
  40a728:	0320f809 	jalr	t9
  40a72c:	27a6001c 	addiu	a2,sp,28
  40a730:	8fbc0010 	lw	gp,16(sp)
  40a734:	02202021 	move	a0,s1
  40a738:	3c050041 	lui	a1,0x41
  40a73c:	8fa6001c 	lw	a2,28(sp)
[31m  40a740:	8f9980c8 	lw	t9,fprintf[0m
  40a744:	0320f809 	jalr	t9
  40a748:	24a50f14 	addiu	a1,a1,3860
--
  40a934:	3c050041 	lui	a1,0x41
  40a938:	8f9980dc 	lw	t9,-32548(gp)
  40a93c:	0320f809 	jalr	t9
  40a940:	24a51968 	addiu	a1,a1,6504
  40a944:	8fbc0018 	lw	gp,24(sp)
  40a948:	10400008 	beqz	v0,40a96c <AspInitial@@Base+0x6a04>
  40a94c:	02002021 	move	a0,s0
  40a950:	3c050041 	lui	a1,0x41
  40a954:	8f9980dc 	lw	t9,-32548(gp)
  40a958:	0320f809 	jalr	t9
  40a95c:	24a51974 	addiu	a1,a1,6516
  40a960:	8fbc0018 	lw	gp,24(sp)
  40a964:	14400011 	bnez	v0,40a9ac <AspInitial@@Base+0x6a44>
  40a968:	02002021 	move	a0,s0
  40a96c:	afa00020 	sw	zero,32(sp)
  40a970:	3c040041 	lui	a0,0x41
  40a974:	2484197c 	addiu	a0,a0,6524
  40a978:	02002821 	move	a1,s0
  40a97c:	8f99806c 	lw	t9,-32660(gp)
  40a980:	0320f809 	jalr	t9
  40a984:	27a60020 	addiu	a2,sp,32
  40a988:	8fbc0018 	lw	gp,24(sp)
  40a98c:	02202021 	move	a0,s1
  40a990:	3c050041 	lui	a1,0x41
  40a994:	8fa60020 	lw	a2,32(sp)
[31m  40a998:	8f9980c8 	lw	t9,fprintf[0m
  40a99c:	0320f809 	jalr	t9
  40a9a0:	24a50f14 	addiu	a1,a1,3860
--
  40a9e4:	240600ff 	li	a2,255
  40a9e8:	8fbc0018 	lw	gp,24(sp)
  40a9ec:	27a20024 	addiu	v0,sp,36
  40a9f0:	afa20010 	sw	v0,16(sp)
  40a9f4:	24020100 	li	v0,256
  40a9f8:	afa20014 	sw	v0,20(sp)
  40a9fc:	3c040041 	lui	a0,0x41
  40aa00:	24841998 	addiu	a0,a0,6552
  40aa04:	3c050041 	lui	a1,0x41
  40aa08:	24a519bc 	addiu	a1,a1,6588
  40aa0c:	3c060041 	lui	a2,0x41
  40aa10:	24c619c4 	addiu	a2,a2,6596
  40aa14:	8f9981c8 	lw	t9,-32312(gp)
  40aa18:	0320f809 	jalr	t9
  40aa1c:	24070001 	li	a3,1
  40aa20:	8fbc0018 	lw	gp,24(sp)
  40aa24:	14400005 	bnez	v0,40aa3c <AspInitial@@Base+0x6ad4>
  40aa28:	24020002 	li	v0,2
  40aa2c:	8f99808c 	lw	t9,-32628(gp)
  40aa30:	0320f809 	jalr	t9
  40aa34:	27a40024 	addiu	a0,sp,36
  40aa38:	8fbc0018 	lw	gp,24(sp)
  40aa3c:	02202021 	move	a0,s1
  40aa40:	3c050041 	lui	a1,0x41
  40aa44:	24a50f14 	addiu	a1,a1,3860
[31m  40aa48:	8f9980c8 	lw	t9,fprintf[0m
  40aa4c:	0320f809 	jalr	t9
  40aa50:	00403021 	move	a2,v0
--
  40aab8:	0320f809 	jalr	t9
  40aabc:	24a519d4 	addiu	a1,a1,6612
  40aac0:	8fbc0010 	lw	gp,16(sp)
  40aac4:	14400019 	bnez	v0,40ab2c <AspInitial@@Base+0x6bc4>
  40aac8:	00001021 	move	v0,zero
  40aacc:	3c020041 	lui	v0,0x41
  40aad0:	90422090 	lbu	v0,8336(v0)
  40aad4:	a3a20018 	sb	v0,24(sp)
  40aad8:	27a40019 	addiu	a0,sp,25
  40aadc:	00002821 	move	a1,zero
  40aae0:	8f998104 	lw	t9,-32508(gp)
  40aae4:	0320f809 	jalr	t9
  40aae8:	240600ff 	li	a2,255
  40aaec:	8fbc0010 	lw	gp,16(sp)
  40aaf0:	3c040041 	lui	a0,0x41
  40aaf4:	248419dc 	addiu	a0,a0,6620
  40aaf8:	02002821 	move	a1,s0
  40aafc:	27b00018 	addiu	s0,sp,24
  40ab00:	8f99806c 	lw	t9,-32660(gp)
  40ab04:	0320f809 	jalr	t9
  40ab08:	02003021 	move	a2,s0
  40ab0c:	8fbc0010 	lw	gp,16(sp)
  40ab10:	02202021 	move	a0,s1
  40ab14:	3c050041 	lui	a1,0x41
  40ab18:	24a5fdec 	addiu	a1,a1,-532
[31m  40ab1c:	8f9980c8 	lw	t9,fprintf[0m
  40ab20:	0320f809 	jalr	t9
  40ab24:	02003021 	move	a2,s0
--
  40ac00:	0320f809 	jalr	t9
  40ac04:	24a50fcc 	addiu	a1,a1,4044
  40ac08:	8fbc0010 	lw	gp,16(sp)
  40ac0c:	1440001a 	bnez	v0,40ac78 <AspInitial@@Base+0x6d10>
  40ac10:	02002021 	move	a0,s0
  40ac14:	3c020041 	lui	v0,0x41
  40ac18:	90422090 	lbu	v0,8336(v0)
  40ac1c:	a3a2001c 	sb	v0,28(sp)
  40ac20:	27a4001d 	addiu	a0,sp,29
  40ac24:	00002821 	move	a1,zero
  40ac28:	8f998104 	lw	t9,-32508(gp)
  40ac2c:	0320f809 	jalr	t9
  40ac30:	240600ff 	li	a2,255
  40ac34:	8fbc0010 	lw	gp,16(sp)
  40ac38:	27b1001c 	addiu	s1,sp,28
  40ac3c:	3c040041 	lui	a0,0x41
  40ac40:	24841a00 	addiu	a0,a0,6656
  40ac44:	02002821 	move	a1,s0
  40ac48:	8f99806c 	lw	t9,-32660(gp)
  40ac4c:	0320f809 	jalr	t9
  40ac50:	02203021 	move	a2,s1
  40ac54:	8fbc0010 	lw	gp,16(sp)
  40ac58:	02402021 	move	a0,s2
  40ac5c:	3c050041 	lui	a1,0x41
  40ac60:	24a5fdec 	addiu	a1,a1,-532
[31m  40ac64:	8f9980c8 	lw	t9,fprintf[0m
  40ac68:	0320f809 	jalr	t9
  40ac6c:	02203021 	move	a2,s1
--
  40ac78:	3c050041 	lui	a1,0x41
  40ac7c:	8f9980dc 	lw	t9,-32548(gp)
  40ac80:	0320f809 	jalr	t9
  40ac84:	24a50f90 	addiu	a1,a1,3984
  40ac88:	8fbc0010 	lw	gp,16(sp)
  40ac8c:	10400008 	beqz	v0,40acb0 <AspInitial@@Base+0x6d48>
  40ac90:	02002021 	move	a0,s0
  40ac94:	3c050041 	lui	a1,0x41
  40ac98:	8f9980dc 	lw	t9,-32548(gp)
  40ac9c:	0320f809 	jalr	t9
  40aca0:	24a51a10 	addiu	a1,a1,6672
  40aca4:	8fbc0010 	lw	gp,16(sp)
  40aca8:	14400011 	bnez	v0,40acf0 <AspInitial@@Base+0x6d88>
  40acac:	3c040041 	lui	a0,0x41
  40acb0:	a3a00018 	sb	zero,24(sp)
  40acb4:	3c040041 	lui	a0,0x41
  40acb8:	24841a00 	addiu	a0,a0,6656
  40acbc:	02002821 	move	a1,s0
  40acc0:	8f99806c 	lw	t9,-32660(gp)
  40acc4:	0320f809 	jalr	t9
  40acc8:	27a60018 	addiu	a2,sp,24
  40accc:	8fbc0010 	lw	gp,16(sp)
  40acd0:	02402021 	move	a0,s2
  40acd4:	3c050041 	lui	a1,0x41
  40acd8:	93a60018 	lbu	a2,24(sp)
[31m  40acdc:	8f9980c8 	lw	t9,fprintf[0m
  40ace0:	0320f809 	jalr	t9
  40ace4:	24a50dac 	addiu	a1,a1,3500
  40ace8:	1000000f 	b	40ad28 <AspInitial@@Base+0x6dc0>
  40acec:	00001021 	move	v0,zero
  40acf0:	afa00018 	sw	zero,24(sp)
  40acf4:	24841a00 	addiu	a0,a0,6656
  40acf8:	02002821 	move	a1,s0
  40acfc:	8f99806c 	lw	t9,-32660(gp)
  40ad00:	0320f809 	jalr	t9
  40ad04:	27a60018 	addiu	a2,sp,24
  40ad08:	8fbc0010 	lw	gp,16(sp)
  40ad0c:	02402021 	move	a0,s2
  40ad10:	3c050041 	lui	a1,0x41
  40ad14:	8fa60018 	lw	a2,24(sp)
[31m  40ad18:	8f9980c8 	lw	t9,fprintf[0m
  40ad1c:	0320f809 	jalr	t9
  40ad20:	24a50f14 	addiu	a1,a1,3860
--
  40ad68:	3c050041 	lui	a1,0x41
  40ad6c:	8f9980dc 	lw	t9,-32548(gp)
  40ad70:	0320f809 	jalr	t9
  40ad74:	24a51a20 	addiu	a1,a1,6688
  40ad78:	8fbc0010 	lw	gp,16(sp)
  40ad7c:	10400008 	beqz	v0,40ada0 <AspInitial@@Base+0x6e38>
  40ad80:	02002021 	move	a0,s0
  40ad84:	3c050041 	lui	a1,0x41
  40ad88:	8f9980dc 	lw	t9,-32548(gp)
  40ad8c:	0320f809 	jalr	t9
  40ad90:	24a51a2c 	addiu	a1,a1,6700
  40ad94:	8fbc0010 	lw	gp,16(sp)
  40ad98:	14400010 	bnez	v0,40addc <AspInitial@@Base+0x6e74>
  40ad9c:	00001021 	move	v0,zero
  40ada0:	afa00018 	sw	zero,24(sp)
  40ada4:	3c040041 	lui	a0,0x41
  40ada8:	24841a38 	addiu	a0,a0,6712
  40adac:	02002821 	move	a1,s0
  40adb0:	8f99806c 	lw	t9,-32660(gp)
  40adb4:	0320f809 	jalr	t9
  40adb8:	27a60018 	addiu	a2,sp,24
  40adbc:	8fbc0010 	lw	gp,16(sp)
  40adc0:	02202021 	move	a0,s1
  40adc4:	3c050041 	lui	a1,0x41
  40adc8:	8fa60018 	lw	a2,24(sp)
[31m  40adcc:	8f9980c8 	lw	t9,fprintf[0m
  40add0:	0320f809 	jalr	t9
  40add4:	24a50f14 	addiu	a1,a1,3860
--
  40ae18:	3c050041 	lui	a1,0x41
  40ae1c:	8f9980dc 	lw	t9,-32548(gp)
  40ae20:	0320f809 	jalr	t9
  40ae24:	24a5fe74 	addiu	a1,a1,-396
  40ae28:	8fbc0010 	lw	gp,16(sp)
  40ae2c:	10400008 	beqz	v0,40ae50 <AspInitial@@Base+0x6ee8>
  40ae30:	02002021 	move	a0,s0
  40ae34:	3c050041 	lui	a1,0x41
  40ae38:	8f9980dc 	lw	t9,-32548(gp)
  40ae3c:	0320f809 	jalr	t9
  40ae40:	24a51a3c 	addiu	a1,a1,6716
  40ae44:	8fbc0010 	lw	gp,16(sp)
  40ae48:	14400010 	bnez	v0,40ae8c <AspInitial@@Base+0x6f24>
  40ae4c:	00001021 	move	v0,zero
  40ae50:	afa00018 	sw	zero,24(sp)
  40ae54:	3c040041 	lui	a0,0x41
  40ae58:	24841a44 	addiu	a0,a0,6724
  40ae5c:	02002821 	move	a1,s0
  40ae60:	8f99806c 	lw	t9,-32660(gp)
  40ae64:	0320f809 	jalr	t9
  40ae68:	27a60018 	addiu	a2,sp,24
  40ae6c:	8fbc0010 	lw	gp,16(sp)
  40ae70:	02202021 	move	a0,s1
  40ae74:	3c050041 	lui	a1,0x41
  40ae78:	8fa60018 	lw	a2,24(sp)
[31m  40ae7c:	8f9980c8 	lw	t9,fprintf[0m
  40ae80:	0320f809 	jalr	t9
  40ae84:	24a50f14 	addiu	a1,a1,3860
--
  40aeb0:	afb00120 	sw	s0,288(sp)
  40aeb4:	3c1c0043 	lui	gp,0x43
  40aeb8:	279ca840 	addiu	gp,gp,-22464
  40aebc:	afbc0010 	sw	gp,16(sp)
  40aec0:	00808021 	move	s0,a0
  40aec4:	1080002e 	beqz	a0,40af80 <AspInitial@@Base+0x7018>
  40aec8:	00a09021 	move	s2,a1
  40aecc:	3c050041 	lui	a1,0x41
  40aed0:	8f9980dc 	lw	t9,-32548(gp)
  40aed4:	0320f809 	jalr	t9
  40aed8:	24a50f90 	addiu	a1,a1,3984
  40aedc:	8fbc0010 	lw	gp,16(sp)
  40aee0:	14400011 	bnez	v0,40af28 <AspInitial@@Base+0x6fc0>
  40aee4:	27a4001d 	addiu	a0,sp,29
  40aee8:	a3a00018 	sb	zero,24(sp)
  40aeec:	3c040041 	lui	a0,0x41
  40aef0:	24841a4c 	addiu	a0,a0,6732
  40aef4:	02002821 	move	a1,s0
  40aef8:	8f99806c 	lw	t9,-32660(gp)
  40aefc:	0320f809 	jalr	t9
  40af00:	27a60018 	addiu	a2,sp,24
  40af04:	8fbc0010 	lw	gp,16(sp)
  40af08:	02402021 	move	a0,s2
  40af0c:	3c050041 	lui	a1,0x41
  40af10:	93a60018 	lbu	a2,24(sp)
[31m  40af14:	8f9980c8 	lw	t9,fprintf[0m
  40af18:	0320f809 	jalr	t9
  40af1c:	24a50dac 	addiu	a1,a1,3500
  40af20:	10000018 	b	40af84 <AspInitial@@Base+0x701c>
  40af24:	00001021 	move	v0,zero
  40af28:	3c020041 	lui	v0,0x41
  40af2c:	90422090 	lbu	v0,8336(v0)
  40af30:	a3a2001c 	sb	v0,28(sp)
  40af34:	00002821 	move	a1,zero
  40af38:	8f998104 	lw	t9,-32508(gp)
  40af3c:	0320f809 	jalr	t9
  40af40:	240600ff 	li	a2,255
  40af44:	8fbc0010 	lw	gp,16(sp)
  40af48:	27b1001c 	addiu	s1,sp,28
  40af4c:	3c040041 	lui	a0,0x41
  40af50:	24841a4c 	addiu	a0,a0,6732
  40af54:	02002821 	move	a1,s0
  40af58:	8f99806c 	lw	t9,-32660(gp)
  40af5c:	0320f809 	jalr	t9
  40af60:	02203021 	move	a2,s1
  40af64:	8fbc0010 	lw	gp,16(sp)
  40af68:	02402021 	move	a0,s2
  40af6c:	3c050041 	lui	a1,0x41
  40af70:	24a5fdec 	addiu	a1,a1,-532
[31m  40af74:	8f9980c8 	lw	t9,fprintf[0m
  40af78:	0320f809 	jalr	t9
  40af7c:	02203021 	move	a2,s1
--
  40afa4:	afb10028 	sw	s1,40(sp)
  40afa8:	afb00024 	sw	s0,36(sp)
  40afac:	3c1c0043 	lui	gp,0x43
  40afb0:	279ca840 	addiu	gp,gp,-22464
  40afb4:	afbc0010 	sw	gp,16(sp)
  40afb8:	00808021 	move	s0,a0
  40afbc:	10800024 	beqz	a0,40b050 <AspInitial@@Base+0x70e8>
  40afc0:	00a08821 	move	s1,a1
  40afc4:	3c050041 	lui	a1,0x41
  40afc8:	8f9980dc 	lw	t9,-32548(gp)
  40afcc:	0320f809 	jalr	t9
  40afd0:	24a51a3c 	addiu	a1,a1,6716
  40afd4:	8fbc0010 	lw	gp,16(sp)
  40afd8:	14400010 	bnez	v0,40b01c <AspInitial@@Base+0x70b4>
  40afdc:	3c040041 	lui	a0,0x41
  40afe0:	afa00018 	sw	zero,24(sp)
  40afe4:	24841a54 	addiu	a0,a0,6740
  40afe8:	02002821 	move	a1,s0
  40afec:	8f99806c 	lw	t9,-32660(gp)
  40aff0:	0320f809 	jalr	t9
  40aff4:	27a60018 	addiu	a2,sp,24
  40aff8:	8fbc0010 	lw	gp,16(sp)
  40affc:	02202021 	move	a0,s1
  40b000:	3c050041 	lui	a1,0x41
  40b004:	8fa60018 	lw	a2,24(sp)
[31m  40b008:	8f9980c8 	lw	t9,fprintf[0m
  40b00c:	0320f809 	jalr	t9
  40b010:	24a50f14 	addiu	a1,a1,3860
  40b014:	1000000f 	b	40b054 <AspInitial@@Base+0x70ec>
  40b018:	00001021 	move	v0,zero
  40b01c:	a3a00018 	sb	zero,24(sp)
  40b020:	24841a54 	addiu	a0,a0,6740
  40b024:	02002821 	move	a1,s0
  40b028:	8f99806c 	lw	t9,-32660(gp)
  40b02c:	0320f809 	jalr	t9
  40b030:	27a60018 	addiu	a2,sp,24
  40b034:	8fbc0010 	lw	gp,16(sp)
  40b038:	02202021 	move	a0,s1
  40b03c:	3c050041 	lui	a1,0x41
  40b040:	93a60018 	lbu	a2,24(sp)
[31m  40b044:	8f9980c8 	lw	t9,fprintf[0m
  40b048:	0320f809 	jalr	t9
  40b04c:	24a50dac 	addiu	a1,a1,3500
--
  40b0e8:	3c050041 	lui	a1,0x41
  40b0ec:	8f9980dc 	lw	t9,-32548(gp)
  40b0f0:	0320f809 	jalr	t9
  40b0f4:	24a5ff54 	addiu	a1,a1,-172
  40b0f8:	8fbc0010 	lw	gp,16(sp)
  40b0fc:	10400008 	beqz	v0,40b120 <AspInitial@@Base+0x71b8>
  40b100:	02002021 	move	a0,s0
  40b104:	3c050041 	lui	a1,0x41
  40b108:	8f9980dc 	lw	t9,-32548(gp)
  40b10c:	0320f809 	jalr	t9
  40b110:	24a5ff5c 	addiu	a1,a1,-164
  40b114:	8fbc0010 	lw	gp,16(sp)
  40b118:	14400011 	bnez	v0,40b160 <AspInitial@@Base+0x71f8>
  40b11c:	02002021 	move	a0,s0
  40b120:	afa00018 	sw	zero,24(sp)
  40b124:	3c040041 	lui	a0,0x41
  40b128:	2484fd44 	addiu	a0,a0,-700
  40b12c:	02002821 	move	a1,s0
  40b130:	8f99806c 	lw	t9,-32660(gp)
  40b134:	0320f809 	jalr	t9
  40b138:	27a60018 	addiu	a2,sp,24
  40b13c:	8fbc0010 	lw	gp,16(sp)
  40b140:	02202021 	move	a0,s1
  40b144:	3c050041 	lui	a1,0x41
  40b148:	8fa60018 	lw	a2,24(sp)
[31m  40b14c:	8f9980c8 	lw	t9,fprintf[0m
  40b150:	0320f809 	jalr	t9
  40b154:	24a50f14 	addiu	a1,a1,3860
  40b158:	1000002f 	b	40b218 <AspInitial@@Base+0x72b0>
  40b15c:	00001021 	move	v0,zero
  40b160:	3c050041 	lui	a1,0x41
  40b164:	8f9980dc 	lw	t9,-32548(gp)
  40b168:	0320f809 	jalr	t9
  40b16c:	24a5fe6c 	addiu	a1,a1,-404
  40b170:	8fbc0010 	lw	gp,16(sp)
  40b174:	14400011 	bnez	v0,40b1bc <AspInitial@@Base+0x7254>
  40b178:	27a4001d 	addiu	a0,sp,29
  40b17c:	a3a00018 	sb	zero,24(sp)
  40b180:	3c040041 	lui	a0,0x41
  40b184:	2484fd44 	addiu	a0,a0,-700
  40b188:	02002821 	move	a1,s0
  40b18c:	8f99806c 	lw	t9,-32660(gp)
  40b190:	0320f809 	jalr	t9
  40b194:	27a60018 	addiu	a2,sp,24
  40b198:	8fbc0010 	lw	gp,16(sp)
  40b19c:	02202021 	move	a0,s1
  40b1a0:	3c050041 	lui	a1,0x41
  40b1a4:	93a60018 	lbu	a2,24(sp)
[31m  40b1a8:	8f9980c8 	lw	t9,fprintf[0m
  40b1ac:	0320f809 	jalr	t9
  40b1b0:	24a50dac 	addiu	a1,a1,3500
  40b1b4:	10000018 	b	40b218 <AspInitial@@Base+0x72b0>
  40b1b8:	00001021 	move	v0,zero
  40b1bc:	3c020041 	lui	v0,0x41
  40b1c0:	90422090 	lbu	v0,8336(v0)
  40b1c4:	a3a2001c 	sb	v0,28(sp)
  40b1c8:	00002821 	move	a1,zero
  40b1cc:	8f998104 	lw	t9,-32508(gp)
  40b1d0:	0320f809 	jalr	t9
  40b1d4:	240600ff 	li	a2,255
  40b1d8:	8fbc0010 	lw	gp,16(sp)
  40b1dc:	27b2001c 	addiu	s2,sp,28
  40b1e0:	3c040041 	lui	a0,0x41
  40b1e4:	2484fd44 	addiu	a0,a0,-700
  40b1e8:	02002821 	move	a1,s0
  40b1ec:	8f99806c 	lw	t9,-32660(gp)
  40b1f0:	0320f809 	jalr	t9
  40b1f4:	02403021 	move	a2,s2
  40b1f8:	8fbc0010 	lw	gp,16(sp)
  40b1fc:	02202021 	move	a0,s1
  40b200:	3c050041 	lui	a1,0x41
  40b204:	24a5fdec 	addiu	a1,a1,-532
[31m  40b208:	8f9980c8 	lw	t9,fprintf[0m
  40b20c:	0320f809 	jalr	t9
  40b210:	02403021 	move	a2,s2
--
  40b280:	0320f809 	jalr	t9
  40b284:	24a51a6c 	addiu	a1,a1,6764
  40b288:	8fbc0010 	lw	gp,16(sp)
  40b28c:	1440001a 	bnez	v0,40b2f8 <AspInitial@@Base+0x7390>
  40b290:	02002021 	move	a0,s0
  40b294:	3c020041 	lui	v0,0x41
  40b298:	90422090 	lbu	v0,8336(v0)
  40b29c:	a3a2001c 	sb	v0,28(sp)
  40b2a0:	27a4001d 	addiu	a0,sp,29
  40b2a4:	00002821 	move	a1,zero
  40b2a8:	8f998104 	lw	t9,-32508(gp)
  40b2ac:	0320f809 	jalr	t9
  40b2b0:	240600ff 	li	a2,255
  40b2b4:	8fbc0010 	lw	gp,16(sp)
  40b2b8:	27b1001c 	addiu	s1,sp,28
  40b2bc:	3c040041 	lui	a0,0x41
  40b2c0:	24841a80 	addiu	a0,a0,6784
  40b2c4:	02002821 	move	a1,s0
  40b2c8:	8f99806c 	lw	t9,-32660(gp)
  40b2cc:	0320f809 	jalr	t9
  40b2d0:	02203021 	move	a2,s1
  40b2d4:	8fbc0010 	lw	gp,16(sp)
  40b2d8:	02402021 	move	a0,s2
  40b2dc:	3c050041 	lui	a1,0x41
  40b2e0:	24a5fdec 	addiu	a1,a1,-532
[31m  40b2e4:	8f9980c8 	lw	t9,fprintf[0m
  40b2e8:	0320f809 	jalr	t9
  40b2ec:	02203021 	move	a2,s1
--
  40b314:	3c050041 	lui	a1,0x41
  40b318:	8f9980dc 	lw	t9,-32548(gp)
  40b31c:	0320f809 	jalr	t9
  40b320:	24a51a98 	addiu	a1,a1,6808
  40b324:	8fbc0010 	lw	gp,16(sp)
  40b328:	10400008 	beqz	v0,40b34c <AspInitial@@Base+0x73e4>
  40b32c:	02002021 	move	a0,s0
  40b330:	3c050041 	lui	a1,0x41
  40b334:	8f9980dc 	lw	t9,-32548(gp)
  40b338:	0320f809 	jalr	t9
  40b33c:	24a51aa8 	addiu	a1,a1,6824
  40b340:	8fbc0010 	lw	gp,16(sp)
  40b344:	14400011 	bnez	v0,40b38c <AspInitial@@Base+0x7424>
  40b348:	3c040041 	lui	a0,0x41
  40b34c:	afa00018 	sw	zero,24(sp)
  40b350:	3c040041 	lui	a0,0x41
  40b354:	24841a80 	addiu	a0,a0,6784
  40b358:	02002821 	move	a1,s0
  40b35c:	8f99806c 	lw	t9,-32660(gp)
  40b360:	0320f809 	jalr	t9
  40b364:	27a60018 	addiu	a2,sp,24
  40b368:	8fbc0010 	lw	gp,16(sp)
  40b36c:	02402021 	move	a0,s2
  40b370:	3c050041 	lui	a1,0x41
  40b374:	8fa60018 	lw	a2,24(sp)
[31m  40b378:	8f9980c8 	lw	t9,fprintf[0m
  40b37c:	0320f809 	jalr	t9
  40b380:	24a50f14 	addiu	a1,a1,3860
  40b384:	1000000f 	b	40b3c4 <AspInitial@@Base+0x745c>
  40b388:	00001021 	move	v0,zero
  40b38c:	a3a00018 	sb	zero,24(sp)
  40b390:	24841a80 	addiu	a0,a0,6784
  40b394:	02002821 	move	a1,s0
  40b398:	8f99806c 	lw	t9,-32660(gp)
  40b39c:	0320f809 	jalr	t9
  40b3a0:	27a60018 	addiu	a2,sp,24
  40b3a4:	8fbc0010 	lw	gp,16(sp)
  40b3a8:	02402021 	move	a0,s2
  40b3ac:	3c050041 	lui	a1,0x41
  40b3b0:	93a60018 	lbu	a2,24(sp)
[31m  40b3b4:	8f9980c8 	lw	t9,fprintf[0m
  40b3b8:	0320f809 	jalr	t9
  40b3bc:	24a50dac 	addiu	a1,a1,3500
--
  40b408:	3c050041 	lui	a1,0x41
  40b40c:	8f9980dc 	lw	t9,-32548(gp)
  40b410:	0320f809 	jalr	t9
  40b414:	24a51024 	addiu	a1,a1,4132
  40b418:	8fbc0010 	lw	gp,16(sp)
  40b41c:	10400008 	beqz	v0,40b440 <AspInitial@@Base+0x74d8>
  40b420:	02002021 	move	a0,s0
  40b424:	3c050041 	lui	a1,0x41
  40b428:	8f9980dc 	lw	t9,-32548(gp)
  40b42c:	0320f809 	jalr	t9
  40b430:	24a51030 	addiu	a1,a1,4144
  40b434:	8fbc0010 	lw	gp,16(sp)
  40b438:	14400011 	bnez	v0,40b480 <AspInitial@@Base+0x7518>
  40b43c:	27a4001d 	addiu	a0,sp,29
  40b440:	afa00018 	sw	zero,24(sp)
  40b444:	3c040041 	lui	a0,0x41
  40b448:	24841ab8 	addiu	a0,a0,6840
  40b44c:	02002821 	move	a1,s0
  40b450:	8f99806c 	lw	t9,-32660(gp)
  40b454:	0320f809 	jalr	t9
  40b458:	27a60018 	addiu	a2,sp,24
  40b45c:	8fbc0010 	lw	gp,16(sp)
  40b460:	02202021 	move	a0,s1
  40b464:	3c050041 	lui	a1,0x41
  40b468:	8fa60018 	lw	a2,24(sp)
[31m  40b46c:	8f9980c8 	lw	t9,fprintf[0m
  40b470:	0320f809 	jalr	t9
  40b474:	24a50f14 	addiu	a1,a1,3860
  40b478:	10000018 	b	40b4dc <AspInitial@@Base+0x7574>
  40b47c:	00001021 	move	v0,zero
  40b480:	3c020041 	lui	v0,0x41
  40b484:	90422090 	lbu	v0,8336(v0)
  40b488:	a3a2001c 	sb	v0,28(sp)
  40b48c:	00002821 	move	a1,zero
  40b490:	8f998104 	lw	t9,-32508(gp)
  40b494:	0320f809 	jalr	t9
  40b498:	240600ff 	li	a2,255
  40b49c:	8fbc0010 	lw	gp,16(sp)
  40b4a0:	27b2001c 	addiu	s2,sp,28
  40b4a4:	3c040041 	lui	a0,0x41
  40b4a8:	24841ab8 	addiu	a0,a0,6840
  40b4ac:	02002821 	move	a1,s0
  40b4b0:	8f99806c 	lw	t9,-32660(gp)
  40b4b4:	0320f809 	jalr	t9
  40b4b8:	02403021 	move	a2,s2
  40b4bc:	8fbc0010 	lw	gp,16(sp)
  40b4c0:	02202021 	move	a0,s1
  40b4c4:	3c050041 	lui	a1,0x41
  40b4c8:	24a5fdec 	addiu	a1,a1,-532
[31m  40b4cc:	8f9980c8 	lw	t9,fprintf[0m
  40b4d0:	0320f809 	jalr	t9
  40b4d4:	02403021 	move	a2,s2
--
  40b504:	afb00220 	sw	s0,544(sp)
  40b508:	3c1c0043 	lui	gp,0x43
  40b50c:	279ca840 	addiu	gp,gp,-22464
  40b510:	afbc0010 	sw	gp,16(sp)
  40b514:	00808021 	move	s0,a0
  40b518:	1080007a 	beqz	a0,40b704 <AspInitial@@Base+0x779c>
  40b51c:	00a08821 	move	s1,a1
  40b520:	3c050041 	lui	a1,0x41
  40b524:	8f9980dc 	lw	t9,-32548(gp)
  40b528:	0320f809 	jalr	t9
  40b52c:	24a51024 	addiu	a1,a1,4132
  40b530:	8fbc0010 	lw	gp,16(sp)
  40b534:	14400011 	bnez	v0,40b57c <AspInitial@@Base+0x7614>
  40b538:	02002021 	move	a0,s0
  40b53c:	afa00018 	sw	zero,24(sp)
  40b540:	3c040041 	lui	a0,0x41
  40b544:	24841ac4 	addiu	a0,a0,6852
  40b548:	02002821 	move	a1,s0
  40b54c:	8f99806c 	lw	t9,-32660(gp)
  40b550:	0320f809 	jalr	t9
  40b554:	27a60018 	addiu	a2,sp,24
  40b558:	8fbc0010 	lw	gp,16(sp)
  40b55c:	02202021 	move	a0,s1
  40b560:	3c050041 	lui	a1,0x41
  40b564:	8fa60018 	lw	a2,24(sp)
[31m  40b568:	8f9980c8 	lw	t9,fprintf[0m
  40b56c:	0320f809 	jalr	t9
  40b570:	24a50f14 	addiu	a1,a1,3860
  40b574:	10000064 	b	40b708 <AspInitial@@Base+0x77a0>
  40b578:	00001021 	move	v0,zero
  40b57c:	3c050041 	lui	a1,0x41
  40b580:	8f9980dc 	lw	t9,-32548(gp)
  40b584:	0320f809 	jalr	t9
  40b588:	24a5106c 	addiu	a1,a1,4204
  40b58c:	8fbc0010 	lw	gp,16(sp)
  40b590:	14400011 	bnez	v0,40b5d8 <AspInitial@@Base+0x7670>
  40b594:	02002021 	move	a0,s0
  40b598:	a3a00018 	sb	zero,24(sp)
  40b59c:	3c040041 	lui	a0,0x41
  40b5a0:	24841ac4 	addiu	a0,a0,6852
  40b5a4:	02002821 	move	a1,s0
  40b5a8:	8f99806c 	lw	t9,-32660(gp)
  40b5ac:	0320f809 	jalr	t9
  40b5b0:	27a60018 	addiu	a2,sp,24
  40b5b4:	8fbc0010 	lw	gp,16(sp)
  40b5b8:	02202021 	move	a0,s1
  40b5bc:	3c050041 	lui	a1,0x41
  40b5c0:	93a60018 	lbu	a2,24(sp)
[31m  40b5c4:	8f9980c8 	lw	t9,fprintf[0m
  40b5c8:	0320f809 	jalr	t9
  40b5cc:	24a50dac 	addiu	a1,a1,3500
--
  40b634:	8fbc0010 	lw	gp,16(sp)
  40b638:	27b0001c 	addiu	s0,sp,28
  40b63c:	3c040041 	lui	a0,0x41
  40b640:	24841ac4 	addiu	a0,a0,6852
  40b644:	3c050041 	lui	a1,0x41
  40b648:	24a51088 	addiu	a1,a1,4232
  40b64c:	8f99806c 	lw	t9,-32660(gp)
  40b650:	0320f809 	jalr	t9
  40b654:	02003021 	move	a2,s0
  40b658:	8fbc0010 	lw	gp,16(sp)
  40b65c:	8f998078 	lw	t9,strlen
  40b660:	0320f809 	jalr	t9
  40b664:	02002021 	move	a0,s0
  40b668:	8fbc0010 	lw	gp,16(sp)
  40b66c:	18400007 	blez	v0,40b68c <AspInitial@@Base+0x7724>
  40b670:	27a3011c 	addiu	v1,sp,284
  40b674:	00431021 	addu	v0,v0,v1
  40b678:	2404002a 	li	a0,42
  40b67c:	a0640000 	sb	a0,0(v1)
  40b680:	24630001 	addiu	v1,v1,1
  40b684:	1462fffd 	bne	v1,v0,40b67c <AspInitial@@Base+0x7714>
  40b688:	00000000 	nop
  40b68c:	02202021 	move	a0,s1
  40b690:	3c050041 	lui	a1,0x41
  40b694:	24a5fdec 	addiu	a1,a1,-532
[31m  40b698:	8f9980c8 	lw	t9,fprintf[0m
  40b69c:	0320f809 	jalr	t9
  40b6a0:	27a6011c 	addiu	a2,sp,284
  40b6a4:	10000018 	b	40b708 <AspInitial@@Base+0x77a0>
  40b6a8:	00001021 	move	v0,zero
  40b6ac:	90422090 	lbu	v0,8336(v0)
  40b6b0:	a3a2011c 	sb	v0,284(sp)
  40b6b4:	27a4011d 	addiu	a0,sp,285
  40b6b8:	00002821 	move	a1,zero
  40b6bc:	8f998104 	lw	t9,-32508(gp)
  40b6c0:	0320f809 	jalr	t9
  40b6c4:	240600ff 	li	a2,255
  40b6c8:	8fbc0010 	lw	gp,16(sp)
  40b6cc:	27b2011c 	addiu	s2,sp,284
  40b6d0:	3c040041 	lui	a0,0x41
  40b6d4:	24841ac4 	addiu	a0,a0,6852
  40b6d8:	02002821 	move	a1,s0
  40b6dc:	8f99806c 	lw	t9,-32660(gp)
  40b6e0:	0320f809 	jalr	t9
  40b6e4:	02403021 	move	a2,s2
  40b6e8:	8fbc0010 	lw	gp,16(sp)
  40b6ec:	02202021 	move	a0,s1
  40b6f0:	3c050041 	lui	a1,0x41
  40b6f4:	24a5fdec 	addiu	a1,a1,-532
[31m  40b6f8:	8f9980c8 	lw	t9,fprintf[0m
  40b6fc:	0320f809 	jalr	t9
  40b700:	02403021 	move	a2,s2
--
  40b78c:	0320f809 	jalr	t9
  40b790:	24a51adc 	addiu	a1,a1,6876
  40b794:	8fbc0010 	lw	gp,16(sp)
  40b798:	1440001a 	bnez	v0,40b804 <AspInitial@@Base+0x789c>
  40b79c:	3c040041 	lui	a0,0x41
  40b7a0:	3c020041 	lui	v0,0x41
  40b7a4:	90422090 	lbu	v0,8336(v0)
  40b7a8:	a3a2001c 	sb	v0,28(sp)
  40b7ac:	27a4001d 	addiu	a0,sp,29
  40b7b0:	00002821 	move	a1,zero
  40b7b4:	8f998104 	lw	t9,-32508(gp)
  40b7b8:	0320f809 	jalr	t9
  40b7bc:	240600ff 	li	a2,255
  40b7c0:	8fbc0010 	lw	gp,16(sp)
  40b7c4:	27b1001c 	addiu	s1,sp,28
  40b7c8:	3c040041 	lui	a0,0x41
  40b7cc:	24841ae4 	addiu	a0,a0,6884
  40b7d0:	02002821 	move	a1,s0
  40b7d4:	8f99806c 	lw	t9,-32660(gp)
  40b7d8:	0320f809 	jalr	t9
  40b7dc:	02203021 	move	a2,s1
  40b7e0:	8fbc0010 	lw	gp,16(sp)
  40b7e4:	02402021 	move	a0,s2
  40b7e8:	3c050041 	lui	a1,0x41
  40b7ec:	24a5fdec 	addiu	a1,a1,-532
[31m  40b7f0:	8f9980c8 	lw	t9,fprintf[0m
  40b7f4:	0320f809 	jalr	t9
  40b7f8:	02203021 	move	a2,s1
  40b7fc:	1000000f 	b	40b83c <AspInitial@@Base+0x78d4>
  40b800:	00001021 	move	v0,zero
  40b804:	a3a00018 	sb	zero,24(sp)
  40b808:	24841ae4 	addiu	a0,a0,6884
  40b80c:	02002821 	move	a1,s0
  40b810:	8f99806c 	lw	t9,-32660(gp)
  40b814:	0320f809 	jalr	t9
  40b818:	27a60018 	addiu	a2,sp,24
  40b81c:	8fbc0010 	lw	gp,16(sp)
  40b820:	02402021 	move	a0,s2
  40b824:	3c050041 	lui	a1,0x41
  40b828:	93a60018 	lbu	a2,24(sp)
[31m  40b82c:	8f9980c8 	lw	t9,fprintf[0m
  40b830:	0320f809 	jalr	t9
  40b834:	24a50dac 	addiu	a1,a1,3500
--
  40b8b4:	24a51af8 	addiu	a1,a1,6904
  40b8b8:	8f99806c 	lw	t9,-32660(gp)
  40b8bc:	0320f809 	jalr	t9
  40b8c0:	27a60020 	addiu	a2,sp,32
  40b8c4:	8fbc0018 	lw	gp,24(sp)
  40b8c8:	26041af0 	addiu	a0,s0,6896
  40b8cc:	3c050041 	lui	a1,0x41
  40b8d0:	24a51b04 	addiu	a1,a1,6916
  40b8d4:	8f99806c 	lw	t9,-32660(gp)
  40b8d8:	0320f809 	jalr	t9
  40b8dc:	27a60022 	addiu	a2,sp,34
  40b8e0:	8fbc0018 	lw	gp,24(sp)
  40b8e4:	26041af0 	addiu	a0,s0,6896
  40b8e8:	3c050041 	lui	a1,0x41
  40b8ec:	24a51b14 	addiu	a1,a1,6932
  40b8f0:	8f99806c 	lw	t9,-32660(gp)
  40b8f4:	0320f809 	jalr	t9
  40b8f8:	27a60024 	addiu	a2,sp,36
  40b8fc:	8fbc0018 	lw	gp,24(sp)
  40b900:	97a60020 	lhu	a2,32(sp)
  40b904:	97a70022 	lhu	a3,34(sp)
  40b908:	97a20024 	lhu	v0,36(sp)
  40b90c:	afa20010 	sw	v0,16(sp)
  40b910:	02202021 	move	a0,s1
  40b914:	3c050041 	lui	a1,0x41
[31m  40b918:	8f9980c8 	lw	t9,fprintf[0m
  40b91c:	0320f809 	jalr	t9
  40b920:	24a51b24 	addiu	a1,a1,6948
--
  40b938:	24a51b30 	addiu	a1,a1,6960
  40b93c:	8fbc0018 	lw	gp,24(sp)
  40b940:	1440001b 	bnez	v0,40b9b0 <AspInitial@@Base+0x7a48>
  40b944:	02002021 	move	a0,s0
  40b948:	3c020041 	lui	v0,0x41
  40b94c:	90422090 	lbu	v0,8336(v0)
  40b950:	a3a20028 	sb	v0,40(sp)
  40b954:	27a40029 	addiu	a0,sp,41
  40b958:	00002821 	move	a1,zero
  40b95c:	8f998104 	lw	t9,-32508(gp)
  40b960:	0320f809 	jalr	t9
  40b964:	240600ff 	li	a2,255
  40b968:	8fbc0018 	lw	gp,24(sp)
  40b96c:	27b00028 	addiu	s0,sp,40
  40b970:	3c040041 	lui	a0,0x41
  40b974:	24841af0 	addiu	a0,a0,6896
  40b978:	3c050041 	lui	a1,0x41
  40b97c:	24a51b30 	addiu	a1,a1,6960
  40b980:	8f99806c 	lw	t9,-32660(gp)
  40b984:	0320f809 	jalr	t9
  40b988:	02003021 	move	a2,s0
  40b98c:	8fbc0018 	lw	gp,24(sp)
  40b990:	02202021 	move	a0,s1
  40b994:	3c050041 	lui	a1,0x41
  40b998:	24a5fdec 	addiu	a1,a1,-532
[31m  40b99c:	8f9980c8 	lw	t9,fprintf[0m
  40b9a0:	0320f809 	jalr	t9
  40b9a4:	02003021 	move	a2,s0
  40b9a8:	100000af 	b	40bc68 <AspInitial@@Base+0x7d00>
  40b9ac:	00001021 	move	v0,zero
  40b9b0:	3c050041 	lui	a1,0x41
  40b9b4:	8f9980dc 	lw	t9,-32548(gp)
  40b9b8:	0320f809 	jalr	t9
  40b9bc:	24a51b3c 	addiu	a1,a1,6972
  40b9c0:	8fbc0018 	lw	gp,24(sp)
  40b9c4:	1440000f 	bnez	v0,40ba04 <AspInitial@@Base+0x7a9c>
  40b9c8:	02002021 	move	a0,s0
  40b9cc:	afa00024 	sw	zero,36(sp)
  40b9d0:	24040010 	li	a0,16
  40b9d4:	8f998188 	lw	t9,-32376(gp)
  40b9d8:	0320f809 	jalr	t9
  40b9dc:	27a50024 	addiu	a1,sp,36
  40b9e0:	8fbc0018 	lw	gp,24(sp)
  40b9e4:	02202021 	move	a0,s1
  40b9e8:	3c050041 	lui	a1,0x41
  40b9ec:	8fa60024 	lw	a2,36(sp)
[31m  40b9f0:	8f9980c8 	lw	t9,fprintf[0m
  40b9f4:	0320f809 	jalr	t9
  40b9f8:	24a50f14 	addiu	a1,a1,3860
--
  40ba90:	3c050041 	lui	a1,0x41
  40ba94:	8f9980dc 	lw	t9,-32548(gp)
  40ba98:	0320f809 	jalr	t9
  40ba9c:	24a51b78 	addiu	a1,a1,7032
  40baa0:	8fbc0018 	lw	gp,24(sp)
  40baa4:	10400008 	beqz	v0,40bac8 <AspInitial@@Base+0x7b60>
  40baa8:	02002021 	move	a0,s0
  40baac:	3c050041 	lui	a1,0x41
  40bab0:	8f9980dc 	lw	t9,-32548(gp)
  40bab4:	0320f809 	jalr	t9
  40bab8:	24a51b88 	addiu	a1,a1,7048
  40babc:	8fbc0018 	lw	gp,24(sp)
  40bac0:	14400011 	bnez	v0,40bb08 <AspInitial@@Base+0x7ba0>
  40bac4:	02002021 	move	a0,s0
  40bac8:	afa00024 	sw	zero,36(sp)
  40bacc:	3c040041 	lui	a0,0x41
  40bad0:	24841b94 	addiu	a0,a0,7060
  40bad4:	02002821 	move	a1,s0
  40bad8:	8f99806c 	lw	t9,-32660(gp)
  40badc:	0320f809 	jalr	t9
  40bae0:	27a60024 	addiu	a2,sp,36
  40bae4:	8fbc0018 	lw	gp,24(sp)
  40bae8:	02202021 	move	a0,s1
  40baec:	3c050041 	lui	a1,0x41
  40baf0:	8fa60024 	lw	a2,36(sp)
[31m  40baf4:	8f9980c8 	lw	t9,fprintf[0m
  40baf8:	0320f809 	jalr	t9
  40bafc:	24a50f14 	addiu	a1,a1,3860
--
  40bbb8:	0320f809 	jalr	t9
  40bbbc:	24a51bd4 	addiu	a1,a1,7124
  40bbc0:	8fbc0018 	lw	gp,24(sp)
  40bbc4:	1440001a 	bnez	v0,40bc30 <AspInitial@@Base+0x7cc8>
  40bbc8:	3c040041 	lui	a0,0x41
  40bbcc:	3c020041 	lui	v0,0x41
  40bbd0:	90422090 	lbu	v0,8336(v0)
  40bbd4:	a3a20028 	sb	v0,40(sp)
  40bbd8:	27a40029 	addiu	a0,sp,41
  40bbdc:	00002821 	move	a1,zero
  40bbe0:	8f998104 	lw	t9,-32508(gp)
  40bbe4:	0320f809 	jalr	t9
  40bbe8:	240600ff 	li	a2,255
  40bbec:	8fbc0018 	lw	gp,24(sp)
  40bbf0:	27b20028 	addiu	s2,sp,40
  40bbf4:	3c040041 	lui	a0,0x41
  40bbf8:	24841b94 	addiu	a0,a0,7060
  40bbfc:	02002821 	move	a1,s0
  40bc00:	8f99806c 	lw	t9,-32660(gp)
  40bc04:	0320f809 	jalr	t9
  40bc08:	02403021 	move	a2,s2
  40bc0c:	8fbc0018 	lw	gp,24(sp)
  40bc10:	02202021 	move	a0,s1
  40bc14:	3c050041 	lui	a1,0x41
  40bc18:	24a5fdec 	addiu	a1,a1,-532
[31m  40bc1c:	8f9980c8 	lw	t9,fprintf[0m
  40bc20:	0320f809 	jalr	t9
  40bc24:	02403021 	move	a2,s2
  40bc28:	1000000f 	b	40bc68 <AspInitial@@Base+0x7d00>
  40bc2c:	00001021 	move	v0,zero
  40bc30:	a3a00020 	sb	zero,32(sp)
  40bc34:	24841b94 	addiu	a0,a0,7060
  40bc38:	02002821 	move	a1,s0
  40bc3c:	8f99806c 	lw	t9,-32660(gp)
  40bc40:	0320f809 	jalr	t9
  40bc44:	27a60020 	addiu	a2,sp,32
  40bc48:	8fbc0018 	lw	gp,24(sp)
  40bc4c:	02202021 	move	a0,s1
  40bc50:	3c050041 	lui	a1,0x41
  40bc54:	93a60020 	lbu	a2,32(sp)
[31m  40bc58:	8f9980c8 	lw	t9,fprintf[0m
  40bc5c:	0320f809 	jalr	t9
  40bc60:	24a50dac 	addiu	a1,a1,3500
--
  40bc7c:	27bd0138 	addiu	sp,sp,312
  40bc80:	27bdfee0 	addiu	sp,sp,-288
  40bc84:	afbf011c 	sw	ra,284(sp)
  40bc88:	afb70118 	sw	s7,280(sp)
  40bc8c:	afb60114 	sw	s6,276(sp)
  40bc90:	afb50110 	sw	s5,272(sp)
  40bc94:	afb4010c 	sw	s4,268(sp)
  40bc98:	afb30108 	sw	s3,264(sp)
  40bc9c:	afb20104 	sw	s2,260(sp)
  40bca0:	afb10100 	sw	s1,256(sp)
  40bca4:	afb000fc 	sw	s0,252(sp)
  40bca8:	3c1c0043 	lui	gp,0x43
  40bcac:	279ca840 	addiu	gp,gp,-22464
  40bcb0:	afbc0010 	sw	gp,16(sp)
  40bcb4:	00a0b021 	move	s6,a1
  40bcb8:	3c040041 	lui	a0,0x41
  40bcbc:	2484fcd0 	addiu	a0,a0,-816
  40bcc0:	8f9980b4 	lw	t9,-32588(gp)
  40bcc4:	0320f809 	jalr	t9
  40bcc8:	27a50060 	addiu	a1,sp,96
  40bccc:	8fbc0010 	lw	gp,16(sp)
  40bcd0:	10400008 	beqz	v0,40bcf4 <AspInitial@@Base+0x7d8c>
  40bcd4:	02c02021 	move	a0,s6
  40bcd8:	3c050041 	lui	a1,0x41
  40bcdc:	24a51be0 	addiu	a1,a1,7136
[31m  40bce0:	8f9980c8 	lw	t9,fprintf[0m
  40bce4:	0320f809 	jalr	t9
  40bce8:	00003021 	move	a2,zero
--
  40be20:	02802021 	move	a0,s4
  40be24:	8fbc0010 	lw	gp,16(sp)
  40be28:	8e040004 	lw	a0,4(s0)
  40be2c:	8f9981c4 	lw	t9,-32316(gp)
  40be30:	0320f809 	jalr	t9
  40be34:	27a50018 	addiu	a1,sp,24
  40be38:	8fbc0010 	lw	gp,16(sp)
  40be3c:	14400016 	bnez	v0,40be98 <AspInitial@@Base+0x7f30>
  40be40:	3c050041 	lui	a1,0x41
  40be44:	8e040000 	lw	a0,0(s0)
  40be48:	8f9980dc 	lw	t9,-32548(gp)
  40be4c:	0320f809 	jalr	t9
  40be50:	24a51bf8 	addiu	a1,a1,7160
  40be54:	8fbc0010 	lw	gp,16(sp)
  40be58:	10400010 	beqz	v0,40be9c <AspInitial@@Base+0x7f34>
  40be5c:	02c02021 	move	a0,s6
  40be60:	8fa6001c 	lw	a2,28(sp)
  40be64:	24c203ff 	addiu	v0,a2,1023
  40be68:	28c30000 	slti	v1,a2,0
  40be6c:	0043300b 	0x43300b
  40be70:	00063283 	sra	a2,a2,0xa
  40be74:	3c050041 	lui	a1,0x41
  40be78:	24a51c00 	addiu	a1,a1,7168
  40be7c:	8fa20024 	lw	v0,36(sp)
  40be80:	00c20018 	mult	a2,v0
[31m  40be84:	8f9980c8 	lw	t9,fprintf[0m
  40be88:	0320f809 	jalr	t9
  40be8c:	00003012 	mflo	a2
  40be90:	1000000f 	b	40bed0 <AspInitial@@Base+0x7f68>
  40be94:	00001021 	move	v0,zero
  40be98:	02c02021 	move	a0,s6
  40be9c:	3c050041 	lui	a1,0x41
  40bea0:	24a51be0 	addiu	a1,a1,7136
[31m  40bea4:	8f9980c8 	lw	t9,fprintf[0m
  40bea8:	0320f809 	jalr	t9
  40beac:	00003021 	move	a2,zero
  40beb0:	10000007 	b	40bed0 <AspInitial@@Base+0x7f68>
  40beb4:	00001021 	move	v0,zero
  40beb8:	3c050041 	lui	a1,0x41
  40bebc:	24a51be0 	addiu	a1,a1,7136
[31m  40bec0:	8f9980c8 	lw	t9,fprintf[0m
  40bec4:	0320f809 	jalr	t9
  40bec8:	00003021 	move	a2,zero
  40becc:	00001021 	move	v0,zero
  40bed0:	8fbf011c 	lw	ra,284(sp)
  40bed4:	8fb70118 	lw	s7,280(sp)
  40bed8:	8fb60114 	lw	s6,276(sp)
  40bedc:	8fb50110 	lw	s5,272(sp)
  40bee0:	8fb4010c 	lw	s4,268(sp)
  40bee4:	8fb30108 	lw	s3,264(sp)
  40bee8:	8fb20104 	lw	s2,260(sp)
  40beec:	8fb10100 	lw	s1,256(sp)
  40bef0:	8fb000fc 	lw	s0,252(sp)
  40bef4:	03e00008 	jr	ra
  40bef8:	27bd0120 	addiu	sp,sp,288
  40befc:	8f998130 	lw	t9,-32464(gp)
  40bf00:	0320f809 	jalr	t9
  40bf04:	02802021 	move	a0,s4
  40bf08:	8fbc0010 	lw	gp,16(sp)
  40bf0c:	02c02021 	move	a0,s6
  40bf10:	3c050041 	lui	a1,0x41
  40bf14:	24a51be0 	addiu	a1,a1,7136
[31m  40bf18:	8f9980c8 	lw	t9,fprintf[0m
  40bf1c:	0320f809 	jalr	t9
  40bf20:	00003021 	move	a2,zero
--
  40bf28:	00001021 	move	v0,zero
  40bf2c:	27bdfee0 	addiu	sp,sp,-288
  40bf30:	afbf011c 	sw	ra,284(sp)
  40bf34:	afb70118 	sw	s7,280(sp)
  40bf38:	afb60114 	sw	s6,276(sp)
  40bf3c:	afb50110 	sw	s5,272(sp)
  40bf40:	afb4010c 	sw	s4,268(sp)
  40bf44:	afb30108 	sw	s3,264(sp)
  40bf48:	afb20104 	sw	s2,260(sp)
  40bf4c:	afb10100 	sw	s1,256(sp)
  40bf50:	afb000fc 	sw	s0,252(sp)
  40bf54:	3c1c0043 	lui	gp,0x43
  40bf58:	279ca840 	addiu	gp,gp,-22464
  40bf5c:	afbc0010 	sw	gp,16(sp)
  40bf60:	00a0b021 	move	s6,a1
  40bf64:	3c040041 	lui	a0,0x41
  40bf68:	2484fcd0 	addiu	a0,a0,-816
  40bf6c:	8f9980b4 	lw	t9,-32588(gp)
  40bf70:	0320f809 	jalr	t9
  40bf74:	27a50060 	addiu	a1,sp,96
  40bf78:	8fbc0010 	lw	gp,16(sp)
  40bf7c:	10400008 	beqz	v0,40bfa0 <AspInitial@@Base+0x8038>
  40bf80:	02c02021 	move	a0,s6
  40bf84:	3c050041 	lui	a1,0x41
  40bf88:	24a51be0 	addiu	a1,a1,7136
[31m  40bf8c:	8f9980c8 	lw	t9,fprintf[0m
  40bf90:	0320f809 	jalr	t9
  40bf94:	00003021 	move	a2,zero
--
  40c0cc:	02802021 	move	a0,s4
  40c0d0:	8fbc0010 	lw	gp,16(sp)
  40c0d4:	8e040004 	lw	a0,4(s0)
  40c0d8:	8f9981c4 	lw	t9,-32316(gp)
  40c0dc:	0320f809 	jalr	t9
  40c0e0:	27a50018 	addiu	a1,sp,24
  40c0e4:	8fbc0010 	lw	gp,16(sp)
  40c0e8:	14400016 	bnez	v0,40c144 <AspInitial@@Base+0x81dc>
  40c0ec:	3c050041 	lui	a1,0x41
  40c0f0:	8e040000 	lw	a0,0(s0)
  40c0f4:	8f9980dc 	lw	t9,-32548(gp)
  40c0f8:	0320f809 	jalr	t9
  40c0fc:	24a51bf8 	addiu	a1,a1,7160
  40c100:	8fbc0010 	lw	gp,16(sp)
  40c104:	10400010 	beqz	v0,40c148 <AspInitial@@Base+0x81e0>
  40c108:	02c02021 	move	a0,s6
  40c10c:	8fa6001c 	lw	a2,28(sp)
  40c110:	24c203ff 	addiu	v0,a2,1023
  40c114:	28c30000 	slti	v1,a2,0
  40c118:	0043300b 	0x43300b
  40c11c:	00063283 	sra	a2,a2,0xa
  40c120:	3c050041 	lui	a1,0x41
  40c124:	24a51c00 	addiu	a1,a1,7168
  40c128:	8fa20034 	lw	v0,52(sp)
  40c12c:	00c20018 	mult	a2,v0
[31m  40c130:	8f9980c8 	lw	t9,fprintf[0m
  40c134:	0320f809 	jalr	t9
  40c138:	00003012 	mflo	a2
  40c13c:	1000000f 	b	40c17c <AspInitial@@Base+0x8214>
  40c140:	00001021 	move	v0,zero
  40c144:	02c02021 	move	a0,s6
  40c148:	3c050041 	lui	a1,0x41
  40c14c:	24a51be0 	addiu	a1,a1,7136
[31m  40c150:	8f9980c8 	lw	t9,fprintf[0m
  40c154:	0320f809 	jalr	t9
  40c158:	00003021 	move	a2,zero
  40c15c:	10000007 	b	40c17c <AspInitial@@Base+0x8214>
  40c160:	00001021 	move	v0,zero
  40c164:	3c050041 	lui	a1,0x41
  40c168:	24a51be0 	addiu	a1,a1,7136
[31m  40c16c:	8f9980c8 	lw	t9,fprintf[0m
  40c170:	0320f809 	jalr	t9
  40c174:	00003021 	move	a2,zero
  40c178:	00001021 	move	v0,zero
  40c17c:	8fbf011c 	lw	ra,284(sp)
  40c180:	8fb70118 	lw	s7,280(sp)
  40c184:	8fb60114 	lw	s6,276(sp)
  40c188:	8fb50110 	lw	s5,272(sp)
  40c18c:	8fb4010c 	lw	s4,268(sp)
  40c190:	8fb30108 	lw	s3,264(sp)
  40c194:	8fb20104 	lw	s2,260(sp)
  40c198:	8fb10100 	lw	s1,256(sp)
  40c19c:	8fb000fc 	lw	s0,252(sp)
  40c1a0:	03e00008 	jr	ra
  40c1a4:	27bd0120 	addiu	sp,sp,288
  40c1a8:	8f998130 	lw	t9,-32464(gp)
  40c1ac:	0320f809 	jalr	t9
  40c1b0:	02802021 	move	a0,s4
  40c1b4:	8fbc0010 	lw	gp,16(sp)
  40c1b8:	02c02021 	move	a0,s6
  40c1bc:	3c050041 	lui	a1,0x41
  40c1c0:	24a51be0 	addiu	a1,a1,7136
[31m  40c1c4:	8f9980c8 	lw	t9,fprintf[0m
  40c1c8:	0320f809 	jalr	t9
  40c1cc:	00003021 	move	a2,zero
--
  40c1dc:	afbf0024 	sw	ra,36(sp)
  40c1e0:	afb00020 	sw	s0,32(sp)
  40c1e4:	3c1c0043 	lui	gp,0x43
  40c1e8:	279ca840 	addiu	gp,gp,-22464
  40c1ec:	afbc0010 	sw	gp,16(sp)
  40c1f0:	00a08021 	move	s0,a1
  40c1f4:	afa00018 	sw	zero,24(sp)
  40c1f8:	24040002 	li	a0,2
  40c1fc:	8f998188 	lw	t9,-32376(gp)
  40c200:	0320f809 	jalr	t9
  40c204:	27a50018 	addiu	a1,sp,24
  40c208:	8fbc0010 	lw	gp,16(sp)
  40c20c:	8fa20018 	lw	v0,24(sp)
  40c210:	10400009 	beqz	v0,40c238 <AspInitial@@Base+0x82d0>
  40c214:	02002021 	move	a0,s0
  40c218:	8f9980e4 	lw	t9,-32540(gp)
  40c21c:	0320f809 	jalr	t9
  40c220:	00000000 	nop
  40c224:	8fbc0010 	lw	gp,16(sp)
  40c228:	10400002 	beqz	v0,40c234 <AspInitial@@Base+0x82cc>
  40c22c:	24020002 	li	v0,2
  40c230:	afa20018 	sw	v0,24(sp)
  40c234:	02002021 	move	a0,s0
  40c238:	3c050041 	lui	a1,0x41
  40c23c:	8fa60018 	lw	a2,24(sp)
[31m  40c240:	8f9980c8 	lw	t9,fprintf[0m
  40c244:	0320f809 	jalr	t9
  40c248:	24a50f14 	addiu	a1,a1,3860
--
  40c47c:	a3a00018 	sb	zero,24(sp)
  40c480:	3c040041 	lui	a0,0x41
  40c484:	24841c24 	addiu	a0,a0,7204
  40c488:	3c050041 	lui	a1,0x41
  40c48c:	24a50f90 	addiu	a1,a1,3984
  40c490:	8f99806c 	lw	t9,-32660(gp)
  40c494:	0320f809 	jalr	t9
  40c498:	27a60018 	addiu	a2,sp,24
  40c49c:	8fbc0010 	lw	gp,16(sp)
  40c4a0:	93a20018 	lbu	v0,24(sp)
  40c4a4:	10400013 	beqz	v0,40c4f4 <AspInitial@@Base+0x858c>
  40c4a8:	3c040041 	lui	a0,0x41
  40c4ac:	8f998048 	lw	t9,-32696(gp)
  40c4b0:	0320f809 	jalr	t9
  40c4b4:	24841c30 	addiu	a0,a0,7216
  40c4b8:	8fbc0010 	lw	gp,16(sp)
  40c4bc:	1040000d 	beqz	v0,40c4f4 <AspInitial@@Base+0x858c>
  40c4c0:	3c040041 	lui	a0,0x41
  40c4c4:	8f998220 	lw	t9,-32224(gp)
  40c4c8:	0320f809 	jalr	t9
  40c4cc:	24841c30 	addiu	a0,a0,7216
  40c4d0:	8fbc0010 	lw	gp,16(sp)
  40c4d4:	02202021 	move	a0,s1
  40c4d8:	3c050041 	lui	a1,0x41
  40c4dc:	24a50f14 	addiu	a1,a1,3860
[31m  40c4e0:	8f9980c8 	lw	t9,fprintf[0m
  40c4e4:	0320f809 	jalr	t9
  40c4e8:	00403021 	move	a2,v0
  40c4ec:	10000037 	b	40c5cc <AspInitial@@Base+0x8664>
  40c4f0:	00001021 	move	v0,zero
  40c4f4:	afa0001c 	sw	zero,28(sp)
  40c4f8:	3c040041 	lui	a0,0x41
  40c4fc:	24841c24 	addiu	a0,a0,7204
  40c500:	3c050041 	lui	a1,0x41
  40c504:	24a51c1c 	addiu	a1,a1,7196
  40c508:	8f99806c 	lw	t9,-32660(gp)
  40c50c:	0320f809 	jalr	t9
  40c510:	27a6001c 	addiu	a2,sp,28
  40c514:	8fbc0010 	lw	gp,16(sp)
  40c518:	02202021 	move	a0,s1
  40c51c:	3c050041 	lui	a1,0x41
  40c520:	8fa6001c 	lw	a2,28(sp)
[31m  40c524:	8f9980c8 	lw	t9,fprintf[0m
  40c528:	0320f809 	jalr	t9
  40c52c:	24a50f14 	addiu	a1,a1,3860
--
  40c540:	0320f809 	jalr	t9
  40c544:	24a51c3c 	addiu	a1,a1,7228
  40c548:	8fbc0010 	lw	gp,16(sp)
  40c54c:	1440001f 	bnez	v0,40c5cc <AspInitial@@Base+0x8664>
  40c550:	00001021 	move	v0,zero
  40c554:	a3a00018 	sb	zero,24(sp)
  40c558:	3c040041 	lui	a0,0x41
  40c55c:	24841c24 	addiu	a0,a0,7204
  40c560:	3c050041 	lui	a1,0x41
  40c564:	24a50f90 	addiu	a1,a1,3984
  40c568:	8f99806c 	lw	t9,-32660(gp)
  40c56c:	0320f809 	jalr	t9
  40c570:	27a60018 	addiu	a2,sp,24
  40c574:	8fbc0010 	lw	gp,16(sp)
  40c578:	93a20018 	lbu	v0,24(sp)
  40c57c:	1040000e 	beqz	v0,40c5b8 <AspInitial@@Base+0x8650>
  40c580:	02202021 	move	a0,s1
  40c584:	3c040041 	lui	a0,0x41
  40c588:	8f998048 	lw	t9,-32696(gp)
  40c58c:	0320f809 	jalr	t9
  40c590:	24841c30 	addiu	a0,a0,7216
  40c594:	8fbc0010 	lw	gp,16(sp)
  40c598:	10400007 	beqz	v0,40c5b8 <AspInitial@@Base+0x8650>
  40c59c:	02202021 	move	a0,s1
  40c5a0:	3c050041 	lui	a1,0x41
[31m  40c5a4:	8f9980c8 	lw	t9,fprintf[0m
  40c5a8:	0320f809 	jalr	t9
  40c5ac:	24a50060 	addiu	a1,a1,96
  40c5b0:	10000006 	b	40c5cc <AspInitial@@Base+0x8664>
  40c5b4:	00001021 	move	v0,zero
  40c5b8:	3c050041 	lui	a1,0x41
[31m  40c5bc:	8f9980c8 	lw	t9,fprintf[0m
  40c5c0:	0320f809 	jalr	t9
  40c5c4:	24a510e0 	addiu	a1,a1,4320
--
  40c5fc:	00808021 	move	s0,a0
  40c600:	108000f2 	beqz	a0,40c9cc <AspInitial@@Base+0x8a64>
  40c604:	00a08821 	move	s1,a1
  40c608:	3c050041 	lui	a1,0x41
  40c60c:	8f9980dc 	lw	t9,-32548(gp)
  40c610:	0320f809 	jalr	t9
  40c614:	24a51c44 	addiu	a1,a1,7236
  40c618:	8fbc0020 	lw	gp,32(sp)
  40c61c:	14400015 	bnez	v0,40c674 <AspInitial@@Base+0x870c>
  40c620:	02002021 	move	a0,s0
  40c624:	afa00028 	sw	zero,40(sp)
  40c628:	3c040041 	lui	a0,0x41
  40c62c:	24841c48 	addiu	a0,a0,7240
  40c630:	8f9981bc 	lw	t9,-32324(gp)
  40c634:	0320f809 	jalr	t9
  40c638:	27a50028 	addiu	a1,sp,40
  40c63c:	8fbc0020 	lw	gp,32(sp)
  40c640:	8fa40028 	lw	a0,40(sp)
  40c644:	8f9980f0 	lw	t9,-32528(gp)
  40c648:	0320f809 	jalr	t9
  40c64c:	00000000 	nop
  40c650:	8fbc0020 	lw	gp,32(sp)
  40c654:	02202021 	move	a0,s1
  40c658:	3c050041 	lui	a1,0x41
  40c65c:	24a5fdec 	addiu	a1,a1,-532
[31m  40c660:	8f9980c8 	lw	t9,fprintf[0m
  40c664:	0320f809 	jalr	t9
  40c668:	00403021 	move	a2,v0
  40c66c:	100000d8 	b	40c9d0 <AspInitial@@Base+0x8a68>
  40c670:	00001021 	move	v0,zero
  40c674:	3c050041 	lui	a1,0x41
  40c678:	8f9980dc 	lw	t9,-32548(gp)
  40c67c:	0320f809 	jalr	t9
  40c680:	24a51c4c 	addiu	a1,a1,7244
  40c684:	8fbc0020 	lw	gp,32(sp)
  40c688:	14400015 	bnez	v0,40c6e0 <AspInitial@@Base+0x8778>
  40c68c:	02002021 	move	a0,s0
  40c690:	afa00028 	sw	zero,40(sp)
  40c694:	3c040041 	lui	a0,0x41
  40c698:	24841c48 	addiu	a0,a0,7240
  40c69c:	8f9980f8 	lw	t9,-32520(gp)
  40c6a0:	0320f809 	jalr	t9
  40c6a4:	27a50028 	addiu	a1,sp,40
  40c6a8:	8fbc0020 	lw	gp,32(sp)
  40c6ac:	8fa40028 	lw	a0,40(sp)
  40c6b0:	8f9980f0 	lw	t9,-32528(gp)
  40c6b4:	0320f809 	jalr	t9
  40c6b8:	00000000 	nop
  40c6bc:	8fbc0020 	lw	gp,32(sp)
  40c6c0:	02202021 	move	a0,s1
  40c6c4:	3c050041 	lui	a1,0x41
  40c6c8:	24a5fdec 	addiu	a1,a1,-532
[31m  40c6cc:	8f9980c8 	lw	t9,fprintf[0m
  40c6d0:	0320f809 	jalr	t9
  40c6d4:	00403021 	move	a2,v0
  40c6d8:	100000bd 	b	40c9d0 <AspInitial@@Base+0x8a68>
  40c6dc:	00001021 	move	v0,zero
  40c6e0:	3c050041 	lui	a1,0x41
  40c6e4:	8f9980dc 	lw	t9,-32548(gp)
  40c6e8:	0320f809 	jalr	t9
  40c6ec:	24a51c58 	addiu	a1,a1,7256
  40c6f0:	8fbc0020 	lw	gp,32(sp)
  40c6f4:	14400013 	bnez	v0,40c744 <AspInitial@@Base+0x87dc>
  40c6f8:	02002021 	move	a0,s0
  40c6fc:	afa00028 	sw	zero,40(sp)
  40c700:	8f998040 	lw	t9,-32704(gp)
  40c704:	0320f809 	jalr	t9
  40c708:	27a40028 	addiu	a0,sp,40
  40c70c:	8fbc0020 	lw	gp,32(sp)
  40c710:	8fa40028 	lw	a0,40(sp)
  40c714:	8f9980f0 	lw	t9,-32528(gp)
  40c718:	0320f809 	jalr	t9
  40c71c:	00000000 	nop
  40c720:	8fbc0020 	lw	gp,32(sp)
  40c724:	02202021 	move	a0,s1
  40c728:	3c050041 	lui	a1,0x41
  40c72c:	24a5fdec 	addiu	a1,a1,-532
[31m  40c730:	8f9980c8 	lw	t9,fprintf[0m
  40c734:	0320f809 	jalr	t9
  40c738:	00403021 	move	a2,v0
  40c73c:	100000a4 	b	40c9d0 <AspInitial@@Base+0x8a68>
  40c740:	00001021 	move	v0,zero
  40c744:	3c050041 	lui	a1,0x41
  40c748:	8f9980dc 	lw	t9,-32548(gp)
  40c74c:	0320f809 	jalr	t9
  40c750:	24a51c60 	addiu	a1,a1,7264
  40c754:	8fbc0020 	lw	gp,32(sp)
  40c758:	14400013 	bnez	v0,40c7a8 <AspInitial@@Base+0x8840>
  40c75c:	02002021 	move	a0,s0
  40c760:	afa00028 	sw	zero,40(sp)
  40c764:	8f998160 	lw	t9,-32416(gp)
  40c768:	0320f809 	jalr	t9
  40c76c:	27a40028 	addiu	a0,sp,40
  40c770:	8fbc0020 	lw	gp,32(sp)
  40c774:	8fa40028 	lw	a0,40(sp)
  40c778:	8f9980f0 	lw	t9,-32528(gp)
  40c77c:	0320f809 	jalr	t9
  40c780:	00000000 	nop
  40c784:	8fbc0020 	lw	gp,32(sp)
  40c788:	02202021 	move	a0,s1
  40c78c:	3c050041 	lui	a1,0x41
  40c790:	24a5fdec 	addiu	a1,a1,-532
[31m  40c794:	8f9980c8 	lw	t9,fprintf[0m
  40c798:	0320f809 	jalr	t9
  40c79c:	00403021 	move	a2,v0
  40c7a0:	1000008b 	b	40c9d0 <AspInitial@@Base+0x8a68>
  40c7a4:	00001021 	move	v0,zero
  40c7a8:	3c050041 	lui	a1,0x41
  40c7ac:	8f9980dc 	lw	t9,-32548(gp)
  40c7b0:	0320f809 	jalr	t9
  40c7b4:	24a51c68 	addiu	a1,a1,7272
  40c7b8:	8fbc0020 	lw	gp,32(sp)
  40c7bc:	14400013 	bnez	v0,40c80c <AspInitial@@Base+0x88a4>
  40c7c0:	02002021 	move	a0,s0
  40c7c4:	afa00028 	sw	zero,40(sp)
  40c7c8:	8f99811c 	lw	t9,-32484(gp)
  40c7cc:	0320f809 	jalr	t9
  40c7d0:	27a40028 	addiu	a0,sp,40
  40c7d4:	8fbc0020 	lw	gp,32(sp)
  40c7d8:	8fa40028 	lw	a0,40(sp)
  40c7dc:	8f9980f0 	lw	t9,-32528(gp)
  40c7e0:	0320f809 	jalr	t9
  40c7e4:	00000000 	nop
  40c7e8:	8fbc0020 	lw	gp,32(sp)
  40c7ec:	02202021 	move	a0,s1
  40c7f0:	3c050041 	lui	a1,0x41
  40c7f4:	24a5fdec 	addiu	a1,a1,-532
[31m  40c7f8:	8f9980c8 	lw	t9,fprintf[0m
  40c7fc:	0320f809 	jalr	t9
  40c800:	00403021 	move	a2,v0
--
  40c884:	27b0002c 	addiu	s0,sp,44
  40c888:	02002021 	move	a0,s0
  40c88c:	00002821 	move	a1,zero
  40c890:	8f998104 	lw	t9,-32508(gp)
  40c894:	0320f809 	jalr	t9
  40c898:	24060100 	li	a2,256
  40c89c:	8fbc0020 	lw	gp,32(sp)
  40c8a0:	3c040041 	lui	a0,0x41
  40c8a4:	24841c48 	addiu	a0,a0,7240
  40c8a8:	8f998150 	lw	t9,-32432(gp)
  40c8ac:	0320f809 	jalr	t9
  40c8b0:	02002821 	move	a1,s0
  40c8b4:	8fbc0020 	lw	gp,32(sp)
  40c8b8:	93a6002c 	lbu	a2,44(sp)
  40c8bc:	93a7002d 	lbu	a3,45(sp)
  40c8c0:	93a2002e 	lbu	v0,46(sp)
  40c8c4:	afa20010 	sw	v0,16(sp)
  40c8c8:	93a2002f 	lbu	v0,47(sp)
  40c8cc:	afa20014 	sw	v0,20(sp)
  40c8d0:	93a20030 	lbu	v0,48(sp)
  40c8d4:	afa20018 	sw	v0,24(sp)
  40c8d8:	93a20031 	lbu	v0,49(sp)
  40c8dc:	afa2001c 	sw	v0,28(sp)
  40c8e0:	02202021 	move	a0,s1
  40c8e4:	3c050041 	lui	a1,0x41
[31m  40c8e8:	8f9980c8 	lw	t9,fprintf[0m
  40c8ec:	0320f809 	jalr	t9
  40c8f0:	24a51c8c 	addiu	a1,a1,7308
  40c8f4:	10000036 	b	40c9d0 <AspInitial@@Base+0x8a68>
  40c8f8:	00001021 	move	v0,zero
  40c8fc:	3c050041 	lui	a1,0x41
  40c900:	8f9980dc 	lw	t9,-32548(gp)
  40c904:	0320f809 	jalr	t9
  40c908:	24a51cac 	addiu	a1,a1,7340
  40c90c:	8fbc0020 	lw	gp,32(sp)
  40c910:	14400015 	bnez	v0,40c968 <AspInitial@@Base+0x8a00>
  40c914:	02002021 	move	a0,s0
  40c918:	afa00028 	sw	zero,40(sp)
  40c91c:	24040005 	li	a0,5
  40c920:	27a50028 	addiu	a1,sp,40
  40c924:	8f998218 	lw	t9,-32232(gp)
  40c928:	0320f809 	jalr	t9
  40c92c:	24060004 	li	a2,4
  40c930:	8fbc0020 	lw	gp,32(sp)
  40c934:	8fa40028 	lw	a0,40(sp)
  40c938:	8f9980f0 	lw	t9,-32528(gp)
  40c93c:	0320f809 	jalr	t9
  40c940:	00000000 	nop
  40c944:	8fbc0020 	lw	gp,32(sp)
  40c948:	02202021 	move	a0,s1
  40c94c:	3c050041 	lui	a1,0x41
  40c950:	24a5fdec 	addiu	a1,a1,-532
[31m  40c954:	8f9980c8 	lw	t9,fprintf[0m
  40c958:	0320f809 	jalr	t9
  40c95c:	00403021 	move	a2,v0
  40c960:	1000001b 	b	40c9d0 <AspInitial@@Base+0x8a68>
  40c964:	00001021 	move	v0,zero
  40c968:	3c050041 	lui	a1,0x41
  40c96c:	8f9980dc 	lw	t9,-32548(gp)
  40c970:	0320f809 	jalr	t9
  40c974:	24a51cb4 	addiu	a1,a1,7348
  40c978:	8fbc0020 	lw	gp,32(sp)
  40c97c:	14400014 	bnez	v0,40c9d0 <AspInitial@@Base+0x8a68>
  40c980:	00001021 	move	v0,zero
  40c984:	afa00028 	sw	zero,40(sp)
  40c988:	3c040041 	lui	a0,0x41
  40c98c:	24841cbc 	addiu	a0,a0,7356
  40c990:	8f9981bc 	lw	t9,-32324(gp)
  40c994:	0320f809 	jalr	t9
  40c998:	27a50028 	addiu	a1,sp,40
  40c99c:	8fbc0020 	lw	gp,32(sp)
  40c9a0:	8fa40028 	lw	a0,40(sp)
  40c9a4:	8f9980f0 	lw	t9,-32528(gp)
  40c9a8:	0320f809 	jalr	t9
  40c9ac:	00000000 	nop
  40c9b0:	8fbc0020 	lw	gp,32(sp)
  40c9b4:	02202021 	move	a0,s1
  40c9b8:	3c050041 	lui	a1,0x41
  40c9bc:	24a5fdec 	addiu	a1,a1,-532
[31m  40c9c0:	8f9980c8 	lw	t9,fprintf[0m
  40c9c4:	0320f809 	jalr	t9
  40c9c8:	00403021 	move	a2,v0
--
  40cbdc:	8fb402c8 	lw	s4,712(sp)
  40cbe0:	8fb302c4 	lw	s3,708(sp)
  40cbe4:	8fb202c0 	lw	s2,704(sp)
  40cbe8:	8fb102bc 	lw	s1,700(sp)
  40cbec:	8fb002b8 	lw	s0,696(sp)
  40cbf0:	03e00008 	jr	ra
  40cbf4:	27bd02e0 	addiu	sp,sp,736
  40cbf8:	27bdffd8 	addiu	sp,sp,-40
  40cbfc:	afbf0024 	sw	ra,36(sp)
  40cc00:	afb10020 	sw	s1,32(sp)
  40cc04:	afb0001c 	sw	s0,28(sp)
  40cc08:	3c1c0043 	lui	gp,0x43
  40cc0c:	279ca840 	addiu	gp,gp,-22464
  40cc10:	afbc0010 	sw	gp,16(sp)
  40cc14:	00a08821 	move	s1,a1
  40cc18:	1080000e 	beqz	a0,40cc54 <AspInitial@@Base+0x8cec>
  40cc1c:	00e08021 	move	s0,a3
  40cc20:	3c050041 	lui	a1,0x41
  40cc24:	8f9980dc 	lw	t9,-32548(gp)
  40cc28:	0320f809 	jalr	t9
  40cc2c:	24a51d10 	addiu	a1,a1,7440
  40cc30:	8fbc0010 	lw	gp,16(sp)
  40cc34:	14400007 	bnez	v0,40cc54 <AspInitial@@Base+0x8cec>
  40cc38:	02202021 	move	a0,s1
  40cc3c:	3c050041 	lui	a1,0x41
[31m  40cc40:	8f9980c8 	lw	t9,fprintf[0m
  40cc44:	0320f809 	jalr	t9
  40cc48:	24a51d18 	addiu	a1,a1,7448
  40cc4c:	10000011 	b	40cc94 <AspInitial@@Base+0x8d2c>
  40cc50:	00001021 	move	v0,zero
  40cc54:	1200000e 	beqz	s0,40cc90 <AspInitial@@Base+0x8d28>
  40cc58:	02002021 	move	a0,s0
  40cc5c:	3c050041 	lui	a1,0x41
  40cc60:	8f99816c 	lw	t9,-32404(gp)
  40cc64:	0320f809 	jalr	t9
  40cc68:	24a51d3c 	addiu	a1,a1,7484
  40cc6c:	8fbc0010 	lw	gp,16(sp)
  40cc70:	10400007 	beqz	v0,40cc90 <AspInitial@@Base+0x8d28>
  40cc74:	24460006 	addiu	a2,v0,6
  40cc78:	10c00005 	beqz	a2,40cc90 <AspInitial@@Base+0x8d28>
  40cc7c:	02202021 	move	a0,s1
  40cc80:	3c050041 	lui	a1,0x41
[31m  40cc84:	8f9980c8 	lw	t9,fprintf[0m
  40cc88:	0320f809 	jalr	t9
  40cc8c:	24a5fdec 	addiu	a1,a1,-532
--
  40d78c:	afbf0034 	sw	ra,52(sp)
  40d790:	afb10030 	sw	s1,48(sp)
  40d794:	afb0002c 	sw	s0,44(sp)
  40d798:	3c1c0043 	lui	gp,0x43
  40d79c:	279ca840 	addiu	gp,gp,-22464
  40d7a0:	afbc0018 	sw	gp,24(sp)
  40d7a4:	8f998050 	lw	t9,-32688(gp)
  40d7a8:	0320f809 	jalr	t9
  40d7ac:	00a08821 	move	s1,a1
  40d7b0:	8fbc0018 	lw	gp,24(sp)
  40d7b4:	27b00020 	addiu	s0,sp,32
  40d7b8:	8f9980ec 	lw	t9,-32532(gp)
  40d7bc:	0320f809 	jalr	t9
  40d7c0:	02002021 	move	a0,s0
  40d7c4:	8fbc0018 	lw	gp,24(sp)
  40d7c8:	8f998108 	lw	t9,-32504(gp)
  40d7cc:	0320f809 	jalr	t9
  40d7d0:	02002021 	move	a0,s0
  40d7d4:	8fbc0018 	lw	gp,24(sp)
  40d7d8:	8c460008 	lw	a2,8(v0)
  40d7dc:	8c470004 	lw	a3,4(v0)
  40d7e0:	8c420000 	lw	v0,0(v0)
  40d7e4:	afa20010 	sw	v0,16(sp)
  40d7e8:	02202021 	move	a0,s1
  40d7ec:	3c050041 	lui	a1,0x41
[31m  40d7f0:	8f9980c8 	lw	t9,fprintf[0m
  40d7f4:	0320f809 	jalr	t9
  40d7f8:	24a51e54 	addiu	a1,a1,7764
--
  40d820:	afb0002c 	sw	s0,44(sp)
  40d824:	3c1c0043 	lui	gp,0x43
  40d828:	279ca840 	addiu	gp,gp,-22464
  40d82c:	afbc0018 	sw	gp,24(sp)
  40d830:	8f998050 	lw	t9,-32688(gp)
  40d834:	0320f809 	jalr	t9
  40d838:	00a08821 	move	s1,a1
  40d83c:	8fbc0018 	lw	gp,24(sp)
  40d840:	27b00020 	addiu	s0,sp,32
  40d844:	8f9980ec 	lw	t9,-32532(gp)
  40d848:	0320f809 	jalr	t9
  40d84c:	02002021 	move	a0,s0
  40d850:	8fbc0018 	lw	gp,24(sp)
  40d854:	8f998108 	lw	t9,-32504(gp)
  40d858:	0320f809 	jalr	t9
  40d85c:	02002021 	move	a0,s0
  40d860:	8fbc0018 	lw	gp,24(sp)
  40d864:	8c460014 	lw	a2,20(v0)
  40d868:	8c470010 	lw	a3,16(v0)
  40d86c:	8c42000c 	lw	v0,12(v0)
  40d870:	afa20010 	sw	v0,16(sp)
  40d874:	02202021 	move	a0,s1
  40d878:	3c050041 	lui	a1,0x41
  40d87c:	24a51e64 	addiu	a1,a1,7780
  40d880:	24c6076c 	addiu	a2,a2,1900
[31m  40d884:	8f9980c8 	lw	t9,fprintf[0m
  40d888:	0320f809 	jalr	t9
  40d88c:	24e70001 	addiu	a3,a3,1
--
  40d8cc:	00a08821 	move	s1,a1
  40d8d0:	8fbc0020 	lw	gp,32(sp)
  40d8d4:	27b00028 	addiu	s0,sp,40
  40d8d8:	8f9980ec 	lw	t9,-32532(gp)
  40d8dc:	0320f809 	jalr	t9
  40d8e0:	02002021 	move	a0,s0
  40d8e4:	8fbc0020 	lw	gp,32(sp)
  40d8e8:	8f998108 	lw	t9,-32504(gp)
  40d8ec:	0320f809 	jalr	t9
  40d8f0:	02002021 	move	a0,s0
  40d8f4:	8fbc0020 	lw	gp,32(sp)
  40d8f8:	8c460014 	lw	a2,20(v0)
  40d8fc:	8c470010 	lw	a3,16(v0)
  40d900:	8c43000c 	lw	v1,12(v0)
  40d904:	afa30010 	sw	v1,16(sp)
  40d908:	8c430008 	lw	v1,8(v0)
  40d90c:	afa30014 	sw	v1,20(sp)
  40d910:	8c430004 	lw	v1,4(v0)
  40d914:	afa30018 	sw	v1,24(sp)
  40d918:	8c420000 	lw	v0,0(v0)
  40d91c:	afa2001c 	sw	v0,28(sp)
  40d920:	02202021 	move	a0,s1
  40d924:	3c050041 	lui	a1,0x41
  40d928:	24a51cc4 	addiu	a1,a1,7364
  40d92c:	24c6076c 	addiu	a2,a2,1900
[31m  40d930:	8f9980c8 	lw	t9,fprintf[0m
  40d934:	0320f809 	jalr	t9
  40d938:	24e70001 	addiu	a3,a3,1
--
  40df84:	24060080 	li	a2,128
  40df88:	8fbc0010 	lw	gp,16(sp)
  40df8c:	27a40098 	addiu	a0,sp,152
  40df90:	00002821 	move	a1,zero
  40df94:	8f998104 	lw	t9,-32508(gp)
  40df98:	0320f809 	jalr	t9
  40df9c:	24060080 	li	a2,128
  40dfa0:	8fbc0010 	lw	gp,16(sp)
  40dfa4:	12000013 	beqz	s0,40dff4 <AspInitial@@Base+0xa08c>
  40dfa8:	02002021 	move	a0,s0
  40dfac:	27a50018 	addiu	a1,sp,24
  40dfb0:	8f9981d0 	lw	t9,-32304(gp)
  40dfb4:	0320f809 	jalr	t9
  40dfb8:	27a60098 	addiu	a2,sp,152
  40dfbc:	8fbc0010 	lw	gp,16(sp)
  40dfc0:	0440000d 	bltz	v0,40dff8 <AspInitial@@Base+0xa090>
  40dfc4:	00001021 	move	v0,zero
  40dfc8:	8f9980a0 	lw	t9,-32608(gp)
  40dfcc:	0320f809 	jalr	t9
  40dfd0:	27a40018 	addiu	a0,sp,24
  40dfd4:	8fbc0010 	lw	gp,16(sp)
  40dfd8:	10400006 	beqz	v0,40dff4 <AspInitial@@Base+0xa08c>
  40dfdc:	00403021 	move	a2,v0
  40dfe0:	02202021 	move	a0,s1
  40dfe4:	3c050041 	lui	a1,0x41
[31m  40dfe8:	8f9980c8 	lw	t9,fprintf[0m
  40dfec:	0320f809 	jalr	t9
  40dff0:	24a5fdec 	addiu	a1,a1,-532
--
  40e040:	0320f809 	jalr	t9
  40e044:	24a51edc 	addiu	a1,a1,7900
  40e048:	8fbc0010 	lw	gp,16(sp)
  40e04c:	1440001a 	bnez	v0,40e0b8 <AspInitial@@Base+0xa150>
  40e050:	02002021 	move	a0,s0
  40e054:	3c020041 	lui	v0,0x41
  40e058:	90422090 	lbu	v0,8336(v0)
  40e05c:	a3a2001c 	sb	v0,28(sp)
  40e060:	27a4001d 	addiu	a0,sp,29
  40e064:	00002821 	move	a1,zero
  40e068:	8f998104 	lw	t9,-32508(gp)
  40e06c:	0320f809 	jalr	t9
  40e070:	240600ff 	li	a2,255
  40e074:	8fbc0010 	lw	gp,16(sp)
  40e078:	27b2001c 	addiu	s2,sp,28
  40e07c:	3c040041 	lui	a0,0x41
  40e080:	24841ee8 	addiu	a0,a0,7912
  40e084:	02002821 	move	a1,s0
  40e088:	8f99806c 	lw	t9,-32660(gp)
  40e08c:	0320f809 	jalr	t9
  40e090:	02403021 	move	a2,s2
  40e094:	8fbc0010 	lw	gp,16(sp)
  40e098:	02202021 	move	a0,s1
  40e09c:	3c050041 	lui	a1,0x41
  40e0a0:	24a5fdec 	addiu	a1,a1,-532
[31m  40e0a4:	8f9980c8 	lw	t9,fprintf[0m
  40e0a8:	0320f809 	jalr	t9
  40e0ac:	02403021 	move	a2,s2
  40e0b0:	10000042 	b	40e1bc <AspInitial@@Base+0xa254>
  40e0b4:	00001021 	move	v0,zero
  40e0b8:	3c050041 	lui	a1,0x41
  40e0bc:	8f9980dc 	lw	t9,-32548(gp)
  40e0c0:	0320f809 	jalr	t9
  40e0c4:	24a51ef8 	addiu	a1,a1,7928
  40e0c8:	8fbc0010 	lw	gp,16(sp)
  40e0cc:	14400011 	bnez	v0,40e114 <AspInitial@@Base+0xa1ac>
  40e0d0:	02002021 	move	a0,s0
  40e0d4:	a3a00018 	sb	zero,24(sp)
  40e0d8:	3c040041 	lui	a0,0x41
  40e0dc:	24841ee8 	addiu	a0,a0,7912
  40e0e0:	02002821 	move	a1,s0
  40e0e4:	8f99806c 	lw	t9,-32660(gp)
  40e0e8:	0320f809 	jalr	t9
  40e0ec:	27a60018 	addiu	a2,sp,24
  40e0f0:	8fbc0010 	lw	gp,16(sp)
  40e0f4:	02202021 	move	a0,s1
  40e0f8:	3c050041 	lui	a1,0x41
  40e0fc:	93a60018 	lbu	a2,24(sp)
[31m  40e100:	8f9980c8 	lw	t9,fprintf[0m
  40e104:	0320f809 	jalr	t9
  40e108:	24a50dac 	addiu	a1,a1,3500
  40e10c:	1000002b 	b	40e1bc <AspInitial@@Base+0xa254>
  40e110:	00001021 	move	v0,zero
  40e114:	3c050041 	lui	a1,0x41
  40e118:	8f9980dc 	lw	t9,-32548(gp)
  40e11c:	0320f809 	jalr	t9
  40e120:	24a51f08 	addiu	a1,a1,7944
  40e124:	8fbc0010 	lw	gp,16(sp)
  40e128:	14400016 	bnez	v0,40e184 <AspInitial@@Base+0xa21c>
  40e12c:	3c040041 	lui	a0,0x41
  40e130:	afa00018 	sw	zero,24(sp)
  40e134:	24841ee8 	addiu	a0,a0,7912
  40e138:	02002821 	move	a1,s0
  40e13c:	8f99806c 	lw	t9,-32660(gp)
  40e140:	0320f809 	jalr	t9
  40e144:	27a60018 	addiu	a2,sp,24
  40e148:	8fbc0010 	lw	gp,16(sp)
  40e14c:	8fa50018 	lw	a1,24(sp)
  40e150:	8f998178 	lw	t9,-32392(gp)
  40e154:	0320f809 	jalr	t9
  40e158:	24040002 	li	a0,2
  40e15c:	8fbc0010 	lw	gp,16(sp)
  40e160:	afa20018 	sw	v0,24(sp)
  40e164:	02202021 	move	a0,s1
  40e168:	3c050041 	lui	a1,0x41
  40e16c:	24a50f14 	addiu	a1,a1,3860
[31m  40e170:	8f9980c8 	lw	t9,fprintf[0m
  40e174:	0320f809 	jalr	t9
  40e178:	00403021 	move	a2,v0
  40e17c:	1000000f 	b	40e1bc <AspInitial@@Base+0xa254>
  40e180:	00001021 	move	v0,zero
  40e184:	afa00018 	sw	zero,24(sp)
  40e188:	24841ee8 	addiu	a0,a0,7912
  40e18c:	02002821 	move	a1,s0
  40e190:	8f99806c 	lw	t9,-32660(gp)
  40e194:	0320f809 	jalr	t9
  40e198:	27a60018 	addiu	a2,sp,24
  40e19c:	8fbc0010 	lw	gp,16(sp)
  40e1a0:	02202021 	move	a0,s1
  40e1a4:	3c050041 	lui	a1,0x41
  40e1a8:	8fa60018 	lw	a2,24(sp)
[31m  40e1ac:	8f9980c8 	lw	t9,fprintf[0m
  40e1b0:	0320f809 	jalr	t9
  40e1b4:	24a50f14 	addiu	a1,a1,3860
--
  40e294:	0320f809 	jalr	t9
  40e298:	24a50fcc 	addiu	a1,a1,4044
  40e29c:	8fbc0010 	lw	gp,16(sp)
  40e2a0:	1440001a 	bnez	v0,40e30c <AspInitial@@Base+0xa3a4>
  40e2a4:	02002021 	move	a0,s0
  40e2a8:	3c020041 	lui	v0,0x41
  40e2ac:	90422090 	lbu	v0,8336(v0)
  40e2b0:	a3a2001c 	sb	v0,28(sp)
  40e2b4:	27a4001d 	addiu	a0,sp,29
  40e2b8:	00002821 	move	a1,zero
  40e2bc:	8f998104 	lw	t9,-32508(gp)
  40e2c0:	0320f809 	jalr	t9
  40e2c4:	240600ff 	li	a2,255
  40e2c8:	8fbc0010 	lw	gp,16(sp)
  40e2cc:	27b1001c 	addiu	s1,sp,28
  40e2d0:	3c040041 	lui	a0,0x41
  40e2d4:	24841c24 	addiu	a0,a0,7204
  40e2d8:	02002821 	move	a1,s0
  40e2dc:	8f99806c 	lw	t9,-32660(gp)
  40e2e0:	0320f809 	jalr	t9
  40e2e4:	02203021 	move	a2,s1
  40e2e8:	8fbc0010 	lw	gp,16(sp)
  40e2ec:	02402021 	move	a0,s2
  40e2f0:	3c050041 	lui	a1,0x41
  40e2f4:	24a5fdec 	addiu	a1,a1,-532
[31m  40e2f8:	8f9980c8 	lw	t9,fprintf[0m
  40e2fc:	0320f809 	jalr	t9
  40e300:	02203021 	move	a2,s1
  40e304:	100000d1 	b	40e64c <AspInitial@@Base+0xa6e4>
  40e308:	00001021 	move	v0,zero
  40e30c:	3c050041 	lui	a1,0x41
  40e310:	8f9980dc 	lw	t9,-32548(gp)
  40e314:	0320f809 	jalr	t9
  40e318:	24a50f90 	addiu	a1,a1,3984
  40e31c:	8fbc0010 	lw	gp,16(sp)
  40e320:	14400011 	bnez	v0,40e368 <AspInitial@@Base+0xa400>
  40e324:	02002021 	move	a0,s0
  40e328:	a3a00018 	sb	zero,24(sp)
  40e32c:	3c040041 	lui	a0,0x41
  40e330:	24841c24 	addiu	a0,a0,7204
  40e334:	02002821 	move	a1,s0
  40e338:	8f99806c 	lw	t9,-32660(gp)
  40e33c:	0320f809 	jalr	t9
  40e340:	27a60018 	addiu	a2,sp,24
  40e344:	8fbc0010 	lw	gp,16(sp)
  40e348:	02402021 	move	a0,s2
  40e34c:	3c050041 	lui	a1,0x41
  40e350:	93a60018 	lbu	a2,24(sp)
[31m  40e354:	8f9980c8 	lw	t9,fprintf[0m
  40e358:	0320f809 	jalr	t9
  40e35c:	24a50dac 	addiu	a1,a1,3500
--
  40e598:	9063000c 	lbu	v1,12(v1)
  40e59c:	a043000c 	sb	v1,12(v0)
  40e5a0:	27b0001c 	addiu	s0,sp,28
  40e5a4:	3c040041 	lui	a0,0x41
  40e5a8:	24841c24 	addiu	a0,a0,7204
  40e5ac:	27a5021c 	addiu	a1,sp,540
  40e5b0:	8f99806c 	lw	t9,-32660(gp)
  40e5b4:	0320f809 	jalr	t9
  40e5b8:	02003021 	move	a2,s0
  40e5bc:	8fbc0010 	lw	gp,16(sp)
  40e5c0:	8f998078 	lw	t9,strlen
  40e5c4:	0320f809 	jalr	t9
  40e5c8:	02002021 	move	a0,s0
  40e5cc:	8fbc0010 	lw	gp,16(sp)
  40e5d0:	18400007 	blez	v0,40e5f0 <AspInitial@@Base+0xa688>
  40e5d4:	27a3011c 	addiu	v1,sp,284
  40e5d8:	00431021 	addu	v0,v0,v1
  40e5dc:	2404002a 	li	a0,42
  40e5e0:	a0640000 	sb	a0,0(v1)
  40e5e4:	24630001 	addiu	v1,v1,1
  40e5e8:	1462fffd 	bne	v1,v0,40e5e0 <AspInitial@@Base+0xa678>
  40e5ec:	00000000 	nop
  40e5f0:	02402021 	move	a0,s2
  40e5f4:	3c050041 	lui	a1,0x41
  40e5f8:	24a5fdec 	addiu	a1,a1,-532
[31m  40e5fc:	8f9980c8 	lw	t9,fprintf[0m
  40e600:	0320f809 	jalr	t9
  40e604:	27a6011c 	addiu	a2,sp,284
  40e608:	10000010 	b	40e64c <AspInitial@@Base+0xa6e4>
  40e60c:	00001021 	move	v0,zero
  40e610:	afa00018 	sw	zero,24(sp)
  40e614:	3c040041 	lui	a0,0x41
  40e618:	24841c24 	addiu	a0,a0,7204
  40e61c:	02002821 	move	a1,s0
  40e620:	8f99806c 	lw	t9,-32660(gp)
  40e624:	0320f809 	jalr	t9
  40e628:	27a60018 	addiu	a2,sp,24
  40e62c:	8fbc0010 	lw	gp,16(sp)
  40e630:	02402021 	move	a0,s2
  40e634:	3c050041 	lui	a1,0x41
  40e638:	8fa60018 	lw	a2,24(sp)
[31m  40e63c:	8f9980c8 	lw	t9,fprintf[0m
  40e640:	0320f809 	jalr	t9
  40e644:	24a50f14 	addiu	a1,a1,3860
--
  40e68c:	afb001a0 	sw	s0,416(sp)
  40e690:	3c1c0043 	lui	gp,0x43
  40e694:	279ca840 	addiu	gp,gp,-22464
  40e698:	afbc0010 	sw	gp,16(sp)
  40e69c:	00808021 	move	s0,a0
  40e6a0:	108000d6 	beqz	a0,40e9fc <AspInitial@@Base+0xaa94>
  40e6a4:	afa501cc 	sw	a1,460(sp)
  40e6a8:	3c050041 	lui	a1,0x41
  40e6ac:	8f9980dc 	lw	t9,-32548(gp)
  40e6b0:	0320f809 	jalr	t9
  40e6b4:	24a50f90 	addiu	a1,a1,3984
  40e6b8:	8fbc0010 	lw	gp,16(sp)
  40e6bc:	14400011 	bnez	v0,40e704 <AspInitial@@Base+0xa79c>
  40e6c0:	02002021 	move	a0,s0
  40e6c4:	a3a00018 	sb	zero,24(sp)
  40e6c8:	3c040041 	lui	a0,0x41
  40e6cc:	24841f68 	addiu	a0,a0,8040
  40e6d0:	02002821 	move	a1,s0
  40e6d4:	8f99806c 	lw	t9,-32660(gp)
  40e6d8:	0320f809 	jalr	t9
  40e6dc:	27a60018 	addiu	a2,sp,24
  40e6e0:	8fbc0010 	lw	gp,16(sp)
  40e6e4:	8fa401cc 	lw	a0,460(sp)
  40e6e8:	3c050041 	lui	a1,0x41
  40e6ec:	93a60018 	lbu	a2,24(sp)
[31m  40e6f0:	8f9980c8 	lw	t9,fprintf[0m
  40e6f4:	0320f809 	jalr	t9
  40e6f8:	24a50dac 	addiu	a1,a1,3500
--
  40e874:	a0430000 	sb	v1,0(v0)
  40e878:	92c30001 	lbu	v1,1(s6)
  40e87c:	1000000a 	b	40e8a8 <AspInitial@@Base+0xa940>
  40e880:	a0430001 	sb	v1,1(v0)
  40e884:	8f998078 	lw	t9,strlen
  40e888:	0320f809 	jalr	t9
  40e88c:	03c02021 	move	a0,s8
  40e890:	8fbc0010 	lw	gp,16(sp)
  40e894:	02621021 	addu	v0,s3,v0
  40e898:	922310e0 	lbu	v1,4320(s1)
  40e89c:	a0430000 	sb	v1,0(v0)
  40e8a0:	92a30001 	lbu	v1,1(s5)
  40e8a4:	a0430001 	sb	v1,1(v0)
  40e8a8:	2610ffff 	addiu	s0,s0,-1
  40e8ac:	1617ffe7 	bne	s0,s7,40e84c <AspInitial@@Base+0xa8e4>
  40e8b0:	02141804 	sllv	v1,s4,s0
  40e8b4:	8fa20188 	lw	v0,392(sp)
  40e8b8:	24420001 	addiu	v0,v0,1
  40e8bc:	afa20188 	sw	v0,392(sp)
  40e8c0:	2402000f 	li	v0,15
  40e8c4:	8fa30188 	lw	v1,392(sp)
  40e8c8:	1462ffc1 	bne	v1,v0,40e7d0 <AspInitial@@Base+0xa868>
  40e8cc:	3c050041 	lui	a1,0x41
  40e8d0:	8fa401cc 	lw	a0,460(sp)
  40e8d4:	24a5fdec 	addiu	a1,a1,-532
[31m  40e8d8:	8f9980c8 	lw	t9,fprintf[0m
  40e8dc:	0320f809 	jalr	t9
  40e8e0:	27a6005c 	addiu	a2,sp,92
--
  40e950:	24841f68 	addiu	a0,a0,8040
  40e954:	02002821 	move	a1,s0
  40e958:	8f99806c 	lw	t9,-32660(gp)
  40e95c:	0320f809 	jalr	t9
  40e960:	27a60018 	addiu	a2,sp,24
  40e964:	8fbc0010 	lw	gp,16(sp)
  40e968:	8fa60018 	lw	a2,24(sp)
  40e96c:	00001021 	move	v0,zero
  40e970:	24050001 	li	a1,1
  40e974:	24080030 	li	t0,48
  40e978:	24070031 	li	a3,49
  40e97c:	24040019 	li	a0,25
  40e980:	00451804 	sllv	v1,a1,v0
  40e984:	00661824 	and	v1,v1,a2
  40e988:	10600003 	beqz	v1,40e998 <AspInitial@@Base+0xaa30>
  40e98c:	00000000 	nop
  40e990:	10000002 	b	40e99c <AspInitial@@Base+0xaa34>
  40e994:	a2270000 	sb	a3,0(s1)
  40e998:	a2280000 	sb	t0,0(s1)
  40e99c:	24420001 	addiu	v0,v0,1
  40e9a0:	1444fff7 	bne	v0,a0,40e980 <AspInitial@@Base+0xaa18>
  40e9a4:	26310001 	addiu	s1,s1,1
  40e9a8:	8fa401cc 	lw	a0,460(sp)
  40e9ac:	3c050041 	lui	a1,0x41
  40e9b0:	24a5fdec 	addiu	a1,a1,-532
[31m  40e9b4:	8f9980c8 	lw	t9,fprintf[0m
  40e9b8:	0320f809 	jalr	t9
  40e9bc:	27a6001c 	addiu	a2,sp,28
  40e9c0:	1000000f 	b	40ea00 <AspInitial@@Base+0xaa98>
  40e9c4:	00001021 	move	v0,zero
  40e9c8:	afa00018 	sw	zero,24(sp)
  40e9cc:	24841f68 	addiu	a0,a0,8040
  40e9d0:	02002821 	move	a1,s0
  40e9d4:	8f99806c 	lw	t9,-32660(gp)
  40e9d8:	0320f809 	jalr	t9
  40e9dc:	27a60018 	addiu	a2,sp,24
  40e9e0:	8fbc0010 	lw	gp,16(sp)
  40e9e4:	8fa401cc 	lw	a0,460(sp)
  40e9e8:	3c050041 	lui	a1,0x41
  40e9ec:	8fa60018 	lw	a2,24(sp)
[31m  40e9f0:	8f9980c8 	lw	t9,fprintf[0m
  40e9f4:	0320f809 	jalr	t9
  40e9f8:	24a50f14 	addiu	a1,a1,3860
--
  40eca0:	8f998078 	lw	t9,strlen
  40eca4:	0320f809 	jalr	t9
  40eca8:	02002021 	move	a0,s0
  40ecac:	8fbc0010 	lw	gp,16(sp)
  40ecb0:	02021021 	addu	v0,s0,v0
  40ecb4:	3c030041 	lui	v1,0x41
  40ecb8:	8c661fe8 	lw	a2,8168(v1)
  40ecbc:	24631fe8 	addiu	v1,v1,8168
  40ecc0:	8c650004 	lw	a1,4(v1)
  40ecc4:	8c640008 	lw	a0,8(v1)
  40ecc8:	a8460000 	swl	a2,0(v0)
  40eccc:	b8460003 	swr	a2,3(v0)
  40ecd0:	a8450004 	swl	a1,4(v0)
  40ecd4:	b8450007 	swr	a1,7(v0)
  40ecd8:	a8440008 	swl	a0,8(v0)
  40ecdc:	b844000b 	swr	a0,11(v0)
  40ece0:	9064000c 	lbu	a0,12(v1)
  40ece4:	a044000c 	sb	a0,12(v0)
  40ece8:	9064000d 	lbu	a0,13(v1)
  40ecec:	a044000d 	sb	a0,13(v0)
  40ecf0:	9063000e 	lbu	v1,14(v1)
  40ecf4:	a043000e 	sb	v1,14(v0)
  40ecf8:	02202021 	move	a0,s1
  40ecfc:	3c050041 	lui	a1,0x41
  40ed00:	24a5fdec 	addiu	a1,a1,-532
[31m  40ed04:	8f9980c8 	lw	t9,fprintf[0m
  40ed08:	0320f809 	jalr	t9
  40ed0c:	27a60020 	addiu	a2,sp,32
--
  40ed70:	3c050041 	lui	a1,0x41
  40ed74:	8f9980dc 	lw	t9,-32548(gp)
  40ed78:	0320f809 	jalr	t9
  40ed7c:	24a52008 	addiu	a1,a1,8200
  40ed80:	8fbc0010 	lw	gp,16(sp)
  40ed84:	10400008 	beqz	v0,40eda8 <AspInitial@@Base+0xae40>
  40ed88:	02002021 	move	a0,s0
  40ed8c:	3c050041 	lui	a1,0x41
  40ed90:	8f9980dc 	lw	t9,-32548(gp)
  40ed94:	0320f809 	jalr	t9
  40ed98:	24a52004 	addiu	a1,a1,8196
  40ed9c:	8fbc0010 	lw	gp,16(sp)
  40eda0:	14400011 	bnez	v0,40ede8 <AspInitial@@Base+0xae80>
  40eda4:	02002021 	move	a0,s0
  40eda8:	afa00018 	sw	zero,24(sp)
  40edac:	3c040041 	lui	a0,0x41
  40edb0:	24842014 	addiu	a0,a0,8212
  40edb4:	02002821 	move	a1,s0
  40edb8:	8f99806c 	lw	t9,-32660(gp)
  40edbc:	0320f809 	jalr	t9
  40edc0:	27a60018 	addiu	a2,sp,24
  40edc4:	8fbc0010 	lw	gp,16(sp)
  40edc8:	02202021 	move	a0,s1
  40edcc:	3c050041 	lui	a1,0x41
  40edd0:	8fa60018 	lw	a2,24(sp)
[31m  40edd4:	8f9980c8 	lw	t9,fprintf[0m
  40edd8:	0320f809 	jalr	t9
  40eddc:	24a50f14 	addiu	a1,a1,3860
--
  40ee44:	0320f809 	jalr	t9
  40ee48:	24a50f70 	addiu	a1,a1,3952
  40ee4c:	8fbc0010 	lw	gp,16(sp)
  40ee50:	1440001a 	bnez	v0,40eebc <AspInitial@@Base+0xaf54>
  40ee54:	02002021 	move	a0,s0
  40ee58:	3c020041 	lui	v0,0x41
  40ee5c:	90422090 	lbu	v0,8336(v0)
  40ee60:	a3a2001c 	sb	v0,28(sp)
  40ee64:	27a4001d 	addiu	a0,sp,29
  40ee68:	00002821 	move	a1,zero
  40ee6c:	8f998104 	lw	t9,-32508(gp)
  40ee70:	0320f809 	jalr	t9
  40ee74:	240600ff 	li	a2,255
  40ee78:	8fbc0010 	lw	gp,16(sp)
  40ee7c:	27b2001c 	addiu	s2,sp,28
  40ee80:	3c040041 	lui	a0,0x41
  40ee84:	24842014 	addiu	a0,a0,8212
  40ee88:	02002821 	move	a1,s0
  40ee8c:	8f99806c 	lw	t9,-32660(gp)
  40ee90:	0320f809 	jalr	t9
  40ee94:	02403021 	move	a2,s2
  40ee98:	8fbc0010 	lw	gp,16(sp)
  40ee9c:	02202021 	move	a0,s1
  40eea0:	3c050041 	lui	a1,0x41
  40eea4:	24a5fdec 	addiu	a1,a1,-532
[31m  40eea8:	8f9980c8 	lw	t9,fprintf[0m
  40eeac:	0320f809 	jalr	t9
  40eeb0:	02403021 	move	a2,s2
--
  40ef18:	8fbc0010 	lw	gp,16(sp)
  40ef1c:	27b0001c 	addiu	s0,sp,28
  40ef20:	3c040041 	lui	a0,0x41
  40ef24:	24842014 	addiu	a0,a0,8212
  40ef28:	3c050041 	lui	a1,0x41
  40ef2c:	24a50f6c 	addiu	a1,a1,3948
  40ef30:	8f99806c 	lw	t9,-32660(gp)
  40ef34:	0320f809 	jalr	t9
  40ef38:	02003021 	move	a2,s0
  40ef3c:	8fbc0010 	lw	gp,16(sp)
  40ef40:	8f998078 	lw	t9,strlen
  40ef44:	0320f809 	jalr	t9
  40ef48:	02002021 	move	a0,s0
  40ef4c:	8fbc0010 	lw	gp,16(sp)
  40ef50:	18400007 	blez	v0,40ef70 <AspInitial@@Base+0xb008>
  40ef54:	27a3011c 	addiu	v1,sp,284
  40ef58:	00431021 	addu	v0,v0,v1
  40ef5c:	2404002a 	li	a0,42
  40ef60:	a0640000 	sb	a0,0(v1)
  40ef64:	24630001 	addiu	v1,v1,1
  40ef68:	1462fffd 	bne	v1,v0,40ef60 <AspInitial@@Base+0xaff8>
  40ef6c:	00000000 	nop
  40ef70:	02202021 	move	a0,s1
  40ef74:	3c050041 	lui	a1,0x41
  40ef78:	24a5fdec 	addiu	a1,a1,-532
[31m  40ef7c:	8f9980c8 	lw	t9,fprintf[0m
  40ef80:	0320f809 	jalr	t9
  40ef84:	27a6011c 	addiu	a2,sp,284
--
  40efd0:	aca00000 	sw	zero,0(a1)
  40efd4:	aca00004 	sw	zero,4(a1)
  40efd8:	24040036 	li	a0,54
  40efdc:	8f998218 	lw	t9,-32232(gp)
  40efe0:	0320f809 	jalr	t9
  40efe4:	24060008 	li	a2,8
  40efe8:	8fbc0010 	lw	gp,16(sp)
  40efec:	8fa2001c 	lw	v0,28(sp)
  40eff0:	afa20018 	sw	v0,24(sp)
  40eff4:	8f998108 	lw	t9,-32504(gp)
  40eff8:	0320f809 	jalr	t9
  40effc:	27a40018 	addiu	a0,sp,24
  40f000:	8fbc0010 	lw	gp,16(sp)
  40f004:	27b0011c 	addiu	s0,sp,284
  40f008:	02002021 	move	a0,s0
  40f00c:	24050100 	li	a1,256
  40f010:	3c060041 	lui	a2,0x41
  40f014:	24c6202c 	addiu	a2,a2,8236
  40f018:	8f9980b8 	lw	t9,-32584(gp)
  40f01c:	0320f809 	jalr	t9
  40f020:	00403821 	move	a3,v0
  40f024:	8fbc0010 	lw	gp,16(sp)
  40f028:	02202021 	move	a0,s1
  40f02c:	3c050041 	lui	a1,0x41
  40f030:	24a5fdec 	addiu	a1,a1,-532
[31m  40f034:	8f9980c8 	lw	t9,fprintf[0m
  40f038:	0320f809 	jalr	t9
  40f03c:	02003021 	move	a2,s0
  40f040:	10000025 	b	40f0d8 <AspInitial@@Base+0xb170>
  40f044:	00001021 	move	v0,zero
  40f048:	02002021 	move	a0,s0
  40f04c:	3c050041 	lui	a1,0x41
  40f050:	8f9980dc 	lw	t9,-32548(gp)
  40f054:	0320f809 	jalr	t9
  40f058:	24a50d00 	addiu	a1,a1,3328
  40f05c:	8fbc0010 	lw	gp,16(sp)
  40f060:	1440000f 	bnez	v0,40f0a0 <AspInitial@@Base+0xb138>
  40f064:	3c040041 	lui	a0,0x41
  40f068:	afa00018 	sw	zero,24(sp)
  40f06c:	24040035 	li	a0,53
  40f070:	8f998188 	lw	t9,-32376(gp)
  40f074:	0320f809 	jalr	t9
  40f078:	27a50018 	addiu	a1,sp,24
  40f07c:	8fbc0010 	lw	gp,16(sp)
  40f080:	02202021 	move	a0,s1
  40f084:	3c050041 	lui	a1,0x41
  40f088:	8fa60018 	lw	a2,24(sp)
[31m  40f08c:	8f9980c8 	lw	t9,fprintf[0m
  40f090:	0320f809 	jalr	t9
  40f094:	24a50f14 	addiu	a1,a1,3860
  40f098:	1000000f 	b	40f0d8 <AspInitial@@Base+0xb170>
  40f09c:	00001021 	move	v0,zero
  40f0a0:	a3a00018 	sb	zero,24(sp)
  40f0a4:	24842014 	addiu	a0,a0,8212
  40f0a8:	02002821 	move	a1,s0
  40f0ac:	8f99806c 	lw	t9,-32660(gp)
  40f0b0:	0320f809 	jalr	t9
  40f0b4:	27a60018 	addiu	a2,sp,24
  40f0b8:	8fbc0010 	lw	gp,16(sp)
  40f0bc:	02202021 	move	a0,s1
  40f0c0:	3c050041 	lui	a1,0x41
  40f0c4:	93a60018 	lbu	a2,24(sp)
[31m  40f0c8:	8f9980c8 	lw	t9,fprintf[0m
  40f0cc:	0320f809 	jalr	t9
  40f0d0:	24a50dac 	addiu	a1,a1,3500
--
  40f178:	0320f809 	jalr	t9
  40f17c:	24a52054 	addiu	a1,a1,8276
  40f180:	8fbc0010 	lw	gp,16(sp)
  40f184:	1440001a 	bnez	v0,40f1f0 <AspInitial@@Base+0xb288>
  40f188:	02002021 	move	a0,s0
  40f18c:	3c020041 	lui	v0,0x41
  40f190:	90422090 	lbu	v0,8336(v0)
  40f194:	a3a2001c 	sb	v0,28(sp)
  40f198:	27a4001d 	addiu	a0,sp,29
  40f19c:	00002821 	move	a1,zero
  40f1a0:	8f998104 	lw	t9,-32508(gp)
  40f1a4:	0320f809 	jalr	t9
  40f1a8:	240600ff 	li	a2,255
  40f1ac:	8fbc0010 	lw	gp,16(sp)
  40f1b0:	27b1001c 	addiu	s1,sp,28
  40f1b4:	3c040041 	lui	a0,0x41
  40f1b8:	24842060 	addiu	a0,a0,8288
  40f1bc:	02002821 	move	a1,s0
  40f1c0:	8f99806c 	lw	t9,-32660(gp)
  40f1c4:	0320f809 	jalr	t9
  40f1c8:	02203021 	move	a2,s1
  40f1cc:	8fbc0010 	lw	gp,16(sp)
  40f1d0:	02402021 	move	a0,s2
  40f1d4:	3c050041 	lui	a1,0x41
  40f1d8:	24a5fdec 	addiu	a1,a1,-532
[31m  40f1dc:	8f9980c8 	lw	t9,fprintf[0m
  40f1e0:	0320f809 	jalr	t9
  40f1e4:	02203021 	move	a2,s1
--
  40f1f0:	3c050041 	lui	a1,0x41
  40f1f4:	8f9980dc 	lw	t9,-32548(gp)
  40f1f8:	0320f809 	jalr	t9
  40f1fc:	24a51ef8 	addiu	a1,a1,7928
  40f200:	8fbc0010 	lw	gp,16(sp)
  40f204:	10400008 	beqz	v0,40f228 <AspInitial@@Base+0xb2c0>
  40f208:	02002021 	move	a0,s0
  40f20c:	3c050041 	lui	a1,0x41
  40f210:	8f9980dc 	lw	t9,-32548(gp)
  40f214:	0320f809 	jalr	t9
  40f218:	24a5206c 	addiu	a1,a1,8300
  40f21c:	8fbc0010 	lw	gp,16(sp)
  40f220:	14400011 	bnez	v0,40f268 <AspInitial@@Base+0xb300>
  40f224:	02002021 	move	a0,s0
  40f228:	a3a00018 	sb	zero,24(sp)
  40f22c:	3c040041 	lui	a0,0x41
  40f230:	24842060 	addiu	a0,a0,8288
  40f234:	02002821 	move	a1,s0
  40f238:	8f99806c 	lw	t9,-32660(gp)
  40f23c:	0320f809 	jalr	t9
  40f240:	27a60018 	addiu	a2,sp,24
  40f244:	8fbc0010 	lw	gp,16(sp)
  40f248:	02402021 	move	a0,s2
  40f24c:	3c050041 	lui	a1,0x41
  40f250:	93a60018 	lbu	a2,24(sp)
[31m  40f254:	8f9980c8 	lw	t9,fprintf[0m
  40f258:	0320f809 	jalr	t9
  40f25c:	24a50dac 	addiu	a1,a1,3500
  40f260:	10000058 	b	40f3c4 <AspInitial@@Base+0xb45c>
  40f264:	00001021 	move	v0,zero
  40f268:	3c050041 	lui	a1,0x41
  40f26c:	8f9980dc 	lw	t9,-32548(gp)
  40f270:	0320f809 	jalr	t9
  40f274:	24a51f08 	addiu	a1,a1,7944
  40f278:	8fbc0010 	lw	gp,16(sp)
  40f27c:	14400016 	bnez	v0,40f2d8 <AspInitial@@Base+0xb370>
  40f280:	3c040041 	lui	a0,0x41
  40f284:	afa00018 	sw	zero,24(sp)
  40f288:	24842060 	addiu	a0,a0,8288
  40f28c:	02002821 	move	a1,s0
  40f290:	8f99806c 	lw	t9,-32660(gp)
  40f294:	0320f809 	jalr	t9
  40f298:	27a60018 	addiu	a2,sp,24
  40f29c:	8fbc0010 	lw	gp,16(sp)
  40f2a0:	8fa50018 	lw	a1,24(sp)
  40f2a4:	8f998178 	lw	t9,-32392(gp)
  40f2a8:	0320f809 	jalr	t9
  40f2ac:	24040002 	li	a0,2
  40f2b0:	8fbc0010 	lw	gp,16(sp)
  40f2b4:	afa20018 	sw	v0,24(sp)
  40f2b8:	02402021 	move	a0,s2
  40f2bc:	3c050041 	lui	a1,0x41
  40f2c0:	24a50f14 	addiu	a1,a1,3860
[31m  40f2c4:	8f9980c8 	lw	t9,fprintf[0m
  40f2c8:	0320f809 	jalr	t9
  40f2cc:	00403021 	move	a2,v0
--
  40f314:	240600ff 	li	a2,255
  40f318:	8fbc0010 	lw	gp,16(sp)
  40f31c:	3c040041 	lui	a0,0x41
  40f320:	2484207c 	addiu	a0,a0,8316
  40f324:	3c050041 	lui	a1,0x41
  40f328:	8f99810c 	lw	t9,-32500(gp)
  40f32c:	0320f809 	jalr	t9
  40f330:	24a5165c 	addiu	a1,a1,5724
  40f334:	8fbc0010 	lw	gp,16(sp)
  40f338:	1040000c 	beqz	v0,40f36c <AspInitial@@Base+0xb404>
  40f33c:	00408021 	move	s0,v0
  40f340:	27a4001c 	addiu	a0,sp,28
  40f344:	24050001 	li	a1,1
  40f348:	240600ff 	li	a2,255
  40f34c:	8f99812c 	lw	t9,-32468(gp)
  40f350:	0320f809 	jalr	t9
  40f354:	00403821 	move	a3,v0
  40f358:	8fbc0010 	lw	gp,16(sp)
  40f35c:	8f9980f4 	lw	t9,-32524(gp)
  40f360:	0320f809 	jalr	t9
  40f364:	02002021 	move	a0,s0
  40f368:	8fbc0010 	lw	gp,16(sp)
  40f36c:	02402021 	move	a0,s2
  40f370:	3c050041 	lui	a1,0x41
  40f374:	24a5fdec 	addiu	a1,a1,-532
[31m  40f378:	8f9980c8 	lw	t9,fprintf[0m
  40f37c:	0320f809 	jalr	t9
  40f380:	27a6001c 	addiu	a2,sp,28
  40f384:	1000000f 	b	40f3c4 <AspInitial@@Base+0xb45c>
  40f388:	00001021 	move	v0,zero
  40f38c:	afa00018 	sw	zero,24(sp)
  40f390:	24842060 	addiu	a0,a0,8288
  40f394:	02002821 	move	a1,s0
  40f398:	8f99806c 	lw	t9,-32660(gp)
  40f39c:	0320f809 	jalr	t9
  40f3a0:	27a60018 	addiu	a2,sp,24
  40f3a4:	8fbc0010 	lw	gp,16(sp)
  40f3a8:	02402021 	move	a0,s2
  40f3ac:	3c050041 	lui	a1,0x41
  40f3b0:	8fa60018 	lw	a2,24(sp)
[31m  40f3b4:	8f9980c8 	lw	t9,fprintf[0m
  40f3b8:	0320f809 	jalr	t9
  40f3bc:	24a50f14 	addiu	a1,a1,3860

[0m
[[0;33m*[0m] Function [0;33mfprintf[0m used [0;33m220[0m times [0;33mhttpd[0m

