[0m
[[0;33m*[0m] Function [0;33mprintf[0m tear down of [0;33mllmnr[0m

  401574:	8fbc0020 	lw	gp,32(sp)
  401578:	8f99808c 	lw	t9,-32628(gp)
  40157c:	0320f809 	jalr	t9
  401580:	24a5353c 	addiu	a1,a1,13628
  401584:	3c050040 	lui	a1,0x40
  401588:	8fbc0020 	lw	gp,32(sp)
  40158c:	24a52d48 	addiu	a1,a1,11592
  401590:	8f998088 	lw	t9,-32632(gp)
  401594:	0320f809 	jalr	t9
  401598:	26a42d34 	addiu	a0,s5,11572
  40159c:	8fbc0020 	lw	gp,32(sp)
  4015a0:	1440006e 	bnez	v0,40175c <_ftext@@Base+0xb0c>
  4015a4:	00408021 	move	s0,v0
  4015a8:	8f998050 	lw	t9,-32688(gp)
  4015ac:	0320f809 	jalr	t9
  4015b0:	00000000 	nop
  4015b4:	8fbc0020 	lw	gp,32(sp)
  4015b8:	8c440000 	lw	a0,0(v0)
  4015bc:	8f998100 	lw	t9,-32512(gp)
  4015c0:	0320f809 	jalr	t9
  4015c4:	00000000 	nop
  4015c8:	3c040040 	lui	a0,0x40
  4015cc:	8fbc0020 	lw	gp,32(sp)
  4015d0:	24842d4c 	addiu	a0,a0,11596
  4015d4:	00403021 	move	a2,v0
[31m  4015d8:	8f998108 	lw	t9,printf[0m
  4015dc:	0320f809 	jalr	t9
  4015e0:	26a52d34 	addiu	a1,s5,11572
--
  401f1c:	ae723534 	sw	s2,13620(s3)
  401f20:	2631ffff 	addiu	s1,s1,-1
  401f24:	26100004 	addiu	s0,s0,4
  401f28:	8f998084 	lw	t9,-32636(gp)
  401f2c:	02202021 	move	a0,s1
  401f30:	02002821 	move	a1,s0
  401f34:	0320f809 	jalr	t9
  401f38:	02803021 	move	a2,s4
  401f3c:	8fbc0040 	lw	gp,64(sp)
  401f40:	0441fff4 	bgez	v0,401f14 <main@@Base+0xbc>
  401f44:	00000000 	nop
  401f48:	3c020041 	lui	v0,0x41
  401f4c:	8c423534 	lw	v0,13620(v0)
  401f50:	10400012 	beqz	v0,401f9c <main@@Base+0x144>
  401f54:	24020004 	li	v0,4
  401f58:	8f828060 	lw	v0,-32672(gp)
  401f5c:	3c050040 	lui	a1,0x40
  401f60:	02203021 	move	a2,s1
  401f64:	8f9980b4 	lw	t9,-32588(gp)
  401f68:	8c440000 	lw	a0,0(v0)
  401f6c:	0320f809 	jalr	t9
  401f70:	24a52f84 	addiu	a1,a1,12164
  401f74:	3c040040 	lui	a0,0x40
  401f78:	8fbc0040 	lw	gp,64(sp)
  401f7c:	8e050004 	lw	a1,4(s0)
[31m  401f80:	8f998108 	lw	t9,printf[0m
  401f84:	8e060008 	lw	a2,8(s0)
  401f88:	8e07000c 	lw	a3,12(s0)
--
  401fdc:	0320f809 	jalr	t9
  401fe0:	27b10060 	addiu	s1,sp,96
  401fe4:	8fbc0040 	lw	gp,64(sp)
  401fe8:	8e050008 	lw	a1,8(s0)
  401fec:	8f9980a0 	lw	t9,-32608(gp)
  401ff0:	8f848044 	lw	a0,-32700(gp)
  401ff4:	0320f809 	jalr	t9
  401ff8:	24060040 	li	a2,64
  401ffc:	8fbc0040 	lw	gp,64(sp)
  402000:	8e05000c 	lw	a1,12(s0)
  402004:	8f998048 	lw	t9,strlen
  402008:	00a02021 	move	a0,a1
  40200c:	0320f809 	jalr	t9
  402010:	afa500c8 	sw	a1,200(sp)
  402014:	02202021 	move	a0,s1
  402018:	8fbc0040 	lw	gp,64(sp)
  40201c:	8fa500c8 	lw	a1,200(sp)
  402020:	8f9980a0 	lw	t9,-32608(gp)
  402024:	0320f809 	jalr	t9
  402028:	00403021 	move	a2,v0
  40202c:	3c020041 	lui	v0,0x41
  402030:	8c423534 	lw	v0,13620(v0)
  402034:	8fbc0040 	lw	gp,64(sp)
  402038:	10400008 	beqz	v0,40205c <main@@Base+0x204>
  40203c:	27a20090 	addiu	v0,sp,144
[31m  402040:	8f998108 	lw	t9,printf[0m
  402044:	3c040040 	lui	a0,0x40
  402048:	02202821 	move	a1,s1
--
  40206c:	27a20098 	addiu	v0,sp,152
  402070:	8f998094 	lw	t9,-32620(gp)
  402074:	24a52fc0 	addiu	a1,a1,12224
  402078:	afa20018 	sw	v0,24(sp)
  40207c:	27a2009c 	addiu	v0,sp,156
  402080:	27a40060 	addiu	a0,sp,96
  402084:	27a60088 	addiu	a2,sp,136
  402088:	27a7008c 	addiu	a3,sp,140
  40208c:	0320f809 	jalr	t9
  402090:	afa2001c 	sw	v0,28(sp)
  402094:	3c050040 	lui	a1,0x40
  402098:	8fbc0040 	lw	gp,64(sp)
  40209c:	24a52fe0 	addiu	a1,a1,12256
  4020a0:	8fa2009c 	lw	v0,156(sp)
  4020a4:	8f998064 	lw	t9,-32668(gp)
  4020a8:	8f8480ec 	lw	a0,-32532(gp)
  4020ac:	8f868044 	lw	a2,-32700(gp)
  4020b0:	8fa70098 	lw	a3,152(sp)
  4020b4:	0320f809 	jalr	t9
  4020b8:	afa20010 	sw	v0,16(sp)
  4020bc:	3c020041 	lui	v0,0x41
  4020c0:	8c423534 	lw	v0,13620(v0)
  4020c4:	8fbc0040 	lw	gp,64(sp)
  4020c8:	10400006 	beqz	v0,4020e4 <main@@Base+0x28c>
  4020cc:	3c040040 	lui	a0,0x40
[31m  4020d0:	8f998108 	lw	t9,printf[0m
  4020d4:	8f8580ec 	lw	a1,-32532(gp)
  4020d8:	0320f809 	jalr	t9
--
  402484:	0320f809 	jalr	t9
  402488:	afa600c8 	sw	a2,200(sp)
  40248c:	8fbc0040 	lw	gp,64(sp)
  402490:	8c440000 	lw	a0,0(v0)
  402494:	8f998100 	lw	t9,-32512(gp)
  402498:	0320f809 	jalr	t9
  40249c:	00000000 	nop
  4024a0:	3c050040 	lui	a1,0x40
  4024a4:	02002021 	move	a0,s0
  4024a8:	8fbc0040 	lw	gp,64(sp)
  4024ac:	24a52ac0 	addiu	a1,a1,10944
  4024b0:	8fa600c8 	lw	a2,200(sp)
  4024b4:	24070244 	li	a3,580
  4024b8:	8f9980b4 	lw	t9,-32588(gp)
  4024bc:	afa20010 	sw	v0,16(sp)
  4024c0:	0320f809 	jalr	t9
  4024c4:	00000000 	nop
  4024c8:	24040001 	li	a0,1
  4024cc:	8fbc0040 	lw	gp,64(sp)
  4024d0:	8f99804c 	lw	t9,-32692(gp)
  4024d4:	10000072 	b	4026a0 <main@@Base+0x848>
  4024d8:	00000000 	nop
  4024dc:	8ec23534 	lw	v0,13620(s6)
  4024e0:	10400006 	beqz	v0,4024fc <main@@Base+0x6a4>
  4024e4:	02202821 	move	a1,s1
[31m  4024e8:	8f998108 	lw	t9,printf[0m
  4024ec:	3c040040 	lui	a0,0x40
  4024f0:	0320f809 	jalr	t9
  4024f4:	248432d0 	addiu	a0,a0,13008
  4024f8:	8fbc0040 	lw	gp,64(sp)
  4024fc:	8e030004 	lw	v1,4(s0)
  402500:	24020002 	li	v0,2
  402504:	1462002b 	bne	v1,v0,4025b4 <main@@Base+0x75c>
  402508:	00000000 	nop
  40250c:	0c100398 	jal	400e60 <_ftext@@Base+0x210>
  402510:	02802021 	move	a0,s4
  402514:	8ec23534 	lw	v0,13620(s6)
  402518:	8fbc0040 	lw	gp,64(sp)
  40251c:	10400007 	beqz	v0,40253c <main@@Base+0x6e4>
  402520:	02803021 	move	a2,s4
[31m  402524:	8f998108 	lw	t9,printf[0m
  402528:	3c040040 	lui	a0,0x40
  40252c:	8f858098 	lw	a1,-32616(gp)

[0m
[[0;33m*[0m] Function [0;33mprintf[0m used [0;33m6[0m times [0;33mllmnr[0m

