[0m
[[0;33m*[0m] Function [0;33msystem[0m tear down of [0;33mlibFVconfig.so[0m

 9c0:	8f998050 	lw	t9,-32688(gp)
 9c4:	0320f809 	jalr	t9
 9c8:	02202021 	move	a0,s1
 9cc:	02802821 	move	a1,s4
 9d0:	8fbc0010 	lw	gp,16(sp)
 9d4:	8f998034 	lw	t9,-32716(gp)
 9d8:	0320f809 	jalr	t9
 9dc:	266410fc 	addiu	a0,s3,4348
 9e0:	8fbc0010 	lw	gp,16(sp)
 9e4:	1040008e 	beqz	v0,c20 <unpackCFG@@Base+0x340>
 9e8:	00408821 	move	s1,v0
 9ec:	8e04001c 	lw	a0,28(s0)
 9f0:	24050001 	li	a1,1
 9f4:	00403821 	move	a3,v0
 9f8:	8e060018 	lw	a2,24(s0)
 9fc:	8f99804c 	lw	t9,-32692(gp)
 a00:	24840020 	addiu	a0,a0,32
 a04:	0320f809 	jalr	t9
 a08:	02042021 	addu	a0,s0,a0
 a0c:	8fbc0010 	lw	gp,16(sp)
 a10:	8f998050 	lw	t9,-32688(gp)
 a14:	0320f809 	jalr	t9
 a18:	02202021 	move	a0,s1
 a1c:	8fbc0010 	lw	gp,16(sp)
 a20:	8f848024 	lw	a0,-32732(gp)
[31m a24:	8f998078 	lw	t9,system[0m
 a28:	0320f809 	jalr	t9
 a2c:	24841110 	addiu	a0,a0,4368
 a30:	8fbc0010 	lw	gp,16(sp)
 a34:	8f848024 	lw	a0,-32732(gp)
[31m a38:	8f998078 	lw	t9,system[0m
 a3c:	0320f809 	jalr	t9
 a40:	2484114c 	addiu	a0,a0,4428
 a44:	8fbc0010 	lw	gp,16(sp)
 a48:	8f848024 	lw	a0,-32732(gp)
[31m a4c:	8f998078 	lw	t9,system[0m
 a50:	0320f809 	jalr	t9
 a54:	24841198 	addiu	a0,a0,4504
 a58:	8fbc0010 	lw	gp,16(sp)
 a5c:	8f848024 	lw	a0,-32732(gp)
[31m a60:	8f998078 	lw	t9,system[0m
 a64:	0320f809 	jalr	t9
 a68:	248411dc 	addiu	a0,a0,4572
 a6c:	8fbc0010 	lw	gp,16(sp)
 a70:	8f848024 	lw	a0,-32732(gp)
[31m a74:	8f998078 	lw	t9,system[0m
 a78:	0320f809 	jalr	t9
 a7c:	24841210 	addiu	a0,a0,4624
 a80:	8fbc0010 	lw	gp,16(sp)
 a84:	8f848024 	lw	a0,-32732(gp)
[31m a88:	8f998078 	lw	t9,system[0m
 a8c:	0320f809 	jalr	t9
 a90:	24841248 	addiu	a0,a0,4680
 a94:	8fbc0010 	lw	gp,16(sp)
 a98:	8f848024 	lw	a0,-32732(gp)
[31m a9c:	8f998078 	lw	t9,system[0m
 aa0:	0320f809 	jalr	t9
 aa4:	24841280 	addiu	a0,a0,4736
 aa8:	8fbc0010 	lw	gp,16(sp)
 aac:	8f848024 	lw	a0,-32732(gp)
 ab0:	8f99806c 	lw	t9,-32660(gp)
 ab4:	0320f809 	jalr	t9
 ab8:	248412b8 	addiu	a0,a0,4792
 abc:	8fbc0010 	lw	gp,16(sp)
 ac0:	8f848024 	lw	a0,-32732(gp)
[31m ac4:	8f998078 	lw	t9,system[0m
 ac8:	0320f809 	jalr	t9
 acc:	248412cc 	addiu	a0,a0,4812
 ad0:	8fbc0010 	lw	gp,16(sp)
 ad4:	8f848024 	lw	a0,-32732(gp)
[31m ad8:	8f998078 	lw	t9,system[0m
 adc:	0320f809 	jalr	t9
 ae0:	24841300 	addiu	a0,a0,4864
 ae4:	8fbc0010 	lw	gp,16(sp)
 ae8:	8f848024 	lw	a0,-32732(gp)
[31m aec:	8f998078 	lw	t9,system[0m
 af0:	0320f809 	jalr	t9
 af4:	2484133c 	addiu	a0,a0,4924
 af8:	8fbc0010 	lw	gp,16(sp)
 afc:	8f848024 	lw	a0,-32732(gp)
[31m b00:	8f998078 	lw	t9,system[0m
 b04:	0320f809 	jalr	t9
 b08:	2484136c 	addiu	a0,a0,4972
 b0c:	8fbc0010 	lw	gp,16(sp)
 b10:	8f848024 	lw	a0,-32732(gp)
[31m b14:	8f998078 	lw	t9,system[0m
 b18:	0320f809 	jalr	t9
 b1c:	24841398 	addiu	a0,a0,5016
 b20:	8fbc0010 	lw	gp,16(sp)
 b24:	8f848024 	lw	a0,-32732(gp)
[31m b28:	8f998078 	lw	t9,system[0m
 b2c:	0320f809 	jalr	t9
 b30:	248413bc 	addiu	a0,a0,5052
 b34:	8fbc0010 	lw	gp,16(sp)
 b38:	8f848024 	lw	a0,-32732(gp)
[31m b3c:	8f998078 	lw	t9,system[0m
 b40:	0320f809 	jalr	t9
 b44:	248413e4 	addiu	a0,a0,5092
 b48:	8fbc0010 	lw	gp,16(sp)
 b4c:	8f848024 	lw	a0,-32732(gp)
[31m b50:	8f998078 	lw	t9,system[0m
 b54:	0320f809 	jalr	t9
 b58:	24841408 	addiu	a0,a0,5128
 b5c:	8fbc0010 	lw	gp,16(sp)
 b60:	8f848024 	lw	a0,-32732(gp)
[31m b64:	8f998078 	lw	t9,system[0m
 b68:	0320f809 	jalr	t9
 b6c:	2484142c 	addiu	a0,a0,5164
 b70:	8fbc0010 	lw	gp,16(sp)
 b74:	8f848024 	lw	a0,-32732(gp)
[31m b78:	8f998078 	lw	t9,system[0m
 b7c:	0320f809 	jalr	t9
 b80:	24841478 	addiu	a0,a0,5240
 b84:	8fbc0010 	lw	gp,16(sp)
 b88:	8f848024 	lw	a0,-32732(gp)
[31m b8c:	8f998078 	lw	t9,system[0m
 b90:	0320f809 	jalr	t9
 b94:	248414bc 	addiu	a0,a0,5308
 b98:	8fbc0010 	lw	gp,16(sp)
 b9c:	8f848024 	lw	a0,-32732(gp)
[31m ba0:	8f998078 	lw	t9,system[0m
 ba4:	0320f809 	jalr	t9
 ba8:	248414f0 	addiu	a0,a0,5360
 bac:	8fbc0010 	lw	gp,16(sp)
 bb0:	8f848024 	lw	a0,-32732(gp)
[31m bb4:	8f998078 	lw	t9,system[0m
 bb8:	0320f809 	jalr	t9
 bbc:	24841528 	addiu	a0,a0,5416
 bc0:	8fbc0010 	lw	gp,16(sp)
 bc4:	8f848024 	lw	a0,-32732(gp)
[31m bc8:	8f998078 	lw	t9,system[0m
 bcc:	0320f809 	jalr	t9
 bd0:	24841560 	addiu	a0,a0,5472
 bd4:	8fbc0010 	lw	gp,16(sp)
 bd8:	8f99805c 	lw	t9,-32676(gp)
 bdc:	0320f809 	jalr	t9
 be0:	266410fc 	addiu	a0,s3,4348
 be4:	8fbc0010 	lw	gp,16(sp)
 be8:	8f998048 	lw	t9,-32696(gp)
 bec:	0320f809 	jalr	t9
 bf0:	00000000 	nop
 bf4:	8fbc0010 	lw	gp,16(sp)
 bf8:	8f998070 	lw	t9,-32656(gp)
 bfc:	0320f809 	jalr	t9
 c00:	264410e8 	addiu	a0,s2,4328
 c04:	8fbc0010 	lw	gp,16(sp)
 c08:	8f848024 	lw	a0,-32732(gp)
[31m c0c:	8f998078 	lw	t9,system[0m
 c10:	0320f809 	jalr	t9
 c14:	24841598 	addiu	a0,a0,5528
--

00000c48 <packCFG@@Base>:
 c48:	3c1c0002 	lui	gp,0x2
 c4c:	279c8a88 	addiu	gp,gp,-30072
 c50:	0399e021 	addu	gp,gp,t9
 c54:	27bdfe08 	addiu	sp,sp,-504
 c58:	afbf01f4 	sw	ra,500(sp)
 c5c:	afb501f0 	sw	s5,496(sp)
 c60:	afb401ec 	sw	s4,492(sp)
 c64:	afb301e8 	sw	s3,488(sp)
 c68:	afb201e4 	sw	s2,484(sp)
 c6c:	afb101e0 	sw	s1,480(sp)
 c70:	afb001dc 	sw	s0,476(sp)
 c74:	afbc0010 	sw	gp,16(sp)
 c78:	00002821 	move	a1,zero
 c7c:	8f828024 	lw	v0,-32732(gp)
 c80:	2406007f 	li	a2,127
 c84:	0080a821 	move	s5,a0
 c88:	8f998054 	lw	t9,-32684(gp)
 c8c:	27a40019 	addiu	a0,sp,25
 c90:	90421640 	lbu	v0,5696(v0)
 c94:	0320f809 	jalr	t9
 c98:	a3a20018 	sb	v0,24(sp)
 c9c:	8fbc0010 	lw	gp,16(sp)
 ca0:	8f848024 	lw	a0,-32732(gp)
[31m ca4:	8f998078 	lw	t9,system[0m
 ca8:	0320f809 	jalr	t9
 cac:	248415d0 	addiu	a0,a0,5584
 cb0:	8fbc0010 	lw	gp,16(sp)
 cb4:	8f848024 	lw	a0,-32732(gp)
[31m cb8:	8f998078 	lw	t9,system[0m
 cbc:	0320f809 	jalr	t9
 cc0:	24841600 	addiu	a0,a0,5632

[0m
[[0;33m*[0m] Function [0;33msystem[0m used [0;33m24[0m times [0;33mlibFVconfig.so[0m

