[0m
[[0;33m*[0m] Function [0;33msystem[0m tear down of [0;33munittest.cgi[0m

  401000:	24440020 	addiu	a0,v0,32
  401004:	8c480000 	lw	t0,0(v0)
  401008:	8c470004 	lw	a3,4(v0)
  40100c:	8c460008 	lw	a2,8(v0)
  401010:	8c45000c 	lw	a1,12(v0)
  401014:	ac680000 	sw	t0,0(v1)
  401018:	ac670004 	sw	a3,4(v1)
  40101c:	ac660008 	sw	a2,8(v1)
  401020:	ac65000c 	sw	a1,12(v1)
  401024:	24420010 	addiu	v0,v0,16
  401028:	1444fff6 	bne	v0,a0,401004 <_ftext@@Base+0x324>
  40102c:	24630010 	addiu	v1,v1,16
  401030:	8c450000 	lw	a1,0(v0)
  401034:	8c440004 	lw	a0,4(v0)
  401038:	8c420008 	lw	v0,8(v0)
  40103c:	ac650000 	sw	a1,0(v1)
  401040:	ac640004 	sw	a0,4(v1)
  401044:	ac620008 	sw	v0,8(v1)
  401048:	8fb7033c 	lw	s7,828(sp)
  40104c:	8fbe0338 	lw	s8,824(sp)
  401050:	8fb30334 	lw	s3,820(sp)
  401054:	8fb40330 	lw	s4,816(sp)
  401058:	8fb50340 	lw	s5,832(sp)
  40105c:	8fb6032c 	lw	s6,812(sp)
  401060:	3c040040 	lui	a0,0x40
[31m  401064:	8f9980c8 	lw	t9,system[0m
  401068:	0320f809 	jalr	t9
  40106c:	248422e0 	addiu	a0,a0,8928
  401070:	8fbc0020 	lw	gp,32(sp)
  401074:	3c040040 	lui	a0,0x40
[31m  401078:	8f9980c8 	lw	t9,system[0m
  40107c:	0320f809 	jalr	t9
  401080:	24842314 	addiu	a0,a0,8980
--
  401130:	0320f809 	jalr	t9
  401134:	02203021 	move	a2,s1
  401138:	8fbc0020 	lw	gp,32(sp)
  40113c:	1440fff0 	bnez	v0,401100 <_ftext@@Base+0x420>
  401140:	00000000 	nop
  401144:	8f9980e8 	lw	t9,-32536(gp)
  401148:	0320f809 	jalr	t9
  40114c:	02202021 	move	a0,s1
  401150:	8fbc0020 	lw	gp,32(sp)
  401154:	93b10128 	lbu	s1,296(sp)
  401158:	0011882b 	sltu	s1,zero,s1
  40115c:	afb30010 	sw	s3,16(sp)
  401160:	afb40014 	sw	s4,20(sp)
  401164:	26b5076c 	addiu	s5,s5,1900
  401168:	afb50018 	sw	s5,24(sp)
  40116c:	afb6001c 	sw	s6,28(sp)
  401170:	27b00028 	addiu	s0,sp,40
  401174:	02002021 	move	a0,s0
  401178:	3c050040 	lui	a1,0x40
  40117c:	24a52364 	addiu	a1,a1,9060
  401180:	26e60001 	addiu	a2,s7,1
  401184:	8f998068 	lw	t9,-32664(gp)
  401188:	0320f809 	jalr	t9
  40118c:	03c03821 	move	a3,s8
  401190:	8fbc0020 	lw	gp,32(sp)
[31m  401194:	8f9980c8 	lw	t9,system[0m
  401198:	0320f809 	jalr	t9
  40119c:	02002021 	move	a0,s0
  4011a0:	8fbc0020 	lw	gp,32(sp)
  4011a4:	3c040040 	lui	a0,0x40
[31m  4011a8:	8f9980c8 	lw	t9,system[0m
  4011ac:	0320f809 	jalr	t9
  4011b0:	24842314 	addiu	a0,a0,8980
--
  4016e8:	93a3002c 	lbu	v1,44(sp)
  4016ec:	93a20034 	lbu	v0,52(sp)
  4016f0:	14620015 	bne	v1,v0,401748 <main@@Base+0x4fc>
  4016f4:	00000000 	nop
  4016f8:	93a3002d 	lbu	v1,45(sp)
  4016fc:	93a20035 	lbu	v0,53(sp)
  401700:	14620011 	bne	v1,v0,401748 <main@@Base+0x4fc>
  401704:	00000000 	nop
  401708:	93a3002e 	lbu	v1,46(sp)
  40170c:	93a20036 	lbu	v0,54(sp)
  401710:	1462000d 	bne	v1,v0,401748 <main@@Base+0x4fc>
  401714:	00000000 	nop
  401718:	93a3002f 	lbu	v1,47(sp)
  40171c:	93a20037 	lbu	v0,55(sp)
  401720:	14620009 	bne	v1,v0,401748 <main@@Base+0x4fc>
  401724:	00000000 	nop
  401728:	93a30030 	lbu	v1,48(sp)
  40172c:	93a20038 	lbu	v0,56(sp)
  401730:	14620005 	bne	v1,v0,401748 <main@@Base+0x4fc>
  401734:	00000000 	nop
  401738:	93a30031 	lbu	v1,49(sp)
  40173c:	93a20039 	lbu	v0,57(sp)
  401740:	1062000a 	beq	v1,v0,40176c <main@@Base+0x520>
  401744:	00000000 	nop
  401748:	3c040040 	lui	a0,0x40
[31m  40174c:	8f9980c8 	lw	t9,system[0m
  401750:	0320f809 	jalr	t9
  401754:	24842500 	addiu	a0,a0,9472
  401758:	8fbc0020 	lw	gp,32(sp)
  40175c:	3c040040 	lui	a0,0x40
[31m  401760:	8f9980c8 	lw	t9,system[0m
  401764:	0320f809 	jalr	t9
  401768:	24842540 	addiu	a0,a0,9536
--
  401e48:	0320f809 	jalr	t9
  401e4c:	02802821 	move	a1,s4
  401e50:	8fbc0020 	lw	gp,32(sp)
  401e54:	26310001 	addiu	s1,s1,1
  401e58:	0232102a 	slt	v0,s1,s2
  401e5c:	1440fff7 	bnez	v0,401e3c <main@@Base+0xbf0>
  401e60:	02711021 	addu	v0,s3,s1
  401e64:	3c040040 	lui	a0,0x40
  401e68:	248422d4 	addiu	a0,a0,8916
  401e6c:	24050001 	li	a1,1
  401e70:	8e070060 	lw	a3,96(s0)
  401e74:	8f998054 	lw	t9,-32684(gp)
  401e78:	0320f809 	jalr	t9
  401e7c:	24060002 	li	a2,2
  401e80:	8fbc0020 	lw	gp,32(sp)
  401e84:	10000038 	b	401f68 <main@@Base+0xd1c>
  401e88:	00000000 	nop
  401e8c:	3c050040 	lui	a1,0x40
  401e90:	8f998070 	lw	t9,-32656(gp)
  401e94:	0320f809 	jalr	t9
  401e98:	24a526c4 	addiu	a1,a1,9924
  401e9c:	8fbc0020 	lw	gp,32(sp)
  401ea0:	14400010 	bnez	v0,401ee4 <main@@Base+0xc98>
  401ea4:	3c050040 	lui	a1,0x40
  401ea8:	3c040040 	lui	a0,0x40
[31m  401eac:	8f9980c8 	lw	t9,system[0m
  401eb0:	0320f809 	jalr	t9
  401eb4:	248426cc 	addiu	a0,a0,9932
  401eb8:	8e030058 	lw	v1,88(s0)
  401ebc:	26520080 	addiu	s2,s2,128
  401ec0:	00129080 	sll	s2,s2,0x2
  401ec4:	00721821 	addu	v1,v1,s2
  401ec8:	8e040060 	lw	a0,96(s0)
  401ecc:	8c650004 	lw	a1,4(v1)
  401ed0:	0c1003b6 	jal	400ed8 <_ftext@@Base+0x1f8>
  401ed4:	00403021 	move	a2,v0
  401ed8:	8fbc0020 	lw	gp,32(sp)
  401edc:	10000022 	b	401f68 <main@@Base+0xd1c>
  401ee0:	00000000 	nop
  401ee4:	02202021 	move	a0,s1
  401ee8:	8f998070 	lw	t9,-32656(gp)
  401eec:	0320f809 	jalr	t9
  401ef0:	24a52700 	addiu	a1,a1,9984
  401ef4:	8fbc0020 	lw	gp,32(sp)
  401ef8:	14400010 	bnez	v0,401f3c <main@@Base+0xcf0>
  401efc:	3c050040 	lui	a1,0x40
  401f00:	3c040040 	lui	a0,0x40
[31m  401f04:	8f9980c8 	lw	t9,system[0m
  401f08:	0320f809 	jalr	t9
  401f0c:	24842708 	addiu	a0,a0,9992

[0m
[[0;33m*[0m] Function [0;33msystem[0m used [0;33m8[0m times [0;33munittest.cgi[0m

