[[0;33m*[0m] Binary protection state of [0;33miwconfig[0m

  	RELRO          CANARY            NX           PIE          RPATH        RUNPATH      SYMBOLS      
  	[31mNo RELRO[0m       [31mNo Canary found[0m   [31mNX disabled[0m  [31mNo PIE[0m       [32mNo RPATH[0m     [32mNo RUNPATH[0m   [32mNo Symbols[0m

[0m
[[0;33m*[0m] Function [0;33mprintf[0m tear down of [0;33miwconfig[0m

  402d1c:	afa20010 	sw	v0,16(sp)
  402d20:	02002821 	move	a1,s0
  402d24:	27a60230 	addiu	a2,sp,560
  402d28:	04110946 	bal	405244 <iw_get_stats>
  402d2c:	27a70254 	addiu	a3,sp,596
  402d30:	8fbc0020 	lw	gp,32(sp)
  402d34:	0440015d 	bltz	v0,4032ac <main+0x214c>
  402d38:	24020001 	li	v0,1
  402d3c:	08100cab 	j	4032ac <main+0x214c>
  402d40:	afa20250 	sw	v0,592(sp)
  402d44:	8f99819c 	lw	t9,-32356(gp)
  402d48:	8c710000 	lw	s1,0(v1)
  402d4c:	0320f809 	jalr	t9
  402d50:	24040013 	li	a0,19
  402d54:	8fbc0020 	lw	gp,32(sp)
  402d58:	3c050041 	lui	a1,0x41
  402d5c:	02202021 	move	a0,s1
  402d60:	8f99816c 	lw	t9,-32404(gp)
  402d64:	24a59154 	addiu	a1,a1,-28332
  402d68:	02003021 	move	a2,s0
  402d6c:	0320f809 	jalr	t9
  402d70:	00403821 	move	a3,v0
  402d74:	08100ca6 	j	403298 <main+0x2138>
  402d78:	2402ffed 	li	v0,-19
  402d7c:	8fa6016c 	lw	a2,364(sp)
[31m  402d80:	8f9981a0 	lw	t9,printf[0m
  402d84:	10c00012 	beqz	a2,402dd0 <main+0x1c70>
  402d88:	30c600ff 	andi	a2,a2,0xff
--
  402d9c:	24849164 	addiu	a0,a0,-28316
  402da0:	0320f809 	jalr	t9
  402da4:	27a50170 	addiu	a1,sp,368
  402da8:	8fbc0020 	lw	gp,32(sp)
  402dac:	08100b78 	j	402de0 <main+0x1c80>
  402db0:	00000000 	nop
  402db4:	3c040041 	lui	a0,0x41
  402db8:	24849178 	addiu	a0,a0,-28296
  402dbc:	0320f809 	jalr	t9
  402dc0:	27a50170 	addiu	a1,sp,368
  402dc4:	8fbc0020 	lw	gp,32(sp)
  402dc8:	08100b78 	j	402de0 <main+0x1c80>
  402dcc:	00000000 	nop
  402dd0:	3c040041 	lui	a0,0x41
  402dd4:	0320f809 	jalr	t9
  402dd8:	24849188 	addiu	a0,a0,-28280
  402ddc:	8fbc0020 	lw	gp,32(sp)
  402de0:	8fa20168 	lw	v0,360(sp)
  402de4:	00000000 	nop
  402de8:	14400005 	bnez	v0,402e00 <main+0x1ca0>
  402dec:	3c110041 	lui	s1,0x41
  402df0:	8fa201ac 	lw	v0,428(sp)
  402df4:	00000000 	nop
  402df8:	10400006 	beqz	v0,402e14 <main+0x1cb4>
  402dfc:	24100003 	li	s0,3
[31m  402e00:	8f9981a0 	lw	t9,printf[0m
  402e04:	26249198 	addiu	a0,s1,-28264
  402e08:	0320f809 	jalr	t9
  402e0c:	00008021 	move	s0,zero
  402e10:	8fbc0020 	lw	gp,32(sp)
  402e14:	8fa20194 	lw	v0,404(sp)
  402e18:	00000000 	nop
  402e1c:	1040000c 	beqz	v0,402e50 <main+0x1cf0>
  402e20:	00000000 	nop
  402e24:	8fa20198 	lw	v0,408(sp)
  402e28:	8f838040 	lw	v1,-32704(gp)
[31m  402e2c:	8f9981a0 	lw	t9,printf[0m
  402e30:	00021080 	sll	v0,v0,0x2
  402e34:	00621021 	addu	v0,v1,v0
  402e38:	8c450000 	lw	a1,0(v0)
  402e3c:	3c040041 	lui	a0,0x41
  402e40:	0320f809 	jalr	t9
  402e44:	248491a4 	addiu	a0,a0,-28252
  402e48:	8fbc0020 	lw	gp,32(sp)
  402e4c:	26100003 	addiu	s0,s0,3
  402e50:	8fa20108 	lw	v0,264(sp)
  402e54:	00000000 	nop
  402e58:	10400012 	beqz	v0,402ea4 <main+0x1d44>
  402e5c:	2402ffff 	li	v0,-1
  402e60:	afa20010 	sw	v0,16(sp)
  402e64:	8fa20118 	lw	v0,280(sp)
  402e68:	8f998054 	lw	t9,-32684(gp)
  402e6c:	8fa60110 	lw	a2,272(sp)
  402e70:	8fa70114 	lw	a3,276(sp)
  402e74:	afa20014 	sw	v0,20(sp)
  402e78:	27a40068 	addiu	a0,sp,104
  402e7c:	04110724 	bal	404b10 <iw_print_freq>
  402e80:	24050080 	li	a1,128
  402e84:	8fbc0020 	lw	gp,32(sp)
  402e88:	3c040041 	lui	a0,0x41
  402e8c:	248491b0 	addiu	a0,a0,-28240
[31m  402e90:	8f9981a0 	lw	t9,printf[0m
  402e94:	27a50068 	addiu	a1,sp,104
  402e98:	0320f809 	jalr	t9
  402e9c:	26100004 	addiu	s0,s0,4
  402ea0:	8fbc0020 	lw	gp,32(sp)
  402ea4:	8fa201d4 	lw	v0,468(sp)
  402ea8:	00000000 	nop
  402eac:	10400024 	beqz	v0,402f40 <main+0x1de0>
  402eb0:	2a020009 	slti	v0,s0,9
  402eb4:	14400006 	bnez	v0,402ed0 <main+0x1d70>
  402eb8:	26249198 	addiu	a0,s1,-28264
[31m  402ebc:	8f9981a0 	lw	t9,printf[0m
  402ec0:	00000000 	nop
  402ec4:	0320f809 	jalr	t9
  402ec8:	00008021 	move	s0,zero
  402ecc:	8fbc0020 	lw	gp,32(sp)
  402ed0:	8fa20194 	lw	v0,404(sp)
[31m  402ed4:	8f9981a0 	lw	t9,printf[0m
  402ed8:	10400007 	beqz	v0,402ef8 <main+0x1d98>
  402edc:	26100006 	addiu	s0,s0,6
  402ee0:	8fa30198 	lw	v1,408(sp)
  402ee4:	24020001 	li	v0,1
  402ee8:	14620003 	bne	v1,v0,402ef8 <main+0x1d98>
  402eec:	3c040041 	lui	a0,0x41
  402ef0:	08100bc0 	j	402f00 <main+0x1da0>
  402ef4:	248491b8 	addiu	a0,a0,-28232
  402ef8:	3c040041 	lui	a0,0x41
  402efc:	248491c0 	addiu	a0,a0,-28224
  402f00:	0320f809 	jalr	t9
  402f04:	00000000 	nop
  402f08:	8fbc0020 	lw	gp,32(sp)
  402f0c:	27a401d8 	addiu	a0,sp,472
  402f10:	8f998058 	lw	t9,-32680(gp)
  402f14:	00000000 	nop
  402f18:	04110ea6 	bal	4069b4 <iw_sawap_ntop>
  402f1c:	27a50068 	addiu	a1,sp,104
  402f20:	8fbc0020 	lw	gp,32(sp)
  402f24:	3c040041 	lui	a0,0x41
  402f28:	248491d0 	addiu	a0,a0,-28208
[31m  402f2c:	8f9981a0 	lw	t9,printf[0m
  402f30:	00000000 	nop
  402f34:	0320f809 	jalr	t9
  402f38:	00402821 	move	a1,v0
  402f3c:	8fbc0020 	lw	gp,32(sp)
  402f40:	8fa201e8 	lw	v0,488(sp)
  402f44:	00000000 	nop
  402f48:	1040001a 	beqz	v0,402fb4 <main+0x1e54>
  402f4c:	2a10000c 	slti	s0,s0,12
  402f50:	16000007 	bnez	s0,402f70 <main+0x1e10>
  402f54:	00000000 	nop
[31m  402f58:	8f9981a0 	lw	t9,printf[0m
  402f5c:	00000000 	nop
  402f60:	0320f809 	jalr	t9
  402f64:	26249198 	addiu	a0,s1,-28264
  402f68:	8fbc0020 	lw	gp,32(sp)
  402f6c:	00000000 	nop
  402f70:	8f99805c 	lw	t9,-32676(gp)
  402f74:	8fa601ec 	lw	a2,492(sp)
  402f78:	24050080 	li	a1,128
  402f7c:	0411079f 	bal	404dfc <iw_print_bitrate>
  402f80:	27a40068 	addiu	a0,sp,104
  402f84:	93a201f0 	lbu	v0,496(sp)
  402f88:	8fbc0020 	lw	gp,32(sp)
  402f8c:	10400002 	beqz	v0,402f98 <main+0x1e38>
  402f90:	2405003a 	li	a1,58
  402f94:	2405003d 	li	a1,61
[31m  402f98:	8f9981a0 	lw	t9,printf[0m
  402f9c:	3c040041 	lui	a0,0x41
  402fa0:	248491d8 	addiu	a0,a0,-28200
  402fa4:	0320f809 	jalr	t9
  402fa8:	27a60068 	addiu	a2,sp,104
  402fac:	8fbc0020 	lw	gp,32(sp)
  402fb0:	00000000 	nop
[31m  402fb4:	8f9981a0 	lw	t9,printf[0m
  402fb8:	00000000 	nop
  402fbc:	0320f809 	jalr	t9
  402fc0:	26249198 	addiu	a0,s1,-28264
  402fc4:	8fa2011c 	lw	v0,284(sp)
  402fc8:	8fbc0020 	lw	gp,32(sp)
  402fcc:	10400042 	beqz	v0,4030d8 <main+0x1f78>
  402fd0:	00000000 	nop
[31m  402fd4:	8f9981a0 	lw	t9,printf[0m
  402fd8:	3c040041 	lui	a0,0x41
  402fdc:	0320f809 	jalr	t9
  402fe0:	248491e8 	addiu	a0,a0,-28184
  402fe4:	8fa20164 	lw	v0,356(sp)
  402fe8:	8fbc0020 	lw	gp,32(sp)
  402fec:	30438000 	andi	v1,v0,0x8000
  402ff0:	14600005 	bnez	v1,403008 <main+0x1ea8>
  402ff4:	00000000 	nop
  402ff8:	8fa70160 	lw	a3,352(sp)
  402ffc:	00000000 	nop
  403000:	14e00004 	bnez	a3,403014 <main+0x1eb4>
  403004:	24050080 	li	a1,128
  403008:	3c040041 	lui	a0,0x41
  40300c:	08100c2b 	j	4030ac <main+0x1f4c>
  403010:	248490f4 	addiu	a0,a0,-28428
  403014:	8f998060 	lw	t9,-32672(gp)
  403018:	afa20010 	sw	v0,16(sp)
  40301c:	27a40068 	addiu	a0,sp,104
  403020:	04110a78 	bal	405a04 <iw_print_key>
  403024:	27a60120 	addiu	a2,sp,288
  403028:	8fbc0020 	lw	gp,32(sp)
  40302c:	3c040041 	lui	a0,0x41
  403030:	27a50068 	addiu	a1,sp,104
[31m  403034:	8f9981a0 	lw	t9,printf[0m
  403038:	00000000 	nop
  40303c:	0320f809 	jalr	t9
  403040:	248491f8 	addiu	a0,a0,-28168
  403044:	93a50164 	lbu	a1,356(sp)
  403048:	8fbc0020 	lw	gp,32(sp)
  40304c:	28a20002 	slti	v0,a1,2
  403050:	14400006 	bnez	v0,40306c <main+0x1f0c>
  403054:	00000000 	nop
[31m  403058:	8f9981a0 	lw	t9,printf[0m
  40305c:	3c040041 	lui	a0,0x41
  403060:	0320f809 	jalr	t9
  403064:	248491fc 	addiu	a0,a0,-28164
  403068:	8fbc0020 	lw	gp,32(sp)
  40306c:	8fa20164 	lw	v0,356(sp)
  403070:	00000000 	nop
  403074:	30424000 	andi	v0,v0,0x4000
  403078:	10400006 	beqz	v0,403094 <main+0x1f34>
  40307c:	00000000 	nop
[31m  403080:	8f9981a0 	lw	t9,printf[0m
  403084:	3c040041 	lui	a0,0x41
  403088:	0320f809 	jalr	t9
  40308c:	24849204 	addiu	a0,a0,-28156
  403090:	8fbc0020 	lw	gp,32(sp)
  403094:	8fa20164 	lw	v0,356(sp)
  403098:	00000000 	nop
  40309c:	30422000 	andi	v0,v0,0x2000
  4030a0:	10400008 	beqz	v0,4030c4 <main+0x1f64>
  4030a4:	3c040041 	lui	a0,0x41
  4030a8:	24849220 	addiu	a0,a0,-28128
[31m  4030ac:	8f9981a0 	lw	t9,printf[0m
  4030b0:	00000000 	nop
  4030b4:	0320f809 	jalr	t9
  4030b8:	00000000 	nop
  4030bc:	8fbc0020 	lw	gp,32(sp)
  4030c0:	00000000 	nop
[31m  4030c4:	8f9981a0 	lw	t9,printf[0m
  4030c8:	00000000 	nop
  4030cc:	0320f809 	jalr	t9
  4030d0:	26249198 	addiu	a0,s1,-28264
  4030d4:	8fbc0020 	lw	gp,32(sp)
  4030d8:	8fa2020c 	lw	v0,524(sp)
  4030dc:	00000000 	nop
  4030e0:	1040003b 	beqz	v0,4031d0 <main+0x2070>
  4030e4:	00000000 	nop
[31m  4030e8:	8f9981a0 	lw	t9,printf[0m
  4030ec:	3c040041 	lui	a0,0x41
  4030f0:	0320f809 	jalr	t9
  4030f4:	2484961c 	addiu	a0,a0,-27108
  4030f8:	93a20215 	lbu	v0,533(sp)
  4030fc:	8fbc0020 	lw	gp,32(sp)
  403100:	10400003 	beqz	v0,403110 <main+0x1fb0>
  403104:	3c040041 	lui	a0,0x41
  403108:	08100c69 	j	4031a4 <main+0x2044>
  40310c:	24849238 	addiu	a0,a0,-28104
  403110:	97a70216 	lhu	a3,534(sp)
  403114:	00000000 	nop
  403118:	30e2f000 	andi	v0,a3,0xf000
  40311c:	10400010 	beqz	v0,403160 <main+0x2000>
  403120:	27a40068 	addiu	a0,sp,104
  403124:	93a2036c 	lbu	v0,876(sp)
  403128:	8f998064 	lw	t9,-32668(gp)
  40312c:	8fa60210 	lw	a2,528(sp)
  403130:	afa20010 	sw	v0,16(sp)
  403134:	04110bac 	bal	405fe8 <iw_print_pm_value>
  403138:	24050080 	li	a1,128
  40313c:	8fbc0020 	lw	gp,32(sp)
  403140:	3c040041 	lui	a0,0x41
  403144:	248491b0 	addiu	a0,a0,-28240
[31m  403148:	8f9981a0 	lw	t9,printf[0m
  40314c:	00000000 	nop
  403150:	0320f809 	jalr	t9
  403154:	27a50068 	addiu	a1,sp,104
  403158:	8fbc0020 	lw	gp,32(sp)
  40315c:	00000000 	nop
  403160:	8f998068 	lw	t9,-32664(gp)
  403164:	97a60216 	lhu	a2,534(sp)
  403168:	27a40068 	addiu	a0,sp,104
  40316c:	04110c4a 	bal	406298 <iw_print_pm_mode>
  403170:	24050080 	li	a1,128
  403174:	8fbc0020 	lw	gp,32(sp)
  403178:	3c040041 	lui	a0,0x41
  40317c:	248491f8 	addiu	a0,a0,-28168
[31m  403180:	8f9981a0 	lw	t9,printf[0m
  403184:	00000000 	nop
  403188:	0320f809 	jalr	t9
  40318c:	27a50068 	addiu	a1,sp,104
  403190:	97a20216 	lhu	v0,534(sp)
  403194:	8fbc0020 	lw	gp,32(sp)
  403198:	14400008 	bnez	v0,4031bc <main+0x205c>
  40319c:	3c040041 	lui	a0,0x41
  4031a0:	24849240 	addiu	a0,a0,-28096
[31m  4031a4:	8f9981a0 	lw	t9,printf[0m
  4031a8:	00000000 	nop
  4031ac:	0320f809 	jalr	t9
  4031b0:	00000000 	nop
  4031b4:	8fbc0020 	lw	gp,32(sp)
  4031b8:	00000000 	nop
[31m  4031bc:	8f9981a0 	lw	t9,printf[0m
  4031c0:	00000000 	nop
  4031c4:	0320f809 	jalr	t9
  4031c8:	26249198 	addiu	a0,s1,-28264
  4031cc:	8fbc0020 	lw	gp,32(sp)
  4031d0:	8fa20250 	lw	v0,592(sp)
  4031d4:	00000000 	nop
  4031d8:	1040002a 	beqz	v0,403284 <main+0x2124>
  4031dc:	27a60232 	addiu	a2,sp,562
  4031e0:	8fa204a0 	lw	v0,1184(sp)
  4031e4:	8f99806c 	lw	t9,-32660(gp)
  4031e8:	27a70254 	addiu	a3,sp,596
  4031ec:	afa20010 	sw	v0,16(sp)
  4031f0:	27a40068 	addiu	a0,sp,104
  4031f4:	04110918 	bal	405658 <iw_print_stats>
  4031f8:	24050080 	li	a1,128
  4031fc:	8fbc0020 	lw	gp,32(sp)
  403200:	3c040041 	lui	a0,0x41
  403204:	27a50068 	addiu	a1,sp,104
[31m  403208:	8f9981a0 	lw	t9,printf[0m
  40320c:	00000000 	nop
  403210:	0320f809 	jalr	t9
  403214:	24849244 	addiu	a0,a0,-28092
  403218:	93a2036c 	lbu	v0,876(sp)
  40321c:	8fbc0020 	lw	gp,32(sp)
  403220:	8fa50238 	lw	a1,568(sp)
  403224:	2c42000c 	sltiu	v0,v0,12
  403228:	8fa6023c 	lw	a2,572(sp)
  40322c:	8fa70248 	lw	a3,584(sp)
  403230:	1440000e 	bnez	v0,40326c <main+0x210c>
  403234:	00000000 	nop
  403238:	8fa20244 	lw	v0,580(sp)
  40323c:	afa70014 	sw	a3,20(sp)
[31m  403240:	8f9981a0 	lw	t9,printf[0m
  403244:	afa20010 	sw	v0,16(sp)
  403248:	8fa2024c 	lw	v0,588(sp)
  40324c:	8fa70240 	lw	a3,576(sp)
  403250:	3c040041 	lui	a0,0x41
  403254:	afa20018 	sw	v0,24(sp)
  403258:	0320f809 	jalr	t9
  40325c:	24849250 	addiu	a0,a0,-28080
  403260:	8fbc0020 	lw	gp,32(sp)
  403264:	08100ca0 	j	403280 <main+0x2120>
  403268:	00000000 	nop
[31m  40326c:	8f9981a0 	lw	t9,printf[0m
  403270:	3c040041 	lui	a0,0x41
  403274:	0320f809 	jalr	t9
  403278:	248492e0 	addiu	a0,a0,-27936
  40327c:	8fbc0020 	lw	gp,32(sp)
  403280:	00000000 	nop
  403284:	8f9981ac 	lw	t9,-32340(gp)
  403288:	00000000 	nop
  40328c:	0320f809 	jalr	t9
  403290:	2404000a 	li	a0,10
  403294:	00001021 	move	v0,zero
  403298:	8fbf04cc 	lw	ra,1228(sp)
  40329c:	8fb104c8 	lw	s1,1224(sp)
  4032a0:	8fb004c4 	lw	s0,1220(sp)
  4032a4:	03e00008 	jr	ra
  4032a8:	27bd04d0 	addiu	sp,sp,1232
[31m  4032ac:	8f9981a0 	lw	t9,printf[0m
  4032b0:	3c040041 	lui	a0,0x41
  4032b4:	24849324 	addiu	a0,a0,-27868
--
  403394:	afb20028 	sw	s2,40(sp)
  403398:	a7a2002c 	sh	v0,44(sp)
  40339c:	0320f809 	jalr	t9
  4033a0:	a7a0002e 	sh	zero,46(sp)
  4033a4:	8fbc0010 	lw	gp,16(sp)
  4033a8:	02202021 	move	a0,s1
  4033ac:	34058b0b 	li	a1,0x8b0b
  4033b0:	8f9981a4 	lw	t9,-32348(gp)
  4033b4:	00000000 	nop
  4033b8:	0320f809 	jalr	t9
  4033bc:	27a60018 	addiu	a2,sp,24
  4033c0:	8fbc0010 	lw	gp,16(sp)
  4033c4:	04410006 	bgez	v0,4033e0 <main+0x2280>
  4033c8:	00000000 	nop
  4033cc:	8f828120 	lw	v0,-32480(gp)
  4033d0:	8f858028 	lw	a1,-32728(gp)
  4033d4:	8c440000 	lw	a0,0(v0)
  4033d8:	10000018 	b	40343c <main+0x22dc>
  4033dc:	24a596c8 	addiu	a1,a1,-26936
  4033e0:	97a2002c 	lhu	v0,44(sp)
  4033e4:	00000000 	nop
  4033e8:	2c42012c 	sltiu	v0,v0,300
  4033ec:	1440000f 	bnez	v0,40342c <main+0x22cc>
  4033f0:	02002821 	move	a1,s0
  4033f4:	8f848028 	lw	a0,-32728(gp)
[31m  4033f8:	8f9981a0 	lw	t9,printf[0m
  4033fc:	93a60151 	lbu	a2,337(sp)
  403400:	0320f809 	jalr	t9
  403404:	2484970c 	addiu	a0,a0,-26868
  403408:	8fbc0010 	lw	gp,16(sp)
  40340c:	93a50150 	lbu	a1,336(sp)
  403410:	8f848028 	lw	a0,-32728(gp)
[31m  403414:	8f9981a0 	lw	t9,printf[0m
  403418:	00000000 	nop
  40341c:	0320f809 	jalr	t9
--
  40390c:	3c1c0002 	lui	gp,0x2
  403910:	279cf0e4 	addiu	gp,gp,-3868
  403914:	0399e021 	addu	gp,gp,t9
  403918:	8f998070 	lw	t9,-32656(gp)
  40391c:	27bdffd8 	addiu	sp,sp,-40
  403920:	afbc0010 	sw	gp,16(sp)
  403924:	afb00020 	sw	s0,32(sp)
  403928:	afbf0024 	sw	ra,36(sp)
  40392c:	afa40018 	sw	a0,24(sp)
  403930:	0411fece 	bal	40346c <iw_sockets_open>
  403934:	00000000 	nop
  403938:	8fbc0010 	lw	gp,16(sp)
  40393c:	8fa50018 	lw	a1,24(sp)
  403940:	04410008 	bgez	v0,403964 <iw_print_version_info+0x58>
  403944:	00408021 	move	s0,v0
  403948:	8f848028 	lw	a0,-32728(gp)
  40394c:	8f998184 	lw	t9,-32380(gp)
  403950:	00000000 	nop
  403954:	0320f809 	jalr	t9
  403958:	24849358 	addiu	a0,a0,-27816
  40395c:	1000002e 	b	403a18 <iw_print_version_info+0x10c>
  403960:	2402ffff 	li	v0,-1
  403964:	10a00008 	beqz	a1,403988 <iw_print_version_info+0x7c>
  403968:	2406001d 	li	a2,29
  40396c:	8f848028 	lw	a0,-32728(gp)
[31m  403970:	8f9981a0 	lw	t9,printf[0m
  403974:	00000000 	nop
  403978:	0320f809 	jalr	t9
  40397c:	2484985c 	addiu	a0,a0,-26532
  403980:	8fbc0010 	lw	gp,16(sp)
  403984:	00000000 	nop
  403988:	8f848028 	lw	a0,-32728(gp)
[31m  40398c:	8f9981a0 	lw	t9,printf[0m
  403990:	24050016 	li	a1,22
  403994:	0320f809 	jalr	t9
  403998:	24849880 	addiu	a0,a0,-26496
  40399c:	8fbc0010 	lw	gp,16(sp)
  4039a0:	00000000 	nop
  4039a4:	8f998048 	lw	t9,-32696(gp)
  4039a8:	00000000 	nop
  4039ac:	0411ff77 	bal	40378c <iw_get_kernel_we_version>
  4039b0:	00000000 	nop
  4039b4:	28430010 	slti	v1,v0,16
  4039b8:	8fbc0010 	lw	gp,16(sp)
  4039bc:	14600008 	bnez	v1,4039e0 <iw_print_version_info+0xd4>
  4039c0:	00402821 	move	a1,v0
  4039c4:	8f848028 	lw	a0,-32728(gp)
[31m  4039c8:	8f9981a0 	lw	t9,printf[0m
  4039cc:	00000000 	nop
  4039d0:	0320f809 	jalr	t9
--
  405eac:	8c450000 	lw	a1,0(v0)
  405eb0:	24849c5c 	addiu	a0,a0,-25508
  405eb4:	0320f809 	jalr	t9
  405eb8:	2413ffff 	li	s3,-1
  405ebc:	10000040 	b	405fc0 <iw_in_key_full+0x1e8>
  405ec0:	00000000 	nop
  405ec4:	8f998034 	lw	t9,-32716(gp)
  405ec8:	a0400000 	sb	zero,0(v0)
  405ecc:	02202821 	move	a1,s1
  405ed0:	0411f6d5 	bal	403a28 <iw_get_range_info>
  405ed4:	27a60018 	addiu	a2,sp,24
  405ed8:	8fbc0010 	lw	gp,16(sp)
  405edc:	04410006 	bgez	v0,405ef8 <iw_in_key_full+0x120>
  405ee0:	27a40018 	addiu	a0,sp,24
  405ee4:	8f99813c 	lw	t9,-32452(gp)
  405ee8:	00002821 	move	a1,zero
  405eec:	0320f809 	jalr	t9
  405ef0:	2406024c 	li	a2,588
  405ef4:	8fbc0010 	lw	gp,16(sp)
  405ef8:	93a20130 	lbu	v0,304(sp)
  405efc:	00000000 	nop
  405f00:	2c420010 	sltiu	v0,v0,16
  405f04:	1440002e 	bnez	v0,405fc0 <iw_in_key_full+0x1e8>
  405f08:	00000000 	nop
  405f0c:	8f908028 	lw	s0,-32728(gp)
[31m  405f10:	8f9981a0 	lw	t9,printf[0m
  405f14:	96850000 	lhu	a1,0(s4)
  405f18:	93a60108 	lbu	a2,264(sp)
  405f1c:	0320f809 	jalr	t9
  405f20:	26049c7c 	addiu	a0,s0,-25476
  405f24:	92820000 	lbu	v0,0(s4)
  405f28:	8fbc0010 	lw	gp,16(sp)
  405f2c:	14400018 	bnez	v0,405f90 <iw_in_key_full+0x1b8>
  405f30:	02402021 	move	a0,s2
  405f34:	8f998034 	lw	t9,-32716(gp)
  405f38:	02202821 	move	a1,s1
  405f3c:	0411f6ba 	bal	403a28 <iw_get_range_info>
  405f40:	27a60018 	addiu	a2,sp,24
  405f44:	8fbc0010 	lw	gp,16(sp)
  405f48:	04410007 	bgez	v0,405f68 <iw_in_key_full+0x190>
  405f4c:	27a40018 	addiu	a0,sp,24
  405f50:	8f99813c 	lw	t9,-32452(gp)
  405f54:	00002821 	move	a1,zero
  405f58:	0320f809 	jalr	t9
  405f5c:	2406024c 	li	a2,588
  405f60:	8fbc0010 	lw	gp,16(sp)
  405f64:	00000000 	nop
[31m  405f68:	8f9981a0 	lw	t9,printf[0m
  405f6c:	96850000 	lhu	a1,0(s4)
  405f70:	93a60108 	lbu	a2,264(sp)
  405f74:	0320f809 	jalr	t9
  405f78:	26049c7c 	addiu	a0,s0,-25476
  405f7c:	96830000 	lhu	v1,0(s4)
  405f80:	93a20108 	lbu	v0,264(sp)
  405f84:	8fbc0010 	lw	gp,16(sp)
  405f88:	00621025 	or	v0,v1,v0
  405f8c:	a6820000 	sh	v0,0(s4)
[31m  405f90:	8f9981a0 	lw	t9,printf[0m
  405f94:	96850000 	lhu	a1,0(s4)
  405f98:	93a60108 	lbu	a2,264(sp)

[0m
[[0;33m*[0m] Function [0;33mprintf[0m used [0;33m33[0m times [0;33miwconfig[0m

