[0m
[[0;33m*[0m] Function [0;33mfprintf[0m tear down of [0;33mtools.cgi[0m

  400f18:	00021080 	sll	v0,v0,0x2
  400f1c:	02228821 	addu	s1,s1,v0
  400f20:	8e240004 	lw	a0,4(s1)
  400f24:	8f99803c 	lw	t9,-32708(gp)
  400f28:	0320f809 	jalr	t9
  400f2c:	00000000 	nop
  400f30:	8fbc0018 	lw	gp,24(sp)
  400f34:	afa20544 	sw	v0,1348(sp)
  400f38:	26100001 	addiu	s0,s0,1
  400f3c:	8e710058 	lw	s1,88(s3)
  400f40:	8e220000 	lw	v0,0(s1)
  400f44:	0202102a 	slt	v0,s0,v0
  400f48:	1440ff48 	bnez	v0,400c6c <main@@Base+0x14c>
  400f4c:	00101080 	sll	v0,s0,0x2
  400f50:	2402ffff 	li	v0,-1
  400f54:	8fa3052c 	lw	v1,1324(sp)
  400f58:	14620004 	bne	v1,v0,400f6c <main@@Base+0x44c>
  400f5c:	00000000 	nop
  400f60:	8fa3053c 	lw	v1,1340(sp)
  400f64:	10620017 	beq	v1,v0,400fc4 <main@@Base+0x4a4>
  400f68:	00000000 	nop
  400f6c:	8e640060 	lw	a0,96(s3)
  400f70:	3c050040 	lui	a1,0x40
  400f74:	24a51420 	addiu	a1,a1,5152
  400f78:	3c060040 	lui	a2,0x40
[31m  400f7c:	8f998068 	lw	t9,fprintf[0m
  400f80:	0320f809 	jalr	t9
  400f84:	24c61428 	addiu	a2,a2,5160
  400f88:	8fbc0018 	lw	gp,24(sp)
  400f8c:	8f998070 	lw	t9,-32656(gp)
  400f90:	0320f809 	jalr	t9
  400f94:	02602021 	move	a0,s3
  400f98:	8fbc0018 	lw	gp,24(sp)
  400f9c:	24020001 	li	v0,1
  400fa0:	8fa3052c 	lw	v1,1324(sp)
  400fa4:	14620021 	bne	v1,v0,40102c <main@@Base+0x50c>
  400fa8:	3c040040 	lui	a0,0x40
  400fac:	10000014 	b	401000 <main@@Base+0x4e0>
  400fb0:	00000000 	nop
  400fb4:	afa20544 	sw	v0,1348(sp)
  400fb8:	afa20534 	sw	v0,1332(sp)
  400fbc:	afa20520 	sw	v0,1312(sp)
  400fc0:	afa2052c 	sw	v0,1324(sp)
  400fc4:	8e640060 	lw	a0,96(s3)
  400fc8:	3c050040 	lui	a1,0x40
  400fcc:	24a51420 	addiu	a1,a1,5152
  400fd0:	3c060040 	lui	a2,0x40
[31m  400fd4:	8f998068 	lw	t9,fprintf[0m
  400fd8:	0320f809 	jalr	t9
  400fdc:	24c6142c 	addiu	a2,a2,5164
--
  401050:	0320f809 	jalr	t9
  401054:	240603ff 	li	a2,1023
  401058:	8fbc0018 	lw	gp,24(sp)
  40105c:	3c040040 	lui	a0,0x40
  401060:	8f998078 	lw	t9,-32648(gp)
  401064:	0320f809 	jalr	t9
  401068:	24841434 	addiu	a0,a0,5172
  40106c:	8fbc0018 	lw	gp,24(sp)
  401070:	27b00120 	addiu	s0,sp,288
  401074:	8fa20534 	lw	v0,1332(sp)
  401078:	afa20010 	sw	v0,16(sp)
  40107c:	8fa30544 	lw	v1,1348(sp)
  401080:	afa30014 	sw	v1,20(sp)
  401084:	02002021 	move	a0,s0
  401088:	3c050040 	lui	a1,0x40
  40108c:	24a51490 	addiu	a1,a1,5264
  401090:	8fa70520 	lw	a3,1312(sp)
  401094:	8f998048 	lw	t9,-32696(gp)
  401098:	0320f809 	jalr	t9
  40109c:	27a60020 	addiu	a2,sp,32
  4010a0:	8fbc0018 	lw	gp,24(sp)
  4010a4:	8f828044 	lw	v0,-32700(gp)
  4010a8:	8c440000 	lw	a0,0(v0)
  4010ac:	3c050040 	lui	a1,0x40
  4010b0:	24a514c0 	addiu	a1,a1,5312
[31m  4010b4:	8f998068 	lw	t9,fprintf[0m
  4010b8:	0320f809 	jalr	t9
  4010bc:	02003021 	move	a2,s0

[0m
[[0;33m*[0m] Function [0;33mfprintf[0m used [0;33m3[0m times [0;33mtools.cgi[0m

