[[0;33m*[0m] Binary protection state of [0;33mlibreadline.so.5.2[0m

  	RELRO          CANARY            NX           PIE          RPATH        RUNPATH      SYMBOLS      
  	[31mNo RELRO[0m       [31mNo Canary found[0m   [31mNX disabled[0m  [33mDSO[0m          [31mRPATH[0m        [32mNo RUNPATH[0m   [31mSymbols[0m

[0m
[[0;33m*[0m] Function [0;33mstrcpy[0m tear down of [0;33mlibreadline.so.5.2[0m

    951c:	00808021 	move	s0,a0
    9520:	8c440000 	lw	a0,0(v0)
    9524:	afbc0010 	sw	gp,16(sp)
    9528:	afbf001c 	sw	ra,28(sp)
    952c:	10800006 	beqz	a0,9548 <rl_set_prompt+0x44>
    9530:	00000000 	nop
    9534:	8f998048 	lw	t9,-32696(gp)
    9538:	00000000 	nop
    953c:	0320f809 	jalr	t9
    9540:	00000000 	nop
    9544:	8fbc0010 	lw	gp,16(sp)
    9548:	12000013 	beqz	s0,9598 <rl_set_prompt+0x94>
    954c:	00001021 	move	v0,zero
    9550:	8f998100 	lw	t9,strlen
    9554:	00000000 	nop
    9558:	0320f809 	jalr	t9
    955c:	02002021 	move	a0,s0
    9560:	8fbc0010 	lw	gp,16(sp)
    9564:	00000000 	nop
    9568:	8f99888c 	lw	t9,-30580(gp)
    956c:	00000000 	nop
    9570:	0320f809 	jalr	t9
    9574:	24440001 	addiu	a0,v0,1
    9578:	8fbc0010 	lw	gp,16(sp)
    957c:	00402021 	move	a0,v0
[31m    9580:	8f998878 	lw	t9,strcpy[0m
    9584:	00000000 	nop
    9588:	0320f809 	jalr	t9
--
    9830:	afb00018 	sw	s0,24(sp)
    9834:	0320f809 	jalr	t9
    9838:	00809021 	move	s2,a0
    983c:	8fbc0010 	lw	gp,16(sp)
    9840:	10400040 	beqz	v0,9944 <readline_internal_teardown+0x138>
    9844:	00000000 	nop
    9848:	8f8286dc 	lw	v0,-31012(gp)
    984c:	00000000 	nop
    9850:	8c420000 	lw	v0,0(v0)
    9854:	00000000 	nop
    9858:	1040003a 	beqz	v0,9944 <readline_internal_teardown+0x138>
    985c:	00000000 	nop
    9860:	8f908018 	lw	s0,-32744(gp)
    9864:	8f998100 	lw	t9,strlen
    9868:	8e044bc0 	lw	a0,19392(s0)
    986c:	0320f809 	jalr	t9
    9870:	00000000 	nop
    9874:	8fbc0010 	lw	gp,16(sp)
    9878:	00000000 	nop
    987c:	8f99888c 	lw	t9,-30580(gp)
    9880:	00000000 	nop
    9884:	0320f809 	jalr	t9
    9888:	24440001 	addiu	a0,v0,1
    988c:	8fbc0010 	lw	gp,16(sp)
    9890:	8e054bc0 	lw	a1,19392(s0)
[31m    9894:	8f998878 	lw	t9,strcpy[0m
    9898:	00000000 	nop
    989c:	0320f809 	jalr	t9
--
    98b0:	8f998770 	lw	t9,-30864(gp)
    98b4:	00000000 	nop
    98b8:	0320f809 	jalr	t9
    98bc:	00408821 	move	s1,v0
    98c0:	8fbc0010 	lw	gp,16(sp)
    98c4:	00000000 	nop
    98c8:	8f9986a0 	lw	t9,-31072(gp)
    98cc:	00000000 	nop
    98d0:	0320f809 	jalr	t9
    98d4:	00000000 	nop
    98d8:	8fbc0010 	lw	gp,16(sp)
    98dc:	8e054bc0 	lw	a1,19392(s0)
    98e0:	00003021 	move	a2,zero
    98e4:	8f9983ac 	lw	t9,-31828(gp)
    98e8:	00000000 	nop
    98ec:	0320f809 	jalr	t9
    98f0:	00402021 	move	a0,v0
    98f4:	8fbc0010 	lw	gp,16(sp)
    98f8:	00000000 	nop
    98fc:	8f998890 	lw	t9,-30576(gp)
    9900:	00000000 	nop
    9904:	0320f809 	jalr	t9
    9908:	00402021 	move	a0,v0
    990c:	8fbc0010 	lw	gp,16(sp)
    9910:	8e044bc0 	lw	a0,19392(s0)
[31m    9914:	8f998878 	lw	t9,strcpy[0m
    9918:	00000000 	nop
    991c:	0320f809 	jalr	t9
--
    9970:	00000000 	nop
    9974:	8f998588 	lw	t9,-31352(gp)
    9978:	24040001 	li	a0,1
    997c:	0320f809 	jalr	t9
    9980:	00002821 	move	a1,zero
    9984:	8fbc0010 	lw	gp,16(sp)
    9988:	16400016 	bnez	s2,99e4 <readline_internal_teardown+0x1d8>
    998c:	00001021 	move	v0,zero
    9990:	8f908018 	lw	s0,-32744(gp)
    9994:	8f998100 	lw	t9,strlen
    9998:	8e044bc0 	lw	a0,19392(s0)
    999c:	0320f809 	jalr	t9
    99a0:	00000000 	nop
    99a4:	8fbc0010 	lw	gp,16(sp)
    99a8:	00000000 	nop
    99ac:	8f99888c 	lw	t9,-30580(gp)
    99b0:	00000000 	nop
    99b4:	0320f809 	jalr	t9
    99b8:	24440001 	addiu	a0,v0,1
    99bc:	8fbc0010 	lw	gp,16(sp)
    99c0:	8e054bc0 	lw	a1,19392(s0)
    99c4:	8fbf0024 	lw	ra,36(sp)
    99c8:	8fb20020 	lw	s2,32(sp)
    99cc:	8fb1001c 	lw	s1,28(sp)
    99d0:	8fb00018 	lw	s0,24(sp)
[31m    99d4:	8f998878 	lw	t9,strcpy[0m
    99d8:	00402021 	move	a0,v0
    99dc:	03200008 	jr	t9
--
    a178:	8fb40028 	lw	s4,40(sp)
    a17c:	8fb30024 	lw	s3,36(sp)
    a180:	8fb20020 	lw	s2,32(sp)
    a184:	8fb1001c 	lw	s1,28(sp)
    a188:	8fb00018 	lw	s0,24(sp)
    a18c:	00402021 	move	a0,v0
    a190:	2739a2c8 	addiu	t9,t9,-23864
    a194:	1000004c 	b	a2c8 <_rl_subseq_result>
    a198:	27bd0030 	addiu	sp,sp,48
    a19c:	8e240004 	lw	a0,4(s1)
    a1a0:	00000000 	nop
    a1a4:	10800019 	beqz	a0,a20c <_rl_dispatch_subseq+0x518>
    a1a8:	00000000 	nop
    a1ac:	8f998100 	lw	t9,strlen
    a1b0:	00000000 	nop
    a1b4:	0320f809 	jalr	t9
    a1b8:	00000000 	nop
    a1bc:	8fbc0010 	lw	gp,16(sp)
    a1c0:	00000000 	nop
    a1c4:	8f99888c 	lw	t9,-30580(gp)
    a1c8:	00000000 	nop
    a1cc:	0320f809 	jalr	t9
    a1d0:	24440001 	addiu	a0,v0,1
    a1d4:	8fbc0010 	lw	gp,16(sp)
    a1d8:	8e250004 	lw	a1,4(s1)
[31m    a1dc:	8f998878 	lw	t9,strcpy[0m
    a1e0:	00000000 	nop
    a1e4:	0320f809 	jalr	t9
--
    ff2c:	8c83002c 	lw	v1,44(a0)
    ff30:	8f828018 	lw	v0,-32744(gp)
    ff34:	8e044ca4 	lw	a0,19620(s0)
    ff38:	00000000 	nop
    ff3c:	10800007 	beqz	a0,ff5c <_rl_nsearch_dosearch+0xe4>
    ff40:	ac434ca8 	sw	v1,19624(v0)
    ff44:	8f998048 	lw	t9,-32696(gp)
    ff48:	00000000 	nop
    ff4c:	0320f809 	jalr	t9
    ff50:	00000000 	nop
    ff54:	8fbc0010 	lw	gp,16(sp)
    ff58:	00000000 	nop
    ff5c:	8f928870 	lw	s2,-30608(gp)
    ff60:	8f998100 	lw	t9,strlen
    ff64:	8e440000 	lw	a0,0(s2)
    ff68:	0320f809 	jalr	t9
    ff6c:	00000000 	nop
    ff70:	8fbc0010 	lw	gp,16(sp)
    ff74:	00000000 	nop
    ff78:	8f99888c 	lw	t9,-30580(gp)
    ff7c:	00000000 	nop
    ff80:	0320f809 	jalr	t9
    ff84:	24440001 	addiu	a0,v0,1
    ff88:	8fbc0010 	lw	gp,16(sp)
    ff8c:	8e450000 	lw	a1,0(s2)
[31m    ff90:	8f998878 	lw	t9,strcpy[0m
    ff94:	00000000 	nop
    ff98:	0320f809 	jalr	t9
--
   1126c:	ac430000 	sw	v1,0(v0)

00011270 <rl_quote_filename>:
   11270:	3c1c0004 	lui	gp,0x4
   11274:	279cae70 	addiu	gp,gp,-20880
   11278:	0399e021 	addu	gp,gp,t9
   1127c:	8f998100 	lw	t9,strlen
   11280:	27bdffd0 	addiu	sp,sp,-48
   11284:	afa6001c 	sw	a2,28(sp)
   11288:	afbf002c 	sw	ra,44(sp)
   1128c:	afbc0010 	sw	gp,16(sp)
   11290:	afb10028 	sw	s1,40(sp)
   11294:	afb00024 	sw	s0,36(sp)
   11298:	afa40018 	sw	a0,24(sp)
   1129c:	0320f809 	jalr	t9
   112a0:	00000000 	nop
   112a4:	8fbc0010 	lw	gp,16(sp)
   112a8:	00000000 	nop
   112ac:	8f99888c 	lw	t9,-30580(gp)
   112b0:	00000000 	nop
   112b4:	0320f809 	jalr	t9
   112b8:	24440002 	addiu	a0,v0,2
   112bc:	8fbc0010 	lw	gp,16(sp)
   112c0:	00408021 	move	s0,v0
   112c4:	8f918828 	lw	s1,-30680(gp)
[31m   112c8:	8f998878 	lw	t9,strcpy[0m
   112cc:	8e220000 	lw	v0,0(s1)
   112d0:	00000000 	nop
--
   116fc:	26520004 	addiu	s2,s2,4
   11700:	03d5102a 	slt	v0,s8,s5
   11704:	1440ff27 	bnez	v0,113a4 <compute_lcd_of_matches+0x7c>
   11708:	00000000 	nop
   1170c:	1660001a 	bnez	s3,11778 <compute_lcd_of_matches+0x450>
   11710:	00000000 	nop
   11714:	12800018 	beqz	s4,11778 <compute_lcd_of_matches+0x450>
   11718:	00000000 	nop
   1171c:	82820000 	lb	v0,0(s4)
   11720:	00000000 	nop
   11724:	10400014 	beqz	v0,11778 <compute_lcd_of_matches+0x450>
   11728:	00000000 	nop
   1172c:	8f998100 	lw	t9,strlen
   11730:	00000000 	nop
   11734:	0320f809 	jalr	t9
   11738:	02802021 	move	a0,s4
   1173c:	8fbc0018 	lw	gp,24(sp)
   11740:	00000000 	nop
   11744:	8f99888c 	lw	t9,-30580(gp)
   11748:	00000000 	nop
   1174c:	0320f809 	jalr	t9
   11750:	24440001 	addiu	a0,v0,1
   11754:	8fbc0018 	lw	gp,24(sp)
   11758:	ae220000 	sw	v0,0(s1)
   1175c:	00402021 	move	a0,v0
[31m   11760:	8f998878 	lw	t9,strcpy[0m
   11764:	00000000 	nop
   11768:	0320f809 	jalr	t9
--
   119dc:	1460fffc 	bnez	v1,119d0 <postprocess_matches+0x74>
   119e0:	24a50001 	addiu	a1,a1,1
   119e4:	24a5ffff 	addiu	a1,a1,-1
   119e8:	10a00008 	beqz	a1,11a0c <postprocess_matches+0xb0>
   119ec:	24a5ffff 	addiu	a1,a1,-1
   119f0:	8f998738 	lw	t9,-30920(gp)
   119f4:	8f878560 	lw	a3,-31392(gp)
   119f8:	26040004 	addiu	a0,s0,4
   119fc:	0320f809 	jalr	t9
   11a00:	24060004 	li	a2,4
   11a04:	8fbc0010 	lw	gp,16(sp)
   11a08:	00000000 	nop
   11a0c:	8f998100 	lw	t9,strlen
   11a10:	8e040000 	lw	a0,0(s0)
   11a14:	0200a021 	move	s4,s0
   11a18:	0320f809 	jalr	t9
   11a1c:	0000a821 	move	s5,zero
   11a20:	8fbc0010 	lw	gp,16(sp)
   11a24:	24440001 	addiu	a0,v0,1
   11a28:	8f99888c 	lw	t9,-30580(gp)
   11a2c:	00000000 	nop
   11a30:	0320f809 	jalr	t9
   11a34:	27be0018 	addiu	s8,sp,24
   11a38:	8fbc0010 	lw	gp,16(sp)
   11a3c:	8e050000 	lw	a1,0(s0)
[31m   11a40:	8f998878 	lw	t9,strcpy[0m
   11a44:	00000000 	nop
   11a48:	0320f809 	jalr	t9
--
   12090:	00000000 	nop
   12094:	8f928018 	lw	s2,-32744(gp)
   12098:	00000000 	nop
   1209c:	8e444e30 	lw	a0,20016(s2)
   120a0:	00000000 	nop
   120a4:	10800007 	beqz	a0,120c4 <rl_filename_completion_function+0xfc>
   120a8:	00000000 	nop
   120ac:	8f998048 	lw	t9,-32696(gp)
   120b0:	00000000 	nop
   120b4:	0320f809 	jalr	t9
   120b8:	00000000 	nop
   120bc:	8fbc0010 	lw	gp,16(sp)
   120c0:	00000000 	nop
   120c4:	8f998100 	lw	t9,strlen
   120c8:	00000000 	nop
   120cc:	0320f809 	jalr	t9
   120d0:	02602021 	move	a0,s3
   120d4:	8fbc0010 	lw	gp,16(sp)
   120d8:	00000000 	nop
   120dc:	8f99888c 	lw	t9,-30580(gp)
   120e0:	00000000 	nop
   120e4:	0320f809 	jalr	t9
   120e8:	24440001 	addiu	a0,v0,1
   120ec:	8fbc0010 	lw	gp,16(sp)
   120f0:	00402021 	move	a0,v0
[31m   120f4:	8f998878 	lw	t9,strcpy[0m
   120f8:	00000000 	nop
   120fc:	0320f809 	jalr	t9
   12100:	02602821 	move	a1,s3
   12104:	ae824e2c 	sw	v0,20012(s4)
   12108:	82620000 	lb	v0,0(s3)
   1210c:	8fbc0010 	lw	gp,16(sp)
   12110:	14400004 	bnez	v0,12124 <rl_filename_completion_function+0x15c>
   12114:	00000000 	nop
   12118:	8f938024 	lw	s3,-32732(gp)
   1211c:	00000000 	nop
   12120:	26730544 	addiu	s3,s3,1348
   12124:	8f998100 	lw	t9,strlen
   12128:	00000000 	nop
   1212c:	0320f809 	jalr	t9
   12130:	02602021 	move	a0,s3
   12134:	8fbc0010 	lw	gp,16(sp)
   12138:	00000000 	nop
   1213c:	8f99888c 	lw	t9,-30580(gp)
   12140:	00000000 	nop
   12144:	0320f809 	jalr	t9
   12148:	24440001 	addiu	a0,v0,1
   1214c:	8fbc0010 	lw	gp,16(sp)
   12150:	02602821 	move	a1,s3
[31m   12154:	8f998878 	lw	t9,strcpy[0m
   12158:	00000000 	nop
   1215c:	0320f809 	jalr	t9
   12160:	00402021 	move	a0,v0
   12164:	8fbc0010 	lw	gp,16(sp)
   12168:	ae024e28 	sw	v0,20008(s0)
   1216c:	00402021 	move	a0,v0
   12170:	8f99854c 	lw	t9,-31412(gp)
   12174:	2405002f 	li	a1,47
   12178:	0320f809 	jalr	t9
   1217c:	00409821 	move	s3,v0
   12180:	8fbc0010 	lw	gp,16(sp)
   12184:	10400008 	beqz	v0,121a8 <rl_filename_completion_function+0x1e0>
   12188:	0040a821 	move	s5,v0
[31m   1218c:	8f998878 	lw	t9,strcpy[0m
   12190:	8e844e2c 	lw	a0,20012(s4)
   12194:	0320f809 	jalr	t9
   12198:	24450001 	addiu	a1,v0,1
   1219c:	8fbc0010 	lw	gp,16(sp)
   121a0:	10000008 	b	121c4 <rl_filename_completion_function+0x1fc>
   121a4:	a2a00001 	sb	zero,1(s5)
   121a8:	2402002e 	li	v0,46
   121ac:	a2620000 	sb	v0,0(s3)
   121b0:	8f828018 	lw	v0,-32744(gp)
   121b4:	00000000 	nop
   121b8:	8c424e28 	lw	v0,20008(v0)
   121bc:	00000000 	nop
   121c0:	a0400001 	sb	zero,1(v0)
   121c4:	8f998100 	lw	t9,strlen
   121c8:	8e044e28 	lw	a0,20008(s0)
   121cc:	8f938018 	lw	s3,-32744(gp)
   121d0:	0320f809 	jalr	t9
   121d4:	00000000 	nop
   121d8:	8fbc0010 	lw	gp,16(sp)
   121dc:	00000000 	nop
   121e0:	8f99888c 	lw	t9,-30580(gp)
   121e4:	00000000 	nop
   121e8:	0320f809 	jalr	t9
   121ec:	24440001 	addiu	a0,v0,1
   121f0:	8fbc0010 	lw	gp,16(sp)
   121f4:	8e054e28 	lw	a1,20008(s0)
[31m   121f8:	8f998878 	lw	t9,strcpy[0m
   121fc:	00000000 	nop
   12200:	0320f809 	jalr	t9
--
   12294:	00000000 	nop
   12298:	8f938018 	lw	s3,-32744(gp)
   1229c:	0320f809 	jalr	t9
   122a0:	26044e28 	addiu	a0,s0,20008
   122a4:	8fbc0010 	lw	gp,16(sp)
   122a8:	1040001a 	beqz	v0,12314 <rl_filename_completion_function+0x34c>
   122ac:	00000000 	nop
   122b0:	8f998048 	lw	t9,-32696(gp)
   122b4:	8e444e30 	lw	a0,20016(s2)
   122b8:	0320f809 	jalr	t9
   122bc:	00000000 	nop
   122c0:	8fbc0010 	lw	gp,16(sp)
   122c4:	8e644e28 	lw	a0,20008(s3)
   122c8:	8f998100 	lw	t9,strlen
   122cc:	00000000 	nop
   122d0:	0320f809 	jalr	t9
   122d4:	00000000 	nop
   122d8:	8fbc0010 	lw	gp,16(sp)
   122dc:	00000000 	nop
   122e0:	8f99888c 	lw	t9,-30580(gp)
   122e4:	00000000 	nop
   122e8:	0320f809 	jalr	t9
   122ec:	24440001 	addiu	a0,v0,1
   122f0:	8fbc0010 	lw	gp,16(sp)
   122f4:	8e654e28 	lw	a1,20008(s3)
[31m   122f8:	8f998878 	lw	t9,strcpy[0m
   122fc:	00000000 	nop
   12300:	0320f809 	jalr	t9
--
   12768:	8e824e30 	lw	v0,20016(s4)
   1276c:	00000000 	nop
   12770:	80430000 	lb	v1,0(v0)
   12774:	2402007e 	li	v0,126
   12778:	14620024 	bne	v1,v0,1280c <rl_filename_completion_function+0x844>
   1277c:	00000000 	nop
   12780:	8f998100 	lw	t9,strlen
   12784:	00000000 	nop
   12788:	0320f809 	jalr	t9
   1278c:	00000000 	nop
   12790:	8fbc0010 	lw	gp,16(sp)
   12794:	2604000b 	addiu	a0,s0,11
   12798:	8f998100 	lw	t9,strlen
   1279c:	00000000 	nop
   127a0:	0320f809 	jalr	t9
   127a4:	00408821 	move	s1,v0
   127a8:	8fbc0010 	lw	gp,16(sp)
   127ac:	02221021 	addu	v0,s1,v0
   127b0:	8f99888c 	lw	t9,-30580(gp)
   127b4:	00000000 	nop
   127b8:	0320f809 	jalr	t9
   127bc:	24440002 	addiu	a0,v0,2
   127c0:	8fbc0010 	lw	gp,16(sp)
   127c4:	8e654e28 	lw	a1,20008(s3)
   127c8:	00402021 	move	a0,v0
[31m   127cc:	8f998878 	lw	t9,strcpy[0m
   127d0:	00000000 	nop
   127d4:	0320f809 	jalr	t9
--
   127f4:	02511821 	addu	v1,s2,s1
   127f8:	26310001 	addiu	s1,s1,1
   127fc:	a0620000 	sb	v0,0(v1)
   12800:	02511021 	addu	v0,s2,s1
   12804:	10000020 	b	12888 <rl_filename_completion_function+0x8c0>
   12808:	a0400000 	sb	zero,0(v0)
   1280c:	8f998100 	lw	t9,strlen
   12810:	8e844e30 	lw	a0,20016(s4)
   12814:	0320f809 	jalr	t9
   12818:	00000000 	nop
   1281c:	8fbc0010 	lw	gp,16(sp)
   12820:	2604000b 	addiu	a0,s0,11
   12824:	8f998100 	lw	t9,strlen
   12828:	00000000 	nop
   1282c:	0320f809 	jalr	t9
   12830:	00408821 	move	s1,v0
   12834:	8fbc0010 	lw	gp,16(sp)
   12838:	02221021 	addu	v0,s1,v0
   1283c:	8f99888c 	lw	t9,-30580(gp)
   12840:	00000000 	nop
   12844:	0320f809 	jalr	t9
   12848:	24440002 	addiu	a0,v0,2
   1284c:	8fbc0010 	lw	gp,16(sp)
   12850:	8e934e30 	lw	s3,20016(s4)
   12854:	00402021 	move	a0,v0
[31m   12858:	8f998878 	lw	t9,strcpy[0m
   1285c:	02602821 	move	a1,s3
   12860:	02719821 	addu	s3,s3,s1
   12864:	0320f809 	jalr	t9
   12868:	00409021 	move	s2,v0
   1286c:	8263ffff 	lb	v1,-1(s3)
   12870:	2402002f 	li	v0,47
   12874:	8fbc0010 	lw	gp,16(sp)
   12878:	10620003 	beq	v1,v0,12888 <rl_filename_completion_function+0x8c0>
   1287c:	02511821 	addu	v1,s2,s1
   12880:	a0620000 	sb	v0,0(v1)
   12884:	26310001 	addiu	s1,s1,1
[31m   12888:	8f998878 	lw	t9,strcpy[0m
   1288c:	02512021 	addu	a0,s2,s1
   12890:	0320f809 	jalr	t9
   12894:	2605000b 	addiu	a1,s0,11
   12898:	1000001b 	b	12908 <rl_filename_completion_function+0x940>
   1289c:	00000000 	nop
   128a0:	8f998100 	lw	t9,strlen
   128a4:	2605000b 	addiu	a1,s0,11
   128a8:	00a02021 	move	a0,a1
   128ac:	0320f809 	jalr	t9
   128b0:	afa5001c 	sw	a1,28(sp)
   128b4:	8fbc0010 	lw	gp,16(sp)
   128b8:	00000000 	nop
   128bc:	8f99888c 	lw	t9,-30580(gp)
   128c0:	00000000 	nop
   128c4:	0320f809 	jalr	t9
   128c8:	24440001 	addiu	a0,v0,1
   128cc:	8fbc0010 	lw	gp,16(sp)
   128d0:	8fa5001c 	lw	a1,28(sp)
   128d4:	8fbf0044 	lw	ra,68(sp)
   128d8:	8fb70040 	lw	s7,64(sp)
   128dc:	8fb6003c 	lw	s6,60(sp)
   128e0:	8fb50038 	lw	s5,56(sp)
   128e4:	8fb40034 	lw	s4,52(sp)
   128e8:	8fb30030 	lw	s3,48(sp)
   128ec:	8fb2002c 	lw	s2,44(sp)
   128f0:	8fb10028 	lw	s1,40(sp)
   128f4:	8fb00024 	lw	s0,36(sp)
[31m   128f8:	8f998878 	lw	t9,strcpy[0m
   128fc:	00402021 	move	a0,v0
   12900:	03200008 	jr	t9
--
   12e90:	13200005 	beqz	t9,12ea8 <print_filename+0x4a8>
   12e94:	00000000 	nop
   12e98:	0320f809 	jalr	t9
   12e9c:	27a4001c 	addiu	a0,sp,28
   12ea0:	8fbc0010 	lw	gp,16(sp)
   12ea4:	00000000 	nop
   12ea8:	8f998100 	lw	t9,strlen
   12eac:	8fa4001c 	lw	a0,28(sp)
   12eb0:	0320f809 	jalr	t9
   12eb4:	00000000 	nop
   12eb8:	8fbc0010 	lw	gp,16(sp)
   12ebc:	02402021 	move	a0,s2
   12ec0:	8f998100 	lw	t9,strlen
   12ec4:	00000000 	nop
   12ec8:	0320f809 	jalr	t9
   12ecc:	00409821 	move	s3,v0
   12ed0:	8fbc0010 	lw	gp,16(sp)
   12ed4:	02621021 	addu	v0,s3,v0
   12ed8:	8f99888c 	lw	t9,-30580(gp)
   12edc:	00000000 	nop
   12ee0:	0320f809 	jalr	t9
   12ee4:	24440002 	addiu	a0,v0,2
   12ee8:	8fbc0010 	lw	gp,16(sp)
   12eec:	8fa5001c 	lw	a1,28(sp)
   12ef0:	00402021 	move	a0,v0
[31m   12ef4:	8f998878 	lw	t9,strcpy[0m
   12ef8:	00000000 	nop
   12efc:	0320f809 	jalr	t9
   12f00:	00408021 	move	s0,v0
   12f04:	8fa2001c 	lw	v0,28(sp)
   12f08:	8fbc0010 	lw	gp,16(sp)
   12f0c:	00531021 	addu	v0,v0,s3
   12f10:	8043ffff 	lb	v1,-1(v0)
   12f14:	2402002f 	li	v0,47
   12f18:	14620003 	bne	v1,v0,12f28 <print_filename+0x528>
   12f1c:	02131821 	addu	v1,s0,s3
   12f20:	10000002 	b	12f2c <print_filename+0x52c>
   12f24:	2673ffff 	addiu	s3,s3,-1
   12f28:	a0620000 	sb	v0,0(v1)
[31m   12f2c:	8f998878 	lw	t9,strcpy[0m
   12f30:	02131021 	addu	v0,s0,s3
   12f34:	2403002f 	li	v1,47
--
   149c8:	afb30040 	sw	s3,64(sp)
   149cc:	27391210 	addiu	t9,t9,4624
   149d0:	ac430000 	sw	v1,0(v0)
   149d4:	0411f20e 	bal	11210 <set_completion_defaults>
   149d8:	00808821 	move	s1,a0
   149dc:	8fbc0018 	lw	gp,24(sp)
   149e0:	00000000 	nop
   149e4:	8f928870 	lw	s2,-30608(gp)
   149e8:	00000000 	nop
   149ec:	8e440000 	lw	a0,0(s2)
   149f0:	00000000 	nop
   149f4:	10800013 	beqz	a0,14a44 <rl_complete_internal+0xb8>
   149f8:	00008021 	move	s0,zero
   149fc:	8f998100 	lw	t9,strlen
   14a00:	00000000 	nop
   14a04:	0320f809 	jalr	t9
   14a08:	00000000 	nop
   14a0c:	8fbc0018 	lw	gp,24(sp)
   14a10:	00000000 	nop
   14a14:	8f99888c 	lw	t9,-30580(gp)
   14a18:	00000000 	nop
   14a1c:	0320f809 	jalr	t9
   14a20:	24440001 	addiu	a0,v0,1
   14a24:	8fbc0018 	lw	gp,24(sp)
   14a28:	8e450000 	lw	a1,0(s2)
[31m   14a2c:	8f998878 	lw	t9,strcpy[0m
   14a30:	00000000 	nop
   14a34:	0320f809 	jalr	t9
--
   15078:	00000000 	nop
   1507c:	8f998048 	lw	t9,-32696(gp)
   15080:	00000000 	nop
   15084:	0320f809 	jalr	t9
   15088:	00000000 	nop
   1508c:	8fbc0010 	lw	gp,16(sp)
   15090:	82040000 	lb	a0,0(s0)
   15094:	8f828018 	lw	v0,-32744(gp)
   15098:	8f928018 	lw	s2,-32744(gp)
   1509c:	8f998100 	lw	t9,strlen
   150a0:	ac444e14 	sw	a0,19988(v0)
   150a4:	3884007e 	xori	a0,a0,0x7e
   150a8:	2c840001 	sltiu	a0,a0,1
   150ac:	ae444e18 	sw	a0,19992(s2)
   150b0:	0320f809 	jalr	t9
   150b4:	02042021 	addu	a0,s0,a0
   150b8:	8fbc0010 	lw	gp,16(sp)
   150bc:	00000000 	nop
   150c0:	8f99888c 	lw	t9,-30580(gp)
   150c4:	00000000 	nop
   150c8:	0320f809 	jalr	t9
   150cc:	24440001 	addiu	a0,v0,1
   150d0:	8fbc0010 	lw	gp,16(sp)
   150d4:	8e454e18 	lw	a1,19992(s2)
   150d8:	00402021 	move	a0,v0
[31m   150dc:	8f998878 	lw	t9,strcpy[0m
   150e0:	00000000 	nop
   150e4:	0320f809 	jalr	t9
--
   15180:	8f938018 	lw	s3,-32744(gp)
   15184:	8f928018 	lw	s2,-32744(gp)
   15188:	8f998120 	lw	t9,-32480(gp)
   1518c:	00000000 	nop
   15190:	0320f809 	jalr	t9
   15194:	00000000 	nop
   15198:	00408821 	move	s1,v0
   1519c:	8fbc0010 	lw	gp,16(sp)
   151a0:	1440ffe2 	bnez	v0,1512c <rl_username_completion_function+0xfc>
   151a4:	ae824e20 	sw	v0,20000(s4)
   151a8:	1000002e 	b	15264 <rl_username_completion_function+0x234>
   151ac:	00000000 	nop
   151b0:	8f998100 	lw	t9,strlen
   151b4:	8e240000 	lw	a0,0(s1)
   151b8:	0320f809 	jalr	t9
   151bc:	00000000 	nop
   151c0:	8fbc0010 	lw	gp,16(sp)
   151c4:	00000000 	nop
   151c8:	8f99888c 	lw	t9,-30580(gp)
   151cc:	00000000 	nop
   151d0:	0320f809 	jalr	t9
   151d4:	24440002 	addiu	a0,v0,2
   151d8:	00408821 	move	s1,v0
   151dc:	8fbc0010 	lw	gp,16(sp)
   151e0:	82020000 	lb	v0,0(s0)
[31m   151e4:	8f998878 	lw	t9,strcpy[0m
   151e8:	a2220000 	sb	v0,0(s1)
   151ec:	8f828018 	lw	v0,-32744(gp)
--
   15968:	8f998048 	lw	t9,-32696(gp)
   1596c:	00000000 	nop
   15970:	0320f809 	jalr	t9
   15974:	02a02021 	move	a0,s5
   15978:	8fbc0018 	lw	gp,24(sp)
   1597c:	1000004c 	b	15ab0 <_rl_macro_dumper_internal+0x260>
   15980:	00000000 	nop
   15984:	12000007 	beqz	s0,159a4 <_rl_macro_dumper_internal+0x154>
   15988:	0000a821 	move	s5,zero
   1598c:	8f998100 	lw	t9,strlen
   15990:	00000000 	nop
   15994:	0320f809 	jalr	t9
   15998:	02002021 	move	a0,s0
   1599c:	8fbc0018 	lw	gp,24(sp)
   159a0:	0040a821 	move	s5,v0
   159a4:	2402001b 	li	v0,27
   159a8:	16220014 	bne	s1,v0,159fc <_rl_macro_dumper_internal+0x1ac>
   159ac:	26d9556c 	addiu	t9,s6,21868
   159b0:	8f99888c 	lw	t9,-30580(gp)
   159b4:	00000000 	nop
   159b8:	0320f809 	jalr	t9
   159bc:	26a40003 	addiu	a0,s5,3
   159c0:	8fbc0018 	lw	gp,24(sp)
   159c4:	12000006 	beqz	s0,159e0 <_rl_macro_dumper_internal+0x190>
   159c8:	00409821 	move	s3,v0
[31m   159cc:	8f998878 	lw	t9,strcpy[0m
   159d0:	00402021 	move	a0,v0
   159d4:	0320f809 	jalr	t9
--
   159e0:	0275a821 	addu	s5,s3,s5
   159e4:	2402005c 	li	v0,92
   159e8:	a2a20000 	sb	v0,0(s5)
   159ec:	24020065 	li	v0,101
   159f0:	a2a20001 	sb	v0,1(s5)
   159f4:	10000027 	b	15a94 <_rl_macro_dumper_internal+0x244>
   159f8:	a2a00002 	sb	zero,2(s5)
   159fc:	0411fedb 	bal	1556c <_rl_get_keyname>
   15a00:	02202021 	move	a0,s1
   15a04:	8fbc0018 	lw	gp,24(sp)
   15a08:	12000022 	beqz	s0,15a94 <_rl_macro_dumper_internal+0x244>
   15a0c:	00409821 	move	s3,v0
   15a10:	8f998100 	lw	t9,strlen
   15a14:	00000000 	nop
   15a18:	0320f809 	jalr	t9
   15a1c:	00402021 	move	a0,v0
   15a20:	8fbc0018 	lw	gp,24(sp)
   15a24:	26a40001 	addiu	a0,s5,1
   15a28:	8f99888c 	lw	t9,-30580(gp)
   15a2c:	00000000 	nop
   15a30:	0320f809 	jalr	t9
   15a34:	00822021 	addu	a0,a0,v0
   15a38:	8fbc0018 	lw	gp,24(sp)
   15a3c:	00402021 	move	a0,v0
   15a40:	02002821 	move	a1,s0
[31m   15a44:	8f998878 	lw	t9,strcpy[0m
   15a48:	00000000 	nop
   15a4c:	0320f809 	jalr	t9
   15a50:	afa20020 	sw	v0,32(sp)
   15a54:	8fbc0018 	lw	gp,24(sp)
   15a58:	8fa30020 	lw	v1,32(sp)
   15a5c:	02602821 	move	a1,s3
[31m   15a60:	8f998878 	lw	t9,strcpy[0m
   15a64:	00000000 	nop
   15a68:	0320f809 	jalr	t9
--
   15e4c:	00000000 	nop
   15e50:	8f82810c 	lw	v0,-32500(gp)
   15e54:	00000000 	nop
   15e58:	8c440000 	lw	a0,0(v0)
   15e5c:	00000000 	nop
   15e60:	10800007 	beqz	a0,15e80 <sv_combegin+0x68>
   15e64:	00000000 	nop
   15e68:	8f998048 	lw	t9,-32696(gp)
   15e6c:	00000000 	nop
   15e70:	0320f809 	jalr	t9
   15e74:	00000000 	nop
   15e78:	8fbc0010 	lw	gp,16(sp)
   15e7c:	00000000 	nop
   15e80:	8f998100 	lw	t9,strlen
   15e84:	00000000 	nop
   15e88:	0320f809 	jalr	t9
   15e8c:	02002021 	move	a0,s0
   15e90:	8fbc0010 	lw	gp,16(sp)
   15e94:	00000000 	nop
   15e98:	8f99888c 	lw	t9,-30580(gp)
   15e9c:	00000000 	nop
   15ea0:	0320f809 	jalr	t9
   15ea4:	24440001 	addiu	a0,v0,1
   15ea8:	8fbc0010 	lw	gp,16(sp)
   15eac:	00402021 	move	a0,v0
[31m   15eb0:	8f998878 	lw	t9,strcpy[0m
   15eb4:	00000000 	nop
   15eb8:	0320f809 	jalr	t9
--
   16198:	00000000 	nop
   1619c:	8e320000 	lw	s2,0(s1)
   161a0:	00000000 	nop
   161a4:	1240003a 	beqz	s2,16290 <parser_if+0x1e8>
   161a8:	02002021 	move	a0,s0
   161ac:	8f858024 	lw	a1,-32732(gp)
   161b0:	8f9985d0 	lw	t9,-31280(gp)
   161b4:	24a5068c 	addiu	a1,a1,1676
   161b8:	0320f809 	jalr	t9
   161bc:	24060005 	li	a2,5
   161c0:	8fbc0010 	lw	gp,16(sp)
   161c4:	14400032 	bnez	v0,16290 <parser_if+0x1e8>
   161c8:	00000000 	nop
   161cc:	8f998100 	lw	t9,strlen
   161d0:	00000000 	nop
   161d4:	0320f809 	jalr	t9
   161d8:	02402021 	move	a0,s2
   161dc:	8fbc0010 	lw	gp,16(sp)
   161e0:	00000000 	nop
   161e4:	8f99888c 	lw	t9,-30580(gp)
   161e8:	00000000 	nop
   161ec:	0320f809 	jalr	t9
   161f0:	24440001 	addiu	a0,v0,1
   161f4:	8fbc0010 	lw	gp,16(sp)
   161f8:	8e250000 	lw	a1,0(s1)
[31m   161fc:	8f998878 	lw	t9,strcpy[0m
   16200:	00000000 	nop
   16204:	0320f809 	jalr	t9
--

00016ac0 <sv_isrchterm>:
   16ac0:	3c1c0003 	lui	gp,0x3
   16ac4:	279c5620 	addiu	gp,gp,22048
   16ac8:	0399e021 	addu	gp,gp,t9
   16acc:	27bdffc8 	addiu	sp,sp,-56
   16ad0:	afbc0010 	sw	gp,16(sp)
   16ad4:	afbf0034 	sw	ra,52(sp)
   16ad8:	afb20030 	sw	s2,48(sp)
   16adc:	afb1002c 	sw	s1,44(sp)
   16ae0:	afb00028 	sw	s0,40(sp)
   16ae4:	1080005d 	beqz	a0,16c5c <sv_isrchterm+0x19c>
   16ae8:	24020001 	li	v0,1
   16aec:	8f998100 	lw	t9,strlen
   16af0:	00000000 	nop
   16af4:	0320f809 	jalr	t9
   16af8:	afa40020 	sw	a0,32(sp)
   16afc:	8fbc0010 	lw	gp,16(sp)
   16b00:	00000000 	nop
   16b04:	8f99888c 	lw	t9,-30580(gp)
   16b08:	00000000 	nop
   16b0c:	0320f809 	jalr	t9
   16b10:	24440001 	addiu	a0,v0,1
   16b14:	8fbc0010 	lw	gp,16(sp)
   16b18:	8fa50020 	lw	a1,32(sp)
[31m   16b1c:	8f998878 	lw	t9,strcpy[0m
   16b20:	00000000 	nop
   16b24:	0320f809 	jalr	t9
--
   18380:	00000000 	nop
   18384:	8e444e70 	lw	a0,20080(s2)
   18388:	00000000 	nop
   1838c:	1224001b 	beq	s1,a0,183fc <_rl_read_init_file+0x224>
   18390:	00000000 	nop
   18394:	10800007 	beqz	a0,183b4 <_rl_read_init_file+0x1dc>
   18398:	00000000 	nop
   1839c:	8f998048 	lw	t9,-32696(gp)
   183a0:	00000000 	nop
   183a4:	0320f809 	jalr	t9
   183a8:	00000000 	nop
   183ac:	8fbc0010 	lw	gp,16(sp)
   183b0:	00000000 	nop
   183b4:	8f998100 	lw	t9,strlen
   183b8:	00000000 	nop
   183bc:	0320f809 	jalr	t9
   183c0:	02202021 	move	a0,s1
   183c4:	8fbc0010 	lw	gp,16(sp)
   183c8:	00000000 	nop
   183cc:	8f99888c 	lw	t9,-30580(gp)
   183d0:	00000000 	nop
   183d4:	0320f809 	jalr	t9
   183d8:	24440001 	addiu	a0,v0,1
   183dc:	8fbc0010 	lw	gp,16(sp)
   183e0:	00402021 	move	a0,v0
[31m   183e4:	8f998878 	lw	t9,strcpy[0m
   183e8:	00000000 	nop
   183ec:	0320f809 	jalr	t9
--
   18e44:	afa30028 	sw	v1,40(sp)
   18e48:	00161880 	sll	v1,s6,0x2
   18e4c:	32b500ff 	andi	s5,s5,0xff
   18e50:	afa3001c 	sw	v1,28(sp)
   18e54:	2a030020 	slti	v1,s0,32
   18e58:	00158840 	sll	s1,s5,0x1
   18e5c:	afa20018 	sw	v0,24(sp)
   18e60:	100000cf 	b	191a0 <rl_invoking_keyseqs_in_map+0x490>
   18e64:	afa3002c 	sw	v1,44(sp)
   18e68:	8f998100 	lw	t9,strlen
   18e6c:	00000000 	nop
   18e70:	0320f809 	jalr	t9
   18e74:	00000000 	nop
   18e78:	8fbc0010 	lw	gp,16(sp)
   18e7c:	00000000 	nop
   18e80:	8f99888c 	lw	t9,-30580(gp)
   18e84:	00000000 	nop
   18e88:	0320f809 	jalr	t9
   18e8c:	24440006 	addiu	a0,v0,6
   18e90:	00409021 	move	s2,v0
   18e94:	2402001b 	li	v0,27
   18e98:	8fbc0010 	lw	gp,16(sp)
   18e9c:	16020018 	bne	s0,v0,18f00 <rl_invoking_keyseqs_in_map+0x1f0>
   18ea0:	00000000 	nop
   18ea4:	8f8286a4 	lw	v0,-31068(gp)
[31m   18ea8:	8f998878 	lw	t9,strcpy[0m
   18eac:	8c420000 	lw	v0,0(v0)
   18eb0:	00000000 	nop
--
   19078:	00511021 	addu	v0,v0,s1
   1907c:	94420000 	lhu	v0,0(v0)
   19080:	00000000 	nop
   19084:	30420002 	andi	v0,v0,0x2
   19088:	10400007 	beqz	v0,190a8 <rl_invoking_keyseqs_in_map+0x398>
   1908c:	02a03021 	move	a2,s5
   19090:	8f828604 	lw	v0,-31228(gp)
   19094:	00000000 	nop
   19098:	8c420000 	lw	v0,0(v0)
   1909c:	00000000 	nop
   190a0:	00511021 	addu	v0,v0,s1
   190a4:	84460000 	lh	a2,0(v0)
   190a8:	8f858024 	lw	a1,-32732(gp)
   190ac:	8f998288 	lw	t9,-32120(gp)
   190b0:	02402021 	move	a0,s2
   190b4:	0320f809 	jalr	t9
   190b8:	24a507b4 	addiu	a1,a1,1972
   190bc:	8fbc0010 	lw	gp,16(sp)
   190c0:	1000ff8d 	b	18ef8 <rl_invoking_keyseqs_in_map+0x1e8>
   190c4:	00000000 	nop
   190c8:	2402007f 	li	v0,127
   190cc:	16020006 	bne	s0,v0,190e8 <rl_invoking_keyseqs_in_map+0x3d8>
   190d0:	2402005c 	li	v0,92
   190d4:	8f858024 	lw	a1,-32732(gp)
   190d8:	02402021 	move	a0,s2
[31m   190dc:	8f998878 	lw	t9,strcpy[0m
   190e0:	1000ff82 	b	18eec <rl_invoking_keyseqs_in_map+0x1dc>
   190e4:	24a507bc 	addiu	a1,a1,1980
--
   19808:	afb00018 	sw	s0,24(sp)
   1980c:	00809021 	move	s2,a0
   19810:	00a0a021 	move	s4,a1
   19814:	1080000b 	beqz	a0,19844 <rl_display_search.isra.0+0x64>
   19818:	00009821 	move	s3,zero
   1981c:	80820000 	lb	v0,0(a0)
   19820:	00000000 	nop
   19824:	10400007 	beqz	v0,19844 <rl_display_search.isra.0+0x64>
   19828:	00000000 	nop
   1982c:	8f998100 	lw	t9,strlen
   19830:	00000000 	nop
   19834:	0320f809 	jalr	t9
   19838:	00000000 	nop
   1983c:	8fbc0010 	lw	gp,16(sp)
   19840:	00409821 	move	s3,v0
   19844:	8f99888c 	lw	t9,-30580(gp)
   19848:	26640021 	addiu	a0,s3,33
   1984c:	0320f809 	jalr	t9
   19850:	24110001 	li	s1,1
   19854:	00408021 	move	s0,v0
   19858:	24020028 	li	v0,40
   1985c:	8fbc0010 	lw	gp,16(sp)
   19860:	12800008 	beqz	s4,19884 <rl_display_search.isra.0+0xa4>
   19864:	a2020000 	sb	v0,0(s0)
   19868:	8f858024 	lw	a1,-32732(gp)
[31m   1986c:	8f998878 	lw	t9,strcpy[0m
   19870:	26040001 	addiu	a0,s0,1
   19874:	0320f809 	jalr	t9
   19878:	24a50ac8 	addiu	a1,a1,2760
   1987c:	8fbc0010 	lw	gp,16(sp)
   19880:	24110009 	li	s1,9
   19884:	8f858024 	lw	a1,-32732(gp)
[31m   19888:	8f998878 	lw	t9,strcpy[0m
   1988c:	02112021 	addu	a0,s0,s1
   19890:	0320f809 	jalr	t9
   19894:	24a50ad4 	addiu	a1,a1,2772
   19898:	8fbc0010 	lw	gp,16(sp)
   1989c:	12400007 	beqz	s2,198bc <rl_display_search.isra.0+0xdc>
   198a0:	2631000a 	addiu	s1,s1,10
[31m   198a4:	8f998878 	lw	t9,strcpy[0m
   198a8:	02112021 	addu	a0,s0,s1
   198ac:	0320f809 	jalr	t9
   198b0:	02402821 	move	a1,s2
   198b4:	8fbc0010 	lw	gp,16(sp)
   198b8:	02338821 	addu	s1,s1,s3
   198bc:	8f858024 	lw	a1,-32732(gp)
[31m   198c0:	8f998878 	lw	t9,strcpy[0m
   198c4:	02112021 	addu	a0,s0,s1
   198c8:	0320f809 	jalr	t9
--
   19a84:	00000000 	nop
   19a88:	8fbc0010 	lw	gp,16(sp)
   19a8c:	02002021 	move	a0,s0
   19a90:	8fbf001c 	lw	ra,28(sp)
   19a94:	8fb00018 	lw	s0,24(sp)
   19a98:	8f998048 	lw	t9,-32696(gp)
   19a9c:	00000000 	nop
   19aa0:	03200008 	jr	t9
   19aa4:	27bd0020 	addiu	sp,sp,32

00019aa8 <_rl_isearch_cleanup>:
   19aa8:	3c1c0003 	lui	gp,0x3
   19aac:	279c2638 	addiu	gp,gp,9784
   19ab0:	0399e021 	addu	gp,gp,t9
   19ab4:	27bdffd8 	addiu	sp,sp,-40
   19ab8:	afbc0010 	sw	gp,16(sp)
   19abc:	afb1001c 	sw	s1,28(sp)
   19ac0:	afb00018 	sw	s0,24(sp)
   19ac4:	afbf0024 	sw	ra,36(sp)
   19ac8:	afb20020 	sw	s2,32(sp)
   19acc:	00808021 	move	s0,a0
   19ad0:	04a00050 	bltz	a1,19c14 <_rl_isearch_cleanup+0x16c>
   19ad4:	00a08821 	move	s1,a1
   19ad8:	8c82002c 	lw	v0,44(a0)
   19adc:	8c830014 	lw	v1,20(a0)
[31m   19ae0:	8f998878 	lw	t9,strcpy[0m
   19ae4:	00021080 	sll	v0,v0,0x2
   19ae8:	00621021 	addu	v0,v1,v0
--
   19f58:	00000000 	nop
   19f5c:	005c1021 	addu	v0,v0,gp
   19f60:	00400008 	jr	v0
   19f64:	00000000 	nop
   19f68:	8e02000c 	lw	v0,12(s0)
   19f6c:	00000000 	nop
   19f70:	14400022 	bnez	v0,19ffc <_rl_isearch_dispatch+0x2d4>
   19f74:	00000000 	nop
   19f78:	8f928018 	lw	s2,-32744(gp)
   19f7c:	00000000 	nop
   19f80:	8e424eb8 	lw	v0,20152(s2)
   19f84:	00000000 	nop
   19f88:	104001d1 	beqz	v0,1a6d0 <_rl_isearch_dispatch+0x9a8>
   19f8c:	24110001 	li	s1,1
   19f90:	8f918018 	lw	s1,-32744(gp)
   19f94:	8f9983b4 	lw	t9,-31820(gp)
   19f98:	8e040008 	lw	a0,8(s0)
   19f9c:	8e254ebc 	lw	a1,20156(s1)
   19fa0:	00000000 	nop
   19fa4:	24a50040 	addiu	a1,a1,64
   19fa8:	0320f809 	jalr	t9
   19fac:	ae050010 	sw	a1,16(s0)
   19fb0:	8fbc0010 	lw	gp,16(sp)
   19fb4:	8e454eb8 	lw	a1,20152(s2)
   19fb8:	00402021 	move	a0,v0
[31m   19fbc:	8f998878 	lw	t9,strcpy[0m
   19fc0:	00000000 	nop
   19fc4:	0320f809 	jalr	t9
--
   1a820:	1480fff6 	bnez	a0,1a7fc <rl_search_history.isra.2+0x104>
   1a824:	00039027 	nor	s2,zero,v1
   1a828:	8f8284c4 	lw	v0,-31548(gp)
   1a82c:	001297c3 	sra	s2,s2,0x1f
   1a830:	8c420000 	lw	v0,0(v0)
   1a834:	00000000 	nop
   1a838:	10400004 	beqz	v0,1a84c <rl_search_history.isra.2+0x154>
   1a83c:	00729024 	and	s2,v1,s2
   1a840:	8c420000 	lw	v0,0(v0)
   1a844:	10000015 	b	1a89c <rl_search_history.isra.2+0x1a4>
   1a848:	00000000 	nop
   1a84c:	8f938870 	lw	s3,-30608(gp)
   1a850:	8f998100 	lw	t9,strlen
   1a854:	8e640000 	lw	a0,0(s3)
   1a858:	0320f809 	jalr	t9
   1a85c:	00000000 	nop
   1a860:	8fbc0010 	lw	gp,16(sp)
   1a864:	00000000 	nop
   1a868:	8f99888c 	lw	t9,-30580(gp)
   1a86c:	00000000 	nop
   1a870:	0320f809 	jalr	t9
   1a874:	24440001 	addiu	a0,v0,1
   1a878:	8fbc0010 	lw	gp,16(sp)
   1a87c:	8e650000 	lw	a1,0(s3)
   1a880:	ae020018 	sw	v0,24(s0)
[31m   1a884:	8f998878 	lw	t9,strcpy[0m
   1a888:	00000000 	nop
   1a88c:	0320f809 	jalr	t9
--
   1af6c:	8f82838c 	lw	v0,-31860(gp)
   1af70:	00000000 	nop
   1af74:	8c420000 	lw	v0,0(v0)
   1af78:	00000000 	nop
   1af7c:	10400039 	beqz	v0,1b064 <expand_prompt+0x15c>
   1af80:	00000000 	nop
   1af84:	8f9980e0 	lw	t9,-32544(gp)
   1af88:	02402021 	move	a0,s2
   1af8c:	0320f809 	jalr	t9
   1af90:	24050001 	li	a1,1
   1af94:	8fbc0010 	lw	gp,16(sp)
   1af98:	14400032 	bnez	v0,1b064 <expand_prompt+0x15c>
   1af9c:	00000000 	nop
   1afa0:	8f998100 	lw	t9,strlen
   1afa4:	00000000 	nop
   1afa8:	0320f809 	jalr	t9
   1afac:	02402021 	move	a0,s2
   1afb0:	8fbc0010 	lw	gp,16(sp)
   1afb4:	00000000 	nop
   1afb8:	8f99888c 	lw	t9,-30580(gp)
   1afbc:	00000000 	nop
   1afc0:	0320f809 	jalr	t9
   1afc4:	24440001 	addiu	a0,v0,1
   1afc8:	8fbc0010 	lw	gp,16(sp)
   1afcc:	00402021 	move	a0,v0
[31m   1afd0:	8f998878 	lw	t9,strcpy[0m
   1afd4:	00000000 	nop
   1afd8:	0320f809 	jalr	t9
--
   1b5f4:	8f9180e4 	lw	s1,-32540(gp)
   1b5f8:	8f998100 	lw	t9,strlen
   1b5fc:	afbc0010 	sw	gp,16(sp)
   1b600:	8e240000 	lw	a0,0(s1)
   1b604:	afbf0024 	sw	ra,36(sp)
   1b608:	afb0001c 	sw	s0,28(sp)
   1b60c:	0320f809 	jalr	t9
   1b610:	00000000 	nop
   1b614:	8fbc0010 	lw	gp,16(sp)
   1b618:	00000000 	nop
   1b61c:	8f99802c 	lw	t9,-32724(gp)
   1b620:	00000000 	nop
   1b624:	2739abd4 	addiu	t9,t9,-21548
   1b628:	0411fd6a 	bal	1abd4 <init_line_structures>
   1b62c:	24440001 	addiu	a0,v0,1
   1b630:	8fbc0010 	lw	gp,16(sp)
   1b634:	00000000 	nop
   1b638:	8f828018 	lw	v0,-32744(gp)
   1b63c:	00000000 	nop
   1b640:	8c504edc 	lw	s0,20188(v0)
   1b644:	00000000 	nop
   1b648:	16000002 	bnez	s0,1b654 <rl_on_new_line_with_prompt+0x74>
   1b64c:	00000000 	nop
   1b650:	8e300000 	lw	s0,0(s1)
   1b654:	8f828018 	lw	v0,-32744(gp)
[31m   1b658:	8f998878 	lw	t9,strcpy[0m
   1b65c:	8c444f08 	lw	a0,20232(v0)
   1b660:	0320f809 	jalr	t9
   1b664:	02002821 	move	a1,s0
   1b668:	8fbc0010 	lw	gp,16(sp)
   1b66c:	00000000 	nop
   1b670:	8f828018 	lw	v0,-32744(gp)
[31m   1b674:	8f998878 	lw	t9,strcpy[0m
   1b678:	8c444efc 	lw	a0,20220(v0)
   1b67c:	0320f809 	jalr	t9
--
   1c540:	26240002 	addiu	a0,s1,2
   1c544:	8fbc0010 	lw	gp,16(sp)
   1c548:	1220001c 	beqz	s1,1c5bc <_rl_make_prompt_for_search+0x124>
   1c54c:	00408021 	move	s0,v0
   1c550:	00402021 	move	a0,v0
   1c554:	8f8280e4 	lw	v0,-32540(gp)
   1c558:	00000000 	nop
   1c55c:	8c450000 	lw	a1,0(v0)
   1c560:	10000010 	b	1c5a4 <_rl_make_prompt_for_search+0x10c>
   1c564:	00000000 	nop
   1c568:	8f998100 	lw	t9,strlen
   1c56c:	00a02021 	move	a0,a1
   1c570:	0320f809 	jalr	t9
   1c574:	afa50018 	sw	a1,24(sp)
   1c578:	8fbc0010 	lw	gp,16(sp)
   1c57c:	24440002 	addiu	a0,v0,2
   1c580:	8f99888c 	lw	t9,-30580(gp)
   1c584:	00000000 	nop
   1c588:	0320f809 	jalr	t9
   1c58c:	00408821 	move	s1,v0
   1c590:	8fbc0010 	lw	gp,16(sp)
   1c594:	8fa50018 	lw	a1,24(sp)
   1c598:	12200008 	beqz	s1,1c5bc <_rl_make_prompt_for_search+0x124>
   1c59c:	00408021 	move	s0,v0
   1c5a0:	00402021 	move	a0,v0
[31m   1c5a4:	8f998878 	lw	t9,strcpy[0m
   1c5a8:	00000000 	nop
   1c5ac:	0320f809 	jalr	t9
--
   20ed8:	00000000 	nop
   20edc:	30420001 	andi	v0,v0,0x1
   20ee0:	03e00008 	jr	ra
   20ee4:	00000000 	nop

00020ee8 <_rl_savestring>:
   20ee8:	3c1c0003 	lui	gp,0x3
   20eec:	279cb1f8 	addiu	gp,gp,-19976
   20ef0:	0399e021 	addu	gp,gp,t9
   20ef4:	8f998100 	lw	t9,strlen
   20ef8:	27bdffd8 	addiu	sp,sp,-40
   20efc:	afbf0024 	sw	ra,36(sp)
   20f00:	afbc0010 	sw	gp,16(sp)
   20f04:	afa40018 	sw	a0,24(sp)
   20f08:	0320f809 	jalr	t9
   20f0c:	00000000 	nop
   20f10:	8fbc0010 	lw	gp,16(sp)
   20f14:	00000000 	nop
   20f18:	8f99888c 	lw	t9,-30580(gp)
   20f1c:	00000000 	nop
   20f20:	0320f809 	jalr	t9
   20f24:	24440001 	addiu	a0,v0,1
   20f28:	8fbc0010 	lw	gp,16(sp)
   20f2c:	8fa50018 	lw	a1,24(sp)
   20f30:	8fbf0024 	lw	ra,36(sp)
[31m   20f34:	8f998878 	lw	t9,strcpy[0m
   20f38:	00402021 	move	a0,v0
   20f3c:	03200008 	jr	t9
--
   215e0:	00000000 	nop
   215e4:	8c420000 	lw	v0,0(v0)
   215e8:	00000000 	nop
   215ec:	10400038 	beqz	v0,216d0 <_rl_copy_to_kill_ring+0x218>
   215f0:	0011a880 	sll	s5,s1,0x2
   215f4:	8e025100 	lw	v0,20736(s0)
   215f8:	8f998100 	lw	t9,strlen
   215fc:	00551021 	addu	v0,v0,s5
   21600:	8c540000 	lw	s4,0(v0)
   21604:	0320f809 	jalr	t9
   21608:	02802021 	move	a0,s4
   2160c:	8fbc0010 	lw	gp,16(sp)
   21610:	02402021 	move	a0,s2
   21614:	8f998100 	lw	t9,strlen
   21618:	00000000 	nop
   2161c:	0320f809 	jalr	t9
   21620:	00409821 	move	s3,v0
   21624:	8fbc0010 	lw	gp,16(sp)
   21628:	02621021 	addu	v0,s3,v0
   2162c:	8f99888c 	lw	t9,-30580(gp)
   21630:	00000000 	nop
   21634:	0320f809 	jalr	t9
   21638:	24440001 	addiu	a0,v0,1
   2163c:	8fbc0010 	lw	gp,16(sp)
   21640:	00409821 	move	s3,v0
[31m   21644:	8f998878 	lw	t9,strcpy[0m
   21648:	12c00007 	beqz	s6,21668 <_rl_copy_to_kill_ring+0x1b0>
   2164c:	00402021 	move	a0,v0
--
   22334:	afbf002c 	sw	ra,44(sp)
   22338:	0320f809 	jalr	t9
   2233c:	24040014 	li	a0,20
   22340:	8fbc0010 	lw	gp,16(sp)
   22344:	ac40000c 	sw	zero,12(v0)
   22348:	8e24000c 	lw	a0,12(s1)
   2234c:	00408021 	move	s0,v0
   22350:	ac540010 	sw	s4,16(v0)
   22354:	ac530004 	sw	s3,4(v0)
   22358:	ac520008 	sw	s2,8(v0)
   2235c:	ac400000 	sw	zero,0(v0)
   22360:	10800011 	beqz	a0,223a8 <_rl_copy_undo_entry+0xb0>
   22364:	00001021 	move	v0,zero
   22368:	8f998100 	lw	t9,strlen
   2236c:	00000000 	nop
   22370:	0320f809 	jalr	t9
   22374:	00000000 	nop
   22378:	8fbc0010 	lw	gp,16(sp)
   2237c:	00000000 	nop
   22380:	8f99888c 	lw	t9,-30580(gp)
   22384:	00000000 	nop
   22388:	0320f809 	jalr	t9
   2238c:	24440001 	addiu	a0,v0,1
   22390:	8fbc0010 	lw	gp,16(sp)
   22394:	8e25000c 	lw	a1,12(s1)
[31m   22398:	8f998878 	lw	t9,strcpy[0m
   2239c:	00000000 	nop
   223a0:	0320f809 	jalr	t9
--
   22de8:	2402ffff 	li	v0,-1
   22dec:	8f828704 	lw	v0,-30972(gp)
   22df0:	00000000 	nop
   22df4:	8c420000 	lw	v0,0(v0)
   22df8:	00000000 	nop
   22dfc:	10400020 	beqz	v0,22e80 <rl_start_kbd_macro+0xdc>
   22e00:	00000000 	nop
   22e04:	8f908018 	lw	s0,-32744(gp)
   22e08:	00000000 	nop
   22e0c:	8e045144 	lw	a0,20804(s0)
   22e10:	00000000 	nop
   22e14:	1080001d 	beqz	a0,22e8c <rl_start_kbd_macro+0xe8>
   22e18:	00000000 	nop
   22e1c:	8f998100 	lw	t9,strlen
   22e20:	00000000 	nop
   22e24:	0320f809 	jalr	t9
   22e28:	00000000 	nop
   22e2c:	8fbc0010 	lw	gp,16(sp)
   22e30:	00000000 	nop
   22e34:	8f99888c 	lw	t9,-30580(gp)
   22e38:	00000000 	nop
   22e3c:	0320f809 	jalr	t9
   22e40:	24440001 	addiu	a0,v0,1
   22e44:	8fbc0010 	lw	gp,16(sp)
   22e48:	8e055144 	lw	a1,20804(s0)
[31m   22e4c:	8f998878 	lw	t9,strcpy[0m
   22e50:	00000000 	nop
   22e54:	0320f809 	jalr	t9
--
   22f24:	0320f809 	jalr	t9
   22f28:	00000000 	nop
   22f2c:	8fbc0010 	lw	gp,16(sp)
   22f30:	8e045144 	lw	a0,20804(s0)
   22f34:	8f838018 	lw	v1,-32744(gp)
   22f38:	00000000 	nop
   22f3c:	8c62513c 	lw	v0,20796(v1)
   22f40:	00000000 	nop
   22f44:	2442ffff 	addiu	v0,v0,-1
   22f48:	ac62513c 	sw	v0,20796(v1)
   22f4c:	00821021 	addu	v0,a0,v0
   22f50:	1000001a 	b	22fbc <rl_call_last_kbd_macro+0x104>
   22f54:	a0400000 	sb	zero,0(v0)
   22f58:	8f998100 	lw	t9,strlen
   22f5c:	8e045144 	lw	a0,20804(s0)
   22f60:	0320f809 	jalr	t9
   22f64:	2631ffff 	addiu	s1,s1,-1
   22f68:	8fbc0010 	lw	gp,16(sp)
   22f6c:	00000000 	nop
   22f70:	8f99888c 	lw	t9,-30580(gp)
   22f74:	00000000 	nop
   22f78:	0320f809 	jalr	t9
   22f7c:	24440001 	addiu	a0,v0,1
   22f80:	8fbc0010 	lw	gp,16(sp)
   22f84:	8e055144 	lw	a1,20804(s0)
[31m   22f88:	8f998878 	lw	t9,strcpy[0m
   22f8c:	00000000 	nop
   22f90:	0320f809 	jalr	t9
--
   25b40:	27bdffd8 	addiu	sp,sp,-40
   25b44:	afbc0010 	sw	gp,16(sp)
   25b48:	afb20020 	sw	s2,32(sp)
   25b4c:	afb1001c 	sw	s1,28(sp)
   25b50:	afb00018 	sw	s0,24(sp)
   25b54:	afbf0024 	sw	ra,36(sp)
   25b58:	00809021 	move	s2,a0
   25b5c:	0320f809 	jalr	t9
   25b60:	00a08821 	move	s1,a1
   25b64:	8fbc0010 	lw	gp,16(sp)
   25b68:	00408021 	move	s0,v0
   25b6c:	8f828734 	lw	v0,-30924(gp)
   25b70:	00000000 	nop
   25b74:	8c420000 	lw	v0,0(v0)
   25b78:	00000000 	nop
   25b7c:	0202102a 	slt	v0,s0,v0
   25b80:	14400007 	bnez	v0,25ba0 <rl_replace_line+0x70>
   25b84:	00000000 	nop
   25b88:	8f9981bc 	lw	t9,-32324(gp)
   25b8c:	00000000 	nop
   25b90:	0320f809 	jalr	t9
   25b94:	02002021 	move	a0,s0
   25b98:	8fbc0010 	lw	gp,16(sp)
   25b9c:	00000000 	nop
   25ba0:	8f828870 	lw	v0,-30608(gp)
[31m   25ba4:	8f998878 	lw	t9,strcpy[0m
   25ba8:	8c440000 	lw	a0,0(v0)
   25bac:	0320f809 	jalr	t9
--
   29454:	afbf0024 	sw	ra,36(sp)
   29458:	8e020000 	lw	v0,0(s0)
   2945c:	afb20020 	sw	s2,32(sp)
   29460:	afb1001c 	sw	s1,28(sp)
   29464:	14400020 	bnez	v0,294e8 <rl_maybe_save_line+0xb0>
   29468:	00000000 	nop
   2946c:	8f99888c 	lw	t9,-30580(gp)
   29470:	00000000 	nop
   29474:	0320f809 	jalr	t9
   29478:	2404000c 	li	a0,12
   2947c:	8fbc0010 	lw	gp,16(sp)
   29480:	ae020000 	sw	v0,0(s0)
   29484:	8f928870 	lw	s2,-30608(gp)
   29488:	8f998100 	lw	t9,strlen
   2948c:	8e440000 	lw	a0,0(s2)
   29490:	0320f809 	jalr	t9
   29494:	00408821 	move	s1,v0
   29498:	8fbc0010 	lw	gp,16(sp)
   2949c:	00000000 	nop
   294a0:	8f99888c 	lw	t9,-30580(gp)
   294a4:	00000000 	nop
   294a8:	0320f809 	jalr	t9
   294ac:	24440001 	addiu	a0,v0,1
   294b0:	8fbc0010 	lw	gp,16(sp)
   294b4:	8e450000 	lw	a1,0(s2)
[31m   294b8:	8f998878 	lw	t9,strcpy[0m
   294bc:	00000000 	nop
   294c0:	0320f809 	jalr	t9
--
   29f84:	27bdffd8 	addiu	sp,sp,-40
   29f88:	afbc0010 	sw	gp,16(sp)
   29f8c:	afb20020 	sw	s2,32(sp)
   29f90:	afb1001c 	sw	s1,28(sp)
   29f94:	afb00018 	sw	s0,24(sp)
   29f98:	afbf0024 	sw	ra,36(sp)
   29f9c:	00808021 	move	s0,a0
   29fa0:	2404000c 	li	a0,12
   29fa4:	0320f809 	jalr	t9
   29fa8:	00a09021 	move	s2,a1
   29fac:	8fbc0010 	lw	gp,16(sp)
   29fb0:	12000012 	beqz	s0,29ffc <alloc_history_entry+0x88>
   29fb4:	00408821 	move	s1,v0
   29fb8:	8f998100 	lw	t9,strlen
   29fbc:	00000000 	nop
   29fc0:	0320f809 	jalr	t9
   29fc4:	02002021 	move	a0,s0
   29fc8:	8fbc0010 	lw	gp,16(sp)
   29fcc:	00000000 	nop
   29fd0:	8f99888c 	lw	t9,-30580(gp)
   29fd4:	00000000 	nop
   29fd8:	0320f809 	jalr	t9
   29fdc:	24440001 	addiu	a0,v0,1
   29fe0:	8fbc0010 	lw	gp,16(sp)
   29fe4:	02002821 	move	a1,s0
[31m   29fe8:	8f998878 	lw	t9,strcpy[0m
   29fec:	00000000 	nop
   29ff0:	0320f809 	jalr	t9
--
   2a0ac:	afb10020 	sw	s1,32(sp)
   2a0b0:	00808821 	move	s1,a0
   2a0b4:	8e040004 	lw	a0,4(s0)
   2a0b8:	afbc0010 	sw	gp,16(sp)
   2a0bc:	afbf0024 	sw	ra,36(sp)
   2a0c0:	10800007 	beqz	a0,2a0e0 <add_history_time+0x68>
   2a0c4:	00000000 	nop
   2a0c8:	8f998048 	lw	t9,-32696(gp)
   2a0cc:	00000000 	nop
   2a0d0:	0320f809 	jalr	t9
   2a0d4:	00000000 	nop
   2a0d8:	8fbc0010 	lw	gp,16(sp)
   2a0dc:	00000000 	nop
   2a0e0:	8f998100 	lw	t9,strlen
   2a0e4:	00000000 	nop
   2a0e8:	0320f809 	jalr	t9
   2a0ec:	02202021 	move	a0,s1
   2a0f0:	8fbc0010 	lw	gp,16(sp)
   2a0f4:	00000000 	nop
   2a0f8:	8f99888c 	lw	t9,-30580(gp)
   2a0fc:	00000000 	nop
   2a100:	0320f809 	jalr	t9
   2a104:	24440001 	addiu	a0,v0,1
   2a108:	8fbc0010 	lw	gp,16(sp)
   2a10c:	02202821 	move	a1,s1
[31m   2a110:	8f998878 	lw	t9,strcpy[0m
   2a114:	00000000 	nop
   2a118:	0320f809 	jalr	t9
--
   2a324:	ac430000 	sw	v1,0(v0)
   2a328:	0320f809 	jalr	t9
   2a32c:	00002021 	move	a0,zero
   2a330:	8fbc0010 	lw	gp,16(sp)
   2a334:	00403821 	move	a3,v0
   2a338:	2405003f 	li	a1,63
   2a33c:	8f868024 	lw	a2,-32732(gp)
   2a340:	8f9987b4 	lw	t9,-30796(gp)
   2a344:	27a40018 	addiu	a0,sp,24
   2a348:	0320f809 	jalr	t9
   2a34c:	24c60ca4 	addiu	a2,a2,3236
   2a350:	8fbc0010 	lw	gp,16(sp)
   2a354:	00000000 	nop
   2a358:	8f998100 	lw	t9,strlen
   2a35c:	00000000 	nop
   2a360:	0320f809 	jalr	t9
   2a364:	27a40018 	addiu	a0,sp,24
   2a368:	8fbc0010 	lw	gp,16(sp)
   2a36c:	00000000 	nop
   2a370:	8f99888c 	lw	t9,-30580(gp)
   2a374:	00000000 	nop
   2a378:	0320f809 	jalr	t9
   2a37c:	24440001 	addiu	a0,v0,1
   2a380:	8fbc0010 	lw	gp,16(sp)
   2a384:	00402021 	move	a0,v0
[31m   2a388:	8f998878 	lw	t9,strcpy[0m
   2a38c:	00000000 	nop
   2a390:	0320f809 	jalr	t9
--
   2a418:	afbf0024 	sw	ra,36(sp)
   2a41c:	afb10020 	sw	s1,32(sp)
   2a420:	1080001e 	beqz	a0,2a49c <copy_history_entry+0x9c>
   2a424:	00808021 	move	s0,a0
   2a428:	8f998594 	lw	t9,-31340(gp)
   2a42c:	8c840000 	lw	a0,0(a0)
   2a430:	0320f809 	jalr	t9
   2a434:	00002821 	move	a1,zero
   2a438:	8e040004 	lw	a0,4(s0)
   2a43c:	00408821 	move	s1,v0
   2a440:	8fbc0010 	lw	gp,16(sp)
   2a444:	10800011 	beqz	a0,2a48c <copy_history_entry+0x8c>
   2a448:	00001021 	move	v0,zero
   2a44c:	8f998100 	lw	t9,strlen
   2a450:	00000000 	nop
   2a454:	0320f809 	jalr	t9
   2a458:	00000000 	nop
   2a45c:	8fbc0010 	lw	gp,16(sp)
   2a460:	00000000 	nop
   2a464:	8f99888c 	lw	t9,-30580(gp)
   2a468:	00000000 	nop
   2a46c:	0320f809 	jalr	t9
   2a470:	24440001 	addiu	a0,v0,1
   2a474:	8fbc0010 	lw	gp,16(sp)
   2a478:	8e050004 	lw	a1,4(s0)
[31m   2a47c:	8f998878 	lw	t9,strcpy[0m
   2a480:	00000000 	nop
   2a484:	0320f809 	jalr	t9
--
   2a504:	8f99888c 	lw	t9,-30580(gp)
   2a508:	afa6001c 	sw	a2,28(sp)
   2a50c:	2404000c 	li	a0,12
   2a510:	0320f809 	jalr	t9
   2a514:	afa50018 	sw	a1,24(sp)
   2a518:	8fbc0010 	lw	gp,16(sp)
   2a51c:	00409021 	move	s2,v0
   2a520:	8fa50018 	lw	a1,24(sp)
   2a524:	8f938018 	lw	s3,-32744(gp)
   2a528:	8f998100 	lw	t9,strlen
   2a52c:	00108080 	sll	s0,s0,0x2
   2a530:	8e625480 	lw	v0,21632(s3)
   2a534:	00000000 	nop
   2a538:	00501021 	addu	v0,v0,s0
   2a53c:	8c510000 	lw	s1,0(v0)
   2a540:	0320f809 	jalr	t9
   2a544:	00a02021 	move	a0,a1
   2a548:	8fbc0010 	lw	gp,16(sp)
   2a54c:	00000000 	nop
   2a550:	8f99888c 	lw	t9,-30580(gp)
   2a554:	00000000 	nop
   2a558:	0320f809 	jalr	t9
   2a55c:	24440001 	addiu	a0,v0,1
   2a560:	8fbc0010 	lw	gp,16(sp)
   2a564:	8fa50018 	lw	a1,24(sp)
[31m   2a568:	8f998878 	lw	t9,strcpy[0m
   2a56c:	00000000 	nop
   2a570:	0320f809 	jalr	t9
   2a574:	00402021 	move	a0,v0
   2a578:	8fbc0010 	lw	gp,16(sp)
   2a57c:	8fa6001c 	lw	a2,28(sp)
   2a580:	8e240004 	lw	a0,4(s1)
   2a584:	8f998100 	lw	t9,strlen
   2a588:	ae460008 	sw	a2,8(s2)
   2a58c:	0320f809 	jalr	t9
   2a590:	ae420000 	sw	v0,0(s2)
   2a594:	8fbc0010 	lw	gp,16(sp)
   2a598:	00000000 	nop
   2a59c:	8f99888c 	lw	t9,-30580(gp)
   2a5a0:	00000000 	nop
   2a5a4:	0320f809 	jalr	t9
   2a5a8:	24440001 	addiu	a0,v0,1
   2a5ac:	8fbc0010 	lw	gp,16(sp)
   2a5b0:	8e250004 	lw	a1,4(s1)
[31m   2a5b4:	8f998878 	lw	t9,strcpy[0m
   2a5b8:	00000000 	nop
   2a5bc:	0320f809 	jalr	t9
--
   2aa64:	10000008 	b	2aa88 <hist_error+0xb8>
   2aa68:	26310d04 	addiu	s1,s1,3332
   2aa6c:	8f918024 	lw	s1,-32732(gp)
   2aa70:	24040017 	li	a0,23
   2aa74:	10000004 	b	2aa88 <hist_error+0xb8>
   2aa78:	26310d20 	addiu	s1,s1,3360
   2aa7c:	8f918024 	lw	s1,-32732(gp)
   2aa80:	24040012 	li	a0,18
   2aa84:	26310cbc 	addiu	s1,s1,3260
   2aa88:	8f99888c 	lw	t9,-30580(gp)
   2aa8c:	02642021 	addu	a0,s3,a0
   2aa90:	afa50018 	sw	a1,24(sp)
   2aa94:	0320f809 	jalr	t9
   2aa98:	24840003 	addiu	a0,a0,3
   2aa9c:	8fbc0010 	lw	gp,16(sp)
   2aaa0:	8fa50018 	lw	a1,24(sp)
   2aaa4:	02603021 	move	a2,s3
   2aaa8:	8f998408 	lw	t9,-31736(gp)
   2aaac:	02052821 	addu	a1,s0,a1
   2aab0:	00402021 	move	a0,v0
   2aab4:	0320f809 	jalr	t9
   2aab8:	00409021 	move	s2,v0
   2aabc:	8fbc0010 	lw	gp,16(sp)
   2aac0:	02531021 	addu	v0,s2,s3
   2aac4:	2403003a 	li	v1,58
[31m   2aac8:	8f998878 	lw	t9,strcpy[0m
   2aacc:	a0430000 	sb	v1,0(v0)
   2aad0:	26640002 	addiu	a0,s3,2
--
   2b498:	00000000 	nop
   2b49c:	12600027 	beqz	s3,2b53c <get_history_event+0x3a4>
   2b4a0:	00000000 	nop
   2b4a4:	8f908018 	lw	s0,-32744(gp)
   2b4a8:	8f998048 	lw	t9,-32696(gp)
   2b4ac:	8e125498 	lw	s2,21656(s0)
   2b4b0:	00000000 	nop
   2b4b4:	12400018 	beqz	s2,2b518 <get_history_event+0x380>
   2b4b8:	02202021 	move	a0,s1
   2b4bc:	0320f809 	jalr	t9
   2b4c0:	02202021 	move	a0,s1
   2b4c4:	8fbc0010 	lw	gp,16(sp)
   2b4c8:	00000000 	nop
   2b4cc:	8f998100 	lw	t9,strlen
   2b4d0:	00000000 	nop
   2b4d4:	0320f809 	jalr	t9
   2b4d8:	02402021 	move	a0,s2
   2b4dc:	8fbc0010 	lw	gp,16(sp)
   2b4e0:	00000000 	nop
   2b4e4:	8f99888c 	lw	t9,-30580(gp)
   2b4e8:	00000000 	nop
   2b4ec:	0320f809 	jalr	t9
   2b4f0:	24440001 	addiu	a0,v0,1
   2b4f4:	8fbc0010 	lw	gp,16(sp)
   2b4f8:	8e055498 	lw	a1,21656(s0)
[31m   2b4fc:	8f998878 	lw	t9,strcpy[0m
   2b500:	00000000 	nop
   2b504:	0320f809 	jalr	t9
--
   2b860:	00009821 	move	s3,zero
   2b864:	10000009 	b	2b88c <history_arg_extract+0x124>
   2b868:	029ef021 	addu	s8,s4,s8
   2b86c:	8f998100 	lw	t9,strlen
   2b870:	8c440000 	lw	a0,0(v0)
   2b874:	26520001 	addiu	s2,s2,1
   2b878:	0320f809 	jalr	t9
   2b87c:	26d60001 	addiu	s6,s6,1
   2b880:	8fbc0010 	lw	gp,16(sp)
   2b884:	02429021 	addu	s2,s2,v0
   2b888:	26730004 	addiu	s3,s3,4
   2b88c:	02d5102a 	slt	v0,s6,s5
   2b890:	1440fff6 	bnez	v0,2b86c <history_arg_extract+0x104>
   2b894:	03d31021 	addu	v0,s8,s3
   2b898:	8f99888c 	lw	t9,-30580(gp)
   2b89c:	26440001 	addiu	a0,s2,1
   2b8a0:	0320f809 	jalr	t9
   2b8a4:	0010b080 	sll	s6,s0,0x2
   2b8a8:	00409021 	move	s2,v0
   2b8ac:	8fbc0010 	lw	gp,16(sp)
   2b8b0:	a0400000 	sb	zero,0(v0)
   2b8b4:	0296b021 	addu	s6,s4,s6
   2b8b8:	00009821 	move	s3,zero
   2b8bc:	10000015 	b	2b914 <history_arg_extract+0x1ac>
   2b8c0:	241e0020 	li	s8,32
[31m   2b8c4:	8f998878 	lw	t9,strcpy[0m
   2b8c8:	8ec50000 	lw	a1,0(s6)
   2b8cc:	0320f809 	jalr	t9
--
   2b9b4:	afb3009c 	sw	s3,156(sp)
   2b9b8:	afb20098 	sw	s2,152(sp)
   2b9bc:	afb10094 	sw	s1,148(sp)
   2b9c0:	0080a821 	move	s5,a0
   2b9c4:	afa500bc 	sw	a1,188(sp)
   2b9c8:	10a006af 	beqz	a1,2d488 <history_expand+0x1b04>
   2b9cc:	00008021 	move	s0,zero
   2b9d0:	8f948280 	lw	s4,-32128(gp)
   2b9d4:	00000000 	nop
   2b9d8:	82820000 	lb	v0,0(s4)
   2b9dc:	00000000 	nop
   2b9e0:	14400014 	bnez	v0,2ba34 <history_expand+0xb0>
   2b9e4:	00000000 	nop
   2b9e8:	8f998100 	lw	t9,strlen
   2b9ec:	00000000 	nop
   2b9f0:	0320f809 	jalr	t9
   2b9f4:	00000000 	nop
   2b9f8:	8fbc0018 	lw	gp,24(sp)
   2b9fc:	00000000 	nop
   2ba00:	8f99888c 	lw	t9,-30580(gp)
   2ba04:	00000000 	nop
   2ba08:	0320f809 	jalr	t9
   2ba0c:	24440001 	addiu	a0,v0,1
   2ba10:	8fbc0018 	lw	gp,24(sp)
   2ba14:	00402021 	move	a0,v0
[31m   2ba18:	8f998878 	lw	t9,strcpy[0m
   2ba1c:	00000000 	nop
   2ba20:	0320f809 	jalr	t9
--
   2ba44:	8fbc0018 	lw	gp,24(sp)
   2ba48:	a0400000 	sb	zero,0(v0)
   2ba4c:	02a02021 	move	a0,s5
   2ba50:	8f998100 	lw	t9,strlen
   2ba54:	00000000 	nop
   2ba58:	0320f809 	jalr	t9
   2ba5c:	00409821 	move	s3,v0
   2ba60:	8fbc0018 	lw	gp,24(sp)
   2ba64:	afa2005c 	sw	v0,92(sp)
   2ba68:	82a30000 	lb	v1,0(s5)
   2ba6c:	8f8283d4 	lw	v0,-31788(gp)
   2ba70:	00000000 	nop
   2ba74:	80420000 	lb	v0,0(v0)
   2ba78:	00000000 	nop
   2ba7c:	14620018 	bne	v1,v0,2bae0 <history_expand+0x15c>
   2ba80:	00000000 	nop
   2ba84:	8fa3005c 	lw	v1,92(sp)
   2ba88:	8f99888c 	lw	t9,-30580(gp)
   2ba8c:	00000000 	nop
   2ba90:	0320f809 	jalr	t9
   2ba94:	24640005 	addiu	a0,v1,5
   2ba98:	00408821 	move	s1,v0
   2ba9c:	8fbc0018 	lw	gp,24(sp)
   2baa0:	82820000 	lb	v0,0(s4)
   2baa4:	26240004 	addiu	a0,s1,4
[31m   2baa8:	8f998878 	lw	t9,strcpy[0m
   2baac:	a2220001 	sb	v0,1(s1)
   2bab0:	a2220000 	sb	v0,0(s1)
--
   2bd10:	8f828280 	lw	v0,-32128(gp)
   2bd14:	02b08021 	addu	s0,s5,s0
   2bd18:	82030000 	lb	v1,0(s0)
   2bd1c:	80420000 	lb	v0,0(v0)
   2bd20:	00000000 	nop
   2bd24:	1062001a 	beq	v1,v0,2bd90 <history_expand+0x40c>
   2bd28:	02a08821 	move	s1,s5
   2bd2c:	8f998048 	lw	t9,-32696(gp)
   2bd30:	02602021 	move	a0,s3
   2bd34:	0320f809 	jalr	t9
   2bd38:	00008021 	move	s0,zero
   2bd3c:	8fbc0018 	lw	gp,24(sp)
   2bd40:	00000000 	nop
   2bd44:	8f998100 	lw	t9,strlen
   2bd48:	00000000 	nop
   2bd4c:	0320f809 	jalr	t9
   2bd50:	02a02021 	move	a0,s5
   2bd54:	8fbc0018 	lw	gp,24(sp)
   2bd58:	00000000 	nop
   2bd5c:	8f99888c 	lw	t9,-30580(gp)
   2bd60:	00000000 	nop
   2bd64:	0320f809 	jalr	t9
   2bd68:	24440001 	addiu	a0,v0,1
   2bd6c:	8fbc0018 	lw	gp,24(sp)
   2bd70:	00402021 	move	a0,v0
[31m   2bd74:	8f998878 	lw	t9,strcpy[0m
   2bd78:	00000000 	nop
   2bd7c:	0320f809 	jalr	t9
--
   2beb0:	16c0ffec 	bnez	s6,2be64 <history_expand+0x4e0>
   2beb4:	00000000 	nop
   2beb8:	8f998100 	lw	t9,strlen
   2bebc:	00000000 	nop
   2bec0:	0320f809 	jalr	t9
   2bec4:	27a4003c 	addiu	a0,sp,60
   2bec8:	0040f021 	move	s8,v0
   2becc:	2c420002 	sltiu	v0,v0,2
   2bed0:	8fbc0018 	lw	gp,24(sp)
   2bed4:	14400017 	bnez	v0,2bf34 <history_expand+0x5b0>
   2bed8:	00000000 	nop
   2bedc:	021e8021 	addu	s0,s0,s8
   2bee0:	0212102a 	slt	v0,s0,s2
   2bee4:	8fb50050 	lw	s5,80(sp)
   2bee8:	1440000a 	bnez	v0,2bf14 <history_expand+0x590>
   2beec:	26450080 	addiu	a1,s2,128
   2bef0:	02129023 	subu	s2,s0,s2
   2bef4:	8f9983b4 	lw	t9,-31820(gp)
   2bef8:	001291c2 	srl	s2,s2,0x7
   2befc:	001291c0 	sll	s2,s2,0x7
   2bf00:	02602021 	move	a0,s3
   2bf04:	0320f809 	jalr	t9
   2bf08:	00b22821 	addu	a1,a1,s2
   2bf0c:	8fbc0018 	lw	gp,24(sp)
   2bf10:	00409821 	move	s3,v0
[31m   2bf14:	8f998878 	lw	t9,strcpy[0m
   2bf18:	021e8023 	subu	s0,s0,s8
   2bf1c:	02702021 	addu	a0,s3,s0
--
   2c0b0:	0320f809 	jalr	t9
   2c0b4:	0040b021 	move	s6,v0
   2c0b8:	8fbc0018 	lw	gp,24(sp)
   2c0bc:	02def021 	addu	s8,s6,s8
   2c0c0:	a3c0ffff 	sb	zero,-1(s8)
   2c0c4:	8f998100 	lw	t9,strlen
   2c0c8:	00000000 	nop
   2c0cc:	0320f809 	jalr	t9
   2c0d0:	02c02021 	move	a0,s6
   2c0d4:	02028021 	addu	s0,s0,v0
   2c0d8:	0040a021 	move	s4,v0
   2c0dc:	0212102a 	slt	v0,s0,s2
   2c0e0:	8fbc0018 	lw	gp,24(sp)
   2c0e4:	1440000b 	bnez	v0,2c114 <history_expand+0x790>
   2c0e8:	26420080 	addiu	v0,s2,128
   2c0ec:	02129023 	subu	s2,s0,s2
   2c0f0:	001291c2 	srl	s2,s2,0x7
   2c0f4:	8f9983b4 	lw	t9,-31820(gp)
   2c0f8:	001291c0 	sll	s2,s2,0x7
   2c0fc:	00529021 	addu	s2,v0,s2
   2c100:	02602021 	move	a0,s3
   2c104:	0320f809 	jalr	t9
   2c108:	02402821 	move	a1,s2
   2c10c:	8fbc0018 	lw	gp,24(sp)
   2c110:	00409821 	move	s3,v0
[31m   2c114:	8f998878 	lw	t9,strcpy[0m
   2c118:	02142023 	subu	a0,s0,s4
   2c11c:	02642021 	addu	a0,s3,a0
--
   2c140:	8fbc0018 	lw	gp,24(sp)
   2c144:	100004bc 	b	2d438 <history_expand+0x1ab4>
   2c148:	26940001 	addiu	s4,s4,1
   2c14c:	1280000d 	beqz	s4,2c184 <history_expand+0x800>
   2c150:	02341021 	addu	v0,s1,s4
   2c154:	8045ffff 	lb	a1,-1(v0)
   2c158:	00000000 	nop
   2c15c:	10a00048 	beqz	a1,2c280 <history_expand+0x8fc>
   2c160:	2642ffff 	addiu	v0,s2,-1
   2c164:	8f8285b8 	lw	v0,-31304(gp)
   2c168:	8f9980e0 	lw	t9,-32544(gp)
   2c16c:	8c440000 	lw	a0,0(v0)
   2c170:	0320f809 	jalr	t9
   2c174:	00000000 	nop
   2c178:	8fbc0018 	lw	gp,24(sp)
   2c17c:	10400040 	beqz	v0,2c280 <history_expand+0x8fc>
   2c180:	2642ffff 	addiu	v0,s2,-1
   2c184:	8fa3005c 	lw	v1,92(sp)
   2c188:	8f99888c 	lw	t9,-30580(gp)
   2c18c:	00742023 	subu	a0,v1,s4
   2c190:	0320f809 	jalr	t9
   2c194:	24840001 	addiu	a0,a0,1
   2c198:	8fbc0018 	lw	gp,24(sp)
   2c19c:	02342821 	addu	a1,s1,s4
   2c1a0:	00402021 	move	a0,v0
[31m   2c1a4:	8f998878 	lw	t9,strcpy[0m
   2c1a8:	00000000 	nop
   2c1ac:	0320f809 	jalr	t9
   2c1b0:	0040a821 	move	s5,v0
   2c1b4:	8fbc0018 	lw	gp,24(sp)
   2c1b8:	00000000 	nop
   2c1bc:	8f998100 	lw	t9,strlen
   2c1c0:	00000000 	nop
   2c1c4:	0320f809 	jalr	t9
   2c1c8:	02a02021 	move	a0,s5
   2c1cc:	02028021 	addu	s0,s0,v0
   2c1d0:	0040a021 	move	s4,v0
   2c1d4:	0212102a 	slt	v0,s0,s2
   2c1d8:	8fbc0018 	lw	gp,24(sp)
   2c1dc:	1440000b 	bnez	v0,2c20c <history_expand+0x888>
   2c1e0:	26420080 	addiu	v0,s2,128
   2c1e4:	02129023 	subu	s2,s0,s2
   2c1e8:	001291c2 	srl	s2,s2,0x7
   2c1ec:	8f9983b4 	lw	t9,-31820(gp)
   2c1f0:	001291c0 	sll	s2,s2,0x7
   2c1f4:	00529021 	addu	s2,v0,s2
   2c1f8:	02602021 	move	a0,s3
   2c1fc:	0320f809 	jalr	t9
   2c200:	02402821 	move	a1,s2
   2c204:	8fbc0018 	lw	gp,24(sp)
   2c208:	00409821 	move	s3,v0
[31m   2c20c:	8f998878 	lw	t9,strcpy[0m
   2c210:	02142023 	subu	a0,s0,s4
   2c214:	02642021 	addu	a0,s3,a0
--
   2c48c:	1080000f 	beqz	a0,2c4cc <history_expand+0xb48>
   2c490:	00000000 	nop
   2c494:	8f998100 	lw	t9,strlen
   2c498:	00000000 	nop
   2c49c:	0320f809 	jalr	t9
   2c4a0:	00000000 	nop
   2c4a4:	8fbc0018 	lw	gp,24(sp)
   2c4a8:	00000000 	nop
   2c4ac:	8f99888c 	lw	t9,-30580(gp)
   2c4b0:	00000000 	nop
   2c4b4:	0320f809 	jalr	t9
   2c4b8:	24440001 	addiu	a0,v0,1
   2c4bc:	8fbc0018 	lw	gp,24(sp)
   2c4c0:	8e85549c 	lw	a1,21660(s4)
   2c4c4:	1000000a 	b	2c4f0 <history_expand+0xb6c>
   2c4c8:	00402021 	move	a0,v0
   2c4cc:	8f99888c 	lw	t9,-30580(gp)
   2c4d0:	00000000 	nop
   2c4d4:	0320f809 	jalr	t9
   2c4d8:	24040001 	li	a0,1
   2c4dc:	8fbc0018 	lw	gp,24(sp)
   2c4e0:	00402021 	move	a0,v0
   2c4e4:	8f858024 	lw	a1,-32732(gp)
   2c4e8:	00000000 	nop
   2c4ec:	24a5082c 	addiu	a1,a1,2092
[31m   2c4f0:	8f998878 	lw	t9,strcpy[0m
   2c4f4:	00000000 	nop
   2c4f8:	0320f809 	jalr	t9
--
   2c6ec:	8f998024 	lw	t9,-32732(gp)
   2c6f0:	00000000 	nop
   2c6f4:	2739a9d0 	addiu	t9,t9,-22064
   2c6f8:	0411f8b5 	bal	2a9d0 <hist_error>
   2c6fc:	00000000 	nop
   2c700:	8fbc0018 	lw	gp,24(sp)
   2c704:	02c02021 	move	a0,s6
   2c708:	8f998048 	lw	t9,-32696(gp)
   2c70c:	10000265 	b	2d0a4 <history_expand+0x1720>
   2c710:	afa20080 	sw	v0,128(sp)
   2c714:	1060001c 	beqz	v1,2c788 <history_expand+0xe04>
   2c718:	00602021 	move	a0,v1
   2c71c:	8f998100 	lw	t9,strlen
   2c720:	00000000 	nop
   2c724:	0320f809 	jalr	t9
   2c728:	afa3008c 	sw	v1,140(sp)
   2c72c:	8fbc0018 	lw	gp,24(sp)
   2c730:	00000000 	nop
   2c734:	8f99888c 	lw	t9,-30580(gp)
   2c738:	00000000 	nop
   2c73c:	0320f809 	jalr	t9
   2c740:	24440001 	addiu	a0,v0,1
   2c744:	8fbc0018 	lw	gp,24(sp)
   2c748:	8fa3008c 	lw	v1,140(sp)
   2c74c:	00402021 	move	a0,v0
[31m   2c750:	8f998878 	lw	t9,strcpy[0m
   2c754:	00000000 	nop
   2c758:	0320f809 	jalr	t9
   2c75c:	00602821 	move	a1,v1
   2c760:	8fbc0018 	lw	gp,24(sp)
   2c764:	8fa3008c 	lw	v1,140(sp)
   2c768:	0040a021 	move	s4,v0
   2c76c:	8f998048 	lw	t9,-32696(gp)
   2c770:	00000000 	nop
   2c774:	0320f809 	jalr	t9
   2c778:	00602021 	move	a0,v1
   2c77c:	8fbc0018 	lw	gp,24(sp)
   2c780:	10000013 	b	2c7d0 <history_expand+0xe4c>
   2c784:	00000000 	nop
   2c788:	8f998100 	lw	t9,strlen
   2c78c:	00000000 	nop
   2c790:	0320f809 	jalr	t9
   2c794:	02a02021 	move	a0,s5
   2c798:	8fbc0018 	lw	gp,24(sp)
   2c79c:	00000000 	nop
   2c7a0:	8f99888c 	lw	t9,-30580(gp)
   2c7a4:	00000000 	nop
   2c7a8:	0320f809 	jalr	t9
   2c7ac:	24440001 	addiu	a0,v0,1
   2c7b0:	8fbc0018 	lw	gp,24(sp)
   2c7b4:	00402021 	move	a0,v0
[31m   2c7b8:	8f998878 	lw	t9,strcpy[0m
   2c7bc:	00000000 	nop
   2c7c0:	0320f809 	jalr	t9
--
   2c92c:	00000000 	nop
   2c930:	8fbc0018 	lw	gp,24(sp)
   2c934:	104001ea 	beqz	v0,2d0e0 <history_expand+0x175c>
   2c938:	00000000 	nop
   2c93c:	100001e8 	b	2d0e0 <history_expand+0x175c>
   2c940:	a0400000 	sb	zero,0(v0)
   2c944:	8f99854c 	lw	t9,-31412(gp)
   2c948:	00000000 	nop
   2c94c:	0320f809 	jalr	t9
   2c950:	02802021 	move	a0,s4
   2c954:	8fbc0018 	lw	gp,24(sp)
   2c958:	104001e1 	beqz	v0,2d0e0 <history_expand+0x175c>
   2c95c:	00402821 	move	a1,v0
   2c960:	8f998100 	lw	t9,strlen
   2c964:	00a02021 	move	a0,a1
   2c968:	0320f809 	jalr	t9
   2c96c:	afa50080 	sw	a1,128(sp)
   2c970:	8fbc0018 	lw	gp,24(sp)
   2c974:	00000000 	nop
   2c978:	8f99888c 	lw	t9,-30580(gp)
   2c97c:	00000000 	nop
   2c980:	0320f809 	jalr	t9
   2c984:	24440001 	addiu	a0,v0,1
   2c988:	8fbc0018 	lw	gp,24(sp)
   2c98c:	8fa50080 	lw	a1,128(sp)
[31m   2c990:	8f998878 	lw	t9,strcpy[0m
   2c994:	00000000 	nop
   2c998:	0320f809 	jalr	t9
--
   2cb18:	00000000 	nop
   2cb1c:	14400028 	bnez	v0,2cbc0 <history_expand+0x123c>
   2cb20:	00000000 	nop
   2cb24:	8f908018 	lw	s0,-32744(gp)
   2cb28:	00000000 	nop
   2cb2c:	8e045498 	lw	a0,21656(s0)
   2cb30:	00000000 	nop
   2cb34:	10800020 	beqz	a0,2cbb8 <history_expand+0x1234>
   2cb38:	00000000 	nop
   2cb3c:	80820000 	lb	v0,0(a0)
   2cb40:	00000000 	nop
   2cb44:	1040001c 	beqz	v0,2cbb8 <history_expand+0x1234>
   2cb48:	00000000 	nop
   2cb4c:	8f998100 	lw	t9,strlen
   2cb50:	00000000 	nop
   2cb54:	0320f809 	jalr	t9
   2cb58:	00000000 	nop
   2cb5c:	8fbc0018 	lw	gp,24(sp)
   2cb60:	00000000 	nop
   2cb64:	8f99888c 	lw	t9,-30580(gp)
   2cb68:	00000000 	nop
   2cb6c:	0320f809 	jalr	t9
   2cb70:	24440001 	addiu	a0,v0,1
   2cb74:	8fbc0018 	lw	gp,24(sp)
   2cb78:	8e055498 	lw	a1,21656(s0)
[31m   2cb7c:	8f998878 	lw	t9,strcpy[0m
   2cb80:	00000000 	nop
   2cb84:	0320f809 	jalr	t9
--
   2cc78:	00000000 	nop
   2cc7c:	00481021 	addu	v0,v0,t0
   2cc80:	80440000 	lb	a0,0(v0)
   2cc84:	00000000 	nop
   2cc88:	14850024 	bne	a0,a1,2cd1c <history_expand+0x1398>
   2cc8c:	2405005c 	li	a1,92
   2cc90:	8e4254a4 	lw	v0,21668(s2)
   2cc94:	00000000 	nop
   2cc98:	00622021 	addu	a0,v1,v0
   2cc9c:	0086202a 	slt	a0,a0,a2
   2cca0:	1480000e 	bnez	a0,2ccdc <history_expand+0x1358>
   2cca4:	00e02021 	move	a0,a3
   2cca8:	8f9983b4 	lw	t9,-31820(gp)
   2ccac:	00063040 	sll	a2,a2,0x1
   2ccb0:	00c23021 	addu	a2,a2,v0
   2ccb4:	00c02821 	move	a1,a2
   2ccb8:	afa3008c 	sw	v1,140(sp)
   2ccbc:	afa60088 	sw	a2,136(sp)
   2ccc0:	0320f809 	jalr	t9
   2ccc4:	afa80084 	sw	t0,132(sp)
   2ccc8:	8fbc0018 	lw	gp,24(sp)
   2cccc:	8fa80084 	lw	t0,132(sp)
   2ccd0:	8fa60088 	lw	a2,136(sp)
   2ccd4:	8fa3008c 	lw	v1,140(sp)
   2ccd8:	00403821 	move	a3,v0
[31m   2ccdc:	8f998878 	lw	t9,strcpy[0m
   2cce0:	8fc554a8 	lw	a1,21672(s8)
   2cce4:	00e32021 	addu	a0,a3,v1
--
   2d268:	a0430000 	sb	v1,0(v0)
   2d26c:	24420001 	addiu	v0,v0,1
   2d270:	24840001 	addiu	a0,a0,1
   2d274:	108b0006 	beq	a0,t3,2d290 <history_expand+0x190c>
   2d278:	24030027 	li	v1,39
   2d27c:	8083ffff 	lb	v1,-1(a0)
   2d280:	00000000 	nop
   2d284:	1460ffe4 	bnez	v1,2d218 <history_expand+0x1894>
   2d288:	00000000 	nop
   2d28c:	24030027 	li	v1,39
   2d290:	a0430000 	sb	v1,0(v0)
   2d294:	10000013 	b	2d2e4 <history_expand+0x1960>
   2d298:	a0400001 	sb	zero,1(v0)
   2d29c:	8f998100 	lw	t9,strlen
   2d2a0:	00000000 	nop
   2d2a4:	0320f809 	jalr	t9
   2d2a8:	02802021 	move	a0,s4
   2d2ac:	8fbc0018 	lw	gp,24(sp)
   2d2b0:	00000000 	nop
   2d2b4:	8f99888c 	lw	t9,-30580(gp)
   2d2b8:	00000000 	nop
   2d2bc:	0320f809 	jalr	t9
   2d2c0:	24440001 	addiu	a0,v0,1
   2d2c4:	8fbc0018 	lw	gp,24(sp)
   2d2c8:	00402021 	move	a0,v0
[31m   2d2cc:	8f998878 	lw	t9,strcpy[0m
   2d2d0:	00000000 	nop
   2d2d4:	0320f809 	jalr	t9
   2d2d8:	02802821 	move	a1,s4
   2d2dc:	8fbc0018 	lw	gp,24(sp)
   2d2e0:	0040a021 	move	s4,v0
   2d2e4:	8f998048 	lw	t9,-32696(gp)
   2d2e8:	00000000 	nop
   2d2ec:	0320f809 	jalr	t9
   2d2f0:	02a02021 	move	a0,s5
   2d2f4:	8fbc0018 	lw	gp,24(sp)
   2d2f8:	00000000 	nop
   2d2fc:	8f998100 	lw	t9,strlen
   2d300:	00000000 	nop
   2d304:	0320f809 	jalr	t9
   2d308:	02802021 	move	a0,s4
   2d30c:	28430080 	slti	v1,v0,128
   2d310:	8fbc0018 	lw	gp,24(sp)
   2d314:	14600007 	bnez	v1,2d334 <history_expand+0x19b0>
   2d318:	02c02021 	move	a0,s6
   2d31c:	8f9983b4 	lw	t9,-31820(gp)
   2d320:	00000000 	nop
   2d324:	0320f809 	jalr	t9
   2d328:	24450002 	addiu	a1,v0,2
   2d32c:	8fbc0018 	lw	gp,24(sp)
   2d330:	0040b021 	move	s6,v0
[31m   2d334:	8f998878 	lw	t9,strcpy[0m
   2d338:	02802821 	move	a1,s4
   2d33c:	0320f809 	jalr	t9
--
   2d38c:	8fa30064 	lw	v1,100(sp)
   2d390:	82c20000 	lb	v0,0(s6)
   2d394:	24630001 	addiu	v1,v1,1
   2d398:	1040001c 	beqz	v0,2d40c <history_expand+0x1a88>
   2d39c:	afa30064 	sw	v1,100(sp)
   2d3a0:	8f998100 	lw	t9,strlen
   2d3a4:	00000000 	nop
   2d3a8:	0320f809 	jalr	t9
   2d3ac:	02c02021 	move	a0,s6
   2d3b0:	02028021 	addu	s0,s0,v0
   2d3b4:	0040a821 	move	s5,v0
   2d3b8:	0212102a 	slt	v0,s0,s2
   2d3bc:	8fbc0018 	lw	gp,24(sp)
   2d3c0:	1440000b 	bnez	v0,2d3f0 <history_expand+0x1a6c>
   2d3c4:	26420080 	addiu	v0,s2,128
   2d3c8:	02129023 	subu	s2,s0,s2
   2d3cc:	001291c2 	srl	s2,s2,0x7
   2d3d0:	8f9983b4 	lw	t9,-31820(gp)
   2d3d4:	001291c0 	sll	s2,s2,0x7
   2d3d8:	00529021 	addu	s2,v0,s2
   2d3dc:	02602021 	move	a0,s3
   2d3e0:	0320f809 	jalr	t9
   2d3e4:	02402821 	move	a1,s2
   2d3e8:	8fbc0018 	lw	gp,24(sp)
   2d3ec:	00409821 	move	s3,v0
[31m   2d3f0:	8f998878 	lw	t9,strcpy[0m
   2d3f4:	02152023 	subu	a0,s0,s5
   2d3f8:	02642021 	addu	a0,s3,a0
--

0002d4c0 <history_filename>:
   2d4c0:	3c1c0002 	lui	gp,0x2
   2d4c4:	279cec20 	addiu	gp,gp,-5088
   2d4c8:	0399e021 	addu	gp,gp,t9
   2d4cc:	27bdffd0 	addiu	sp,sp,-48
   2d4d0:	afbc0010 	sw	gp,16(sp)
   2d4d4:	afbf002c 	sw	ra,44(sp)
   2d4d8:	afb20028 	sw	s2,40(sp)
   2d4dc:	afb10024 	sw	s1,36(sp)
   2d4e0:	afb00020 	sw	s0,32(sp)
   2d4e4:	10800014 	beqz	a0,2d538 <history_filename+0x78>
   2d4e8:	00000000 	nop
   2d4ec:	8f998100 	lw	t9,strlen
   2d4f0:	00000000 	nop
   2d4f4:	0320f809 	jalr	t9
   2d4f8:	afa40018 	sw	a0,24(sp)
   2d4fc:	8fbc0010 	lw	gp,16(sp)
   2d500:	00000000 	nop
   2d504:	8f99888c 	lw	t9,-30580(gp)
   2d508:	00000000 	nop
   2d50c:	0320f809 	jalr	t9
   2d510:	24440001 	addiu	a0,v0,1
   2d514:	8fbc0010 	lw	gp,16(sp)
   2d518:	8fa50018 	lw	a1,24(sp)
[31m   2d51c:	8f998878 	lw	t9,strcpy[0m
   2d520:	00000000 	nop
   2d524:	0320f809 	jalr	t9
--
   2d538:	8f848024 	lw	a0,-32732(gp)
   2d53c:	8f9985c8 	lw	t9,-31288(gp)
   2d540:	00000000 	nop
   2d544:	0320f809 	jalr	t9
   2d548:	24840d90 	addiu	a0,a0,3472
   2d54c:	8fbc0010 	lw	gp,16(sp)
   2d550:	10400008 	beqz	v0,2d574 <history_filename+0xb4>
   2d554:	00409021 	move	s2,v0
   2d558:	8f998100 	lw	t9,strlen
   2d55c:	00000000 	nop
   2d560:	0320f809 	jalr	t9
   2d564:	00402021 	move	a0,v0
   2d568:	8fbc0010 	lw	gp,16(sp)
   2d56c:	10000004 	b	2d580 <history_filename+0xc0>
   2d570:	00408821 	move	s1,v0
   2d574:	8f928024 	lw	s2,-32732(gp)
   2d578:	24110001 	li	s1,1
   2d57c:	26520544 	addiu	s2,s2,1348
   2d580:	8f99888c 	lw	t9,-30580(gp)
   2d584:	00000000 	nop
   2d588:	0320f809 	jalr	t9
   2d58c:	2624000a 	addiu	a0,s1,10
   2d590:	8fbc0010 	lw	gp,16(sp)
   2d594:	00402021 	move	a0,v0
   2d598:	02402821 	move	a1,s2
[31m   2d59c:	8f998878 	lw	t9,strcpy[0m
   2d5a0:	00000000 	nop
   2d5a4:	0320f809 	jalr	t9
   2d5a8:	00408021 	move	s0,v0
   2d5ac:	8fbc0010 	lw	gp,16(sp)
   2d5b0:	02111021 	addu	v0,s0,s1
   2d5b4:	2403002f 	li	v1,47
   2d5b8:	8f858024 	lw	a1,-32732(gp)
[31m   2d5bc:	8f998878 	lw	t9,strcpy[0m
   2d5c0:	26240001 	addiu	a0,s1,1
   2d5c4:	a0430000 	sb	v1,0(v0)
--
   2d7fc:	00000000 	nop
   2d800:	8f8282e8 	lw	v0,-32024(gp)
   2d804:	8f9e8528 	lw	s8,-31448(gp)
   2d808:	2417000a 	li	s7,10
   2d80c:	8c560000 	lw	s6,0(v0)
   2d810:	00000000 	nop
   2d814:	02d4b023 	subu	s6,s6,s4
   2d818:	00161880 	sll	v1,s6,0x2
   2d81c:	02a3a821 	addu	s5,s5,v1
   2d820:	1000002f 	b	2d8e0 <history_do_write+0x2f0>
   2d824:	0000a021 	move	s4,zero
   2d828:	8fc20000 	lw	v0,0(s8)
   2d82c:	00000000 	nop
   2d830:	1040001a 	beqz	v0,2d89c <history_do_write+0x2ac>
   2d834:	00000000 	nop
   2d838:	8ea20000 	lw	v0,0(s5)
   2d83c:	00000000 	nop
   2d840:	8c450004 	lw	a1,4(v0)
   2d844:	00000000 	nop
   2d848:	10a00015 	beqz	a1,2d8a0 <history_do_write+0x2b0>
   2d84c:	00000000 	nop
   2d850:	80a20000 	lb	v0,0(a1)
   2d854:	00000000 	nop
   2d858:	10400010 	beqz	v0,2d89c <history_do_write+0x2ac>
   2d85c:	00000000 	nop
[31m   2d860:	8f998878 	lw	t9,strcpy[0m
   2d864:	00000000 	nop
   2d868:	0320f809 	jalr	t9
   2d86c:	02342021 	addu	a0,s1,s4
   2d870:	8fbc0010 	lw	gp,16(sp)
   2d874:	8ea20000 	lw	v0,0(s5)
   2d878:	8f998100 	lw	t9,strlen
   2d87c:	8c440004 	lw	a0,4(v0)
   2d880:	0320f809 	jalr	t9
   2d884:	00000000 	nop
   2d888:	0054a021 	addu	s4,v0,s4
   2d88c:	02341021 	addu	v0,s1,s4
   2d890:	8fbc0010 	lw	gp,16(sp)
   2d894:	26940001 	addiu	s4,s4,1
   2d898:	a0570000 	sb	s7,0(v0)
   2d89c:	8ea20000 	lw	v0,0(s5)
[31m   2d8a0:	8f998878 	lw	t9,strcpy[0m
   2d8a4:	02342021 	addu	a0,s1,s4
   2d8a8:	8c450000 	lw	a1,0(v0)
--
   2ee14:	80820000 	lb	v0,0(a0)
   2ee18:	00000000 	nop
   2ee1c:	10400009 	beqz	v0,2ee44 <glue_prefix_and_suffix+0x64>
   2ee20:	00000000 	nop
   2ee24:	8f998100 	lw	t9,strlen
   2ee28:	afa50018 	sw	a1,24(sp)
   2ee2c:	0320f809 	jalr	t9
   2ee30:	afa6001c 	sw	a2,28(sp)
   2ee34:	8fbc0010 	lw	gp,16(sp)
   2ee38:	8fa6001c 	lw	a2,28(sp)
   2ee3c:	8fa50018 	lw	a1,24(sp)
   2ee40:	00408821 	move	s1,v0
   2ee44:	8f998100 	lw	t9,strlen
   2ee48:	00a69821 	addu	s3,a1,a2
   2ee4c:	0320f809 	jalr	t9
   2ee50:	02602021 	move	a0,s3
   2ee54:	8fbc0010 	lw	gp,16(sp)
   2ee58:	02221021 	addu	v0,s1,v0
   2ee5c:	8f99888c 	lw	t9,-30580(gp)
   2ee60:	00000000 	nop
   2ee64:	0320f809 	jalr	t9
   2ee68:	24440001 	addiu	a0,v0,1
   2ee6c:	8fbc0010 	lw	gp,16(sp)
   2ee70:	12200007 	beqz	s1,2ee90 <glue_prefix_and_suffix+0xb0>
   2ee74:	00409021 	move	s2,v0
[31m   2ee78:	8f998878 	lw	t9,strcpy[0m
   2ee7c:	00402021 	move	a0,v0
   2ee80:	0320f809 	jalr	t9
   2ee84:	02002821 	move	a1,s0
   2ee88:	8fbc0010 	lw	gp,16(sp)
   2ee8c:	00000000 	nop
[31m   2ee90:	8f998878 	lw	t9,strcpy[0m
   2ee94:	02512021 	addu	a0,s2,s1
   2ee98:	0320f809 	jalr	t9
--
   2eed8:	afbf002c 	sw	ra,44(sp)
   2eedc:	afb20028 	sw	s2,40(sp)
   2eee0:	afb10024 	sw	s1,36(sp)
   2eee4:	108000ba 	beqz	a0,2f1d0 <tilde_expand_word+0x310>
   2eee8:	00808021 	move	s0,a0
   2eeec:	80830000 	lb	v1,0(a0)
   2eef0:	2402007e 	li	v0,126
   2eef4:	10620015 	beq	v1,v0,2ef4c <tilde_expand_word+0x8c>
   2eef8:	00000000 	nop
   2eefc:	8f998100 	lw	t9,strlen
   2ef00:	00000000 	nop
   2ef04:	0320f809 	jalr	t9
   2ef08:	00000000 	nop
   2ef0c:	8fbc0010 	lw	gp,16(sp)
   2ef10:	00000000 	nop
   2ef14:	8f99888c 	lw	t9,-30580(gp)
   2ef18:	00000000 	nop
   2ef1c:	0320f809 	jalr	t9
   2ef20:	24440001 	addiu	a0,v0,1
   2ef24:	8fbc0010 	lw	gp,16(sp)
   2ef28:	02002821 	move	a1,s0
   2ef2c:	8fbf002c 	lw	ra,44(sp)
   2ef30:	8fb20028 	lw	s2,40(sp)
   2ef34:	8fb10024 	lw	s1,36(sp)
   2ef38:	8fb00020 	lw	s0,32(sp)
[31m   2ef3c:	8f998878 	lw	t9,strcpy[0m
   2ef40:	00402021 	move	a0,v0
   2ef44:	03200008 	jr	t9
--
   2f100:	2739ede0 	addiu	t9,t9,-4640
   2f104:	0411ff36 	bal	2ede0 <glue_prefix_and_suffix>
   2f108:	02002821 	move	a1,s0
   2f10c:	8fbc0010 	lw	gp,16(sp)
   2f110:	afa20018 	sw	v0,24(sp)
   2f114:	8f998048 	lw	t9,-32696(gp)
   2f118:	00000000 	nop
   2f11c:	0320f809 	jalr	t9
   2f120:	02402021 	move	a0,s2
   2f124:	8fa20018 	lw	v0,24(sp)
   2f128:	8fbc0010 	lw	gp,16(sp)
   2f12c:	1440001b 	bnez	v0,2f19c <tilde_expand_word+0x2dc>
   2f130:	00000000 	nop
   2f134:	8f998100 	lw	t9,strlen
   2f138:	00000000 	nop
   2f13c:	0320f809 	jalr	t9
   2f140:	02002021 	move	a0,s0
   2f144:	8fbc0010 	lw	gp,16(sp)
   2f148:	00000000 	nop
   2f14c:	8f99888c 	lw	t9,-30580(gp)
   2f150:	00000000 	nop
   2f154:	0320f809 	jalr	t9
   2f158:	24440001 	addiu	a0,v0,1
   2f15c:	8fbc0010 	lw	gp,16(sp)
   2f160:	00402021 	move	a0,v0
[31m   2f164:	8f998878 	lw	t9,strcpy[0m
   2f168:	00000000 	nop
   2f16c:	0320f809 	jalr	t9
--
   2f494:	02549021 	addu	s2,s2,s4
   2f498:	8fbc0010 	lw	gp,16(sp)
   2f49c:	02602021 	move	a0,s3
   2f4a0:	8f998048 	lw	t9,-32696(gp)
   2f4a4:	00000000 	nop
   2f4a8:	0320f809 	jalr	t9
   2f4ac:	0040a021 	move	s4,v0
   2f4b0:	8fbc0010 	lw	gp,16(sp)
   2f4b4:	00000000 	nop
   2f4b8:	8f998100 	lw	t9,strlen
   2f4bc:	00000000 	nop
   2f4c0:	0320f809 	jalr	t9
   2f4c4:	02802021 	move	a0,s4
   2f4c8:	02c2a821 	addu	s5,s6,v0
   2f4cc:	02b0182a 	slt	v1,s5,s0
   2f4d0:	8fbc0010 	lw	gp,16(sp)
   2f4d4:	14600008 	bnez	v1,2f4f8 <tilde_expand+0x30c>
   2f4d8:	24420014 	addiu	v0,v0,20
   2f4dc:	8f9983b4 	lw	t9,-31820(gp)
   2f4e0:	02028021 	addu	s0,s0,v0
   2f4e4:	02202021 	move	a0,s1
   2f4e8:	0320f809 	jalr	t9
   2f4ec:	26050001 	addiu	a1,s0,1
   2f4f0:	8fbc0010 	lw	gp,16(sp)
   2f4f4:	00408821 	move	s1,v0
[31m   2f4f8:	8f998878 	lw	t9,strcpy[0m
   2f4fc:	02362021 	addu	a0,s1,s6
   2f500:	0320f809 	jalr	t9

[0m
[[0;33m*[0m] Function [0;33mstrcpy[0m used [0;33m85[0m times [0;33mlibreadline.so.5.2[0m

