[0m
[[0;33m*[0m] Function [0;33msystem[0m tear down of [0;33mtools.cgi[0m

  400f9c:	24020001 	li	v0,1
  400fa0:	8fa3052c 	lw	v1,1324(sp)
  400fa4:	14620021 	bne	v1,v0,40102c <main@@Base+0x50c>
  400fa8:	3c040040 	lui	a0,0x40
  400fac:	10000014 	b	401000 <main@@Base+0x4e0>
  400fb0:	00000000 	nop
  400fb4:	afa20544 	sw	v0,1348(sp)
  400fb8:	afa20534 	sw	v0,1332(sp)
  400fbc:	afa20520 	sw	v0,1312(sp)
  400fc0:	afa2052c 	sw	v0,1324(sp)
  400fc4:	8e640060 	lw	a0,96(s3)
  400fc8:	3c050040 	lui	a1,0x40
  400fcc:	24a51420 	addiu	a1,a1,5152
  400fd0:	3c060040 	lui	a2,0x40
  400fd4:	8f998068 	lw	t9,-32664(gp)
  400fd8:	0320f809 	jalr	t9
  400fdc:	24c6142c 	addiu	a2,a2,5164
  400fe0:	8fbc0018 	lw	gp,24(sp)
  400fe4:	8f998070 	lw	t9,-32656(gp)
  400fe8:	0320f809 	jalr	t9
  400fec:	02602021 	move	a0,s3
  400ff0:	8fbc0018 	lw	gp,24(sp)
  400ff4:	2403ffff 	li	v1,-1
  400ff8:	1000000c 	b	40102c <main@@Base+0x50c>
  400ffc:	afa3053c 	sw	v1,1340(sp)
[31m  401000:	8f998078 	lw	t9,system[0m
  401004:	0320f809 	jalr	t9
  401008:	24841434 	addiu	a0,a0,5172
  40100c:	8fbc0018 	lw	gp,24(sp)
  401010:	3c040040 	lui	a0,0x40
[31m  401014:	8f998078 	lw	t9,system[0m
  401018:	0320f809 	jalr	t9
  40101c:	24841464 	addiu	a0,a0,5220
  401020:	8fbc0018 	lw	gp,24(sp)
  401024:	10000036 	b	401100 <main@@Base+0x5e0>
  401028:	24020001 	li	v0,1
  40102c:	24020002 	li	v0,2
  401030:	8fa3052c 	lw	v1,1324(sp)
  401034:	14620029 	bne	v1,v0,4010dc <main@@Base+0x5bc>
  401038:	3c020040 	lui	v0,0x40
  40103c:	90421530 	lbu	v0,5424(v0)
  401040:	a3a20120 	sb	v0,288(sp)
  401044:	27a40121 	addiu	a0,sp,289
  401048:	00002821 	move	a1,zero
  40104c:	8f998058 	lw	t9,-32680(gp)
  401050:	0320f809 	jalr	t9
  401054:	240603ff 	li	a2,1023
  401058:	8fbc0018 	lw	gp,24(sp)
  40105c:	3c040040 	lui	a0,0x40
[31m  401060:	8f998078 	lw	t9,system[0m
  401064:	0320f809 	jalr	t9
  401068:	24841434 	addiu	a0,a0,5172
  40106c:	8fbc0018 	lw	gp,24(sp)
  401070:	27b00120 	addiu	s0,sp,288
  401074:	8fa20534 	lw	v0,1332(sp)
  401078:	afa20010 	sw	v0,16(sp)
  40107c:	8fa30544 	lw	v1,1348(sp)
  401080:	afa30014 	sw	v1,20(sp)
  401084:	02002021 	move	a0,s0
  401088:	3c050040 	lui	a1,0x40
  40108c:	24a51490 	addiu	a1,a1,5264
  401090:	8fa70520 	lw	a3,1312(sp)
  401094:	8f998048 	lw	t9,-32696(gp)
  401098:	0320f809 	jalr	t9
  40109c:	27a60020 	addiu	a2,sp,32
  4010a0:	8fbc0018 	lw	gp,24(sp)
  4010a4:	8f828044 	lw	v0,-32700(gp)
  4010a8:	8c440000 	lw	a0,0(v0)
  4010ac:	3c050040 	lui	a1,0x40
  4010b0:	24a514c0 	addiu	a1,a1,5312
  4010b4:	8f998068 	lw	t9,-32664(gp)
  4010b8:	0320f809 	jalr	t9
  4010bc:	02003021 	move	a2,s0
  4010c0:	8fbc0018 	lw	gp,24(sp)
[31m  4010c4:	8f998078 	lw	t9,system[0m
  4010c8:	0320f809 	jalr	t9
  4010cc:	02002021 	move	a0,s0
  4010d0:	8fbc0018 	lw	gp,24(sp)
  4010d4:	1000000a 	b	401100 <main@@Base+0x5e0>
  4010d8:	24020001 	li	v0,1
  4010dc:	8fa2052c 	lw	v0,1324(sp)
  4010e0:	14400007 	bnez	v0,401100 <main@@Base+0x5e0>
  4010e4:	24020001 	li	v0,1
  4010e8:	3c040040 	lui	a0,0x40
[31m  4010ec:	8f998078 	lw	t9,system[0m
  4010f0:	0320f809 	jalr	t9
  4010f4:	24841434 	addiu	a0,a0,5172
  4010f8:	8fbc0018 	lw	gp,24(sp)
  4010fc:	24020001 	li	v0,1
  401100:	8fa3053c 	lw	v1,1340(sp)
  401104:	14620006 	bne	v1,v0,401120 <main@@Base+0x600>
  401108:	3c040040 	lui	a0,0x40
[31m  40110c:	8f998078 	lw	t9,system[0m
  401110:	0320f809 	jalr	t9
  401114:	248414c4 	addiu	a0,a0,5316
  401118:	10000009 	b	401140 <main@@Base+0x620>
  40111c:	00001021 	move	v0,zero
  401120:	8fa2053c 	lw	v0,1340(sp)
  401124:	14400006 	bnez	v0,401140 <main@@Base+0x620>
  401128:	00001021 	move	v0,zero
  40112c:	3c040040 	lui	a0,0x40
[31m  401130:	8f998078 	lw	t9,system[0m
  401134:	0320f809 	jalr	t9
  401138:	248414f8 	addiu	a0,a0,5368

[0m
[[0;33m*[0m] Function [0;33msystem[0m used [0;33m7[0m times [0;33mtools.cgi[0m

