[0m
[[0;33m*[0m] Function [0;33msprintf[0m tear down of [0;33meventd[0m

  404038:	24060021 	li	a2,33
  40403c:	8fbc0018 	lw	gp,24(sp)
  404040:	1000003e 	b	40413c <main@@Base+0x171c>
  404044:	00000000 	nop
  404048:	8f828088 	lw	v0,-32632(gp)
  40404c:	ac400008 	sw	zero,8(v0)
  404050:	24050001 	li	a1,1
  404054:	8f828114 	lw	v0,-32492(gp)
  404058:	8c470000 	lw	a3,0(v0)
  40405c:	8f9980f0 	lw	t9,-32528(gp)
  404060:	0320f809 	jalr	t9
  404064:	24060020 	li	a2,32
  404068:	8fbc0018 	lw	gp,24(sp)
  40406c:	10000033 	b	40413c <main@@Base+0x171c>
  404070:	00000000 	nop
  404074:	8c420020 	lw	v0,32(v0)
  404078:	18400030 	blez	v0,40413c <main@@Base+0x171c>
  40407c:	27a30024 	addiu	v1,sp,36
  404080:	afa301f8 	sw	v1,504(sp)
  404084:	2442328f 	addiu	v0,v0,12943
  404088:	00021080 	sll	v0,v0,0x2
  40408c:	8f838088 	lw	v1,-32632(gp)
  404090:	00621021 	addu	v0,v1,v0
  404094:	8fa401f8 	lw	a0,504(sp)
  404098:	8c460004 	lw	a2,4(v0)
[31m  40409c:	8f998124 	lw	t9,sprintf[0m
  4040a0:	0320f809 	jalr	t9
  4040a4:	02802821 	move	a1,s4
--
  4079a4:	2484e438 	addiu	a0,a0,-7112
  4079a8:	24a5e450 	addiu	a1,a1,-7088
  4079ac:	8f998080 	lw	t9,-32640(gp)
  4079b0:	0320f809 	jalr	t9
  4079b4:	260655e8 	addiu	a2,s0,21992
  4079b8:	8fbc0018 	lw	gp,24(sp)
  4079bc:	0441000f 	bgez	v0,4079fc <LoadConfSystem@@Base+0xcc>
  4079c0:	27b20020 	addiu	s2,sp,32
  4079c4:	8f998318 	lw	t9,-31976(gp)
  4079c8:	0320f809 	jalr	t9
  4079cc:	02802021 	move	a0,s4
  4079d0:	8fbc0018 	lw	gp,24(sp)
  4079d4:	3c040042 	lui	a0,0x42
  4079d8:	2484e458 	addiu	a0,a0,-7080
  4079dc:	24050001 	li	a1,1
  4079e0:	8f828114 	lw	v0,-32492(gp)
  4079e4:	8c470000 	lw	a3,0(v0)
  4079e8:	8f9980f0 	lw	t9,-32528(gp)
  4079ec:	0320f809 	jalr	t9
  4079f0:	24060021 	li	a2,33
  4079f4:	100000c7 	b	407d14 <LoadConfSystem@@Base+0x3e4>
  4079f8:	2402ffff 	li	v0,-1
  4079fc:	02402021 	move	a0,s2
  407a00:	3c050042 	lui	a1,0x42
  407a04:	24a5e47c 	addiu	a1,a1,-7044
[31m  407a08:	8f998124 	lw	t9,sprintf[0m
  407a0c:	0320f809 	jalr	t9
  407a10:	260655a8 	addiu	a2,s0,21928
--
  409978:	27b1025c 	addiu	s1,sp,604
  40997c:	27a4025c 	addiu	a0,sp,604
  409980:	8f9983f4 	lw	t9,-31756(gp)
  409984:	0320f809 	jalr	t9
  409988:	26050da0 	addiu	a1,s0,3488
  40998c:	8fbc0020 	lw	gp,32(sp)
  409990:	27b1025c 	addiu	s1,sp,604
  409994:	8f998098 	lw	t9,strlen
  409998:	0320f809 	jalr	t9
  40999c:	02202021 	move	a0,s1
  4099a0:	8fbc0020 	lw	gp,32(sp)
  4099a4:	8fa30134 	lw	v1,308(sp)
  4099a8:	afa30010 	sw	v1,16(sp)
  4099ac:	8fa30130 	lw	v1,304(sp)
  4099b0:	afa30014 	sw	v1,20(sp)
  4099b4:	8fa3012c 	lw	v1,300(sp)
  4099b8:	afa30018 	sw	v1,24(sp)
  4099bc:	8fa30128 	lw	v1,296(sp)
  4099c0:	afa3001c 	sw	v1,28(sp)
  4099c4:	02222021 	addu	a0,s1,v0
  4099c8:	3c050042 	lui	a1,0x42
  4099cc:	24a5ea1c 	addiu	a1,a1,-5604
  4099d0:	8fa6013c 	lw	a2,316(sp)
  4099d4:	24c6076c 	addiu	a2,a2,1900
  4099d8:	8fa70138 	lw	a3,312(sp)
[31m  4099dc:	8f998124 	lw	t9,sprintf[0m
  4099e0:	0320f809 	jalr	t9
  4099e4:	24e70001 	addiu	a3,a3,1
  4099e8:	8fbc0020 	lw	gp,32(sp)
  4099ec:	3c130042 	lui	s3,0x42
  4099f0:	2673ea3c 	addiu	s3,s3,-5572
  4099f4:	27b2015c 	addiu	s2,sp,348
  4099f8:	02402021 	move	a0,s2
  4099fc:	02602821 	move	a1,s3
  409a00:	3c060042 	lui	a2,0x42
  409a04:	24c6ea44 	addiu	a2,a2,-5564
[31m  409a08:	8f998124 	lw	t9,sprintf[0m
  409a0c:	0320f809 	jalr	t9
  409a10:	02203821 	move	a3,s1
  409a14:	8fbc0020 	lw	gp,32(sp)
  409a18:	8fa20134 	lw	v0,308(sp)
  409a1c:	afa20010 	sw	v0,16(sp)
  409a20:	27a4035c 	addiu	a0,sp,860
  409a24:	3c050042 	lui	a1,0x42
  409a28:	24a5ea50 	addiu	a1,a1,-5552
  409a2c:	8fa6013c 	lw	a2,316(sp)
  409a30:	24c6076c 	addiu	a2,a2,1900
  409a34:	8fa70138 	lw	a3,312(sp)
[31m  409a38:	8f998124 	lw	t9,sprintf[0m
  409a3c:	0320f809 	jalr	t9
  409a40:	24e70001 	addiu	a3,a3,1
--
  409a60:	0040a021 	move	s4,v0
  409a64:	3c040042 	lui	a0,0x42
  409a68:	2484ea60 	addiu	a0,a0,-5536
  409a6c:	24050001 	li	a1,1
  409a70:	8f828114 	lw	v0,-32492(gp)
  409a74:	8c470000 	lw	a3,0(v0)
  409a78:	8f9980f0 	lw	t9,-32528(gp)
  409a7c:	0320f809 	jalr	t9
  409a80:	24060026 	li	a2,38
  409a84:	1000009d 	b	409cfc <AudioEventHandler@@Base+0x67c>
  409a88:	00000000 	nop
  409a8c:	8f828114 	lw	v0,-32492(gp)
  409a90:	8c440000 	lw	a0,0(v0)
  409a94:	3c050042 	lui	a1,0x42
  409a98:	24a5ea88 	addiu	a1,a1,-5496
  409a9c:	8f998298 	lw	t9,-32104(gp)
  409aa0:	0320f809 	jalr	t9
  409aa4:	27a6015c 	addiu	a2,sp,348
  409aa8:	8fbc0020 	lw	gp,32(sp)
  409aac:	96020d92 	lhu	v0,3474(s0)
  409ab0:	10400047 	beqz	v0,409bd0 <AudioEventHandler@@Base+0x550>
  409ab4:	3c028000 	lui	v0,0x8000
  409ab8:	27a4002c 	addiu	a0,sp,44
  409abc:	02602821 	move	a1,s3
  409ac0:	27a6035c 	addiu	a2,sp,860
[31m  409ac4:	8f998124 	lw	t9,sprintf[0m
  409ac8:	0320f809 	jalr	t9
  409acc:	27a7025c 	addiu	a3,sp,604
--
  409fc4:	27b1025c 	addiu	s1,sp,604
  409fc8:	27a4025c 	addiu	a0,sp,604
  409fcc:	8f9983f4 	lw	t9,-31756(gp)
  409fd0:	0320f809 	jalr	t9
  409fd4:	26050c6c 	addiu	a1,s0,3180
  409fd8:	8fbc0020 	lw	gp,32(sp)
  409fdc:	27b1025c 	addiu	s1,sp,604
  409fe0:	8f998098 	lw	t9,strlen
  409fe4:	0320f809 	jalr	t9
  409fe8:	02202021 	move	a0,s1
  409fec:	8fbc0020 	lw	gp,32(sp)
  409ff0:	8fa30134 	lw	v1,308(sp)
  409ff4:	afa30010 	sw	v1,16(sp)
  409ff8:	8fa30130 	lw	v1,304(sp)
  409ffc:	afa30014 	sw	v1,20(sp)
  40a000:	8fa3012c 	lw	v1,300(sp)
  40a004:	afa30018 	sw	v1,24(sp)
  40a008:	8fa30128 	lw	v1,296(sp)
  40a00c:	afa3001c 	sw	v1,28(sp)
  40a010:	02222021 	addu	a0,s1,v0
  40a014:	3c050042 	lui	a1,0x42
  40a018:	24a5ea1c 	addiu	a1,a1,-5604
  40a01c:	8fa6013c 	lw	a2,316(sp)
  40a020:	24c6076c 	addiu	a2,a2,1900
  40a024:	8fa70138 	lw	a3,312(sp)
[31m  40a028:	8f998124 	lw	t9,sprintf[0m
  40a02c:	0320f809 	jalr	t9
  40a030:	24e70001 	addiu	a3,a3,1
  40a034:	8fbc0020 	lw	gp,32(sp)
  40a038:	3c130042 	lui	s3,0x42
  40a03c:	2673ea3c 	addiu	s3,s3,-5572
  40a040:	27b2015c 	addiu	s2,sp,348
  40a044:	02402021 	move	a0,s2
  40a048:	02602821 	move	a1,s3
  40a04c:	3c060042 	lui	a2,0x42
  40a050:	24c6ea44 	addiu	a2,a2,-5564
[31m  40a054:	8f998124 	lw	t9,sprintf[0m
  40a058:	0320f809 	jalr	t9
  40a05c:	02203821 	move	a3,s1
  40a060:	8fbc0020 	lw	gp,32(sp)
  40a064:	8fa20134 	lw	v0,308(sp)
  40a068:	afa20010 	sw	v0,16(sp)
  40a06c:	27a4035c 	addiu	a0,sp,860
  40a070:	3c050042 	lui	a1,0x42
  40a074:	24a5ea50 	addiu	a1,a1,-5552
  40a078:	8fa6013c 	lw	a2,316(sp)
  40a07c:	24c6076c 	addiu	a2,a2,1900
  40a080:	8fa70138 	lw	a3,312(sp)
[31m  40a084:	8f998124 	lw	t9,sprintf[0m
  40a088:	0320f809 	jalr	t9
  40a08c:	24e70001 	addiu	a3,a3,1
--
  40a0ac:	0040a021 	move	s4,v0
  40a0b0:	3c040042 	lui	a0,0x42
  40a0b4:	2484ebb8 	addiu	a0,a0,-5192
  40a0b8:	24050001 	li	a1,1
  40a0bc:	8f828114 	lw	v0,-32492(gp)
  40a0c0:	8c470000 	lw	a3,0(v0)
  40a0c4:	8f9980f0 	lw	t9,-32528(gp)
  40a0c8:	0320f809 	jalr	t9
  40a0cc:	24060025 	li	a2,37
  40a0d0:	1000009d 	b	40a348 <HttpEventHandler@@Base+0x62c>
  40a0d4:	00000000 	nop
  40a0d8:	8f828114 	lw	v0,-32492(gp)
  40a0dc:	8c440000 	lw	a0,0(v0)
  40a0e0:	3c050042 	lui	a1,0x42
  40a0e4:	24a5ebe0 	addiu	a1,a1,-5152
  40a0e8:	8f998298 	lw	t9,-32104(gp)
  40a0ec:	0320f809 	jalr	t9
  40a0f0:	27a6015c 	addiu	a2,sp,348
  40a0f4:	8fbc0020 	lw	gp,32(sp)
  40a0f8:	96020c5e 	lhu	v0,3166(s0)
  40a0fc:	10400047 	beqz	v0,40a21c <HttpEventHandler@@Base+0x500>
  40a100:	3c028000 	lui	v0,0x8000
  40a104:	27a4002c 	addiu	a0,sp,44
  40a108:	02602821 	move	a1,s3
  40a10c:	27a6035c 	addiu	a2,sp,860
[31m  40a110:	8f998124 	lw	t9,sprintf[0m
  40a114:	0320f809 	jalr	t9
  40a118:	27a7025c 	addiu	a3,sp,604
--
  40a610:	27b1025c 	addiu	s1,sp,604
  40a614:	27a4025c 	addiu	a0,sp,604
  40a618:	8f9983f4 	lw	t9,-31756(gp)
  40a61c:	0320f809 	jalr	t9
  40a620:	26050b38 	addiu	a1,s0,2872
  40a624:	8fbc0020 	lw	gp,32(sp)
  40a628:	27b1025c 	addiu	s1,sp,604
  40a62c:	8f998098 	lw	t9,strlen
  40a630:	0320f809 	jalr	t9
  40a634:	02202021 	move	a0,s1
  40a638:	8fbc0020 	lw	gp,32(sp)
  40a63c:	8fa30134 	lw	v1,308(sp)
  40a640:	afa30010 	sw	v1,16(sp)
  40a644:	8fa30130 	lw	v1,304(sp)
  40a648:	afa30014 	sw	v1,20(sp)
  40a64c:	8fa3012c 	lw	v1,300(sp)
  40a650:	afa30018 	sw	v1,24(sp)
  40a654:	8fa30128 	lw	v1,296(sp)
  40a658:	afa3001c 	sw	v1,28(sp)
  40a65c:	02222021 	addu	a0,s1,v0
  40a660:	3c050042 	lui	a1,0x42
  40a664:	24a5ea1c 	addiu	a1,a1,-5604
  40a668:	8fa6013c 	lw	a2,316(sp)
  40a66c:	24c6076c 	addiu	a2,a2,1900
  40a670:	8fa70138 	lw	a3,312(sp)
[31m  40a674:	8f998124 	lw	t9,sprintf[0m
  40a678:	0320f809 	jalr	t9
  40a67c:	24e70001 	addiu	a3,a3,1
  40a680:	8fbc0020 	lw	gp,32(sp)
  40a684:	3c130042 	lui	s3,0x42
  40a688:	2673ea3c 	addiu	s3,s3,-5572
  40a68c:	27b2015c 	addiu	s2,sp,348
  40a690:	02402021 	move	a0,s2
  40a694:	02602821 	move	a1,s3
  40a698:	3c060042 	lui	a2,0x42
  40a69c:	24c6ea44 	addiu	a2,a2,-5564
[31m  40a6a0:	8f998124 	lw	t9,sprintf[0m
  40a6a4:	0320f809 	jalr	t9
  40a6a8:	02203821 	move	a3,s1
  40a6ac:	8fbc0020 	lw	gp,32(sp)
  40a6b0:	8fa20134 	lw	v0,308(sp)
  40a6b4:	afa20010 	sw	v0,16(sp)
  40a6b8:	27a4035c 	addiu	a0,sp,860
  40a6bc:	3c050042 	lui	a1,0x42
  40a6c0:	24a5ea50 	addiu	a1,a1,-5552
  40a6c4:	8fa6013c 	lw	a2,316(sp)
  40a6c8:	24c6076c 	addiu	a2,a2,1900
  40a6cc:	8fa70138 	lw	a3,312(sp)
[31m  40a6d0:	8f998124 	lw	t9,sprintf[0m
  40a6d4:	0320f809 	jalr	t9
  40a6d8:	24e70001 	addiu	a3,a3,1
--
  40a6f8:	0040a021 	move	s4,v0
  40a6fc:	3c040042 	lui	a0,0x42
  40a700:	2484ed08 	addiu	a0,a0,-4856
  40a704:	24050001 	li	a1,1
  40a708:	8f828114 	lw	v0,-32492(gp)
  40a70c:	8c470000 	lw	a3,0(v0)
  40a710:	8f9980f0 	lw	t9,-32528(gp)
  40a714:	0320f809 	jalr	t9
  40a718:	24060024 	li	a2,36
  40a71c:	1000009d 	b	40a994 <PirEventHandler@@Base+0x62c>
  40a720:	00000000 	nop
  40a724:	8f828114 	lw	v0,-32492(gp)
  40a728:	8c440000 	lw	a0,0(v0)
  40a72c:	3c050042 	lui	a1,0x42
  40a730:	24a5ed30 	addiu	a1,a1,-4816
  40a734:	8f998298 	lw	t9,-32104(gp)
  40a738:	0320f809 	jalr	t9
  40a73c:	27a6015c 	addiu	a2,sp,348
  40a740:	8fbc0020 	lw	gp,32(sp)
  40a744:	96020b2a 	lhu	v0,2858(s0)
  40a748:	10400047 	beqz	v0,40a868 <PirEventHandler@@Base+0x500>
  40a74c:	3c028000 	lui	v0,0x8000
  40a750:	27a4002c 	addiu	a0,sp,44
  40a754:	02602821 	move	a1,s3
  40a758:	27a6035c 	addiu	a2,sp,860
[31m  40a75c:	8f998124 	lw	t9,sprintf[0m
  40a760:	0320f809 	jalr	t9
  40a764:	27a7025c 	addiu	a3,sp,604
--
  40ad2c:	27b1025c 	addiu	s1,sp,604
  40ad30:	27a4025c 	addiu	a0,sp,604
  40ad34:	8f9983f4 	lw	t9,-31756(gp)
  40ad38:	0320f809 	jalr	t9
  40ad3c:	26050a04 	addiu	a1,s0,2564
  40ad40:	8fbc0020 	lw	gp,32(sp)
  40ad44:	27b1025c 	addiu	s1,sp,604
  40ad48:	8f998098 	lw	t9,strlen
  40ad4c:	0320f809 	jalr	t9
  40ad50:	02202021 	move	a0,s1
  40ad54:	8fbc0020 	lw	gp,32(sp)
  40ad58:	8fa30134 	lw	v1,308(sp)
  40ad5c:	afa30010 	sw	v1,16(sp)
  40ad60:	8fa30130 	lw	v1,304(sp)
  40ad64:	afa30014 	sw	v1,20(sp)
  40ad68:	8fa3012c 	lw	v1,300(sp)
  40ad6c:	afa30018 	sw	v1,24(sp)
  40ad70:	8fa30128 	lw	v1,296(sp)
  40ad74:	afa3001c 	sw	v1,28(sp)
  40ad78:	02222021 	addu	a0,s1,v0
  40ad7c:	3c050042 	lui	a1,0x42
  40ad80:	24a5ea1c 	addiu	a1,a1,-5604
  40ad84:	8fa6013c 	lw	a2,316(sp)
  40ad88:	24c6076c 	addiu	a2,a2,1900
  40ad8c:	8fa70138 	lw	a3,312(sp)
[31m  40ad90:	8f998124 	lw	t9,sprintf[0m
  40ad94:	0320f809 	jalr	t9
  40ad98:	24e70001 	addiu	a3,a3,1
  40ad9c:	8fbc0020 	lw	gp,32(sp)
  40ada0:	3c130042 	lui	s3,0x42
  40ada4:	2673ea3c 	addiu	s3,s3,-5572
  40ada8:	27b2015c 	addiu	s2,sp,348
  40adac:	02402021 	move	a0,s2
  40adb0:	02602821 	move	a1,s3
  40adb4:	3c060042 	lui	a2,0x42
  40adb8:	24c6ea44 	addiu	a2,a2,-5564
[31m  40adbc:	8f998124 	lw	t9,sprintf[0m
  40adc0:	0320f809 	jalr	t9
  40adc4:	02203821 	move	a3,s1
  40adc8:	8fbc0020 	lw	gp,32(sp)
  40adcc:	8fa20134 	lw	v0,308(sp)
  40add0:	afa20010 	sw	v0,16(sp)
  40add4:	27a4035c 	addiu	a0,sp,860
  40add8:	3c050042 	lui	a1,0x42
  40addc:	24a5ea50 	addiu	a1,a1,-5552
  40ade0:	8fa6013c 	lw	a2,316(sp)
  40ade4:	24c6076c 	addiu	a2,a2,1900
  40ade8:	8fa70138 	lw	a3,312(sp)
[31m  40adec:	8f998124 	lw	t9,sprintf[0m
  40adf0:	0320f809 	jalr	t9
  40adf4:	24e70001 	addiu	a3,a3,1
--
  40ae20:	24050001 	li	a1,1
  40ae24:	8f828114 	lw	v0,-32492(gp)
  40ae28:	8c470000 	lw	a3,0(v0)
  40ae2c:	8f9980f0 	lw	t9,-32528(gp)
  40ae30:	0320f809 	jalr	t9
  40ae34:	24060026 	li	a2,38
  40ae38:	100000a0 	b	40b0bc <InputEventHandler@@Base+0x708>
  40ae3c:	00000000 	nop
  40ae40:	8f828114 	lw	v0,-32492(gp)
  40ae44:	8c440000 	lw	a0,0(v0)
  40ae48:	3c050042 	lui	a1,0x42
  40ae4c:	24a5ee80 	addiu	a1,a1,-4480
  40ae50:	8f998298 	lw	t9,-32104(gp)
  40ae54:	0320f809 	jalr	t9
  40ae58:	27a6015c 	addiu	a2,sp,348
  40ae5c:	8fbc0020 	lw	gp,32(sp)
  40ae60:	920209f3 	lbu	v0,2547(s0)
  40ae64:	14400005 	bnez	v0,40ae7c <InputEventHandler@@Base+0x4c8>
  40ae68:	27a4002c 	addiu	a0,sp,44
  40ae6c:	920209f4 	lbu	v0,2548(s0)
  40ae70:	10400047 	beqz	v0,40af90 <InputEventHandler@@Base+0x5dc>
  40ae74:	3c028000 	lui	v0,0x8000
  40ae78:	27a4002c 	addiu	a0,sp,44
  40ae7c:	02602821 	move	a1,s3
  40ae80:	27a6035c 	addiu	a2,sp,860
[31m  40ae84:	8f998124 	lw	t9,sprintf[0m
  40ae88:	0320f809 	jalr	t9
  40ae8c:	27a7025c 	addiu	a3,sp,604
--
  40b4c0:	27b2025c 	addiu	s2,sp,604
  40b4c4:	27a4025c 	addiu	a0,sp,604
  40b4c8:	8f9983f4 	lw	t9,-31756(gp)
  40b4cc:	0320f809 	jalr	t9
  40b4d0:	260508cc 	addiu	a1,s0,2252
  40b4d4:	8fbc0020 	lw	gp,32(sp)
  40b4d8:	27b2025c 	addiu	s2,sp,604
  40b4dc:	8f998098 	lw	t9,strlen
  40b4e0:	0320f809 	jalr	t9
  40b4e4:	02402021 	move	a0,s2
  40b4e8:	8fbc0020 	lw	gp,32(sp)
  40b4ec:	8fa30134 	lw	v1,308(sp)
  40b4f0:	afa30010 	sw	v1,16(sp)
  40b4f4:	8fa30130 	lw	v1,304(sp)
  40b4f8:	afa30014 	sw	v1,20(sp)
  40b4fc:	8fa3012c 	lw	v1,300(sp)
  40b500:	afa30018 	sw	v1,24(sp)
  40b504:	8fa30128 	lw	v1,296(sp)
  40b508:	afa3001c 	sw	v1,28(sp)
  40b50c:	02422021 	addu	a0,s2,v0
  40b510:	3c050042 	lui	a1,0x42
  40b514:	24a5ea1c 	addiu	a1,a1,-5604
  40b518:	8fa6013c 	lw	a2,316(sp)
  40b51c:	24c6076c 	addiu	a2,a2,1900
  40b520:	8fa70138 	lw	a3,312(sp)
[31m  40b524:	8f998124 	lw	t9,sprintf[0m
  40b528:	0320f809 	jalr	t9
  40b52c:	24e70001 	addiu	a3,a3,1
  40b530:	8fbc0020 	lw	gp,32(sp)
  40b534:	3c130042 	lui	s3,0x42
  40b538:	2673ea3c 	addiu	s3,s3,-5572
  40b53c:	27a4015c 	addiu	a0,sp,348
  40b540:	02602821 	move	a1,s3
  40b544:	3c060042 	lui	a2,0x42
  40b548:	24c6ea44 	addiu	a2,a2,-5564
[31m  40b54c:	8f998124 	lw	t9,sprintf[0m
  40b550:	0320f809 	jalr	t9
  40b554:	02403821 	move	a3,s2
  40b558:	8fbc0020 	lw	gp,32(sp)
  40b55c:	8fa20134 	lw	v0,308(sp)
  40b560:	afa20010 	sw	v0,16(sp)
  40b564:	27a4035c 	addiu	a0,sp,860
  40b568:	3c050042 	lui	a1,0x42
  40b56c:	24a5ea50 	addiu	a1,a1,-5552
  40b570:	8fa6013c 	lw	a2,316(sp)
  40b574:	24c6076c 	addiu	a2,a2,1900
  40b578:	8fa70138 	lw	a3,312(sp)
[31m  40b57c:	8f998124 	lw	t9,sprintf[0m
  40b580:	0320f809 	jalr	t9
  40b584:	24e70001 	addiu	a3,a3,1
  40b588:	8fbc0020 	lw	gp,32(sp)
  40b58c:	1a200010 	blez	s1,40b5d0 <MotionEventHandler@@Base+0x434>
  40b590:	27b2045c 	addiu	s2,sp,1116
  40b594:	02402021 	move	a0,s2
  40b598:	3c050042 	lui	a1,0x42
  40b59c:	24a5efdc 	addiu	a1,a1,-4132
  40b5a0:	3c060042 	lui	a2,0x42
  40b5a4:	24c6ef94 	addiu	a2,a2,-4204
[31m  40b5a8:	8f998124 	lw	t9,sprintf[0m
  40b5ac:	0320f809 	jalr	t9
  40b5b0:	27a7015c 	addiu	a3,sp,348
--
  40b5e8:	00408821 	move	s1,v0
  40b5ec:	3c040042 	lui	a0,0x42
  40b5f0:	2484efe8 	addiu	a0,a0,-4120
  40b5f4:	24050001 	li	a1,1
  40b5f8:	8f828114 	lw	v0,-32492(gp)
  40b5fc:	8c470000 	lw	a3,0(v0)
  40b600:	8f9980f0 	lw	t9,-32528(gp)
  40b604:	0320f809 	jalr	t9
  40b608:	24060027 	li	a2,39
  40b60c:	1000009d 	b	40b884 <MotionEventHandler@@Base+0x6e8>
  40b610:	00000000 	nop
  40b614:	8f828114 	lw	v0,-32492(gp)
  40b618:	8c440000 	lw	a0,0(v0)
  40b61c:	3c050042 	lui	a1,0x42
  40b620:	24a5f010 	addiu	a1,a1,-4080
  40b624:	8f998298 	lw	t9,-32104(gp)
  40b628:	0320f809 	jalr	t9
  40b62c:	27a6015c 	addiu	a2,sp,348
  40b630:	8fbc0020 	lw	gp,32(sp)
  40b634:	960208be 	lhu	v0,2238(s0)
  40b638:	10400047 	beqz	v0,40b758 <MotionEventHandler@@Base+0x5bc>
  40b63c:	3c028000 	lui	v0,0x8000
  40b640:	27a4002c 	addiu	a0,sp,44
  40b644:	02602821 	move	a1,s3
  40b648:	27a6035c 	addiu	a2,sp,860
[31m  40b64c:	8f998124 	lw	t9,sprintf[0m
  40b650:	0320f809 	jalr	t9
  40b654:	27a7025c 	addiu	a3,sp,604
--
  40c0a4:	ac43a2e8 	sw	v1,-23832(v0)
  40c0a8:	92620000 	lbu	v0,0(s3)
  40c0ac:	30420008 	andi	v0,v0,0x8
  40c0b0:	304200ff 	andi	v0,v0,0xff
  40c0b4:	104000a1 	beqz	v0,40c33c <ActionFtp2Mail2_Thread@@Base+0xa8c>
  40c0b8:	3c020001 	lui	v0,0x1
  40c0bc:	02021021 	addu	v0,s0,v0
  40c0c0:	24030013 	li	v1,19
  40c0c4:	ac43a2e8 	sw	v1,-23832(v0)
  40c0c8:	27b100ec 	addiu	s1,sp,236
  40c0cc:	02202021 	move	a0,s1
  40c0d0:	8f9981ac 	lw	t9,-32340(gp)
  40c0d4:	0320f809 	jalr	t9
  40c0d8:	00002821 	move	a1,zero
  40c0dc:	8fbc0018 	lw	gp,24(sp)
  40c0e0:	02202021 	move	a0,s1
  40c0e4:	8f998068 	lw	t9,-32664(gp)
  40c0e8:	0320f809 	jalr	t9
  40c0ec:	27a500c0 	addiu	a1,sp,192
  40c0f0:	8fbc0018 	lw	gp,24(sp)
  40c0f4:	8fa200c0 	lw	v0,192(sp)
  40c0f8:	afa20010 	sw	v0,16(sp)
  40c0fc:	8fa505cc 	lw	a1,1484(sp)
  40c100:	8fa600c8 	lw	a2,200(sp)
  40c104:	8fa700c4 	lw	a3,196(sp)
[31m  40c108:	8f998124 	lw	t9,sprintf[0m
  40c10c:	0320f809 	jalr	t9
  40c110:	27a40178 	addiu	a0,sp,376
--
  40c1a0:	30840001 	andi	a0,a0,0x1
  40c1a4:	00042600 	sll	a0,a0,0x18
  40c1a8:	92630001 	lbu	v1,1(s3)
  40c1ac:	00031c00 	sll	v1,v1,0x10
  40c1b0:	00641825 	or	v1,v1,a0
  40c1b4:	92620002 	lbu	v0,2(s3)
  40c1b8:	00021200 	sll	v0,v0,0x8
  40c1bc:	00431025 	or	v0,v0,v1
  40c1c0:	92630003 	lbu	v1,3(s3)
  40c1c4:	00621025 	or	v0,v1,v0
  40c1c8:	24030003 	li	v1,3
  40c1cc:	14430013 	bne	v0,v1,40c21c <ActionFtp2Mail2_Thread@@Base+0x96c>
  40c1d0:	24030004 	li	v1,4
  40c1d4:	8fa400f4 	lw	a0,244(sp)
  40c1d8:	8f998168 	lw	t9,-32408(gp)
  40c1dc:	0320f809 	jalr	t9
  40c1e0:	00000000 	nop
  40c1e4:	8fbc0018 	lw	gp,24(sp)
  40c1e8:	2403000a 	li	v1,10
  40c1ec:	afa30010 	sw	v1,16(sp)
  40c1f0:	27a30178 	addiu	v1,sp,376
  40c1f4:	afa30014 	sw	v1,20(sp)
  40c1f8:	8fa405c8 	lw	a0,1480(sp)
  40c1fc:	8fa50610 	lw	a1,1552(sp)
  40c200:	2406000a 	li	a2,10
[31m  40c204:	8f998124 	lw	t9,sprintf[0m
  40c208:	0320f809 	jalr	t9
  40c20c:	00403821 	move	a3,v0
  40c210:	8fbc0018 	lw	gp,24(sp)
  40c214:	10000044 	b	40c328 <ActionFtp2Mail2_Thread@@Base+0xa78>
  40c218:	00000000 	nop
  40c21c:	1443000e 	bne	v0,v1,40c258 <ActionFtp2Mail2_Thread@@Base+0x9a8>
  40c220:	24030005 	li	v1,5
  40c224:	2402000a 	li	v0,10
  40c228:	afa20010 	sw	v0,16(sp)
  40c22c:	27a20178 	addiu	v0,sp,376
  40c230:	afa20014 	sw	v0,20(sp)
  40c234:	8fa405c8 	lw	a0,1480(sp)
  40c238:	8fa5060c 	lw	a1,1548(sp)
  40c23c:	2406000a 	li	a2,10
[31m  40c240:	8f998124 	lw	t9,sprintf[0m
  40c244:	0320f809 	jalr	t9
  40c248:	27a700f8 	addiu	a3,sp,248
  40c24c:	8fbc0018 	lw	gp,24(sp)
  40c250:	10000035 	b	40c328 <ActionFtp2Mail2_Thread@@Base+0xa78>
  40c254:	00000000 	nop
  40c258:	1443000a 	bne	v0,v1,40c284 <ActionFtp2Mail2_Thread@@Base+0x9d4>
  40c25c:	24030006 	li	v1,6
  40c260:	8fa405c8 	lw	a0,1480(sp)
  40c264:	8fa50624 	lw	a1,1572(sp)
  40c268:	2406000a 	li	a2,10
[31m  40c26c:	8f998124 	lw	t9,sprintf[0m
  40c270:	0320f809 	jalr	t9
  40c274:	27a70178 	addiu	a3,sp,376
  40c278:	8fbc0018 	lw	gp,24(sp)
  40c27c:	1000002a 	b	40c328 <ActionFtp2Mail2_Thread@@Base+0xa78>
  40c280:	00000000 	nop
  40c284:	1443000a 	bne	v0,v1,40c2b0 <ActionFtp2Mail2_Thread@@Base+0xa00>
  40c288:	24030007 	li	v1,7
  40c28c:	8fa405c8 	lw	a0,1480(sp)
  40c290:	8fa50620 	lw	a1,1568(sp)
  40c294:	2406000a 	li	a2,10
[31m  40c298:	8f998124 	lw	t9,sprintf[0m
  40c29c:	0320f809 	jalr	t9
  40c2a0:	27a70178 	addiu	a3,sp,376
  40c2a4:	8fbc0018 	lw	gp,24(sp)
  40c2a8:	1000001f 	b	40c328 <ActionFtp2Mail2_Thread@@Base+0xa78>
  40c2ac:	00000000 	nop
  40c2b0:	1443000a 	bne	v0,v1,40c2dc <ActionFtp2Mail2_Thread@@Base+0xa2c>
  40c2b4:	24030008 	li	v1,8
  40c2b8:	8fa405c8 	lw	a0,1480(sp)
  40c2bc:	8fa5061c 	lw	a1,1564(sp)
  40c2c0:	2406000a 	li	a2,10
[31m  40c2c4:	8f998124 	lw	t9,sprintf[0m
  40c2c8:	0320f809 	jalr	t9
  40c2cc:	27a70178 	addiu	a3,sp,376
  40c2d0:	8fbc0018 	lw	gp,24(sp)
  40c2d4:	10000014 	b	40c328 <ActionFtp2Mail2_Thread@@Base+0xa78>
  40c2d8:	00000000 	nop
  40c2dc:	1443000a 	bne	v0,v1,40c308 <ActionFtp2Mail2_Thread@@Base+0xa58>
  40c2e0:	24030009 	li	v1,9
  40c2e4:	8fa405c8 	lw	a0,1480(sp)
  40c2e8:	8fa5062c 	lw	a1,1580(sp)
  40c2ec:	2406000a 	li	a2,10
[31m  40c2f0:	8f998124 	lw	t9,sprintf[0m
  40c2f4:	0320f809 	jalr	t9
  40c2f8:	27a70178 	addiu	a3,sp,376
  40c2fc:	8fbc0018 	lw	gp,24(sp)
  40c300:	10000009 	b	40c328 <ActionFtp2Mail2_Thread@@Base+0xa78>
  40c304:	00000000 	nop
  40c308:	14430007 	bne	v0,v1,40c328 <ActionFtp2Mail2_Thread@@Base+0xa78>
  40c30c:	2406000a 	li	a2,10
  40c310:	8fa405c8 	lw	a0,1480(sp)
  40c314:	8fa50628 	lw	a1,1576(sp)
[31m  40c318:	8f998124 	lw	t9,sprintf[0m
  40c31c:	0320f809 	jalr	t9
  40c320:	27a70178 	addiu	a3,sp,376
--
  40c3a0:	304200ff 	andi	v0,v0,0xff
  40c3a4:	14400009 	bnez	v0,40c3cc <ActionFtp2Mail2_Thread@@Base+0xb1c>
  40c3a8:	00000000 	nop
  40c3ac:	8fa405c0 	lw	a0,1472(sp)
  40c3b0:	8fa505d4 	lw	a1,1492(sp)
  40c3b4:	8f9983f4 	lw	t9,-31756(gp)
  40c3b8:	0320f809 	jalr	t9
  40c3bc:	00000000 	nop
  40c3c0:	8fbc0018 	lw	gp,24(sp)
  40c3c4:	10000008 	b	40c3e8 <ActionFtp2Mail2_Thread@@Base+0xb38>
  40c3c8:	3c020001 	lui	v0,0x1
  40c3cc:	8fa405c0 	lw	a0,1472(sp)
  40c3d0:	8fa505d0 	lw	a1,1488(sp)
  40c3d4:	8f9983f4 	lw	t9,-31756(gp)
  40c3d8:	0320f809 	jalr	t9
  40c3dc:	00000000 	nop
  40c3e0:	8fbc0018 	lw	gp,24(sp)
  40c3e4:	3c020001 	lui	v0,0x1
  40c3e8:	02021021 	addu	v0,s0,v0
  40c3ec:	8c42a2ec 	lw	v0,-23828(v0)
  40c3f0:	24030001 	li	v1,1
  40c3f4:	14430009 	bne	v0,v1,40c41c <ActionFtp2Mail2_Thread@@Base+0xb6c>
  40c3f8:	24030002 	li	v1,2
  40c3fc:	8fa405c8 	lw	a0,1480(sp)
  40c400:	8fa505f4 	lw	a1,1524(sp)
[31m  40c404:	8f998124 	lw	t9,sprintf[0m
  40c408:	0320f809 	jalr	t9
  40c40c:	2406000a 	li	a2,10
  40c410:	8fbc0018 	lw	gp,24(sp)
  40c414:	1000003b 	b	40c504 <ActionFtp2Mail2_Thread@@Base+0xc54>
  40c418:	00000000 	nop
  40c41c:	14430009 	bne	v0,v1,40c444 <ActionFtp2Mail2_Thread@@Base+0xb94>
  40c420:	2403000a 	li	v1,10
  40c424:	8fa405c8 	lw	a0,1480(sp)
  40c428:	8fa505f8 	lw	a1,1528(sp)
[31m  40c42c:	8f998124 	lw	t9,sprintf[0m
  40c430:	0320f809 	jalr	t9
  40c434:	2406000a 	li	a2,10
  40c438:	8fbc0018 	lw	gp,24(sp)
  40c43c:	10000031 	b	40c504 <ActionFtp2Mail2_Thread@@Base+0xc54>
  40c440:	00000000 	nop
  40c444:	14430009 	bne	v0,v1,40c46c <ActionFtp2Mail2_Thread@@Base+0xbbc>
  40c448:	2403000b 	li	v1,11
  40c44c:	8fa405c8 	lw	a0,1480(sp)
  40c450:	8fa50600 	lw	a1,1536(sp)
[31m  40c454:	8f998124 	lw	t9,sprintf[0m
  40c458:	0320f809 	jalr	t9
  40c45c:	2406000a 	li	a2,10
  40c460:	8fbc0018 	lw	gp,24(sp)
  40c464:	10000027 	b	40c504 <ActionFtp2Mail2_Thread@@Base+0xc54>
  40c468:	00000000 	nop
  40c46c:	14430009 	bne	v0,v1,40c494 <ActionFtp2Mail2_Thread@@Base+0xbe4>
  40c470:	2403000c 	li	v1,12
  40c474:	8fa405c8 	lw	a0,1480(sp)
  40c478:	8fa505fc 	lw	a1,1532(sp)
[31m  40c47c:	8f998124 	lw	t9,sprintf[0m
  40c480:	0320f809 	jalr	t9
  40c484:	2406000a 	li	a2,10
  40c488:	8fbc0018 	lw	gp,24(sp)
  40c48c:	1000001d 	b	40c504 <ActionFtp2Mail2_Thread@@Base+0xc54>
  40c490:	00000000 	nop
  40c494:	14430009 	bne	v0,v1,40c4bc <ActionFtp2Mail2_Thread@@Base+0xc0c>
  40c498:	2403000e 	li	v1,14
  40c49c:	8fa405c8 	lw	a0,1480(sp)
  40c4a0:	8fa50608 	lw	a1,1544(sp)
[31m  40c4a4:	8f998124 	lw	t9,sprintf[0m
  40c4a8:	0320f809 	jalr	t9
  40c4ac:	2406000a 	li	a2,10
  40c4b0:	8fbc0018 	lw	gp,24(sp)
  40c4b4:	10000013 	b	40c504 <ActionFtp2Mail2_Thread@@Base+0xc54>
  40c4b8:	00000000 	nop
  40c4bc:	14430009 	bne	v0,v1,40c4e4 <ActionFtp2Mail2_Thread@@Base+0xc34>
  40c4c0:	24030015 	li	v1,21
  40c4c4:	8fa405c8 	lw	a0,1480(sp)
  40c4c8:	8fa50604 	lw	a1,1540(sp)
[31m  40c4cc:	8f998124 	lw	t9,sprintf[0m
  40c4d0:	0320f809 	jalr	t9
  40c4d4:	2406000a 	li	a2,10
  40c4d8:	8fbc0018 	lw	gp,24(sp)
  40c4dc:	10000009 	b	40c504 <ActionFtp2Mail2_Thread@@Base+0xc54>
  40c4e0:	00000000 	nop
  40c4e4:	14430007 	bne	v0,v1,40c504 <ActionFtp2Mail2_Thread@@Base+0xc54>
  40c4e8:	00000000 	nop
  40c4ec:	8fa405c8 	lw	a0,1480(sp)
  40c4f0:	8fa50618 	lw	a1,1560(sp)
[31m  40c4f4:	8f998124 	lw	t9,sprintf[0m
  40c4f8:	0320f809 	jalr	t9
  40c4fc:	2406000a 	li	a2,10
--
  40cf40:	ac439638 	sw	v1,-27080(v0)
  40cf44:	92420000 	lbu	v0,0(s2)
  40cf48:	30420008 	andi	v0,v0,0x8
  40cf4c:	304200ff 	andi	v0,v0,0xff
  40cf50:	1040009f 	beqz	v0,40d1d0 <ActionFtpMail_Thread@@Base+0x9b8>
  40cf54:	3c020001 	lui	v0,0x1
  40cf58:	02021021 	addu	v0,s0,v0
  40cf5c:	24030003 	li	v1,3
  40cf60:	ac439638 	sw	v1,-27080(v0)
  40cf64:	27b600ec 	addiu	s6,sp,236
  40cf68:	02c02021 	move	a0,s6
  40cf6c:	8f9981ac 	lw	t9,-32340(gp)
  40cf70:	0320f809 	jalr	t9
  40cf74:	00002821 	move	a1,zero
  40cf78:	8fbc0018 	lw	gp,24(sp)
  40cf7c:	02c02021 	move	a0,s6
  40cf80:	8f998068 	lw	t9,-32664(gp)
  40cf84:	0320f809 	jalr	t9
  40cf88:	27a500c0 	addiu	a1,sp,192
  40cf8c:	8fbc0018 	lw	gp,24(sp)
  40cf90:	8fa200c0 	lw	v0,192(sp)
  40cf94:	afa20010 	sw	v0,16(sp)
  40cf98:	8fa502c8 	lw	a1,712(sp)
  40cf9c:	8fa600c8 	lw	a2,200(sp)
  40cfa0:	8fa700c4 	lw	a3,196(sp)
[31m  40cfa4:	8f998124 	lw	t9,sprintf[0m
  40cfa8:	0320f809 	jalr	t9
  40cfac:	27a40178 	addiu	a0,sp,376
--
  40d038:	30840001 	andi	a0,a0,0x1
  40d03c:	00042600 	sll	a0,a0,0x18
  40d040:	92430001 	lbu	v1,1(s2)
  40d044:	00031c00 	sll	v1,v1,0x10
  40d048:	00641825 	or	v1,v1,a0
  40d04c:	92420002 	lbu	v0,2(s2)
  40d050:	00021200 	sll	v0,v0,0x8
  40d054:	00431025 	or	v0,v0,v1
  40d058:	92430003 	lbu	v1,3(s2)
  40d05c:	00621025 	or	v0,v1,v0
  40d060:	24030003 	li	v1,3
  40d064:	14430013 	bne	v0,v1,40d0b4 <ActionFtpMail_Thread@@Base+0x89c>
  40d068:	24030004 	li	v1,4
  40d06c:	8fa400f4 	lw	a0,244(sp)
  40d070:	8f998168 	lw	t9,-32408(gp)
  40d074:	0320f809 	jalr	t9
  40d078:	00000000 	nop
  40d07c:	8fbc0018 	lw	gp,24(sp)
  40d080:	2403000a 	li	v1,10
  40d084:	afa30010 	sw	v1,16(sp)
  40d088:	27a30178 	addiu	v1,sp,376
  40d08c:	afa30014 	sw	v1,20(sp)
  40d090:	8fa402bc 	lw	a0,700(sp)
  40d094:	8fa502fc 	lw	a1,764(sp)
  40d098:	2406000a 	li	a2,10
[31m  40d09c:	8f998124 	lw	t9,sprintf[0m
  40d0a0:	0320f809 	jalr	t9
  40d0a4:	00403821 	move	a3,v0
  40d0a8:	8fbc0018 	lw	gp,24(sp)
  40d0ac:	10000044 	b	40d1c0 <ActionFtpMail_Thread@@Base+0x9a8>
  40d0b0:	00000000 	nop
  40d0b4:	1443000e 	bne	v0,v1,40d0f0 <ActionFtpMail_Thread@@Base+0x8d8>
  40d0b8:	24030005 	li	v1,5
  40d0bc:	2402000a 	li	v0,10
  40d0c0:	afa20010 	sw	v0,16(sp)
  40d0c4:	27a20178 	addiu	v0,sp,376
  40d0c8:	afa20014 	sw	v0,20(sp)
  40d0cc:	8fa402bc 	lw	a0,700(sp)
  40d0d0:	8fa502f8 	lw	a1,760(sp)
  40d0d4:	2406000a 	li	a2,10
[31m  40d0d8:	8f998124 	lw	t9,sprintf[0m
  40d0dc:	0320f809 	jalr	t9
  40d0e0:	27a700f8 	addiu	a3,sp,248
  40d0e4:	8fbc0018 	lw	gp,24(sp)
  40d0e8:	10000035 	b	40d1c0 <ActionFtpMail_Thread@@Base+0x9a8>
  40d0ec:	00000000 	nop
  40d0f0:	1443000a 	bne	v0,v1,40d11c <ActionFtpMail_Thread@@Base+0x904>
  40d0f4:	24030006 	li	v1,6
  40d0f8:	8fa402bc 	lw	a0,700(sp)
  40d0fc:	8fa50310 	lw	a1,784(sp)
  40d100:	2406000a 	li	a2,10
[31m  40d104:	8f998124 	lw	t9,sprintf[0m
  40d108:	0320f809 	jalr	t9
  40d10c:	27a70178 	addiu	a3,sp,376
  40d110:	8fbc0018 	lw	gp,24(sp)
  40d114:	1000002a 	b	40d1c0 <ActionFtpMail_Thread@@Base+0x9a8>
  40d118:	00000000 	nop
  40d11c:	1443000a 	bne	v0,v1,40d148 <ActionFtpMail_Thread@@Base+0x930>
  40d120:	24030007 	li	v1,7
  40d124:	8fa402bc 	lw	a0,700(sp)
  40d128:	8fa5030c 	lw	a1,780(sp)
  40d12c:	2406000a 	li	a2,10
[31m  40d130:	8f998124 	lw	t9,sprintf[0m
  40d134:	0320f809 	jalr	t9
  40d138:	27a70178 	addiu	a3,sp,376
  40d13c:	8fbc0018 	lw	gp,24(sp)
  40d140:	1000001f 	b	40d1c0 <ActionFtpMail_Thread@@Base+0x9a8>
  40d144:	00000000 	nop
  40d148:	1443000a 	bne	v0,v1,40d174 <ActionFtpMail_Thread@@Base+0x95c>
  40d14c:	24030008 	li	v1,8
  40d150:	8fa402bc 	lw	a0,700(sp)
  40d154:	8fa50308 	lw	a1,776(sp)
  40d158:	2406000a 	li	a2,10
[31m  40d15c:	8f998124 	lw	t9,sprintf[0m
  40d160:	0320f809 	jalr	t9
  40d164:	27a70178 	addiu	a3,sp,376
  40d168:	8fbc0018 	lw	gp,24(sp)
  40d16c:	10000014 	b	40d1c0 <ActionFtpMail_Thread@@Base+0x9a8>
  40d170:	00000000 	nop
  40d174:	1443000a 	bne	v0,v1,40d1a0 <ActionFtpMail_Thread@@Base+0x988>
  40d178:	24030009 	li	v1,9
  40d17c:	8fa402bc 	lw	a0,700(sp)
  40d180:	8fa50318 	lw	a1,792(sp)
  40d184:	2406000a 	li	a2,10
[31m  40d188:	8f998124 	lw	t9,sprintf[0m
  40d18c:	0320f809 	jalr	t9
  40d190:	27a70178 	addiu	a3,sp,376
  40d194:	8fbc0018 	lw	gp,24(sp)
  40d198:	10000009 	b	40d1c0 <ActionFtpMail_Thread@@Base+0x9a8>
  40d19c:	00000000 	nop
  40d1a0:	14430007 	bne	v0,v1,40d1c0 <ActionFtpMail_Thread@@Base+0x9a8>
  40d1a4:	2406000a 	li	a2,10
  40d1a8:	8fa402bc 	lw	a0,700(sp)
  40d1ac:	8fa50314 	lw	a1,788(sp)
[31m  40d1b0:	8f998124 	lw	t9,sprintf[0m
  40d1b4:	0320f809 	jalr	t9
  40d1b8:	27a70178 	addiu	a3,sp,376
--
  40d230:	304200ff 	andi	v0,v0,0xff
  40d234:	14400009 	bnez	v0,40d25c <ActionFtpMail_Thread@@Base+0xa44>
  40d238:	00000000 	nop
  40d23c:	8fa402b8 	lw	a0,696(sp)
  40d240:	8fa502d8 	lw	a1,728(sp)
  40d244:	8f9983f4 	lw	t9,-31756(gp)
  40d248:	0320f809 	jalr	t9
  40d24c:	00000000 	nop
  40d250:	8fbc0018 	lw	gp,24(sp)
  40d254:	10000008 	b	40d278 <ActionFtpMail_Thread@@Base+0xa60>
  40d258:	3c020001 	lui	v0,0x1
  40d25c:	8fa402b8 	lw	a0,696(sp)
  40d260:	8fa502d4 	lw	a1,724(sp)
  40d264:	8f9983f4 	lw	t9,-31756(gp)
  40d268:	0320f809 	jalr	t9
  40d26c:	00000000 	nop
  40d270:	8fbc0018 	lw	gp,24(sp)
  40d274:	3c020001 	lui	v0,0x1
  40d278:	02021021 	addu	v0,s0,v0
  40d27c:	8c42963c 	lw	v0,-27076(v0)
  40d280:	24030001 	li	v1,1
  40d284:	14430009 	bne	v0,v1,40d2ac <ActionFtpMail_Thread@@Base+0xa94>
  40d288:	24030002 	li	v1,2
  40d28c:	8fa402bc 	lw	a0,700(sp)
  40d290:	8fa502e0 	lw	a1,736(sp)
[31m  40d294:	8f998124 	lw	t9,sprintf[0m
  40d298:	0320f809 	jalr	t9
  40d29c:	2406000a 	li	a2,10
  40d2a0:	8fbc0018 	lw	gp,24(sp)
  40d2a4:	1000003b 	b	40d394 <ActionFtpMail_Thread@@Base+0xb7c>
  40d2a8:	00000000 	nop
  40d2ac:	14430009 	bne	v0,v1,40d2d4 <ActionFtpMail_Thread@@Base+0xabc>
  40d2b0:	2403000a 	li	v1,10
  40d2b4:	8fa402bc 	lw	a0,700(sp)
  40d2b8:	8fa502e4 	lw	a1,740(sp)
[31m  40d2bc:	8f998124 	lw	t9,sprintf[0m
  40d2c0:	0320f809 	jalr	t9
  40d2c4:	2406000a 	li	a2,10
  40d2c8:	8fbc0018 	lw	gp,24(sp)
  40d2cc:	10000031 	b	40d394 <ActionFtpMail_Thread@@Base+0xb7c>
  40d2d0:	00000000 	nop
  40d2d4:	14430009 	bne	v0,v1,40d2fc <ActionFtpMail_Thread@@Base+0xae4>
  40d2d8:	2403000b 	li	v1,11
  40d2dc:	8fa402bc 	lw	a0,700(sp)
  40d2e0:	8fa502ec 	lw	a1,748(sp)
[31m  40d2e4:	8f998124 	lw	t9,sprintf[0m
  40d2e8:	0320f809 	jalr	t9
  40d2ec:	2406000a 	li	a2,10
  40d2f0:	8fbc0018 	lw	gp,24(sp)
  40d2f4:	10000027 	b	40d394 <ActionFtpMail_Thread@@Base+0xb7c>
  40d2f8:	00000000 	nop
  40d2fc:	14430009 	bne	v0,v1,40d324 <ActionFtpMail_Thread@@Base+0xb0c>
  40d300:	2403000c 	li	v1,12
  40d304:	8fa402bc 	lw	a0,700(sp)
  40d308:	8fa502e8 	lw	a1,744(sp)
[31m  40d30c:	8f998124 	lw	t9,sprintf[0m
  40d310:	0320f809 	jalr	t9
  40d314:	2406000a 	li	a2,10
  40d318:	8fbc0018 	lw	gp,24(sp)
  40d31c:	1000001d 	b	40d394 <ActionFtpMail_Thread@@Base+0xb7c>
  40d320:	00000000 	nop
  40d324:	14430009 	bne	v0,v1,40d34c <ActionFtpMail_Thread@@Base+0xb34>
  40d328:	2403000e 	li	v1,14
  40d32c:	8fa402bc 	lw	a0,700(sp)
  40d330:	8fa502f4 	lw	a1,756(sp)
[31m  40d334:	8f998124 	lw	t9,sprintf[0m
  40d338:	0320f809 	jalr	t9
  40d33c:	2406000a 	li	a2,10
  40d340:	8fbc0018 	lw	gp,24(sp)
  40d344:	10000013 	b	40d394 <ActionFtpMail_Thread@@Base+0xb7c>
  40d348:	00000000 	nop
  40d34c:	14430009 	bne	v0,v1,40d374 <ActionFtpMail_Thread@@Base+0xb5c>
  40d350:	24030015 	li	v1,21
  40d354:	8fa402bc 	lw	a0,700(sp)
  40d358:	8fa502f0 	lw	a1,752(sp)
[31m  40d35c:	8f998124 	lw	t9,sprintf[0m
  40d360:	0320f809 	jalr	t9
  40d364:	2406000a 	li	a2,10
  40d368:	8fbc0018 	lw	gp,24(sp)
  40d36c:	10000009 	b	40d394 <ActionFtpMail_Thread@@Base+0xb7c>
  40d370:	00000000 	nop
  40d374:	14430007 	bne	v0,v1,40d394 <ActionFtpMail_Thread@@Base+0xb7c>
  40d378:	00000000 	nop
  40d37c:	8fa402bc 	lw	a0,700(sp)
  40d380:	8fa50304 	lw	a1,772(sp)
[31m  40d384:	8f998124 	lw	t9,sprintf[0m
  40d388:	0320f809 	jalr	t9
  40d38c:	2406000a 	li	a2,10
--
  40ea8c:	02602821 	move	a1,s3
  40ea90:	0c10369d 	jal	40da74 <VideoRecord_Thread@@Base+0x8>
  40ea94:	27a6053c 	addiu	a2,sp,1340
  40ea98:	8fbc0020 	lw	gp,32(sp)
  40ea9c:	0040a821 	move	s5,v0
  40eaa0:	27a405ac 	addiu	a0,sp,1452
  40eaa4:	8f998068 	lw	t9,-32664(gp)
  40eaa8:	0320f809 	jalr	t9
  40eaac:	27a50580 	addiu	a1,sp,1408
  40eab0:	8fbc0020 	lw	gp,32(sp)
  40eab4:	02759821 	addu	s3,s3,s5
  40eab8:	8fa2058c 	lw	v0,1420(sp)
  40eabc:	afa20010 	sw	v0,16(sp)
  40eac0:	8fa20588 	lw	v0,1416(sp)
  40eac4:	afa20014 	sw	v0,20(sp)
  40eac8:	8fa20584 	lw	v0,1412(sp)
  40eacc:	afa20018 	sw	v0,24(sp)
  40ead0:	8fa20580 	lw	v0,1408(sp)
  40ead4:	afa2001c 	sw	v0,28(sp)
  40ead8:	02602021 	move	a0,s3
  40eadc:	3c050042 	lui	a1,0x42
  40eae0:	24a5f9f4 	addiu	a1,a1,-1548
  40eae4:	8fa60594 	lw	a2,1428(sp)
  40eae8:	24c6076c 	addiu	a2,a2,1900
  40eaec:	8fa70590 	lw	a3,1424(sp)
[31m  40eaf0:	8f998124 	lw	t9,sprintf[0m
  40eaf4:	0320f809 	jalr	t9
  40eaf8:	24e70001 	addiu	a3,a3,1
--
  40f08c:	24420044 	addiu	v0,v0,68
  40f090:	afa20ce0 	sw	v0,3296(sp)
  40f094:	8fbe04fc 	lw	s8,1276(sp)
  40f098:	27a40ccc 	addiu	a0,sp,3276
  40f09c:	8f998068 	lw	t9,-32664(gp)
  40f0a0:	0320f809 	jalr	t9
  40f0a4:	27a50580 	addiu	a1,sp,1408
  40f0a8:	8fbc0020 	lw	gp,32(sp)
  40f0ac:	8f998098 	lw	t9,strlen
  40f0b0:	0320f809 	jalr	t9
  40f0b4:	02202021 	move	a0,s1
  40f0b8:	8fbc0020 	lw	gp,32(sp)
  40f0bc:	8fa3058c 	lw	v1,1420(sp)
  40f0c0:	afa30010 	sw	v1,16(sp)
  40f0c4:	8fa30588 	lw	v1,1416(sp)
  40f0c8:	afa30014 	sw	v1,20(sp)
  40f0cc:	8fa30584 	lw	v1,1412(sp)
  40f0d0:	afa30018 	sw	v1,24(sp)
  40f0d4:	8fa30580 	lw	v1,1408(sp)
  40f0d8:	afa3001c 	sw	v1,28(sp)
  40f0dc:	02222021 	addu	a0,s1,v0
  40f0e0:	8fa50cf8 	lw	a1,3320(sp)
  40f0e4:	8fa60594 	lw	a2,1428(sp)
  40f0e8:	24c6076c 	addiu	a2,a2,1900
  40f0ec:	8fa70590 	lw	a3,1424(sp)
[31m  40f0f0:	8f998124 	lw	t9,sprintf[0m
  40f0f4:	0320f809 	jalr	t9
  40f0f8:	24e70001 	addiu	a3,a3,1
  40f0fc:	8fbc0020 	lw	gp,32(sp)
  40f100:	9202555c 	lbu	v0,21852(s0)
  40f104:	1040000c 	beqz	v0,40f138 <EventSnapshot_Thread@@Base+0x14f4>
  40f108:	00000000 	nop
  40f10c:	8f998098 	lw	t9,strlen
  40f110:	0320f809 	jalr	t9
  40f114:	02202021 	move	a0,s1
  40f118:	8fbc0020 	lw	gp,32(sp)
  40f11c:	02221021 	addu	v0,s1,v0
  40f120:	3c070042 	lui	a3,0x42
  40f124:	90e3fb64 	lbu	v1,-1180(a3)
  40f128:	a0430000 	sb	v1,0(v0)
  40f12c:	8fa80d30 	lw	t0,3376(sp)
  40f130:	91030001 	lbu	v1,1(t0)
  40f134:	a0430001 	sb	v1,1(v0)
  40f138:	8f998098 	lw	t9,strlen
  40f13c:	0320f809 	jalr	t9
  40f140:	02202021 	move	a0,s1
  40f144:	8fbc0020 	lw	gp,32(sp)
  40f148:	26b30001 	addiu	s3,s5,1
  40f14c:	02222021 	addu	a0,s1,v0
  40f150:	8fa50cfc 	lw	a1,3324(sp)
[31m  40f154:	8f998124 	lw	t9,sprintf[0m
  40f158:	0320f809 	jalr	t9
  40f15c:	02603021 	move	a2,s3
  40f160:	8fbc0020 	lw	gp,32(sp)
  40f164:	8f998098 	lw	t9,strlen
  40f168:	0320f809 	jalr	t9
  40f16c:	02202021 	move	a0,s1
  40f170:	8fbc0020 	lw	gp,32(sp)
  40f174:	02221021 	addu	v0,s1,v0
  40f178:	3c040042 	lui	a0,0x42
  40f17c:	8c83fb6c 	lw	v1,-1172(a0)
  40f180:	a8430000 	swl	v1,0(v0)
  40f184:	b8430003 	swr	v1,3(v0)
  40f188:	8fa70d00 	lw	a3,3328(sp)
  40f18c:	90e30004 	lbu	v1,4(a3)
  40f190:	a0430004 	sb	v1,4(v0)
  40f194:	27b609cc 	addiu	s6,sp,2508
  40f198:	8fa2058c 	lw	v0,1420(sp)
  40f19c:	afa20010 	sw	v0,16(sp)
  40f1a0:	02c02021 	move	a0,s6
  40f1a4:	8fa50d04 	lw	a1,3332(sp)
  40f1a8:	8fa60594 	lw	a2,1428(sp)
  40f1ac:	24c6076c 	addiu	a2,a2,1900
  40f1b0:	8fa70590 	lw	a3,1424(sp)
[31m  40f1b4:	8f998124 	lw	t9,sprintf[0m
  40f1b8:	0320f809 	jalr	t9
  40f1bc:	24e70001 	addiu	a3,a3,1
  40f1c0:	8fbc0020 	lw	gp,32(sp)
  40f1c4:	27a40acc 	addiu	a0,sp,2764
  40f1c8:	8fa50cd8 	lw	a1,3288(sp)
  40f1cc:	02c03021 	move	a2,s6
[31m  40f1d0:	8f998124 	lw	t9,sprintf[0m
  40f1d4:	0320f809 	jalr	t9
  40f1d8:	02203821 	move	a3,s1
  40f1dc:	8fbc0020 	lw	gp,32(sp)
  40f1e0:	24020009 	li	v0,9
  40f1e4:	12420004 	beq	s2,v0,40f1f8 <EventSnapshot_Thread@@Base+0x15b4>
  40f1e8:	00000000 	nop
  40f1ec:	93a203a8 	lbu	v0,936(sp)
  40f1f0:	1040009b 	beqz	v0,40f460 <EventSnapshot_Thread@@Base+0x181c>
  40f1f4:	0000b021 	move	s6,zero
  40f1f8:	8fa40cd4 	lw	a0,3284(sp)
  40f1fc:	8f998174 	lw	t9,-32396(gp)
  40f200:	0320f809 	jalr	t9
  40f204:	27a50bcc 	addiu	a1,sp,3020
  40f208:	8fbc0020 	lw	gp,32(sp)
  40f20c:	27b609cc 	addiu	s6,sp,2508
  40f210:	8f998098 	lw	t9,strlen
  40f214:	0320f809 	jalr	t9
  40f218:	02c02021 	move	a0,s6
  40f21c:	8fbc0020 	lw	gp,32(sp)
  40f220:	8fa50d1c 	lw	a1,3356(sp)
  40f224:	8fa60588 	lw	a2,1416(sp)
[31m  40f228:	8f998124 	lw	t9,sprintf[0m
  40f22c:	0320f809 	jalr	t9
  40f230:	02c22021 	addu	a0,s6,v0
  40f234:	8fbc0020 	lw	gp,32(sp)
  40f238:	27a40acc 	addiu	a0,sp,2764
  40f23c:	8fa50cd8 	lw	a1,3288(sp)
  40f240:	02c03021 	move	a2,s6
[31m  40f244:	8f998124 	lw	t9,sprintf[0m
  40f248:	0320f809 	jalr	t9
  40f24c:	02203821 	move	a3,s1
--
  40f3dc:	24422030 	addiu	v0,v0,8240
  40f3e0:	00621021 	addu	v0,v1,v0
  40f3e4:	24040004 	li	a0,4
  40f3e8:	3c050042 	lui	a1,0x42
  40f3ec:	8c460000 	lw	a2,0(v0)
  40f3f0:	8f9983b4 	lw	t9,-31820(gp)
  40f3f4:	0320f809 	jalr	t9
  40f3f8:	24a5fc70 	addiu	a1,a1,-912
  40f3fc:	8fbc0020 	lw	gp,32(sp)
  40f400:	10000015 	b	40f458 <EventSnapshot_Thread@@Base+0x1814>
  40f404:	24020001 	li	v0,1
  40f408:	8f998058 	lw	t9,-32680(gp)
  40f40c:	0320f809 	jalr	t9
  40f410:	02c02021 	move	a0,s6
  40f414:	8fbc0020 	lw	gp,32(sp)
  40f418:	8fa40cd4 	lw	a0,3284(sp)
  40f41c:	8f998310 	lw	t9,-31984(gp)
  40f420:	0320f809 	jalr	t9
  40f424:	00000000 	nop
  40f428:	8fbc0020 	lw	gp,32(sp)
  40f42c:	1440000a 	bnez	v0,40f458 <EventSnapshot_Thread@@Base+0x1814>
  40f430:	24020001 	li	v0,1
  40f434:	27a405d0 	addiu	a0,sp,1488
  40f438:	8fa50cd8 	lw	a1,3288(sp)
  40f43c:	27a60bcc 	addiu	a2,sp,3020
[31m  40f440:	8f998124 	lw	t9,sprintf[0m
  40f444:	0320f809 	jalr	t9
  40f448:	27a709cc 	addiu	a3,sp,2508
--
  40f62c:	24020001 	li	v0,1
  40f630:	8fa40cdc 	lw	a0,3292(sp)
  40f634:	8f998058 	lw	t9,-32680(gp)
  40f638:	0320f809 	jalr	t9
  40f63c:	00000000 	nop
  40f640:	8fbc0020 	lw	gp,32(sp)
  40f644:	8fa40ce8 	lw	a0,3304(sp)
  40f648:	8f998310 	lw	t9,-31984(gp)
  40f64c:	0320f809 	jalr	t9
  40f650:	00000000 	nop
  40f654:	8fbc0020 	lw	gp,32(sp)
  40f658:	14400013 	bnez	v0,40f6a8 <EventSnapshot_Thread@@Base+0x1a64>
  40f65c:	24020001 	li	v0,1
  40f660:	83a205d0 	lb	v0,1488(sp)
  40f664:	14400251 	bnez	v0,40ffac <EventSnapshot_Thread@@Base+0x2368>
  40f668:	27a80bcc 	addiu	t0,sp,3020
  40f66c:	afa80cdc 	sw	t0,3292(sp)
  40f670:	8fa40ce8 	lw	a0,3304(sp)
  40f674:	8f998174 	lw	t9,-32396(gp)
  40f678:	0320f809 	jalr	t9
  40f67c:	01002821 	move	a1,t0
  40f680:	8fbc0020 	lw	gp,32(sp)
  40f684:	27a405d0 	addiu	a0,sp,1488
  40f688:	8fa50cd8 	lw	a1,3288(sp)
  40f68c:	8fa60cdc 	lw	a2,3292(sp)
[31m  40f690:	8f998124 	lw	t9,sprintf[0m
  40f694:	0320f809 	jalr	t9
  40f698:	27a709cc 	addiu	a3,sp,2508
--
  40f6e0:	8fbc0020 	lw	gp,32(sp)
  40f6e4:	16c0001b 	bnez	s6,40f754 <EventSnapshot_Thread@@Base+0x1b10>
  40f6e8:	00000000 	nop
  40f6ec:	8fa30cdc 	lw	v1,3292(sp)
  40f6f0:	14600018 	bnez	v1,40f754 <EventSnapshot_Thread@@Base+0x1b10>
  40f6f4:	2642fff9 	addiu	v0,s2,-7
  40f6f8:	2c420002 	sltiu	v0,v0,2
  40f6fc:	1440000b 	bnez	v0,40f72c <EventSnapshot_Thread@@Base+0x1ae8>
  40f700:	2402000b 	li	v0,11
  40f704:	1242022c 	beq	s2,v0,40ffb8 <EventSnapshot_Thread@@Base+0x2374>
  40f708:	3c028000 	lui	v0,0x8000
  40f70c:	8fa40d08 	lw	a0,3336(sp)
  40f710:	14800229 	bnez	a0,40ffb8 <EventSnapshot_Thread@@Base+0x2374>
  40f714:	00000000 	nop
  40f718:	8fa70d0c 	lw	a3,3340(sp)
  40f71c:	14e00226 	bnez	a3,40ffb8 <EventSnapshot_Thread@@Base+0x2374>
  40f720:	00000000 	nop
  40f724:	1000000b 	b	40f754 <EventSnapshot_Thread@@Base+0x1b10>
  40f728:	00000000 	nop
  40f72c:	3c028000 	lui	v0,0x8000
  40f730:	8fa305cc 	lw	v1,1484(sp)
  40f734:	00621025 	or	v0,v1,v0
  40f738:	afa205cc 	sw	v0,1484(sp)
  40f73c:	27a405d0 	addiu	a0,sp,1488
  40f740:	8fa50d44 	lw	a1,3396(sp)
[31m  40f744:	8f998124 	lw	t9,sprintf[0m
  40f748:	0320f809 	jalr	t9
  40f74c:	02203021 	move	a2,s1
--
  40f978:	8d060028 	lw	a2,40(t0)
  40f97c:	01002021 	move	a0,t0
  40f980:	00c02821 	move	a1,a2
  40f984:	8f99827c 	lw	t9,-32132(gp)
  40f988:	0320f809 	jalr	t9
  40f98c:	00003821 	move	a3,zero
  40f990:	8fbc0020 	lw	gp,32(sp)
  40f994:	8fa40cd0 	lw	a0,3280(sp)
  40f998:	8f9981f4 	lw	t9,-32268(gp)
  40f99c:	0320f809 	jalr	t9
  40f9a0:	00000000 	nop
  40f9a4:	8fbc0020 	lw	gp,32(sp)
  40f9a8:	2642fff9 	addiu	v0,s2,-7
  40f9ac:	2c420002 	sltiu	v0,v0,2
  40f9b0:	10400017 	beqz	v0,40fa10 <EventSnapshot_Thread@@Base+0x1dcc>
  40f9b4:	3c027fff 	lui	v0,0x7fff
  40f9b8:	3442ffff 	ori	v0,v0,0xffff
  40f9bc:	8fa305cc 	lw	v1,1484(sp)
  40f9c0:	00621024 	and	v0,v1,v0
  40f9c4:	afa205cc 	sw	v0,1484(sp)
  40f9c8:	27b505d0 	addiu	s5,sp,1488
  40f9cc:	27a406cc 	addiu	a0,sp,1740
  40f9d0:	8fa20d28 	lw	v0,3368(sp)
  40f9d4:	00822021 	addu	a0,a0,v0
  40f9d8:	8fa50d34 	lw	a1,3380(sp)
[31m  40f9dc:	8f998124 	lw	t9,sprintf[0m
  40f9e0:	0320f809 	jalr	t9
  40f9e4:	02a03021 	move	a2,s5
--
  40fd60:	ae020700 	sw	v0,1792(s0)
  40fd64:	2642fff9 	addiu	v0,s2,-7
  40fd68:	2c420002 	sltiu	v0,v0,2
  40fd6c:	1040002e 	beqz	v0,40fe28 <EventSnapshot_Thread@@Base+0x21e4>
  40fd70:	2402000b 	li	v0,11
  40fd74:	8fa20d28 	lw	v0,3368(sp)
  40fd78:	1840002a 	blez	v0,40fe24 <EventSnapshot_Thread@@Base+0x21e0>
  40fd7c:	03a21021 	addu	v0,sp,v0
  40fd80:	a04006cb 	sb	zero,1739(v0)
  40fd84:	27a405c4 	addiu	a0,sp,1476
  40fd88:	8f9981ac 	lw	t9,-32340(gp)
  40fd8c:	0320f809 	jalr	t9
  40fd90:	00002821 	move	a1,zero
  40fd94:	8fbc0020 	lw	gp,32(sp)
  40fd98:	8fa205ac 	lw	v0,1452(sp)
  40fd9c:	8fa305c4 	lw	v1,1476(sp)
  40fda0:	00621023 	subu	v0,v1,v0
  40fda4:	2c46001f 	sltiu	a2,v0,31
  40fda8:	27a406cc 	addiu	a0,sp,1740
  40fdac:	8fa30d28 	lw	v1,3368(sp)
  40fdb0:	00832021 	addu	a0,a0,v1
  40fdb4:	3c050042 	lui	a1,0x42
  40fdb8:	24a5f244 	addiu	a1,a1,-3516
  40fdbc:	24030003 	li	v1,3
  40fdc0:	0046180b 	0x46180b
[31m  40fdc4:	8f998124 	lw	t9,sprintf[0m
  40fdc8:	0320f809 	jalr	t9
  40fdcc:	00603021 	move	a2,v1
--
  40ff6c:	afa30ce0 	sw	v1,3296(sp)
  40ff70:	ae0006f8 	sw	zero,1784(s0)
  40ff74:	24020001 	li	v0,1
  40ff78:	ae0206f4 	sw	v0,1780(s0)
  40ff7c:	8fa40d08 	lw	a0,3336(sp)
  40ff80:	0004882b 	sltu	s1,zero,a0
  40ff84:	afb10d3c 	sw	s1,3388(sp)
  40ff88:	8fa70d0c 	lw	a3,3340(sp)
  40ff8c:	14e0fa98 	bnez	a3,40e9f0 <EventSnapshot_Thread@@Base+0xdac>
  40ff90:	2402000b 	li	v0,11
  40ff94:	1000fa94 	b	40e9e8 <EventSnapshot_Thread@@Base+0xda4>
  40ff98:	00000000 	nop
  40ff9c:	8fb10cf4 	lw	s1,3316(sp)
  40ffa0:	8fb30d14 	lw	s3,3348(sp)
  40ffa4:	1000fbeb 	b	40ef54 <EventSnapshot_Thread@@Base+0x1310>
  40ffa8:	24020001 	li	v0,1
  40ffac:	24080001 	li	t0,1
  40ffb0:	1000fdc0 	b	40f6b4 <EventSnapshot_Thread@@Base+0x1a70>
  40ffb4:	afa80cdc 	sw	t0,3292(sp)
  40ffb8:	8fa305cc 	lw	v1,1484(sp)
  40ffbc:	00621025 	or	v0,v1,v0
  40ffc0:	afa205cc 	sw	v0,1484(sp)
  40ffc4:	27a405d0 	addiu	a0,sp,1488
  40ffc8:	8fa50cd8 	lw	a1,3288(sp)
  40ffcc:	8fa60d40 	lw	a2,3392(sp)
[31m  40ffd0:	8f998124 	lw	t9,sprintf[0m
  40ffd4:	0320f809 	jalr	t9
  40ffd8:	02203821 	move	a3,s1
--
  41051c:	afb400b0 	sw	s4,176(sp)
  410520:	afb300ac 	sw	s3,172(sp)
  410524:	afb200a8 	sw	s2,168(sp)
  410528:	afb100a4 	sw	s1,164(sp)
  41052c:	afb000a0 	sw	s0,160(sp)
  410530:	3c1c0044 	lui	gp,0x44
  410534:	279ca060 	addiu	gp,gp,-24480
  410538:	afbc0018 	sw	gp,24(sp)
  41053c:	0080a021 	move	s4,a0
  410540:	00a09821 	move	s3,a1
  410544:	00c08021 	move	s0,a2
  410548:	10c00035 	beqz	a2,410620 <EventRecAudio_Thread@@Base+0x5ec>
  41054c:	00e08821 	move	s1,a3
  410550:	27b20020 	addiu	s2,sp,32
  410554:	02402021 	move	a0,s2
  410558:	00002821 	move	a1,zero
  41055c:	8f99819c 	lw	t9,-32356(gp)
  410560:	0320f809 	jalr	t9
  410564:	24060080 	li	a2,128
  410568:	8fbc0018 	lw	gp,24(sp)
  41056c:	afb30010 	sw	s3,16(sp)
  410570:	02402021 	move	a0,s2
  410574:	3c050042 	lui	a1,0x42
  410578:	24a50114 	addiu	a1,a1,276
  41057c:	02003021 	move	a2,s0
[31m  410580:	8f998124 	lw	t9,sprintf[0m
  410584:	0320f809 	jalr	t9
  410588:	02803821 	move	a3,s4
--
  411bd8:	8fbc0030 	lw	gp,48(sp)
  411bdc:	27a43704 	addiu	a0,sp,14084
  411be0:	8f998068 	lw	t9,-32664(gp)
  411be4:	0320f809 	jalr	t9
  411be8:	27a536d8 	addiu	a1,sp,14040
  411bec:	8fbc0030 	lw	gp,48(sp)
  411bf0:	27b33a34 	addiu	s3,sp,14900
  411bf4:	8f998098 	lw	t9,strlen
  411bf8:	0320f809 	jalr	t9
  411bfc:	02602021 	move	a0,s3
  411c00:	8fbc0030 	lw	gp,48(sp)
  411c04:	8fa336e4 	lw	v1,14052(sp)
  411c08:	afa30010 	sw	v1,16(sp)
  411c0c:	8fa336e0 	lw	v1,14048(sp)
  411c10:	afa30014 	sw	v1,20(sp)
  411c14:	8fa336dc 	lw	v1,14044(sp)
  411c18:	afa30018 	sw	v1,24(sp)
  411c1c:	8fa336d8 	lw	v1,14040(sp)
  411c20:	afa3001c 	sw	v1,28(sp)
  411c24:	02622021 	addu	a0,s3,v0
  411c28:	3c050042 	lui	a1,0x42
  411c2c:	24a5fb48 	addiu	a1,a1,-1208
  411c30:	8fa636ec 	lw	a2,14060(sp)
  411c34:	24c6076c 	addiu	a2,a2,1900
  411c38:	8fa736e8 	lw	a3,14056(sp)
[31m  411c3c:	8f998124 	lw	t9,sprintf[0m
  411c40:	0320f809 	jalr	t9
  411c44:	24e70001 	addiu	a3,a3,1
--
  411c7c:	b8430003 	swr	v1,3(v0)
  411c80:	8fa44110 	lw	a0,16656(sp)
  411c84:	90830004 	lbu	v1,4(a0)
  411c88:	1000000d 	b	411cc0 <EventRecord_Thread@@Base+0x15b8>
  411c8c:	a0430004 	sb	v1,4(v0)
  411c90:	8f998098 	lw	t9,strlen
  411c94:	0320f809 	jalr	t9
  411c98:	02602021 	move	a0,s3
  411c9c:	8fbc0030 	lw	gp,48(sp)
  411ca0:	02621021 	addu	v0,s3,v0
  411ca4:	3c050042 	lui	a1,0x42
  411ca8:	8ca31980 	lw	v1,6528(a1)
  411cac:	a8430000 	swl	v1,0(v0)
  411cb0:	b8430003 	swr	v1,3(v0)
  411cb4:	8fa64108 	lw	a2,16648(sp)
  411cb8:	90c30004 	lbu	v1,4(a2)
  411cbc:	a0430004 	sb	v1,4(v0)
  411cc0:	8fa236e4 	lw	v0,14052(sp)
  411cc4:	afa20010 	sw	v0,16(sp)
  411cc8:	27a43b34 	addiu	a0,sp,15156
  411ccc:	3c050042 	lui	a1,0x42
  411cd0:	24a5ea50 	addiu	a1,a1,-5552
  411cd4:	8fa636ec 	lw	a2,14060(sp)
  411cd8:	24c6076c 	addiu	a2,a2,1900
  411cdc:	8fa736e8 	lw	a3,14056(sp)
[31m  411ce0:	8f998124 	lw	t9,sprintf[0m
  411ce4:	0320f809 	jalr	t9
  411ce8:	24e70001 	addiu	a3,a3,1
  411cec:	8fbc0030 	lw	gp,48(sp)
  411cf0:	24020009 	li	v0,9
  411cf4:	8fa740a4 	lw	a3,16548(sp)
  411cf8:	14e2002b 	bne	a3,v0,411da8 <EventRecord_Thread@@Base+0x16a0>
  411cfc:	27b43c34 	addiu	s4,sp,15412
  411d00:	8fa440ac 	lw	a0,16556(sp)
  411d04:	8f998174 	lw	t9,-32396(gp)
  411d08:	0320f809 	jalr	t9
  411d0c:	02802821 	move	a1,s4
  411d10:	8fbc0030 	lw	gp,48(sp)
  411d14:	27b53b34 	addiu	s5,sp,15156
  411d18:	8f998098 	lw	t9,strlen
  411d1c:	0320f809 	jalr	t9
  411d20:	02a02021 	move	a0,s5
  411d24:	8fbc0030 	lw	gp,48(sp)
  411d28:	02a22021 	addu	a0,s5,v0
  411d2c:	3c050042 	lui	a1,0x42
  411d30:	8fa636e0 	lw	a2,14048(sp)
[31m  411d34:	8f998124 	lw	t9,sprintf[0m
  411d38:	0320f809 	jalr	t9
  411d3c:	24a5ea58 	addiu	a1,a1,-5544
  411d40:	8fbc0030 	lw	gp,48(sp)
  411d44:	27b33e34 	addiu	s3,sp,15924
  411d48:	02602021 	move	a0,s3
  411d4c:	00002821 	move	a1,zero
  411d50:	8f99819c 	lw	t9,-32356(gp)
  411d54:	0320f809 	jalr	t9
  411d58:	24060218 	li	a2,536
  411d5c:	8fbc0030 	lw	gp,48(sp)
  411d60:	02602021 	move	a0,s3
  411d64:	3c050042 	lui	a1,0x42
  411d68:	24a5ea3c 	addiu	a1,a1,-5572
  411d6c:	02803021 	move	a2,s4
[31m  411d70:	8f998124 	lw	t9,sprintf[0m
  411d74:	0320f809 	jalr	t9
  411d78:	02a03821 	move	a3,s5
--
  411fd0:	8fa640a4 	lw	a2,16548(sp)
  411fd4:	24c2ffff 	addiu	v0,a2,-1
  411fd8:	00021080 	sll	v0,v0,0x2
  411fdc:	8fa740ec 	lw	a3,16620(sp)
  411fe0:	00471021 	addu	v0,v0,a3
  411fe4:	24040004 	li	a0,4
  411fe8:	3c050042 	lui	a1,0x42
  411fec:	8c460000 	lw	a2,0(v0)
  411ff0:	8f9983b4 	lw	t9,-31820(gp)
  411ff4:	0320f809 	jalr	t9
  411ff8:	24a504c8 	addiu	a1,a1,1224
  411ffc:	8fbc0030 	lw	gp,48(sp)
  412000:	10000012 	b	41204c <EventRecord_Thread@@Base+0x1944>
  412004:	afa04088 	sw	zero,16520(sp)
  412008:	8fa440ac 	lw	a0,16556(sp)
  41200c:	8f998174 	lw	t9,-32396(gp)
  412010:	0320f809 	jalr	t9
  412014:	02802821 	move	a1,s4
  412018:	8fbc0030 	lw	gp,48(sp)
  41201c:	8fa240ac 	lw	v0,16556(sp)
  412020:	afa23648 	sw	v0,13896(sp)
  412024:	27a43738 	addiu	a0,sp,14136
  412028:	3c050042 	lui	a1,0x42
  41202c:	24a5ea3c 	addiu	a1,a1,-5572
  412030:	02803021 	move	a2,s4
[31m  412034:	8f998124 	lw	t9,sprintf[0m
  412038:	0320f809 	jalr	t9
  41203c:	27a73b34 	addiu	a3,sp,15156
--
  41213c:	24040004 	li	a0,4
  412140:	3c050042 	lui	a1,0x42
  412144:	8c460000 	lw	a2,0(v0)
  412148:	8f9983b4 	lw	t9,-31820(gp)
  41214c:	0320f809 	jalr	t9
  412150:	24a50580 	addiu	a1,a1,1408
  412154:	8fbc0030 	lw	gp,48(sp)
  412158:	10000017 	b	4121b8 <EventRecord_Thread@@Base+0x1ab0>
  41215c:	afa0408c 	sw	zero,16524(sp)
  412160:	8fa640b4 	lw	a2,16564(sp)
  412164:	afa6364c 	sw	a2,13900(sp)
  412168:	00c02021 	move	a0,a2
  41216c:	8f998174 	lw	t9,-32396(gp)
  412170:	0320f809 	jalr	t9
  412174:	27a53c34 	addiu	a1,sp,15412
  412178:	8fbc0030 	lw	gp,48(sp)
  41217c:	83a23738 	lb	v0,14136(sp)
  412180:	10400003 	beqz	v0,412190 <EventRecord_Thread@@Base+0x1a88>
  412184:	24070001 	li	a3,1
  412188:	1000000b 	b	4121b8 <EventRecord_Thread@@Base+0x1ab0>
  41218c:	afa7408c 	sw	a3,16524(sp)
  412190:	27a43738 	addiu	a0,sp,14136
  412194:	3c050042 	lui	a1,0x42
  412198:	24a5ea3c 	addiu	a1,a1,-5572
  41219c:	27a63c34 	addiu	a2,sp,15412
[31m  4121a0:	8f998124 	lw	t9,sprintf[0m
  4121a4:	0320f809 	jalr	t9
  4121a8:	27a73b34 	addiu	a3,sp,15156
  4121ac:	8fbc0030 	lw	gp,48(sp)
  4121b0:	24020001 	li	v0,1
  4121b4:	afa2408c 	sw	v0,16524(sp)
  4121b8:	27a434bc 	addiu	a0,sp,13500
  4121bc:	3c050042 	lui	a1,0x42
  4121c0:	24a5ea3c 	addiu	a1,a1,-5572
  4121c4:	27a63b34 	addiu	a2,sp,15156
[31m  4121c8:	8f998124 	lw	t9,sprintf[0m
  4121cc:	0320f809 	jalr	t9
  4121d0:	27a73a34 	addiu	a3,sp,14900
--
  412200:	8fa4408c 	lw	a0,16524(sp)
  412204:	1480002d 	bnez	a0,4122bc <EventRecord_Thread@@Base+0x1bb4>
  412208:	02402021 	move	a0,s2
  41220c:	8fa54060 	lw	a1,16480(sp)
  412210:	2ca20002 	sltiu	v0,a1,2
  412214:	1440000c 	bnez	v0,412248 <EventRecord_Thread@@Base+0x1b40>
  412218:	2402000b 	li	v0,11
  41221c:	8fa640a4 	lw	a2,16548(sp)
  412220:	10c205c0 	beq	a2,v0,413924 <EventRecord_Thread@@Base+0x321c>
  412224:	3c028000 	lui	v0,0x8000
  412228:	8fa740dc 	lw	a3,16604(sp)
  41222c:	14e005bd 	bnez	a3,413924 <EventRecord_Thread@@Base+0x321c>
  412230:	00000000 	nop
  412234:	8fa240e0 	lw	v0,16608(sp)
  412238:	144005ba 	bnez	v0,413924 <EventRecord_Thread@@Base+0x321c>
  41223c:	3c028000 	lui	v0,0x8000
  412240:	1000001d 	b	4122b8 <EventRecord_Thread@@Base+0x1bb0>
  412244:	afa0408c 	sw	zero,16524(sp)
  412248:	3c028000 	lui	v0,0x8000
  41224c:	8fa33734 	lw	v1,14132(sp)
  412250:	00621025 	or	v0,v1,v0
  412254:	afa23734 	sw	v0,14132(sp)
  412258:	27a43738 	addiu	a0,sp,14136
  41225c:	3c050042 	lui	a1,0x42
  412260:	24a5fdd8 	addiu	a1,a1,-552
[31m  412264:	8f998124 	lw	t9,sprintf[0m
  412268:	0320f809 	jalr	t9
  41226c:	27a63a34 	addiu	a2,sp,14900
--
  4132f8:	24c509c0 	addiu	a1,a2,2496
  4132fc:	8f998298 	lw	t9,-32104(gp)
  413300:	0320f809 	jalr	t9
  413304:	02803021 	move	a2,s4
  413308:	8fbc0030 	lw	gp,48(sp)
  41330c:	8fa740a4 	lw	a3,16548(sp)
  413310:	24e2fff9 	addiu	v0,a3,-7
  413314:	2c420002 	sltiu	v0,v0,2
  413318:	10400038 	beqz	v0,4133fc <EventRecord_Thread@@Base+0x2cf4>
  41331c:	24020009 	li	v0,9
  413320:	27a4372c 	addiu	a0,sp,14124
  413324:	8f9981ac 	lw	t9,-32340(gp)
  413328:	0320f809 	jalr	t9
  41332c:	00002821 	move	a1,zero
  413330:	8fbc0030 	lw	gp,48(sp)
  413334:	8fa23704 	lw	v0,14084(sp)
  413338:	8fa3372c 	lw	v1,14124(sp)
  41333c:	00621023 	subu	v0,v1,v0
  413340:	2c43003d 	sltiu	v1,v0,61
  413344:	8fa540f4 	lw	a1,16628(sp)
  413348:	03a52021 	addu	a0,sp,a1
  41334c:	24843835 	addiu	a0,a0,14389
  413350:	3c050042 	lui	a1,0x42
  413354:	24a5f244 	addiu	a1,a1,-3516
  413358:	24060019 	li	a2,25
[31m  41335c:	8f998124 	lw	t9,sprintf[0m
  413360:	0320f809 	jalr	t9
  413364:	0043300b 	0x43300b
--
  4138e0:	afa74054 	sw	a3,16468(sp)
  4138e4:	3c021062 	lui	v0,0x1062
  4138e8:	34424dd3 	ori	v0,v0,0x4dd3
  4138ec:	afa24050 	sw	v0,16464(sp)
  4138f0:	3c020020 	lui	v0,0x20
  4138f4:	34420001 	ori	v0,v0,0x1
  4138f8:	1000f7ec 	b	4118ac <EventRecord_Thread@@Base+0x11a4>
  4138fc:	afa24058 	sw	v0,16472(sp)
  413900:	1000f837 	b	4119e0 <EventRecord_Thread@@Base+0x12d8>
  413904:	0040b821 	move	s7,v0
  413908:	8fa440b0 	lw	a0,16560(sp)
  41390c:	8f998318 	lw	t9,-31976(gp)
  413910:	0320f809 	jalr	t9
  413914:	00000000 	nop
  413918:	8fbc0030 	lw	gp,48(sp)
  41391c:	1000fb96 	b	412778 <EventRecord_Thread@@Base+0x2070>
  413920:	00000000 	nop
  413924:	8fa33734 	lw	v1,14132(sp)
  413928:	00621025 	or	v0,v1,v0
  41392c:	afa23734 	sw	v0,14132(sp)
  413930:	27a43738 	addiu	a0,sp,14136
  413934:	3c050042 	lui	a1,0x42
  413938:	24a5ea3c 	addiu	a1,a1,-5572
  41393c:	3c130042 	lui	s3,0x42
  413940:	2666ea44 	addiu	a2,s3,-5564
[31m  413944:	8f998124 	lw	t9,sprintf[0m
  413948:	0320f809 	jalr	t9
  41394c:	27a73a34 	addiu	a3,sp,14900
--
  413cd0:	14600009 	bnez	v1,413cf8 <URLEncoder@@Base+0xb4>
  413cd4:	00000000 	nop
  413cd8:	10540007 	beq	v0,s4,413cf8 <URLEncoder@@Base+0xb4>
  413cdc:	00000000 	nop
  413ce0:	10550006 	beq	v0,s5,413cfc <URLEncoder@@Base+0xb8>
  413ce4:	02701821 	addu	v1,s3,s0
  413ce8:	10560004 	beq	v0,s6,413cfc <URLEncoder@@Base+0xb8>
  413cec:	00000000 	nop
  413cf0:	14570005 	bne	v0,s7,413d08 <URLEncoder@@Base+0xc4>
  413cf4:	00000000 	nop
  413cf8:	02701821 	addu	v1,s3,s0
  413cfc:	a0620000 	sb	v0,0(v1)
  413d00:	10000011 	b	413d48 <URLEncoder@@Base+0x104>
  413d04:	26100001 	addiu	s0,s0,1
  413d08:	145e0005 	bne	v0,s8,413d20 <URLEncoder@@Base+0xdc>
  413d0c:	02701021 	addu	v0,s3,s0
  413d10:	2403002b 	li	v1,43
  413d14:	a0430000 	sb	v1,0(v0)
  413d18:	1000000b 	b	413d48 <URLEncoder@@Base+0x104>
  413d1c:	26100001 	addiu	s0,s0,1
  413d20:	24030025 	li	v1,37
  413d24:	a0430000 	sb	v1,0(v0)
  413d28:	26040001 	addiu	a0,s0,1
  413d2c:	8fa50018 	lw	a1,24(sp)
  413d30:	92260000 	lbu	a2,0(s1)
[31m  413d34:	8f998124 	lw	t9,sprintf[0m
  413d38:	0320f809 	jalr	t9
  413d3c:	02642021 	addu	a0,s3,a0
--
  4145d0:	8c470000 	lw	a3,0(v0)
  4145d4:	8f9980f0 	lw	t9,-32528(gp)
  4145d8:	0320f809 	jalr	t9
  4145dc:	24060018 	li	a2,24
  4145e0:	8fbc0018 	lw	gp,24(sp)
  4145e4:	3c040042 	lui	a0,0x42
  4145e8:	24840b74 	addiu	a0,a0,2932
  4145ec:	3c050042 	lui	a1,0x42
  4145f0:	8f99803c 	lw	t9,-32708(gp)
  4145f4:	0320f809 	jalr	t9
  4145f8:	24a5f704 	addiu	a1,a1,-2300
  4145fc:	8fbc0018 	lw	gp,24(sp)
  414600:	10400064 	beqz	v0,414794 <MyUnlink@@Base+0x370>
  414604:	00409021 	move	s2,v0
  414608:	27b30024 	addiu	s3,sp,36
  41460c:	afb10010 	sw	s1,16(sp)
  414610:	3402c841 	li	v0,0xc841
  414614:	02021021 	addu	v0,s0,v0
  414618:	afa20014 	sw	v0,20(sp)
  41461c:	02602021 	move	a0,s3
  414620:	3c050042 	lui	a1,0x42
  414624:	24a50b90 	addiu	a1,a1,2960
  414628:	3406c641 	li	a2,0xc641
  41462c:	02063021 	addu	a2,s0,a2
  414630:	3407c741 	li	a3,0xc741
[31m  414634:	8f998124 	lw	t9,sprintf[0m
  414638:	0320f809 	jalr	t9
  41463c:	02073821 	addu	a3,s0,a3
--
  415c54:	a0430004 	sb	v1,4(v0)
  415c58:	02402021 	move	a0,s2
  415c5c:	8f998170 	lw	t9,-32400(gp)
  415c60:	0320f809 	jalr	t9
  415c64:	24050302 	li	a1,770
  415c68:	8fbc0028 	lw	gp,40(sp)
  415c6c:	0441000b 	bgez	v0,415c9c <avi_Open@@Base+0x260>
  415c70:	ae020828 	sw	v0,2088(s0)
  415c74:	8f828114 	lw	v0,-32492(gp)
  415c78:	8c440000 	lw	a0,0(v0)
  415c7c:	3c050042 	lui	a1,0x42
  415c80:	24a50e24 	addiu	a1,a1,3620
  415c84:	8f998298 	lw	t9,-32104(gp)
  415c88:	0320f809 	jalr	t9
  415c8c:	02403021 	move	a2,s2
  415c90:	2402ffff 	li	v0,-1
  415c94:	1000019b 	b	416304 <avi_Open@@Base+0x8c8>
  415c98:	ae02082c 	sw	v0,2092(s0)
  415c9c:	82220028 	lb	v0,40(s1)
  415ca0:	1040001a 	beqz	v0,415d0c <avi_Open@@Base+0x2d0>
  415ca4:	26120874 	addiu	s2,s0,2164
  415ca8:	02402021 	move	a0,s2
  415cac:	3c050042 	lui	a1,0x42
  415cb0:	24a5ea3c 	addiu	a1,a1,-5572
  415cb4:	26260028 	addiu	a2,s1,40
[31m  415cb8:	8f998124 	lw	t9,sprintf[0m
  415cbc:	0320f809 	jalr	t9
  415cc0:	02603821 	move	a3,s3
--
  415f94:	00621025 	or	v0,v1,v0
  415f98:	3108ff00 	andi	t0,t0,0xff00
  415f9c:	00084200 	sll	t0,t0,0x8
  415fa0:	00484025 	or	t0,v0,t0
  415fa4:	ae0800b4 	sw	t0,180(s0)
  415fa8:	8fa20044 	lw	v0,68(sp)
  415fac:	afa20010 	sw	v0,16(sp)
  415fb0:	8fa20040 	lw	v0,64(sp)
  415fb4:	afa20014 	sw	v0,20(sp)
  415fb8:	8fa2003c 	lw	v0,60(sp)
  415fbc:	afa20018 	sw	v0,24(sp)
  415fc0:	8fa20038 	lw	v0,56(sp)
  415fc4:	afa2001c 	sw	v0,28(sp)
  415fc8:	3c020042 	lui	v0,0x42
  415fcc:	24420ef8 	addiu	v0,v0,3832
  415fd0:	afa20020 	sw	v0,32(sp)
  415fd4:	3c020042 	lui	v0,0x42
  415fd8:	24420f00 	addiu	v0,v0,3840
  415fdc:	afa20024 	sw	v0,36(sp)
  415fe0:	02402021 	move	a0,s2
  415fe4:	3c050042 	lui	a1,0x42
  415fe8:	24a50ec8 	addiu	a1,a1,3784
  415fec:	8fa6004c 	lw	a2,76(sp)
  415ff0:	24c6076c 	addiu	a2,a2,1900
  415ff4:	8fa70048 	lw	a3,72(sp)
[31m  415ff8:	8f998124 	lw	t9,sprintf[0m
  415ffc:	0320f809 	jalr	t9
  416000:	24e70001 	addiu	a3,a3,1
--
  4169a4:	8fb1001c 	lw	s1,28(sp)
  4169a8:	8fb00018 	lw	s0,24(sp)
  4169ac:	03e00008 	jr	ra
  4169b0:	27bd0028 	addiu	sp,sp,40

004169b4 <Disk_rm@@Base>:
  4169b4:	27bdfd38 	addiu	sp,sp,-712
  4169b8:	afbf02c4 	sw	ra,708(sp)
  4169bc:	afb202c0 	sw	s2,704(sp)
  4169c0:	afb102bc 	sw	s1,700(sp)
  4169c4:	afb002b8 	sw	s0,696(sp)
  4169c8:	3c1c0044 	lui	gp,0x44
  4169cc:	279ca060 	addiu	gp,gp,-24480
  4169d0:	afbc0010 	sw	gp,16(sp)
  4169d4:	00808821 	move	s1,a0
  4169d8:	00a09021 	move	s2,a1
  4169dc:	24900048 	addiu	s0,a0,72
  4169e0:	8f998320 	lw	t9,-31968(gp)
  4169e4:	0320f809 	jalr	t9
  4169e8:	02002021 	move	a0,s0
  4169ec:	8fbc0010 	lw	gp,16(sp)
  4169f0:	27a400b8 	addiu	a0,sp,184
  4169f4:	3c050042 	lui	a1,0x42
  4169f8:	24a50fa0 	addiu	a1,a1,4000
  4169fc:	26260078 	addiu	a2,s1,120
[31m  416a00:	8f998124 	lw	t9,sprintf[0m
  416a04:	0320f809 	jalr	t9
  416a08:	02403821 	move	a3,s2
--
  416db8:	afa30898 	sw	v1,2200(sp)
  416dbc:	3c020042 	lui	v0,0x42
  416dc0:	2442100c 	addiu	v0,v0,4108
  416dc4:	afa208bc 	sw	v0,2236(sp)
  416dc8:	a3a00260 	sb	zero,608(sp)
  416dcc:	8fa408a8 	lw	a0,2216(sp)
  416dd0:	8f99815c 	lw	t9,-32420(gp)
  416dd4:	0320f809 	jalr	t9
  416dd8:	00000000 	nop
  416ddc:	8fbc0018 	lw	gp,24(sp)
  416de0:	1040029d 	beqz	v0,417858 <DiskRecycle_Thread@@Base+0xd6c>
  416de4:	0040a021 	move	s4,v0
  416de8:	3c0205f5 	lui	v0,0x5f5
  416dec:	3442e0ff 	ori	v0,v0,0xe0ff
  416df0:	afa208ac 	sw	v0,2220(sp)
  416df4:	27b30460 	addiu	s3,sp,1120
  416df8:	27b501c0 	addiu	s5,sp,448
  416dfc:	241e4000 	li	s8,16384
  416e00:	27a40260 	addiu	a0,sp,608
  416e04:	afa40868 	sw	a0,2152(sp)
  416e08:	1000002d 	b	416ec0 <DiskRecycle_Thread@@Base+0x3d4>
  416e0c:	afb00874 	sw	s0,2164(sp)
  416e10:	02602021 	move	a0,s3
  416e14:	8fa508b4 	lw	a1,2228(sp)
  416e18:	8fa608a8 	lw	a2,2216(sp)
[31m  416e1c:	8f998124 	lw	t9,sprintf[0m
  416e20:	0320f809 	jalr	t9
  416e24:	02003821 	move	a3,s0
--
  416f34:	27a501c0 	addiu	a1,sp,448
  416f38:	afa508a0 	sw	a1,2208(sp)
  416f3c:	0060a821 	move	s5,v1
  416f40:	afa508a4 	sw	a1,2212(sp)
  416f44:	a3a00360 	sb	zero,864(sp)
  416f48:	8fa40890 	lw	a0,2192(sp)
  416f4c:	8f99815c 	lw	t9,-32420(gp)
  416f50:	0320f809 	jalr	t9
  416f54:	00000000 	nop
  416f58:	8fbc0018 	lw	gp,24(sp)
  416f5c:	1040022e 	beqz	v0,417818 <DiskRecycle_Thread@@Base+0xd2c>
  416f60:	00408821 	move	s1,v0
  416f64:	24020018 	li	v0,24
  416f68:	afa20874 	sw	v0,2164(sp)
  416f6c:	24130002 	li	s3,2
  416f70:	10000035 	b	417048 <DiskRecycle_Thread@@Base+0x55c>
  416f74:	241e4000 	li	s8,16384
  416f78:	8f998098 	lw	t9,strlen
  416f7c:	0320f809 	jalr	t9
  416f80:	02402021 	move	a0,s2
  416f84:	8fbc0018 	lw	gp,24(sp)
  416f88:	1453002f 	bne	v0,s3,417048 <DiskRecycle_Thread@@Base+0x55c>
  416f8c:	02c02821 	move	a1,s6
  416f90:	8fa40888 	lw	a0,2184(sp)
  416f94:	8fa60890 	lw	a2,2192(sp)
[31m  416f98:	8f998124 	lw	t9,sprintf[0m
  416f9c:	0320f809 	jalr	t9
  416fa0:	02403821 	move	a3,s2
--
  4170cc:	afb1089c 	sw	s1,2204(sp)
  4170d0:	100000a1 	b	417358 <DiskRecycle_Thread@@Base+0x86c>
  4170d4:	afb10880 	sw	s1,2176(sp)
  4170d8:	8e02002c 	lw	v0,44(s0)
  4170dc:	144000a4 	bnez	v0,417370 <DiskRecycle_Thread@@Base+0x884>
  4170e0:	26320013 	addiu	s2,s1,19
  4170e4:	02402021 	move	a0,s2
  4170e8:	8f99813c 	lw	t9,-32452(gp)
  4170ec:	0320f809 	jalr	t9
  4170f0:	02e02821 	move	a1,s7
  4170f4:	8fbc0018 	lw	gp,24(sp)
  4170f8:	10400097 	beqz	v0,417358 <DiskRecycle_Thread@@Base+0x86c>
  4170fc:	00000000 	nop
  417100:	8fa5086c 	lw	a1,2156(sp)
  417104:	8f99813c 	lw	t9,-32452(gp)
  417108:	0320f809 	jalr	t9
  41710c:	02402021 	move	a0,s2
  417110:	8fbc0018 	lw	gp,24(sp)
  417114:	10400090 	beqz	v0,417358 <DiskRecycle_Thread@@Base+0x86c>
  417118:	2403002e 	li	v1,46
  41711c:	82220013 	lb	v0,19(s1)
  417120:	1043008d 	beq	v0,v1,417358 <DiskRecycle_Thread@@Base+0x86c>
  417124:	02c02821 	move	a1,s6
  417128:	8fa40864 	lw	a0,2148(sp)
  41712c:	02a03021 	move	a2,s5
[31m  417130:	8f998124 	lw	t9,sprintf[0m
  417134:	0320f809 	jalr	t9
  417138:	02403821 	move	a3,s2
--
  4175b0:	00641823 	subu	v1,v1,a0
  4175b4:	0065202a 	slt	a0,v1,a1
  4175b8:	14800006 	bnez	a0,4175d4 <DiskRecycle_Thread@@Base+0xae8>
  4175bc:	2631ffb8 	addiu	s1,s1,-72
  4175c0:	8e040018 	lw	a0,24(s0)
  4175c4:	2484ffff 	addiu	a0,a0,-1
  4175c8:	2442ffff 	addiu	v0,v0,-1
  4175cc:	0441fff7 	bgez	v0,4175ac <DiskRecycle_Thread@@Base+0xac0>
  4175d0:	ae040018 	sw	a0,24(s0)
  4175d4:	8e020018 	lw	v0,24(s0)
  4175d8:	1c400004 	bgtz	v0,4175ec <DiskRecycle_Thread@@Base+0xb00>
  4175dc:	afa20864 	sw	v0,2148(sp)
  4175e0:	0000a021 	move	s4,zero
  4175e4:	10000038 	b	4176c8 <DiskRecycle_Thread@@Base+0xbdc>
  4175e8:	0000f021 	move	s8,zero
  4175ec:	00008821 	move	s1,zero
  4175f0:	0000a021 	move	s4,zero
  4175f4:	0000f021 	move	s8,zero
  4175f8:	00009021 	move	s2,zero
  4175fc:	27b30560 	addiu	s3,sp,1376
  417600:	afb70870 	sw	s7,2160(sp)
  417604:	8e0702b8 	lw	a3,696(s0)
  417608:	02602021 	move	a0,s3
  41760c:	02c02821 	move	a1,s6
  417610:	02a03021 	move	a2,s5
[31m  417614:	8f998124 	lw	t9,sprintf[0m
  417618:	0320f809 	jalr	t9
  41761c:	00f13821 	addu	a3,a3,s1
--
  4176d4:	8fa30868 	lw	v1,2152(sp)
  4176d8:	17c3001f 	bne	s8,v1,417758 <DiskRecycle_Thread@@Base+0xc6c>
  4176dc:	02a02021 	move	a0,s5
  4176e0:	8f9982b4 	lw	t9,-32076(gp)
  4176e4:	0320f809 	jalr	t9
  4176e8:	2405002f 	li	a1,47
  4176ec:	8fbc0018 	lw	gp,24(sp)
  4176f0:	14400004 	bnez	v0,417704 <DiskRecycle_Thread@@Base+0xc18>
  4176f4:	00000000 	nop
  4176f8:	8fa408c0 	lw	a0,2240(sp)
  4176fc:	10000002 	b	417708 <DiskRecycle_Thread@@Base+0xc1c>
  417700:	00000000 	nop
  417704:	24440001 	addiu	a0,v0,1
  417708:	8f9980b8 	lw	t9,-32584(gp)
  41770c:	0320f809 	jalr	t9
  417710:	00000000 	nop
  417714:	8fbc0018 	lw	gp,24(sp)
  417718:	8fa408b8 	lw	a0,2232(sp)
  41771c:	10800004 	beqz	a0,417730 <DiskRecycle_Thread@@Base+0xc44>
  417720:	27b10660 	addiu	s1,sp,1632
  417724:	8fa50894 	lw	a1,2196(sp)
  417728:	10a2000b 	beq	a1,v0,417758 <DiskRecycle_Thread@@Base+0xc6c>
  41772c:	00000000 	nop
  417730:	02202021 	move	a0,s1
  417734:	8fa508bc 	lw	a1,2236(sp)
[31m  417738:	8f998124 	lw	t9,sprintf[0m
  41773c:	0320f809 	jalr	t9
  417740:	02a03021 	move	a2,s5
--
  417e18:	afb101c0 	sw	s1,448(sp)
  417e1c:	afb001bc 	sw	s0,444(sp)
  417e20:	3c1c0044 	lui	gp,0x44
  417e24:	279ca060 	addiu	gp,gp,-24480
  417e28:	afbc0010 	sw	gp,16(sp)
  417e2c:	00808021 	move	s0,a0
  417e30:	8c820010 	lw	v0,16(a0)
  417e34:	14400043 	bnez	v0,417f44 <Disk_mkdir@@Base+0x13c>
  417e38:	00a08821 	move	s1,a1
  417e3c:	8c82002c 	lw	v0,44(a0)
  417e40:	14400041 	bnez	v0,417f48 <Disk_mkdir@@Base+0x140>
  417e44:	2402ffff 	li	v0,-1
  417e48:	8c820028 	lw	v0,40(a0)
  417e4c:	1040003e 	beqz	v0,417f48 <Disk_mkdir@@Base+0x140>
  417e50:	2402ffff 	li	v0,-1
  417e54:	24920048 	addiu	s2,a0,72
  417e58:	8f998320 	lw	t9,-31968(gp)
  417e5c:	0320f809 	jalr	t9
  417e60:	02402021 	move	a0,s2
  417e64:	8fbc0010 	lw	gp,16(sp)
  417e68:	27b300b8 	addiu	s3,sp,184
  417e6c:	02602021 	move	a0,s3
  417e70:	3c050042 	lui	a1,0x42
  417e74:	24a5ea3c 	addiu	a1,a1,-5572
  417e78:	26060078 	addiu	a2,s0,120
[31m  417e7c:	8f998124 	lw	t9,sprintf[0m
  417e80:	0320f809 	jalr	t9
  417e84:	02203821 	move	a3,s1
--
  417f4c:	8fb301c8 	lw	s3,456(sp)
  417f50:	8fb201c4 	lw	s2,452(sp)
  417f54:	8fb101c0 	lw	s1,448(sp)
  417f58:	8fb001bc 	lw	s0,444(sp)
  417f5c:	03e00008 	jr	ra
  417f60:	27bd01d0 	addiu	sp,sp,464

00417f64 <Disk_cpmv@@Base>:
  417f64:	27bdfc30 	addiu	sp,sp,-976
  417f68:	afbf03cc 	sw	ra,972(sp)
  417f6c:	afb403c8 	sw	s4,968(sp)
  417f70:	afb303c4 	sw	s3,964(sp)
  417f74:	afb203c0 	sw	s2,960(sp)
  417f78:	afb103bc 	sw	s1,956(sp)
  417f7c:	afb003b8 	sw	s0,952(sp)
  417f80:	3c1c0044 	lui	gp,0x44
  417f84:	279ca060 	addiu	gp,gp,-24480
  417f88:	afbc0010 	sw	gp,16(sp)
  417f8c:	00808021 	move	s0,a0
  417f90:	00a09021 	move	s2,a1
  417f94:	10e0000a 	beqz	a3,417fc0 <Disk_cpmv@@Base+0x5c>
  417f98:	00c09821 	move	s3,a2
  417f9c:	27a400b8 	addiu	a0,sp,184
  417fa0:	3c050042 	lui	a1,0x42
  417fa4:	24a51094 	addiu	a1,a1,4244
[31m  417fa8:	8f998124 	lw	t9,sprintf[0m
  417fac:	0320f809 	jalr	t9
  417fb0:	02403021 	move	a2,s2
  417fb4:	8fbc0010 	lw	gp,16(sp)
  417fb8:	10000009 	b	417fe0 <Disk_cpmv@@Base+0x7c>
  417fbc:	26110048 	addiu	s1,s0,72
  417fc0:	27a400b8 	addiu	a0,sp,184
  417fc4:	3c050042 	lui	a1,0x42
  417fc8:	24a5109c 	addiu	a1,a1,4252
[31m  417fcc:	8f998124 	lw	t9,sprintf[0m
  417fd0:	0320f809 	jalr	t9
  417fd4:	02403021 	move	a2,s2
--
  418008:	02402021 	move	a0,s2
  41800c:	8f9983b0 	lw	t9,-31824(gp)
  418010:	0320f809 	jalr	t9
  418014:	27a50018 	addiu	a1,sp,24
  418018:	8fbc0010 	lw	gp,16(sp)
  41801c:	1440004d 	bnez	v0,418154 <Disk_cpmv@@Base+0x1f0>
  418020:	00000000 	nop
  418024:	8fb20050 	lw	s2,80(sp)
  418028:	00129580 	sll	s2,s2,0x16
  41802c:	8fa20054 	lw	v0,84(sp)
  418030:	00021282 	srl	v0,v0,0xa
  418034:	02429025 	or	s2,s2,v0
  418038:	8e020000 	lw	v0,0(s0)
  41803c:	00521023 	subu	v0,v0,s2
  418040:	ae020000 	sw	v0,0(s0)
  418044:	8e02003c 	lw	v0,60(s0)
  418048:	10400004 	beqz	v0,41805c <Disk_cpmv@@Base+0xf8>
  41804c:	27b402b8 	addiu	s4,sp,696
  418050:	8e020004 	lw	v0,4(s0)
  418054:	00521021 	addu	v0,v0,s2
  418058:	ae020004 	sw	v0,4(s0)
  41805c:	02802021 	move	a0,s4
  418060:	3c050042 	lui	a1,0x42
  418064:	24a5ea3c 	addiu	a1,a1,-5572
  418068:	26060078 	addiu	a2,s0,120
[31m  41806c:	8f998124 	lw	t9,sprintf[0m
  418070:	0320f809 	jalr	t9
  418074:	02603821 	move	a3,s3
--
  418548:	27a50220 	addiu	a1,sp,544
  41854c:	8fbc0010 	lw	gp,16(sp)
  418550:	14400008 	bnez	v0,418574 <Disk_UpdateSystem@@Base+0xb0>
  418554:	2403ffff 	li	v1,-1
  418558:	8fa30238 	lw	v1,568(sp)
  41855c:	3063f000 	andi	v1,v1,0xf000
  418560:	24024000 	li	v0,16384
  418564:	1462000d 	bne	v1,v0,41859c <Disk_UpdateSystem@@Base+0xd8>
  418568:	26120078 	addiu	s2,s0,120
  41856c:	10000023 	b	4185fc <Disk_UpdateSystem@@Base+0x138>
  418570:	24020001 	li	v0,1
  418574:	14430021 	bne	v0,v1,4185fc <Disk_UpdateSystem@@Base+0x138>
  418578:	24020001 	li	v0,1
  41857c:	8f9980d8 	lw	t9,-32552(gp)
  418580:	0320f809 	jalr	t9
  418584:	00000000 	nop
  418588:	8fbc0010 	lw	gp,16(sp)
  41858c:	8c430000 	lw	v1,0(v0)
  418590:	24020002 	li	v0,2
  418594:	14620018 	bne	v1,v0,4185f8 <Disk_UpdateSystem@@Base+0x134>
  418598:	26120078 	addiu	s2,s0,120
  41859c:	27b3001c 	addiu	s3,sp,28
  4185a0:	02602021 	move	a0,s3
  4185a4:	3c050042 	lui	a1,0x42
  4185a8:	24a510a4 	addiu	a1,a1,4260
[31m  4185ac:	8f998124 	lw	t9,sprintf[0m
  4185b0:	0320f809 	jalr	t9
  4185b4:	02403021 	move	a2,s2
  4185b8:	8fbc0010 	lw	gp,16(sp)
  4185bc:	8f998344 	lw	t9,-31932(gp)
  4185c0:	0320f809 	jalr	t9
  4185c4:	02602021 	move	a0,s3
  4185c8:	8fbc0010 	lw	gp,16(sp)
  4185cc:	02602021 	move	a0,s3
  4185d0:	3c050042 	lui	a1,0x42
  4185d4:	24a510b0 	addiu	a1,a1,4272
[31m  4185d8:	8f998124 	lw	t9,sprintf[0m
  4185dc:	0320f809 	jalr	t9
  4185e0:	02403021 	move	a2,s2
--
  418b4c:	afb1021c 	sw	s1,540(sp)
  418b50:	afb00218 	sw	s0,536(sp)
  418b54:	3c1c0044 	lui	gp,0x44
  418b58:	279ca060 	addiu	gp,gp,-24480
  418b5c:	afbc0010 	sw	gp,16(sp)
  418b60:	00808021 	move	s0,a0
  418b64:	00a08821 	move	s1,a1
  418b68:	8c820010 	lw	v0,16(a0)
  418b6c:	14400028 	bnez	v0,418c10 <Disk_fopen@@Base+0xd8>
  418b70:	00c09021 	move	s2,a2
  418b74:	8c82002c 	lw	v0,44(a0)
  418b78:	14400025 	bnez	v0,418c10 <Disk_fopen@@Base+0xd8>
  418b7c:	00000000 	nop
  418b80:	8c820028 	lw	v0,40(a0)
  418b84:	10400022 	beqz	v0,418c10 <Disk_fopen@@Base+0xd8>
  418b88:	24930048 	addiu	s3,a0,72
  418b8c:	8f998320 	lw	t9,-31968(gp)
  418b90:	0320f809 	jalr	t9
  418b94:	02602021 	move	a0,s3
  418b98:	8fbc0010 	lw	gp,16(sp)
  418b9c:	27b40018 	addiu	s4,sp,24
  418ba0:	02802021 	move	a0,s4
  418ba4:	3c050042 	lui	a1,0x42
  418ba8:	24a5ea3c 	addiu	a1,a1,-5572
  418bac:	26060078 	addiu	a2,s0,120
[31m  418bb0:	8f998124 	lw	t9,sprintf[0m
  418bb4:	0320f809 	jalr	t9
  418bb8:	02203821 	move	a3,s1
--
  41aed4:	8fbc0010 	lw	gp,16(sp)
  41aed8:	02421021 	addu	v0,s2,v0
  41aedc:	3c030042 	lui	v1,0x42
  41aee0:	8c641974 	lw	a0,6516(v1)
  41aee4:	a8440000 	swl	a0,0(v0)
  41aee8:	b8440003 	swr	a0,3(v0)
  41aeec:	24631974 	addiu	v1,v1,6516
  41aef0:	90630004 	lbu	v1,4(v1)
  41aef4:	a0430004 	sb	v1,4(v0)
  41aef8:	266500a8 	addiu	a1,s3,168
  41aefc:	02a5a823 	subu	s5,s5,a1
  41af00:	26111734 	addiu	s1,s0,5940
  41af04:	02202021 	move	a0,s1
  41af08:	8f998224 	lw	t9,-32220(gp)
  41af0c:	0320f809 	jalr	t9
  41af10:	02a03021 	move	a2,s5
  41af14:	8fbc0010 	lw	gp,16(sp)
  41af18:	0215a821 	addu	s5,s0,s5
  41af1c:	a2a01734 	sb	zero,5940(s5)
  41af20:	82620028 	lb	v0,40(s3)
  41af24:	1040000a 	beqz	v0,41af50 <mp4_Open@@Base+0x298>
  41af28:	260417b4 	addiu	a0,s0,6068
  41af2c:	3c050042 	lui	a1,0x42
  41af30:	24a5197c 	addiu	a1,a1,6524
  41af34:	26660028 	addiu	a2,s3,40
[31m  41af38:	8f998124 	lw	t9,sprintf[0m
  41af3c:	0320f809 	jalr	t9
  41af40:	02203821 	move	a3,s1
  41af44:	8fbc0010 	lw	gp,16(sp)
  41af48:	10000007 	b	41af68 <mp4_Open@@Base+0x2b0>
  41af4c:	00000000 	nop
  41af50:	3c050042 	lui	a1,0x42
  41af54:	24a51988 	addiu	a1,a1,6536
[31m  41af58:	8f998124 	lw	t9,sprintf[0m
  41af5c:	0320f809 	jalr	t9
  41af60:	02203021 	move	a2,s1

[0m
[[0;33m*[0m] Function [0;33msprintf[0m used [0;33m96[0m times [0;33meventd[0m

