[0m
[[0;33m*[0m] Function [0;33mprintf[0m tear down of [0;33mtsa[0m

  4115ec:	8fbc0018 	lw	gp,24(sp)
  4115f0:	8e240004 	lw	a0,4(s1)
  4115f4:	8f99820c 	lw	t9,-32244(gp)
  4115f8:	0320f809 	jalr	t9
  4115fc:	00000000 	nop
  411600:	2402ffff 	li	v0,-1
  411604:	ae220004 	sw	v0,4(s1)
  411608:	8e840404 	lw	a0,1028(s4)
  41160c:	8c9900b8 	lw	t9,184(a0)
  411610:	0320f809 	jalr	t9
  411614:	24050002 	li	a1,2
  411618:	8fbc0018 	lw	gp,24(sp)
  41161c:	0441ffd7 	bgez	v0,41157c <proc_accept_clntcb@@Base+0x1f4>
  411620:	2402ec91 	li	v0,-4975
  411624:	8f998044 	lw	t9,-32700(gp)
  411628:	02802021 	move	a0,s4
  41162c:	0320f809 	jalr	t9
  411630:	2410fc1a 	li	s0,-998
  411634:	8fbc0018 	lw	gp,24(sp)
  411638:	1000ff63 	b	4113c8 <proc_accept_clntcb@@Base+0x40>
  41163c:	3c070042 	lui	a3,0x42
  411640:	2410ec91 	li	s0,-4975
  411644:	3c130043 	lui	s3,0x43
  411648:	1000ff5e 	b	4113c4 <proc_accept_clntcb@@Base+0x3c>
  41164c:	3c120042 	lui	s2,0x42
[31m  411650:	8f99833c 	lw	t9,printf[0m
  411654:	24848bc0 	addiu	a0,a0,-29760
  411658:	0320f809 	jalr	t9
--
  413e74:	02078025 	or	s0,s0,a3
  413e78:	00021202 	srl	v0,v0,0x8
  413e7c:	02038025 	or	s0,s0,v1
  413e80:	3042ff00 	andi	v0,v0,0xff00
  413e84:	02028025 	or	s0,s0,v0
  413e88:	0320f809 	jalr	t9
  413e8c:	02003821 	move	a3,s0
  413e90:	02802021 	move	a0,s4
  413e94:	02602821 	move	a1,s3
  413e98:	8fbc0020 	lw	gp,32(sp)
  413e9c:	02003021 	move	a2,s0
  413ea0:	8fbf003c 	lw	ra,60(sp)
  413ea4:	8fb40038 	lw	s4,56(sp)
  413ea8:	8fb30034 	lw	s3,52(sp)
  413eac:	8fb20030 	lw	s2,48(sp)
  413eb0:	8fb1002c 	lw	s1,44(sp)
  413eb4:	8fb00028 	lw	s0,40(sp)
  413eb8:	08104ef4 	j	413bd0 <tsacmd_init@@Base+0xe8>
  413ebc:	27bd0040 	addiu	sp,sp,64
  413ec0:	27bdffe0 	addiu	sp,sp,-32
  413ec4:	afbf001c 	sw	ra,28(sp)
  413ec8:	3c1c0043 	lui	gp,0x43
  413ecc:	279c2230 	addiu	gp,gp,8752
  413ed0:	afbc0010 	sw	gp,16(sp)
  413ed4:	00802821 	move	a1,a0
[31m  413ed8:	8f99833c 	lw	t9,printf[0m
  413edc:	3c040042 	lui	a0,0x42
  413ee0:	0320f809 	jalr	t9
--
  413ef4:	0320f809 	jalr	t9
  413ef8:	2484951c 	addiu	a0,a0,-27364
  413efc:	3c040042 	lui	a0,0x42
  413f00:	8fbc0010 	lw	gp,16(sp)
  413f04:	8f9982cc 	lw	t9,-32052(gp)
  413f08:	0320f809 	jalr	t9
  413f0c:	248495dc 	addiu	a0,a0,-27172
  413f10:	3c040042 	lui	a0,0x42
  413f14:	8fbc0010 	lw	gp,16(sp)
  413f18:	8f9982cc 	lw	t9,-32052(gp)
  413f1c:	0320f809 	jalr	t9
  413f20:	2484964c 	addiu	a0,a0,-27060
  413f24:	3c040042 	lui	a0,0x42
  413f28:	8fbc0010 	lw	gp,16(sp)
  413f2c:	8f9982cc 	lw	t9,-32052(gp)
  413f30:	0320f809 	jalr	t9
  413f34:	24849684 	addiu	a0,a0,-27004
  413f38:	3c040042 	lui	a0,0x42
  413f3c:	8fbc0010 	lw	gp,16(sp)
  413f40:	8f9982cc 	lw	t9,-32052(gp)
  413f44:	0320f809 	jalr	t9
  413f48:	248496a0 	addiu	a0,a0,-26976
  413f4c:	3c040042 	lui	a0,0x42
  413f50:	8fbc0010 	lw	gp,16(sp)
  413f54:	248496c4 	addiu	a0,a0,-26940
[31m  413f58:	8f99833c 	lw	t9,printf[0m
  413f5c:	0320f809 	jalr	t9
  413f60:	240501bb 	li	a1,443
  413f64:	3c040042 	lui	a0,0x42
  413f68:	8fbc0010 	lw	gp,16(sp)
  413f6c:	2484970c 	addiu	a0,a0,-26868
[31m  413f70:	8f99833c 	lw	t9,printf[0m
  413f74:	0320f809 	jalr	t9
  413f78:	24050050 	li	a1,80
  413f7c:	3c040042 	lui	a0,0x42
  413f80:	8fbc0010 	lw	gp,16(sp)
  413f84:	24849750 	addiu	a0,a0,-26800
[31m  413f88:	8f99833c 	lw	t9,printf[0m
  413f8c:	0320f809 	jalr	t9
  413f90:	24050100 	li	a1,256
  413f94:	3c040042 	lui	a0,0x42
  413f98:	8fbc0010 	lw	gp,16(sp)
  413f9c:	248497a8 	addiu	a0,a0,-26712
  413fa0:	8fbf001c 	lw	ra,28(sp)
  413fa4:	24050100 	li	a1,256
[31m  413fa8:	8f99833c 	lw	t9,printf[0m
  413fac:	03200008 	jr	t9
  413fb0:	27bd0020 	addiu	sp,sp,32
--
  414ac4:	0320f809 	jalr	t9
  414ac8:	24a599dc 	addiu	a1,a1,-26148
  414acc:	3c030043 	lui	v1,0x43
  414ad0:	8fbc0038 	lw	gp,56(sp)
  414ad4:	1000ff83 	b	4148e4 <initLog@@Base+0x474>
  414ad8:	ac625710 	sw	v0,22288(v1)
  414adc:	14a20012 	bne	a1,v0,414b28 <initLog@@Base+0x6b8>
  414ae0:	3c100043 	lui	s0,0x43
  414ae4:	8e025710 	lw	v0,22288(s0)
  414ae8:	1040000f 	beqz	v0,414b28 <initLog@@Base+0x6b8>
  414aec:	00000000 	nop
  414af0:	3c040043 	lui	a0,0x43
  414af4:	00402821 	move	a1,v0
  414af8:	8f998070 	lw	t9,-32656(gp)
  414afc:	24845738 	addiu	a0,a0,22328
  414b00:	0320f809 	jalr	t9
  414b04:	00000000 	nop
  414b08:	8fbc0038 	lw	gp,56(sp)
  414b0c:	8e045710 	lw	a0,22288(s0)
  414b10:	8f998274 	lw	t9,-32140(gp)
  414b14:	0320f809 	jalr	t9
  414b18:	00000000 	nop
  414b1c:	8fbc0038 	lw	gp,56(sp)
  414b20:	1000ffa5 	b	4149b8 <initLog@@Base+0x548>
  414b24:	00000000 	nop
[31m  414b28:	8f99833c 	lw	t9,printf[0m
  414b2c:	3c040042 	lui	a0,0x42
  414b30:	0320f809 	jalr	t9
--
  41508c:	8fb00080 	lw	s0,128(sp)
  415090:	03e00008 	jr	ra
  415094:	27bd00a8 	addiu	sp,sp,168
  415098:	8fbf00a4 	lw	ra,164(sp)
  41509c:	2402ffff 	li	v0,-1
  4150a0:	8fbe00a0 	lw	s8,160(sp)
  4150a4:	8fb7009c 	lw	s7,156(sp)
  4150a8:	8fb60098 	lw	s6,152(sp)
  4150ac:	8fb50094 	lw	s5,148(sp)
  4150b0:	8fb40090 	lw	s4,144(sp)
  4150b4:	8fb3008c 	lw	s3,140(sp)
  4150b8:	8fb20088 	lw	s2,136(sp)
  4150bc:	8fb10084 	lw	s1,132(sp)
  4150c0:	8fb00080 	lw	s0,128(sp)
  4150c4:	03e00008 	jr	ra
  4150c8:	27bd00a8 	addiu	sp,sp,168
  4150cc:	00000000 	nop

004150d0 <dxSys_showinfo@@Base>:
  4150d0:	27bdffd8 	addiu	sp,sp,-40
  4150d4:	afbf0024 	sw	ra,36(sp)
  4150d8:	3c1c0043 	lui	gp,0x43
  4150dc:	279c2230 	addiu	gp,gp,8752
  4150e0:	afbc0018 	sw	gp,24(sp)
  4150e4:	00801821 	move	v1,a0
[31m  4150e8:	8f99833c 	lw	t9,printf[0m
  4150ec:	3c040042 	lui	a0,0x42
  4150f0:	00a01021 	move	v0,a1
--
  4152e8:	2402ffff 	li	v0,-1
  4152ec:	0011100a 	0x11100a
  4152f0:	8fbf004c 	lw	ra,76(sp)
  4152f4:	8fb10048 	lw	s1,72(sp)
  4152f8:	8fb00044 	lw	s0,68(sp)
  4152fc:	03e00008 	jr	ra
  415300:	27bd0050 	addiu	sp,sp,80
  415304:	27bdffe0 	addiu	sp,sp,-32
  415308:	afbf001c 	sw	ra,28(sp)
  41530c:	afb00018 	sw	s0,24(sp)
  415310:	3c1c0043 	lui	gp,0x43
  415314:	279c2230 	addiu	gp,gp,8752
  415318:	afbc0010 	sw	gp,16(sp)
  41531c:	24040001 	li	a0,1
  415320:	8f998224 	lw	t9,-32220(gp)
  415324:	0320f809 	jalr	t9
  415328:	24050010 	li	a1,16
  41532c:	8fbc0010 	lw	gp,16(sp)
  415330:	10400006 	beqz	v0,41534c <dxThread_start@@Base+0x104>
  415334:	00408021 	move	s0,v0
  415338:	02001021 	move	v0,s0
  41533c:	8fbf001c 	lw	ra,28(sp)
  415340:	8fb00018 	lw	s0,24(sp)
  415344:	03e00008 	jr	ra
  415348:	27bd0020 	addiu	sp,sp,32
[31m  41534c:	8f99833c 	lw	t9,printf[0m
  415350:	3c040042 	lui	a0,0x42
  415354:	0320f809 	jalr	t9

[0m
[[0;33m*[0m] Function [0;33mprintf[0m used [0;33m9[0m times [0;33mtsa[0m

